
========================================================================

** ELF Header Information

    File Name: .\obj\Smpl_CAN.axf

    Machine class: ELFCLASS32 (32-bit)
    Data encoding: ELFDATA2LSB (Little endian)
    Header version: EV_CURRENT (Current version)
    Operating System ABI: none
    ABI Version: 0
    File Type: ET_EXEC (Executable) (2)
    Machine: EM_ARM (ARM)

    Image Entry point: 0x00000191
    Flags: EF_ARM_HASENTRY (0x05000002)

    ARM ELF revision: 5 (ABI version 2)

    Built with
    ARM C/C++ Compiler, 4.1 [Build 481]
    ARM Assembler, 4.1 [Build 481]
    ARM Linker, 4.1 [Build 481] 

    Header size: 52 bytes (0x34)
    Program header entry size: 32 bytes (0x20)
    Section header entry size: 40 bytes (0x28)

    Program header entries: 1
    Section header entries: 16

    Program header offset: 374276 (0x0005b604)
    Section header offset: 374308 (0x0005b624)

    Section header string table index: 15

========================================================================

** Program header #0 (PT_LOAD) [PF_X + PF_W + PF_R + PF_ARM_ENTRY]
    Size : 28640 bytes (27276 bytes in file)
    Virtual address: 0x00000000 (Alignment 8)


========================================================================

** Section #1 'ER_RO' (SHT_PROGBITS) [SHF_ALLOC + SHF_EXECINSTR]
    Size   : 25560 bytes (alignment 8)
    Address: 0x00000000

    $d.realdata
    RESET
    __Vectors
        0x00000000:    20000c08    ...     DCD    536873992
        0x00000004:    00000191    ....    DCD    401
        0x00000008:    000001b1    ....    DCD    433
        0x0000000c:    000001b3    ....    DCD    435
        0x00000010:    00000000    ....    DCD    0
        0x00000014:    00000000    ....    DCD    0
        0x00000018:    00000000    ....    DCD    0
        0x0000001c:    00000000    ....    DCD    0
        0x00000020:    00000000    ....    DCD    0
        0x00000024:    00000000    ....    DCD    0
        0x00000028:    00000000    ....    DCD    0
        0x0000002c:    000001b5    ....    DCD    437
        0x00000030:    00000000    ....    DCD    0
        0x00000034:    00000000    ....    DCD    0
        0x00000038:    000001b7    ....    DCD    439
        0x0000003c:    000001b9    ....    DCD    441
        0x00000040:    00002329    )#..    DCD    9001
        0x00000044:    000001bb    ....    DCD    443
        0x00000048:    000035c9    .5..    DCD    13769
        0x0000004c:    000035ed    .5..    DCD    13805
        0x00000050:    00003611    .6..    DCD    13841
        0x00000054:    0000364d    M6..    DCD    13901
        0x00000058:    000001bb    ....    DCD    443
        0x0000005c:    000001bb    ....    DCD    443
        0x00000060:    000001bb    ....    DCD    443
        0x00000064:    000001bb    ....    DCD    443
        0x00000068:    000001bb    ....    DCD    443
        0x0000006c:    000001bb    ....    DCD    443
        0x00000070:    00003e15    .>..    DCD    15893
        0x00000074:    00003e51    Q>..    DCD    15953
        0x00000078:    00003a75    u:..    DCD    14965
        0x0000007c:    00003ad9    .:..    DCD    15065
        0x00000080:    00003b3d    =;..    DCD    15165
        0x00000084:    00003ba1    .;..    DCD    15265
        0x00000088:    000036f9    .6..    DCD    14073
        0x0000008c:    00003771    q7..    DCD    14193
        0x00000090:    00002425    %$..    DCD    9253
        0x00000094:    000001bb    ....    DCD    443
        0x00000098:    000001bb    ....    DCD    443
        0x0000009c:    000001bb    ....    DCD    443
        0x000000a0:    000001bb    ....    DCD    443
        0x000000a4:    000001bb    ....    DCD    443
        0x000000a8:    000001bb    ....    DCD    443
        0x000000ac:    000001bb    ....    DCD    443
        0x000000b0:    00003a4d    M:..    DCD    14925
        0x000000b4:    000021d1    .!..    DCD    8657
        0x000000b8:    000001bb    ....    DCD    443
        0x000000bc:    000001bb    ....    DCD    443
    $t
    !!!main
    __main
        0x000000c0:    f000f802    ....    BL       __scatterload ; 0xc8
        0x000000c4:    f000f855    ..U.    BL       __rt_entry ; 0x172
    !!!scatter
    __scatterload
    __scatterload_rt2
    __scatterload_rt2_thumb_only
        0x000000c8:    a00c        ..      ADR      r0,{pc}+0x34 ; 0xfc
        0x000000ca:    c830        0.      LDM      r0!,{r4,r5}
        0x000000cc:    3808        .8      SUBS     r0,r0,#8
        0x000000ce:    1824        $.      ADDS     r4,r4,r0
        0x000000d0:    182d        -.      ADDS     r5,r5,r0
        0x000000d2:    46a2        .F      MOV      r10,r4
        0x000000d4:    1e67        g.      SUBS     r7,r4,#1
        0x000000d6:    46ab        .F      MOV      r11,r5
    __scatterload_null
        0x000000d8:    4654        TF      MOV      r4,r10
        0x000000da:    465d        ]F      MOV      r5,r11
        0x000000dc:    42ac        .B      CMP      r4,r5
        0x000000de:    d101        ..      BNE      0xe4 ; __scatterload_null + 12
        0x000000e0:    f000f847    ..G.    BL       __rt_entry ; 0x172
        0x000000e4:    467e        ~F      MOV      r6,pc
        0x000000e6:    3e0f        .>      SUBS     r6,r6,#0xf
        0x000000e8:    cc0f        ..      LDM      r4!,{r0-r3}
        0x000000ea:    46b6        .F      MOV      lr,r6
        0x000000ec:    2601        .&      MOVS     r6,#1
        0x000000ee:    4233        3B      TST      r3,r6
        0x000000f0:    d000        ..      BEQ      0xf4 ; __scatterload_null + 28
        0x000000f2:    1afb        ..      SUBS     r3,r7,r3
        0x000000f4:    46a2        .F      MOV      r10,r4
        0x000000f6:    46ab        .F      MOV      r11,r5
        0x000000f8:    4333        3C      ORRS     r3,r3,r6
        0x000000fa:    4718        .G      BX       r3
    $d
        0x000000fc:    000062a0    .b..    DCD    25248
        0x00000100:    000062c0    .b..    DCD    25280
    $t
    !!handler_copy
    __scatterload_copy
        0x00000104:    3a10        .:      SUBS     r2,r2,#0x10
        0x00000106:    d302        ..      BCC      0x10e ; __scatterload_copy + 10
        0x00000108:    c878        x.      LDM      r0!,{r3-r6}
        0x0000010a:    c178        x.      STM      r1!,{r3-r6}
        0x0000010c:    d8fa        ..      BHI      __scatterload_copy ; 0x104
        0x0000010e:    0752        R.      LSLS     r2,r2,#29
        0x00000110:    d301        ..      BCC      0x116 ; __scatterload_copy + 18
        0x00000112:    c830        0.      LDM      r0!,{r4,r5}
        0x00000114:    c130        0.      STM      r1!,{r4,r5}
        0x00000116:    d501        ..      BPL      0x11c ; __scatterload_copy + 24
        0x00000118:    6804        .h      LDR      r4,[r0,#0]
        0x0000011a:    600c        .`      STR      r4,[r1,#0]
        0x0000011c:    4770        pG      BX       lr
        0x0000011e:    0000        ..      MOVS     r0,r0
    !!handler_zi
    __scatterload_zeroinit
        0x00000120:    2300        .#      MOVS     r3,#0
        0x00000122:    2400        .$      MOVS     r4,#0
        0x00000124:    2500        .%      MOVS     r5,#0
        0x00000126:    2600        .&      MOVS     r6,#0
        0x00000128:    3a10        .:      SUBS     r2,r2,#0x10
        0x0000012a:    d301        ..      BCC      0x130 ; __scatterload_zeroinit + 16
        0x0000012c:    c178        x.      STM      r1!,{r3-r6}
        0x0000012e:    d8fb        ..      BHI      0x128 ; __scatterload_zeroinit + 8
        0x00000130:    0752        R.      LSLS     r2,r2,#29
        0x00000132:    d300        ..      BCC      0x136 ; __scatterload_zeroinit + 22
        0x00000134:    c130        0.      STM      r1!,{r4,r5}
        0x00000136:    d500        ..      BPL      0x13a ; __scatterload_zeroinit + 26
        0x00000138:    600b        .`      STR      r3,[r1,#0]
        0x0000013a:    4770        pG      BX       lr
    .ARM.Collect$$_printf_percent$$00000000
    _printf_percent
        0x0000013c:    b510        ..      PUSH     {r4,lr}
    .ARM.Collect$$_printf_percent$$00000003
    _printf_f
        0x0000013e:    2966        f)      CMP      r1,#0x66
        0x00000140:    d102        ..      BNE      _printf_d ; 0x148
        0x00000142:    f005ff87    ....    BL       _printf_fp_dec ; 0x6054
        0x00000146:    bd10        ..      POP      {r4,pc}
    .ARM.Collect$$_printf_percent$$00000009
    _printf_d
        0x00000148:    2964        d)      CMP      r1,#0x64
        0x0000014a:    d102        ..      BNE      _printf_percent_end ; 0x152
        0x0000014c:    f000f866    ..f.    BL       _printf_int_dec ; 0x21c
        0x00000150:    bd10        ..      POP      {r4,pc}
    .ARM.Collect$$_printf_percent$$00000017
    _printf_percent_end
        0x00000152:    2000        .       MOVS     r0,#0
        0x00000154:    bd10        ..      POP      {r4,pc}
    .ARM.Collect$$libinit$$00000000
    __rt_lib_init
        0x00000156:    b51f        ..      PUSH     {r0-r4,lr}
        0x00000158:    46c0        .F      MOV      r8,r8
        0x0000015a:    46c0        .F      MOV      r8,r8
    .ARM.Collect$$libinit$$00000006
    .ARM.Collect$$libinit$$00000008
    .ARM.Collect$$libinit$$0000000A
    .ARM.Collect$$libinit$$0000000B
    __rt_lib_init_heap_1
    __rt_lib_init_lc_common
    __rt_lib_init_rand_1
    __rt_lib_init_user_alloc_1
        0x0000015c:    f001fbea    ....    BL       __rt_locale ; 0x1934
        0x00000160:    0004        ..      MOVS     r4,r0
    .ARM.Collect$$libinit$$0000000D
    .ARM.Collect$$libinit$$0000000F
    .ARM.Collect$$libinit$$00000011
    .ARM.Collect$$libinit$$00000012
    __rt_lib_init_lc_collate_1
    __rt_lib_init_lc_ctype_1
    __rt_lib_init_lc_monetary_1
    __rt_lib_init_lc_numeric_2
        0x00000162:    2000        .       MOVS     r0,#0
        0x00000164:    2100        .!      MOVS     r1,#0
        0x00000166:    f005fe03    ....    BL       _get_lc_numeric ; 0x5d70
        0x0000016a:    60e0        .`      STR      r0,[r4,#0xc]
    .ARM.Collect$$libinit$$00000013
    .ARM.Collect$$libinit$$00000015
    .ARM.Collect$$libinit$$00000017
    .ARM.Collect$$libinit$$00000019
    .ARM.Collect$$libinit$$0000001B
    .ARM.Collect$$libinit$$0000001D
    .ARM.Collect$$libinit$$0000001F
    .ARM.Collect$$libinit$$00000021
    .ARM.Collect$$libinit$$00000028
    .ARM.Collect$$libinit$$0000002A
    .ARM.Collect$$libinit$$0000002C
    .ARM.Collect$$libinit$$0000002E
    .ARM.Collect$$libinit$$0000002F
    __rt_lib_init_alloca_1
    __rt_lib_init_argv_1
    __rt_lib_init_atexit_1
    __rt_lib_init_clock_1
    __rt_lib_init_cpp_1
    __rt_lib_init_exceptions_1
    __rt_lib_init_fp_trap_1
    __rt_lib_init_getenv_1
    __rt_lib_init_lc_numeric_1
    __rt_lib_init_lc_time_1
    __rt_lib_init_return
    __rt_lib_init_signal_1
    __rt_lib_init_stdio_1
        0x0000016c:    bd1f        ..      POP      {r0-r4,pc}
    .ARM.Collect$$libshutdown$$00000000
    __rt_lib_shutdown
        0x0000016e:    b510        ..      PUSH     {r4,lr}
    .ARM.Collect$$libshutdown$$00000003
    .ARM.Collect$$libshutdown$$00000006
    .ARM.Collect$$libshutdown$$00000009
    .ARM.Collect$$libshutdown$$0000000B
    .ARM.Collect$$libshutdown$$0000000E
    .ARM.Collect$$libshutdown$$0000000F
    __rt_lib_shutdown_fp_trap_1
    __rt_lib_shutdown_heap_1
    __rt_lib_shutdown_return
    __rt_lib_shutdown_signal_1
    __rt_lib_shutdown_stdio_1
    __rt_lib_shutdown_user_alloc_1
        0x00000170:    bd10        ..      POP      {r4,pc}
    .ARM.Collect$$rtentry$$00000000
    .ARM.Collect$$rtentry$$00000002
    .ARM.Collect$$rtentry$$00000004
    __rt_entry
    __rt_entry_presh_1
    __rt_entry_sh
        0x00000172:    f001ff8f    ....    BL       __user_setup_stackheap ; 0x2094
        0x00000176:    4611        .F      MOV      r1,r2
    .ARM.Collect$$rtentry$$00000009
    .ARM.Collect$$rtentry$$0000000A
    __rt_entry_li
    __rt_entry_postsh_1
        0x00000178:    f7ffffed    ....    BL       __rt_lib_init ; 0x156
    .ARM.Collect$$rtentry$$0000000C
    .ARM.Collect$$rtentry$$0000000D
    __rt_entry_main
    __rt_entry_postli_1
        0x0000017c:    f004ff9c    ....    BL       main ; 0x50b8
        0x00000180:    f001ffa7    ....    BL       exit ; 0x20d2
    .ARM.Collect$$rtexit$$00000000
    __rt_exit
        0x00000184:    b403        ..      PUSH     {r0,r1}
    .ARM.Collect$$rtexit$$00000002
    .ARM.Collect$$rtexit$$00000003
    __rt_exit_ls
    __rt_exit_prels_1
        0x00000186:    f7fffff2    ....    BL       __rt_lib_shutdown ; 0x16e
    .ARM.Collect$$rtexit$$00000004
    __rt_exit_exit
        0x0000018a:    bc03        ..      POP      {r0,r1}
        0x0000018c:    f002f818    ....    BL       _sys_exit ; 0x21c0
    .text
    Reset_Handler
        0x00000190:    480d        .H      LDR      r0,[pc,#52] ; [0x1c8] = 0x50000100
        0x00000192:    490e        .I      LDR      r1,[pc,#56] ; [0x1cc] = 0x59
        0x00000194:    6001        .`      STR      r1,[r0,#0]
        0x00000196:    490e        .I      LDR      r1,[pc,#56] ; [0x1d0] = 0x16
        0x00000198:    6001        .`      STR      r1,[r0,#0]
        0x0000019a:    490e        .I      LDR      r1,[pc,#56] ; [0x1d4] = 0x88
        0x0000019c:    6001        .`      STR      r1,[r0,#0]
        0x0000019e:    4a0e        .J      LDR      r2,[pc,#56] ; [0x1d8] = 0x50000024
        0x000001a0:    490e        .I      LDR      r1,[pc,#56] ; [0x1dc] = 0x5aa5
        0x000001a2:    6011        .`      STR      r1,[r2,#0]
        0x000001a4:    2100        .!      MOVS     r1,#0
        0x000001a6:    6001        .`      STR      r1,[r0,#0]
        0x000001a8:    480d        .H      LDR      r0,[pc,#52] ; [0x1e0] = 0x3e11
        0x000001aa:    4780        .G      BLX      r0
        0x000001ac:    480d        .H      LDR      r0,[pc,#52] ; [0x1e4] = 0xc1
        0x000001ae:    4700        .G      BX       r0
    NMI_Handler
        0x000001b0:    e7fe        ..      B        NMI_Handler ; 0x1b0
    HardFault_Handler
        0x000001b2:    e7fe        ..      B        HardFault_Handler ; 0x1b2
    SVC_Handler
        0x000001b4:    e7fe        ..      B        SVC_Handler ; 0x1b4
    PendSV_Handler
        0x000001b6:    e7fe        ..      B        PendSV_Handler ; 0x1b6
    SysTick_Handler
        0x000001b8:    e7fe        ..      B        SysTick_Handler ; 0x1b8
    Default_Handler
    ACMP_IRQHandler
    I2S_IRQHandler
    PDMA_IRQHandler
    PS2_IRQHandler
    PWMA_IRQHandler
    PWMB_IRQHandler
    RTC_IRQHandler
    TMR0_IRQHandler
    TMR1_IRQHandler
    TMR2_IRQHandler
    TMR3_IRQHandler
    USBD_IRQHandler
    WDT_IRQHandler
        0x000001ba:    e7fe        ..      B        Default_Handler ; 0x1ba
    __user_initial_stackheap
        0x000001bc:    480a        .H      LDR      r0,[pc,#40] ; [0x1e8] = 0x20000808
        0x000001be:    490b        .I      LDR      r1,[pc,#44] ; [0x1ec] = 0x20000c08
        0x000001c0:    4a09        .J      LDR      r2,[pc,#36] ; [0x1e8] = 0x20000808
        0x000001c2:    4b0b        .K      LDR      r3,[pc,#44] ; [0x1f0] = 0x20000808
        0x000001c4:    4770        pG      BX       lr
    $d
        0x000001c6:    0000        ..      DCW    0
        0x000001c8:    50000100    ...P    DCD    1342177536
        0x000001cc:    00000059    Y...    DCD    89
        0x000001d0:    00000016    ....    DCD    22
        0x000001d4:    00000088    ....    DCD    136
        0x000001d8:    50000024    $..P    DCD    1342177316
        0x000001dc:    00005aa5    .Z..    DCD    23205
        0x000001e0:    00003e11    .>..    DCD    15889
        0x000001e4:    000000c1    ....    DCD    193
        0x000001e8:    20000808    ...     DCD    536872968
        0x000001ec:    20000c08    ...     DCD    536873992
        0x000001f0:    20000808    ...     DCD    536872968
    $t
    .text
    __2sprintf
        0x000001f4:    b40f        ..      PUSH     {r0-r3}
        0x000001f6:    b51c        ..      PUSH     {r2-r4,lr}
        0x000001f8:    4b07        .K      LDR      r3,[pc,#28] ; [0x218] = 0x1549
        0x000001fa:    aa06        ..      ADD      r2,sp,#0x18
        0x000001fc:    447b        {D      ADD      r3,r3,pc
        0x000001fe:    4669        iF      MOV      r1,sp
        0x00000200:    9000        ..      STR      r0,[sp,#0]
        0x00000202:    9805        ..      LDR      r0,[sp,#0x14]
        0x00000204:    f001fa8d    ....    BL       _printf_char_common ; 0x1722
        0x00000208:    2000        .       MOVS     r0,#0
        0x0000020a:    4669        iF      MOV      r1,sp
        0x0000020c:    f001fa9c    ....    BL       _sputc ; 0x1748
        0x00000210:    bc1c        ..      POP      {r2-r4}
        0x00000212:    bc08        ..      POP      {r3}
        0x00000214:    b004        ..      ADD      sp,sp,#0x10
        0x00000216:    4718        .G      BX       r3
    $d
        0x00000218:    00001549    I...    DCD    5449
    $t
    .text
    _printf_int_dec
        0x0000021c:    b5f7        ..      PUSH     {r0-r2,r4-r7,lr}
        0x0000021e:    2600        .&      MOVS     r6,#0
        0x00000220:    2975        u)      CMP      r1,#0x75
        0x00000222:    6810        .h      LDR      r0,[r2,#0]
        0x00000224:    9900        ..      LDR      r1,[sp,#0]
        0x00000226:    a514        ..      ADR      r5,{pc}+0x52 ; 0x278
        0x00000228:    d011        ..      BEQ      0x24e ; _printf_int_dec + 50
        0x0000022a:    46c0        .F      MOV      r8,r8
        0x0000022c:    46c0        .F      MOV      r8,r8
        0x0000022e:    2800        .(      CMP      r0,#0
        0x00000230:    da02        ..      BGE      0x238 ; _printf_int_dec + 28
        0x00000232:    4240        @B      RSBS     r0,r0,#0
        0x00000234:    a511        ..      ADR      r5,{pc}+0x48 ; 0x27c
        0x00000236:    e008        ..      B        0x24a ; _printf_int_dec + 46
        0x00000238:    9900        ..      LDR      r1,[sp,#0]
        0x0000023a:    6809        .h      LDR      r1,[r1,#0]
        0x0000023c:    078a        ..      LSLS     r2,r1,#30
        0x0000023e:    d501        ..      BPL      0x244 ; _printf_int_dec + 40
        0x00000240:    a50f        ..      ADR      r5,{pc}+0x40 ; 0x280
        0x00000242:    e002        ..      B        0x24a ; _printf_int_dec + 46
        0x00000244:    0749        I.      LSLS     r1,r1,#29
        0x00000246:    d504        ..      BPL      0x252 ; _printf_int_dec + 54
        0x00000248:    a50e        ..      ADR      r5,{pc}+0x3c ; 0x284
        0x0000024a:    2601        .&      MOVS     r6,#1
        0x0000024c:    e001        ..      B        0x252 ; _printf_int_dec + 54
        0x0000024e:    46c0        .F      MOV      r8,r8
        0x00000250:    46c0        .F      MOV      r8,r8
        0x00000252:    9f00        ..      LDR      r7,[sp,#0]
        0x00000254:    2400        .$      MOVS     r4,#0
        0x00000256:    3724        $7      ADDS     r7,r7,#0x24
        0x00000258:    e004        ..      B        0x264 ; _printf_int_dec + 72
        0x0000025a:    f001fa7a    ..z.    BL       __rt_udiv10 ; 0x1752
        0x0000025e:    3130        01      ADDS     r1,r1,#0x30
        0x00000260:    5539        9U      STRB     r1,[r7,r4]
        0x00000262:    1c64        d.      ADDS     r4,r4,#1
        0x00000264:    2800        .(      CMP      r0,#0
        0x00000266:    d1f8        ..      BNE      0x25a ; _printf_int_dec + 62
        0x00000268:    4633        3F      MOV      r3,r6
        0x0000026a:    462a        *F      MOV      r2,r5
        0x0000026c:    4621        !F      MOV      r1,r4
        0x0000026e:    9800        ..      LDR      r0,[sp,#0]
        0x00000270:    f000fffa    ....    BL       _printf_int_common ; 0x1268
        0x00000274:    bdfe        ..      POP      {r1-r7,pc}
    $d
        0x00000276:    0000        ..      DCW    0
        0x00000278:    00000000    ....    DCD    0
        0x0000027c:    0000002d    -...    DCD    45
        0x00000280:    0000002b    +...    DCD    43
        0x00000284:    00000020     ...    DCD    32
    $t
    .text
    __printf
        0x00000288:    b5f3        ..      PUSH     {r0,r1,r4-r7,lr}
        0x0000028a:    4604        .F      MOV      r4,r0
        0x0000028c:    2000        .       MOVS     r0,#0
        0x0000028e:    b081        ..      SUB      sp,sp,#4
        0x00000290:    e082        ..      B        0x398 ; __printf + 272
        0x00000292:    68e1        .h      LDR      r1,[r4,#0xc]
        0x00000294:    4620         F      MOV      r0,r4
        0x00000296:    4788        .G      BLX      r1
        0x00000298:    2800        .(      CMP      r0,#0
        0x0000029a:    d07f        ..      BEQ      0x39c ; __printf + 276
        0x0000029c:    2825        %(      CMP      r0,#0x25
        0x0000029e:    d002        ..      BEQ      0x2a6 ; __printf + 30
        0x000002a0:    6862        bh      LDR      r2,[r4,#4]
        0x000002a2:    68a1        .h      LDR      r1,[r4,#8]
        0x000002a4:    e075        u.      B        0x392 ; __printf + 266
        0x000002a6:    68e1        .h      LDR      r1,[r4,#0xc]
        0x000002a8:    4620         F      MOV      r0,r4
        0x000002aa:    2600        .&      MOVS     r6,#0
        0x000002ac:    4788        .G      BLX      r1
        0x000002ae:    4605        .F      MOV      r5,r0
        0x000002b0:    2000        .       MOVS     r0,#0
        0x000002b2:    61e0        .a      STR      r0,[r4,#0x1c]
        0x000002b4:    4607        .F      MOV      r7,r0
        0x000002b6:    61a0        .a      STR      r0,[r4,#0x18]
        0x000002b8:    2d2a        *-      CMP      r5,#0x2a
        0x000002ba:    d00b        ..      BEQ      0x2d4 ; __printf + 76
        0x000002bc:    4629        )F      MOV      r1,r5
        0x000002be:    2201        ."      MOVS     r2,#1
        0x000002c0:    3930        09      SUBS     r1,r1,#0x30
        0x000002c2:    290a        .)      CMP      r1,#0xa
        0x000002c4:    d22b        +.      BCS      0x31e ; __printf + 150
        0x000002c6:    2a00        .*      CMP      r2,#0
        0x000002c8:    d029        ).      BEQ      0x31e ; __printf + 150
        0x000002ca:    00b8        ..      LSLS     r0,r7,#2
        0x000002cc:    1900        ..      ADDS     r0,r0,r4
        0x000002ce:    9000        ..      STR      r0,[sp,#0]
        0x000002d0:    6181        .a      STR      r1,[r0,#0x18]
        0x000002d2:    e019        ..      B        0x308 ; __printf + 128
        0x000002d4:    9802        ..      LDR      r0,[sp,#8]
        0x000002d6:    00ba        ..      LSLS     r2,r7,#2
        0x000002d8:    1912        ..      ADDS     r2,r2,r4
        0x000002da:    c802        ..      LDM      r0!,{r1}
        0x000002dc:    6191        .a      STR      r1,[r2,#0x18]
        0x000002de:    9002        ..      STR      r0,[sp,#8]
        0x000002e0:    4620         F      MOV      r0,r4
        0x000002e2:    68e1        .h      LDR      r1,[r4,#0xc]
        0x000002e4:    4788        .G      BLX      r1
        0x000002e6:    2f01        ./      CMP      r7,#1
        0x000002e8:    4605        .F      MOV      r5,r0
        0x000002ea:    d11a        ..      BNE      0x322 ; __printf + 154
        0x000002ec:    69e0        .i      LDR      r0,[r4,#0x1c]
        0x000002ee:    2800        .(      CMP      r0,#0
        0x000002f0:    da22        ".      BGE      0x338 ; __printf + 176
        0x000002f2:    2020                MOVS     r0,#0x20
        0x000002f4:    4386        .C      BICS     r6,r6,r0
        0x000002f6:    e01f        ..      B        0x338 ; __printf + 176
        0x000002f8:    9800        ..      LDR      r0,[sp,#0]
        0x000002fa:    210a        .!      MOVS     r1,#0xa
        0x000002fc:    6980        .i      LDR      r0,[r0,#0x18]
        0x000002fe:    4348        HC      MULS     r0,r1,r0
        0x00000300:    9900        ..      LDR      r1,[sp,#0]
        0x00000302:    1940        @.      ADDS     r0,r0,r5
        0x00000304:    3830        08      SUBS     r0,r0,#0x30
        0x00000306:    6188        .a      STR      r0,[r1,#0x18]
        0x00000308:    4620         F      MOV      r0,r4
        0x0000030a:    68e1        .h      LDR      r1,[r4,#0xc]
        0x0000030c:    4788        .G      BLX      r1
        0x0000030e:    4605        .F      MOV      r5,r0
        0x00000310:    2001        .       MOVS     r0,#1
        0x00000312:    4629        )F      MOV      r1,r5
        0x00000314:    3930        09      SUBS     r1,r1,#0x30
        0x00000316:    290a        .)      CMP      r1,#0xa
        0x00000318:    d201        ..      BCS      0x31e ; __printf + 150
        0x0000031a:    2800        .(      CMP      r0,#0
        0x0000031c:    d1ec        ..      BNE      0x2f8 ; __printf + 112
        0x0000031e:    2f01        ./      CMP      r7,#1
        0x00000320:    d00a        ..      BEQ      0x338 ; __printf + 176
        0x00000322:    2d2e        .-      CMP      r5,#0x2e
        0x00000324:    d108        ..      BNE      0x338 ; __printf + 176
        0x00000326:    4620         F      MOV      r0,r4
        0x00000328:    68e1        .h      LDR      r1,[r4,#0xc]
        0x0000032a:    4788        .G      BLX      r1
        0x0000032c:    4605        .F      MOV      r5,r0
        0x0000032e:    2020                MOVS     r0,#0x20
        0x00000330:    4306        .C      ORRS     r6,r6,r0
        0x00000332:    1c7f        ..      ADDS     r7,r7,#1
        0x00000334:    2f02        ./      CMP      r7,#2
        0x00000336:    dbbf        ..      BLT      0x2b8 ; __printf + 48
        0x00000338:    69a0        .i      LDR      r0,[r4,#0x18]
        0x0000033a:    2800        .(      CMP      r0,#0
        0x0000033c:    da03        ..      BGE      0x346 ; __printf + 190
        0x0000033e:    4240        @B      RSBS     r0,r0,#0
        0x00000340:    61a0        .a      STR      r0,[r4,#0x18]
        0x00000342:    2001        .       MOVS     r0,#1
        0x00000344:    4306        .C      ORRS     r6,r6,r0
        0x00000346:    07f0        ..      LSLS     r0,r6,#31
        0x00000348:    d001        ..      BEQ      0x34e ; __printf + 198
        0x0000034a:    2010        .       MOVS     r0,#0x10
        0x0000034c:    4386        .C      BICS     r6,r6,r0
        0x0000034e:    2d00        .-      CMP      r5,#0
        0x00000350:    d024        $.      BEQ      0x39c ; __printf + 276
        0x00000352:    4628        (F      MOV      r0,r5
        0x00000354:    3841        A8      SUBS     r0,r0,#0x41
        0x00000356:    2819        .(      CMP      r0,#0x19
        0x00000358:    d803        ..      BHI      0x362 ; __printf + 218
        0x0000035a:    2001        .       MOVS     r0,#1
        0x0000035c:    02c0        ..      LSLS     r0,r0,#11
        0x0000035e:    4306        .C      ORRS     r6,r6,r0
        0x00000360:    3520         5      ADDS     r5,r5,#0x20
        0x00000362:    4620         F      MOV      r0,r4
        0x00000364:    6026        &`      STR      r6,[r4,#0]
        0x00000366:    4629        )F      MOV      r1,r5
        0x00000368:    9a02        ..      LDR      r2,[sp,#8]
        0x0000036a:    4616        .F      MOV      r6,r2
        0x0000036c:    f7fffee6    ....    BL       _printf_percent ; 0x13c
        0x00000370:    2800        .(      CMP      r0,#0
        0x00000372:    d00b        ..      BEQ      0x38c ; __printf + 260
        0x00000374:    2801        .(      CMP      r0,#1
        0x00000376:    d006        ..      BEQ      0x386 ; __printf + 254
        0x00000378:    1df6        ..      ADDS     r6,r6,#7
        0x0000037a:    08f0        ..      LSRS     r0,r6,#3
        0x0000037c:    00c0        ..      LSLS     r0,r0,#3
        0x0000037e:    3008        .0      ADDS     r0,r0,#8
        0x00000380:    9002        ..      STR      r0,[sp,#8]
        0x00000382:    e786        ..      B        0x292 ; __printf + 10
        0x00000384:    e00a        ..      B        0x39c ; __printf + 276
        0x00000386:    1d36        6.      ADDS     r6,r6,#4
        0x00000388:    9602        ..      STR      r6,[sp,#8]
        0x0000038a:    e782        ..      B        0x292 ; __printf + 10
        0x0000038c:    6862        bh      LDR      r2,[r4,#4]
        0x0000038e:    4628        (F      MOV      r0,r5
        0x00000390:    68a1        .h      LDR      r1,[r4,#8]
        0x00000392:    4790        .G      BLX      r2
        0x00000394:    6a20         j      LDR      r0,[r4,#0x20]
        0x00000396:    1c40        @.      ADDS     r0,r0,#1
        0x00000398:    6220         b      STR      r0,[r4,#0x20]
        0x0000039a:    e77a        z.      B        0x292 ; __printf + 10
        0x0000039c:    6a20         j      LDR      r0,[r4,#0x20]
        0x0000039e:    bdfe        ..      POP      {r1-r7,pc}
    .text
    strlen
        0x000003a0:    b530        0.      PUSH     {r4,r5,lr}
        0x000003a2:    1c44        D.      ADDS     r4,r0,#1
        0x000003a4:    e003        ..      B        0x3ae ; strlen + 14
        0x000003a6:    7801        .x      LDRB     r1,[r0,#0]
        0x000003a8:    1c40        @.      ADDS     r0,r0,#1
        0x000003aa:    2900        .)      CMP      r1,#0
        0x000003ac:    d00d        ..      BEQ      0x3ca ; strlen + 42
        0x000003ae:    0781        ..      LSLS     r1,r0,#30
        0x000003b0:    d1f9        ..      BNE      0x3a6 ; strlen + 6
        0x000003b2:    4b0b        .K      LDR      r3,[pc,#44] ; [0x3e0] = 0x1010101
        0x000003b4:    01dd        ..      LSLS     r5,r3,#7
        0x000003b6:    c804        ..      LDM      r0!,{r2}
        0x000003b8:    1ad1        ..      SUBS     r1,r2,r3
        0x000003ba:    4391        .C      BICS     r1,r1,r2
        0x000003bc:    4029        )@      ANDS     r1,r1,r5
        0x000003be:    d0fa        ..      BEQ      0x3b6 ; strlen + 22
        0x000003c0:    1b00        ..      SUBS     r0,r0,r4
        0x000003c2:    060a        ..      LSLS     r2,r1,#24
        0x000003c4:    d003        ..      BEQ      0x3ce ; strlen + 46
        0x000003c6:    1ec0        ..      SUBS     r0,r0,#3
        0x000003c8:    bd30        0.      POP      {r4,r5,pc}
        0x000003ca:    1b00        ..      SUBS     r0,r0,r4
        0x000003cc:    bd30        0.      POP      {r4,r5,pc}
        0x000003ce:    040a        ..      LSLS     r2,r1,#16
        0x000003d0:    d001        ..      BEQ      0x3d6 ; strlen + 54
        0x000003d2:    1e80        ..      SUBS     r0,r0,#2
        0x000003d4:    bd30        0.      POP      {r4,r5,pc}
        0x000003d6:    0209        ..      LSLS     r1,r1,#8
        0x000003d8:    d0fc        ..      BEQ      0x3d4 ; strlen + 52
        0x000003da:    1e40        @.      SUBS     r0,r0,#1
        0x000003dc:    bd30        0.      POP      {r4,r5,pc}
    $d
        0x000003de:    0000        ..      DCW    0
        0x000003e0:    01010101    ....    DCD    16843009
    $t
    .text
    __aeabi_uidiv
    __aeabi_uidivmod
        0x000003e4:    2200        ."      MOVS     r2,#0
        0x000003e6:    0903        ..      LSRS     r3,r0,#4
        0x000003e8:    428b        .B      CMP      r3,r1
        0x000003ea:    d32c        ,.      BCC      0x446 ; __aeabi_idiv + 78
        0x000003ec:    0a03        ..      LSRS     r3,r0,#8
        0x000003ee:    428b        .B      CMP      r3,r1
        0x000003f0:    d311        ..      BCC      0x416 ; __aeabi_idiv + 30
        0x000003f2:    2300        .#      MOVS     r3,#0
        0x000003f4:    469c        .F      MOV      r12,r3
        0x000003f6:    e04e        N.      B        0x496 ; __aeabi_idiv + 158
    __aeabi_idiv
    __aeabi_idivmod
        0x000003f8:    4603        .F      MOV      r3,r0
        0x000003fa:    430b        .C      ORRS     r3,r3,r1
        0x000003fc:    d43c        <.      BMI      0x478 ; __aeabi_idiv + 128
        0x000003fe:    2200        ."      MOVS     r2,#0
        0x00000400:    0843        C.      LSRS     r3,r0,#1
        0x00000402:    428b        .B      CMP      r3,r1
        0x00000404:    d331        1.      BCC      0x46a ; __aeabi_idiv + 114
        0x00000406:    0903        ..      LSRS     r3,r0,#4
        0x00000408:    428b        .B      CMP      r3,r1
        0x0000040a:    d31c        ..      BCC      0x446 ; __aeabi_idiv + 78
        0x0000040c:    0a03        ..      LSRS     r3,r0,#8
        0x0000040e:    428b        .B      CMP      r3,r1
        0x00000410:    d301        ..      BCC      0x416 ; __aeabi_idiv + 30
        0x00000412:    4694        .F      MOV      r12,r2
        0x00000414:    e03f        ?.      B        0x496 ; __aeabi_idiv + 158
        0x00000416:    09c3        ..      LSRS     r3,r0,#7
        0x00000418:    428b        .B      CMP      r3,r1
        0x0000041a:    d301        ..      BCC      0x420 ; __aeabi_idiv + 40
        0x0000041c:    01cb        ..      LSLS     r3,r1,#7
        0x0000041e:    1ac0        ..      SUBS     r0,r0,r3
        0x00000420:    4152        RA      ADCS     r2,r2,r2
        0x00000422:    0983        ..      LSRS     r3,r0,#6
        0x00000424:    428b        .B      CMP      r3,r1
        0x00000426:    d301        ..      BCC      0x42c ; __aeabi_idiv + 52
        0x00000428:    018b        ..      LSLS     r3,r1,#6
        0x0000042a:    1ac0        ..      SUBS     r0,r0,r3
        0x0000042c:    4152        RA      ADCS     r2,r2,r2
        0x0000042e:    0943        C.      LSRS     r3,r0,#5
        0x00000430:    428b        .B      CMP      r3,r1
        0x00000432:    d301        ..      BCC      0x438 ; __aeabi_idiv + 64
        0x00000434:    014b        K.      LSLS     r3,r1,#5
        0x00000436:    1ac0        ..      SUBS     r0,r0,r3
        0x00000438:    4152        RA      ADCS     r2,r2,r2
        0x0000043a:    0903        ..      LSRS     r3,r0,#4
        0x0000043c:    428b        .B      CMP      r3,r1
        0x0000043e:    d301        ..      BCC      0x444 ; __aeabi_idiv + 76
        0x00000440:    010b        ..      LSLS     r3,r1,#4
        0x00000442:    1ac0        ..      SUBS     r0,r0,r3
        0x00000444:    4152        RA      ADCS     r2,r2,r2
        0x00000446:    08c3        ..      LSRS     r3,r0,#3
        0x00000448:    428b        .B      CMP      r3,r1
        0x0000044a:    d301        ..      BCC      0x450 ; __aeabi_idiv + 88
        0x0000044c:    00cb        ..      LSLS     r3,r1,#3
        0x0000044e:    1ac0        ..      SUBS     r0,r0,r3
        0x00000450:    4152        RA      ADCS     r2,r2,r2
        0x00000452:    0883        ..      LSRS     r3,r0,#2
        0x00000454:    428b        .B      CMP      r3,r1
        0x00000456:    d301        ..      BCC      0x45c ; __aeabi_idiv + 100
        0x00000458:    008b        ..      LSLS     r3,r1,#2
        0x0000045a:    1ac0        ..      SUBS     r0,r0,r3
        0x0000045c:    4152        RA      ADCS     r2,r2,r2
        0x0000045e:    0843        C.      LSRS     r3,r0,#1
        0x00000460:    428b        .B      CMP      r3,r1
        0x00000462:    d301        ..      BCC      0x468 ; __aeabi_idiv + 112
        0x00000464:    004b        K.      LSLS     r3,r1,#1
        0x00000466:    1ac0        ..      SUBS     r0,r0,r3
        0x00000468:    4152        RA      ADCS     r2,r2,r2
        0x0000046a:    1a41        A.      SUBS     r1,r0,r1
        0x0000046c:    d200        ..      BCS      0x470 ; __aeabi_idiv + 120
        0x0000046e:    4601        .F      MOV      r1,r0
        0x00000470:    4152        RA      ADCS     r2,r2,r2
        0x00000472:    4610        .F      MOV      r0,r2
        0x00000474:    4770        pG      BX       lr
        0x00000476:    e05d        ].      B        0x534 ; __aeabi_idiv + 316
        0x00000478:    0fca        ..      LSRS     r2,r1,#31
        0x0000047a:    d000        ..      BEQ      0x47e ; __aeabi_idiv + 134
        0x0000047c:    4249        IB      RSBS     r1,r1,#0
        0x0000047e:    1003        ..      ASRS     r3,r0,#32
        0x00000480:    d300        ..      BCC      0x484 ; __aeabi_idiv + 140
        0x00000482:    4240        @B      RSBS     r0,r0,#0
        0x00000484:    4053        S@      EORS     r3,r3,r2
        0x00000486:    2200        ."      MOVS     r2,#0
        0x00000488:    469c        .F      MOV      r12,r3
        0x0000048a:    0903        ..      LSRS     r3,r0,#4
        0x0000048c:    428b        .B      CMP      r3,r1
        0x0000048e:    d32d        -.      BCC      0x4ec ; __aeabi_idiv + 244
        0x00000490:    0a03        ..      LSRS     r3,r0,#8
        0x00000492:    428b        .B      CMP      r3,r1
        0x00000494:    d312        ..      BCC      0x4bc ; __aeabi_idiv + 196
        0x00000496:    22fc        ."      MOVS     r2,#0xfc
        0x00000498:    0189        ..      LSLS     r1,r1,#6
        0x0000049a:    ba12        ..      REV      r2,r2
        0x0000049c:    0a03        ..      LSRS     r3,r0,#8
        0x0000049e:    428b        .B      CMP      r3,r1
        0x000004a0:    d30c        ..      BCC      0x4bc ; __aeabi_idiv + 196
        0x000004a2:    0189        ..      LSLS     r1,r1,#6
        0x000004a4:    1192        ..      ASRS     r2,r2,#6
        0x000004a6:    428b        .B      CMP      r3,r1
        0x000004a8:    d308        ..      BCC      0x4bc ; __aeabi_idiv + 196
        0x000004aa:    0189        ..      LSLS     r1,r1,#6
        0x000004ac:    1192        ..      ASRS     r2,r2,#6
        0x000004ae:    428b        .B      CMP      r3,r1
        0x000004b0:    d304        ..      BCC      0x4bc ; __aeabi_idiv + 196
        0x000004b2:    0189        ..      LSLS     r1,r1,#6
        0x000004b4:    d03a        :.      BEQ      0x52c ; __aeabi_idiv + 308
        0x000004b6:    1192        ..      ASRS     r2,r2,#6
        0x000004b8:    e000        ..      B        0x4bc ; __aeabi_idiv + 196
        0x000004ba:    0989        ..      LSRS     r1,r1,#6
        0x000004bc:    09c3        ..      LSRS     r3,r0,#7
        0x000004be:    428b        .B      CMP      r3,r1
        0x000004c0:    d301        ..      BCC      0x4c6 ; __aeabi_idiv + 206
        0x000004c2:    01cb        ..      LSLS     r3,r1,#7
        0x000004c4:    1ac0        ..      SUBS     r0,r0,r3
        0x000004c6:    4152        RA      ADCS     r2,r2,r2
        0x000004c8:    0983        ..      LSRS     r3,r0,#6
        0x000004ca:    428b        .B      CMP      r3,r1
        0x000004cc:    d301        ..      BCC      0x4d2 ; __aeabi_idiv + 218
        0x000004ce:    018b        ..      LSLS     r3,r1,#6
        0x000004d0:    1ac0        ..      SUBS     r0,r0,r3
        0x000004d2:    4152        RA      ADCS     r2,r2,r2
        0x000004d4:    0943        C.      LSRS     r3,r0,#5
        0x000004d6:    428b        .B      CMP      r3,r1
        0x000004d8:    d301        ..      BCC      0x4de ; __aeabi_idiv + 230
        0x000004da:    014b        K.      LSLS     r3,r1,#5
        0x000004dc:    1ac0        ..      SUBS     r0,r0,r3
        0x000004de:    4152        RA      ADCS     r2,r2,r2
        0x000004e0:    0903        ..      LSRS     r3,r0,#4
        0x000004e2:    428b        .B      CMP      r3,r1
        0x000004e4:    d301        ..      BCC      0x4ea ; __aeabi_idiv + 242
        0x000004e6:    010b        ..      LSLS     r3,r1,#4
        0x000004e8:    1ac0        ..      SUBS     r0,r0,r3
        0x000004ea:    4152        RA      ADCS     r2,r2,r2
        0x000004ec:    08c3        ..      LSRS     r3,r0,#3
        0x000004ee:    428b        .B      CMP      r3,r1
        0x000004f0:    d301        ..      BCC      0x4f6 ; __aeabi_idiv + 254
        0x000004f2:    00cb        ..      LSLS     r3,r1,#3
        0x000004f4:    1ac0        ..      SUBS     r0,r0,r3
        0x000004f6:    4152        RA      ADCS     r2,r2,r2
        0x000004f8:    0883        ..      LSRS     r3,r0,#2
        0x000004fa:    428b        .B      CMP      r3,r1
        0x000004fc:    d301        ..      BCC      0x502 ; __aeabi_idiv + 266
        0x000004fe:    008b        ..      LSLS     r3,r1,#2
        0x00000500:    1ac0        ..      SUBS     r0,r0,r3
        0x00000502:    4152        RA      ADCS     r2,r2,r2
        0x00000504:    d2d9        ..      BCS      0x4ba ; __aeabi_idiv + 194
        0x00000506:    0843        C.      LSRS     r3,r0,#1
        0x00000508:    428b        .B      CMP      r3,r1
        0x0000050a:    d301        ..      BCC      0x510 ; __aeabi_idiv + 280
        0x0000050c:    004b        K.      LSLS     r3,r1,#1
        0x0000050e:    1ac0        ..      SUBS     r0,r0,r3
        0x00000510:    4152        RA      ADCS     r2,r2,r2
        0x00000512:    1a41        A.      SUBS     r1,r0,r1
        0x00000514:    d200        ..      BCS      0x518 ; __aeabi_idiv + 288
        0x00000516:    4601        .F      MOV      r1,r0
        0x00000518:    4663        cF      MOV      r3,r12
        0x0000051a:    4152        RA      ADCS     r2,r2,r2
        0x0000051c:    105b        [.      ASRS     r3,r3,#1
        0x0000051e:    4610        .F      MOV      r0,r2
        0x00000520:    d301        ..      BCC      0x526 ; __aeabi_idiv + 302
        0x00000522:    4240        @B      RSBS     r0,r0,#0
        0x00000524:    2b00        .+      CMP      r3,#0
        0x00000526:    d500        ..      BPL      0x52a ; __aeabi_idiv + 306
        0x00000528:    4249        IB      RSBS     r1,r1,#0
        0x0000052a:    4770        pG      BX       lr
        0x0000052c:    4663        cF      MOV      r3,r12
        0x0000052e:    105b        [.      ASRS     r3,r3,#1
        0x00000530:    d300        ..      BCC      0x534 ; __aeabi_idiv + 316
        0x00000532:    4240        @B      RSBS     r0,r0,#0
        0x00000534:    b501        ..      PUSH     {r0,lr}
        0x00000536:    2000        .       MOVS     r0,#0
        0x00000538:    46c0        .F      MOV      r8,r8
        0x0000053a:    46c0        .F      MOV      r8,r8
        0x0000053c:    bd02        ..      POP      {r1,pc}
    .text
    __use_two_region_memory
        0x0000053e:    4770        pG      BX       lr
    __rt_heap_escrow$2region
        0x00000540:    4770        pG      BX       lr
    __rt_heap_expand$2region
        0x00000542:    4770        pG      BX       lr
    .text
    __aeabi_d2f
    _d2f
        0x00000544:    4602        .F      MOV      r2,r0
        0x00000546:    0fc8        ..      LSRS     r0,r1,#31
        0x00000548:    07c0        ..      LSLS     r0,r0,#31
        0x0000054a:    4381        .C      BICS     r1,r1,r0
        0x0000054c:    004b        K.      LSLS     r3,r1,#1
        0x0000054e:    b530        0.      PUSH     {r4,r5,lr}
        0x00000550:    404b        K@      EORS     r3,r3,r1
        0x00000552:    005b        [.      LSLS     r3,r3,#1
        0x00000554:    0d9b        ..      LSRS     r3,r3,#22
        0x00000556:    d020         .      BEQ      0x59a ; __aeabi_d2f + 86
        0x00000558:    2319        .#      MOVS     r3,#0x19
        0x0000055a:    06db        ..      LSLS     r3,r3,#27
        0x0000055c:    18c9        ..      ADDS     r1,r1,r3
        0x0000055e:    2301        .#      MOVS     r3,#1
        0x00000560:    051b        ..      LSLS     r3,r3,#20
        0x00000562:    4299        .B      CMP      r1,r3
        0x00000564:    db20         .      BLT      0x5a8 ; __aeabi_d2f + 100
        0x00000566:    2403        .$      MOVS     r4,#3
        0x00000568:    07a4        ..      LSLS     r4,r4,#30
        0x0000056a:    2504        .%      MOVS     r5,#4
        0x0000056c:    4613        .F      MOV      r3,r2
        0x0000056e:    40ab        .@      LSLS     r3,r3,r5
        0x00000570:    d30b        ..      BCC      0x58a ; __aeabi_d2f + 70
        0x00000572:    2b00        .+      CMP      r3,#0
        0x00000574:    d104        ..      BNE      0x580 ; __aeabi_d2f + 60
        0x00000576:    06eb        ..      LSLS     r3,r5,#27
        0x00000578:    4013        .@      ANDS     r3,r3,r2
        0x0000057a:    009b        ..      LSLS     r3,r3,#2
        0x0000057c:    191b        ..      ADDS     r3,r3,r4
        0x0000057e:    d404        ..      BMI      0x58a ; __aeabi_d2f + 70
        0x00000580:    2401        .$      MOVS     r4,#1
        0x00000582:    0764        d.      LSLS     r4,r4,#29
        0x00000584:    2300        .#      MOVS     r3,#0
        0x00000586:    1912        ..      ADDS     r2,r2,r4
        0x00000588:    4159        YA      ADCS     r1,r1,r3
        0x0000058a:    23ff        .#      MOVS     r3,#0xff
        0x0000058c:    051b        ..      LSLS     r3,r3,#20
        0x0000058e:    4299        .B      CMP      r1,r3
        0x00000590:    d20b        ..      BCS      0x5aa ; __aeabi_d2f + 102
        0x00000592:    00c9        ..      LSLS     r1,r1,#3
        0x00000594:    4301        .C      ORRS     r1,r1,r0
        0x00000596:    0f50        P.      LSRS     r0,r2,#29
        0x00000598:    e009        ..      B        0x5ae ; __aeabi_d2f + 106
        0x0000059a:    02cb        ..      LSLS     r3,r1,#11
        0x0000059c:    d504        ..      BPL      0x5a8 ; __aeabi_d2f + 100
        0x0000059e:    4301        .C      ORRS     r1,r1,r0
        0x000005a0:    0308        ..      LSLS     r0,r1,#12
        0x000005a2:    4302        .C      ORRS     r2,r2,r0
        0x000005a4:    d005        ..      BEQ      0x5b2 ; __aeabi_d2f + 110
        0x000005a6:    4805        .H      LDR      r0,[pc,#20] ; [0x5bc] = 0x7fc00000
        0x000005a8:    bd30        0.      POP      {r4,r5,pc}
        0x000005aa:    21ff        .!      MOVS     r1,#0xff
        0x000005ac:    05c9        ..      LSLS     r1,r1,#23
        0x000005ae:    4308        .C      ORRS     r0,r0,r1
        0x000005b0:    bd30        0.      POP      {r4,r5,pc}
        0x000005b2:    4608        .F      MOV      r0,r1
        0x000005b4:    2107        .!      MOVS     r1,#7
        0x000005b6:    0509        ..      LSLS     r1,r1,#20
        0x000005b8:    4388        .C      BICS     r0,r0,r1
        0x000005ba:    bd30        0.      POP      {r4,r5,pc}
    $d
        0x000005bc:    7fc00000    ....    DCD    2143289344
    $t
    .text
    _dadd1
        0x000005c0:    b5f0        ..      PUSH     {r4-r7,lr}
        0x000005c2:    460c        .F      MOV      r4,r1
        0x000005c4:    1a87        ..      SUBS     r7,r0,r2
        0x000005c6:    419c        .A      SBCS     r4,r4,r3
        0x000005c8:    460d        .F      MOV      r5,r1
        0x000005ca:    1a86        ..      SUBS     r6,r0,r2
        0x000005cc:    419d        .A      SBCS     r5,r5,r3
        0x000005ce:    d203        ..      BCS      0x5d8 ; _dadd1 + 24
        0x000005d0:    1bc0        ..      SUBS     r0,r0,r7
        0x000005d2:    41a1        .A      SBCS     r1,r1,r4
        0x000005d4:    19d2        ..      ADDS     r2,r2,r7
        0x000005d6:    4163        cA      ADCS     r3,r3,r4
        0x000005d8:    0d0d        ..      LSRS     r5,r1,#20
        0x000005da:    0d1f        ..      LSRS     r7,r3,#20
        0x000005dc:    4ec5        .N      LDR      r6,[pc,#788] ; [0x8f4] = 0x7ff
        0x000005de:    1bec        ..      SUBS     r4,r5,r7
        0x000005e0:    43ae        .C      BICS     r6,r6,r5
        0x000005e2:    d05b        [.      BEQ      0x69c ; _dadd1 + 220
        0x000005e4:    057e        ~.      LSLS     r6,r7,#21
        0x000005e6:    0d76        v.      LSRS     r6,r6,#21
        0x000005e8:    d052        R.      BEQ      0x690 ; _dadd1 + 208
        0x000005ea:    052d        -.      LSLS     r5,r5,#20
        0x000005ec:    46ac        .F      MOV      r12,r5
        0x000005ee:    43a9        .C      BICS     r1,r1,r5
        0x000005f0:    02dd        ..      LSLS     r5,r3,#11
        0x000005f2:    2301        .#      MOVS     r3,#1
        0x000005f4:    0aed        ..      LSRS     r5,r5,#11
        0x000005f6:    051b        ..      LSLS     r3,r3,#20
        0x000005f8:    431d        .C      ORRS     r5,r5,r3
        0x000005fa:    2320         #      MOVS     r3,#0x20
        0x000005fc:    1b1b        ..      SUBS     r3,r3,r4
        0x000005fe:    d424        $.      BMI      0x64a ; _dadd1 + 138
        0x00000600:    4616        .F      MOV      r6,r2
        0x00000602:    40e6        .@      LSRS     r6,r6,r4
        0x00000604:    2700        .'      MOVS     r7,#0
        0x00000606:    1830        0.      ADDS     r0,r6,r0
        0x00000608:    414f        OA      ADCS     r7,r7,r1
        0x0000060a:    4629        )F      MOV      r1,r5
        0x0000060c:    40e1        .@      LSRS     r1,r1,r4
        0x0000060e:    187c        |.      ADDS     r4,r7,r1
        0x00000610:    409d        .@      LSLS     r5,r5,r3
        0x00000612:    2100        .!      MOVS     r1,#0
        0x00000614:    1828        (.      ADDS     r0,r5,r0
        0x00000616:    4161        aA      ADCS     r1,r1,r4
        0x00000618:    0d0c        ..      LSRS     r4,r1,#20
        0x0000061a:    d127        '.      BNE      0x66c ; _dadd1 + 172
        0x0000061c:    4461        aD      ADD      r1,r1,r12
        0x0000061e:    409a        .@      LSLS     r2,r2,r3
        0x00000620:    d512        ..      BPL      0x648 ; _dadd1 + 136
        0x00000622:    2300        .#      MOVS     r3,#0
        0x00000624:    1c40        @.      ADDS     r0,r0,#1
        0x00000626:    4159        YA      ADCS     r1,r1,r3
        0x00000628:    0052        R.      LSLS     r2,r2,#1
        0x0000062a:    d10d        ..      BNE      0x648 ; _dadd1 + 136
        0x0000062c:    0840        @.      LSRS     r0,r0,#1
        0x0000062e:    0040        @.      LSLS     r0,r0,#1
        0x00000630:    4ab1        .J      LDR      r2,[pc,#708] ; [0x8f8] = 0xffe00000
        0x00000632:    004b        K.      LSLS     r3,r1,#1
        0x00000634:    4293        .B      CMP      r3,r2
        0x00000636:    d307        ..      BCC      0x648 ; _dadd1 + 136
        0x00000638:    2005        .       MOVS     r0,#5
        0x0000063a:    0740        @.      LSLS     r0,r0,#29
        0x0000063c:    1808        ..      ADDS     r0,r1,r0
        0x0000063e:    d501        ..      BPL      0x644 ; _dadd1 + 132
        0x00000640:    1051        Q.      ASRS     r1,r2,#1
        0x00000642:    e000        ..      B        0x646 ; _dadd1 + 134
        0x00000644:    49ad        .I      LDR      r1,[pc,#692] ; [0x8fc] = 0x7ff00000
        0x00000646:    2000        .       MOVS     r0,#0
        0x00000648:    bdf0        ..      POP      {r4-r7,pc}
        0x0000064a:    006b        k.      LSLS     r3,r5,#1
        0x0000064c:    2a00        .*      CMP      r2,#0
        0x0000064e:    d000        ..      BEQ      0x652 ; _dadd1 + 146
        0x00000650:    2201        ."      MOVS     r2,#1
        0x00000652:    189a        ..      ADDS     r2,r3,r2
        0x00000654:    3c20         <      SUBS     r4,r4,#0x20
        0x00000656:    231f        .#      MOVS     r3,#0x1f
        0x00000658:    1b1b        ..      SUBS     r3,r3,r4
        0x0000065a:    d501        ..      BPL      0x660 ; _dadd1 + 160
        0x0000065c:    2300        .#      MOVS     r3,#0
        0x0000065e:    e003        ..      B        0x668 ; _dadd1 + 168
        0x00000660:    40e5        .@      LSRS     r5,r5,r4
        0x00000662:    2400        .$      MOVS     r4,#0
        0x00000664:    1828        (.      ADDS     r0,r5,r0
        0x00000666:    4161        aA      ADCS     r1,r1,r4
        0x00000668:    0d0c        ..      LSRS     r4,r1,#20
        0x0000066a:    d0d7        ..      BEQ      0x61c ; _dadd1 + 92
        0x0000066c:    2401        .$      MOVS     r4,#1
        0x0000066e:    0524        $.      LSLS     r4,r4,#20
        0x00000670:    1909        ..      ADDS     r1,r1,r4
        0x00000672:    07c4        ..      LSLS     r4,r0,#31
        0x00000674:    07cd        ..      LSLS     r5,r1,#31
        0x00000676:    0840        @.      LSRS     r0,r0,#1
        0x00000678:    0849        I.      LSRS     r1,r1,#1
        0x0000067a:    0fe4        ..      LSRS     r4,r4,#31
        0x0000067c:    4328        (C      ORRS     r0,r0,r5
        0x0000067e:    4461        aD      ADD      r1,r1,r12
        0x00000680:    2c00        .,      CMP      r4,#0
        0x00000682:    d0d5        ..      BEQ      0x630 ; _dadd1 + 112
        0x00000684:    2400        .$      MOVS     r4,#0
        0x00000686:    1c40        @.      ADDS     r0,r0,#1
        0x00000688:    4161        aA      ADCS     r1,r1,r4
        0x0000068a:    409a        .@      LSLS     r2,r2,r3
        0x0000068c:    d1d0        ..      BNE      0x630 ; _dadd1 + 112
        0x0000068e:    e7cd        ..      B        0x62c ; _dadd1 + 108
        0x00000690:    056a        j.      LSLS     r2,r5,#21
        0x00000692:    0d52        R.      LSRS     r2,r2,#21
        0x00000694:    d1d8        ..      BNE      0x648 ; _dadd1 + 136
        0x00000696:    0fc9        ..      LSRS     r1,r1,#31
        0x00000698:    07c9        ..      LSLS     r1,r1,#31
        0x0000069a:    e7d4        ..      B        0x646 ; _dadd1 + 134
        0x0000069c:    4d96        .M      LDR      r5,[pc,#600] ; [0x8f8] = 0xffe00000
        0x0000069e:    004e        N.      LSLS     r6,r1,#1
        0x000006a0:    2800        .(      CMP      r0,#0
        0x000006a2:    d001        ..      BEQ      0x6a8 ; _dadd1 + 232
        0x000006a4:    2401        .$      MOVS     r4,#1
        0x000006a6:    e000        ..      B        0x6aa ; _dadd1 + 234
        0x000006a8:    2400        .$      MOVS     r4,#0
        0x000006aa:    1934        4.      ADDS     r4,r6,r4
        0x000006ac:    005f        _.      LSLS     r7,r3,#1
        0x000006ae:    2a00        .*      CMP      r2,#0
        0x000006b0:    d001        ..      BEQ      0x6b6 ; _dadd1 + 246
        0x000006b2:    2601        .&      MOVS     r6,#1
        0x000006b4:    e000        ..      B        0x6b8 ; _dadd1 + 248
        0x000006b6:    2600        .&      MOVS     r6,#0
        0x000006b8:    19be        ..      ADDS     r6,r7,r6
        0x000006ba:    4f91        .O      LDR      r7,[pc,#580] ; [0x900] = 0x7ff80000
        0x000006bc:    42ac        .B      CMP      r4,r5
        0x000006be:    d80b        ..      BHI      0x6d8 ; _dadd1 + 280
        0x000006c0:    42ae        .B      CMP      r6,r5
        0x000006c2:    d809        ..      BHI      0x6d8 ; _dadd1 + 280
        0x000006c4:    42b4        .B      CMP      r4,r6
        0x000006c6:    d005        ..      BEQ      0x6d4 ; _dadd1 + 276
        0x000006c8:    00bd        ..      LSLS     r5,r7,#2
        0x000006ca:    42ac        .B      CMP      r4,r5
        0x000006cc:    d0bc        ..      BEQ      0x648 ; _dadd1 + 136
        0x000006ce:    4610        .F      MOV      r0,r2
        0x000006d0:    4619        .F      MOV      r1,r3
        0x000006d2:    bdf0        ..      POP      {r4-r7,pc}
        0x000006d4:    4299        .B      CMP      r1,r3
        0x000006d6:    d0fc        ..      BEQ      0x6d2 ; _dadd1 + 274
        0x000006d8:    2000        .       MOVS     r0,#0
        0x000006da:    4639        9F      MOV      r1,r7
        0x000006dc:    bdf0        ..      POP      {r4-r7,pc}
    _dsub1
        0x000006de:    b5f0        ..      PUSH     {r4-r7,lr}
        0x000006e0:    460c        .F      MOV      r4,r1
        0x000006e2:    460f        .F      MOV      r7,r1
        0x000006e4:    1a81        ..      SUBS     r1,r0,r2
        0x000006e6:    419f        .A      SBCS     r7,r7,r3
        0x000006e8:    4625        %F      MOV      r5,r4
        0x000006ea:    1a86        ..      SUBS     r6,r0,r2
        0x000006ec:    419d        .A      SBCS     r5,r5,r3
        0x000006ee:    d206        ..      BCS      0x6fe ; _dsub1 + 32
        0x000006f0:    2501        .%      MOVS     r5,#1
        0x000006f2:    07ed        ..      LSLS     r5,r5,#31
        0x000006f4:    406f        o@      EORS     r7,r7,r5
        0x000006f6:    1a40        @.      SUBS     r0,r0,r1
        0x000006f8:    41bc        .A      SBCS     r4,r4,r7
        0x000006fa:    1852        R.      ADDS     r2,r2,r1
        0x000006fc:    417b        {A      ADCS     r3,r3,r7
        0x000006fe:    0d21        !.      LSRS     r1,r4,#20
        0x00000700:    0d1e        ..      LSRS     r6,r3,#20
        0x00000702:    1b8d        ..      SUBS     r5,r1,r6
        0x00000704:    46ac        .F      MOV      r12,r5
        0x00000706:    4d7b        {M      LDR      r5,[pc,#492] ; [0x8f4] = 0x7ff
        0x00000708:    438d        .C      BICS     r5,r5,r1
        0x0000070a:    d07e        ~.      BEQ      0x80a ; _dsub1 + 300
        0x0000070c:    0575        u.      LSLS     r5,r6,#21
        0x0000070e:    0d6d        m.      LSRS     r5,r5,#21
        0x00000710:    d07c        |.      BEQ      0x80c ; _dsub1 + 302
        0x00000712:    050d        ..      LSLS     r5,r1,#20
        0x00000714:    46ae        .F      MOV      lr,r5
        0x00000716:    43ac        .C      BICS     r4,r4,r5
        0x00000718:    031b        ..      LSLS     r3,r3,#12
        0x0000071a:    0b1b        ..      LSRS     r3,r3,#12
        0x0000071c:    4d79        yM      LDR      r5,[pc,#484] ; [0x904] = 0xfff00000
        0x0000071e:    4252        RB      RSBS     r2,r2,#0
        0x00000720:    419d        .A      SBCS     r5,r5,r3
        0x00000722:    2320         #      MOVS     r3,#0x20
        0x00000724:    4666        fF      MOV      r6,r12
        0x00000726:    1b9b        ..      SUBS     r3,r3,r6
        0x00000728:    d314        ..      BCC      0x754 ; _dsub1 + 118
        0x0000072a:    4637        7F      MOV      r7,r6
        0x0000072c:    4616        .F      MOV      r6,r2
        0x0000072e:    40fe        .@      LSRS     r6,r6,r7
        0x00000730:    1830        0.      ADDS     r0,r6,r0
        0x00000732:    2700        .'      MOVS     r7,#0
        0x00000734:    4167        gA      ADCS     r7,r7,r4
        0x00000736:    4664        dF      MOV      r4,r12
        0x00000738:    462e        .F      MOV      r6,r5
        0x0000073a:    4126        &A      ASRS     r6,r6,r4
        0x0000073c:    19bc        ..      ADDS     r4,r7,r6
        0x0000073e:    409d        .@      LSLS     r5,r5,r3
        0x00000740:    2600        .&      MOVS     r6,#0
        0x00000742:    1828        (.      ADDS     r0,r5,r0
        0x00000744:    4166        fA      ADCS     r6,r6,r4
        0x00000746:    d416        ..      BMI      0x776 ; _dsub1 + 152
        0x00000748:    4671        qF      MOV      r1,lr
        0x0000074a:    1871        q.      ADDS     r1,r6,r1
        0x0000074c:    409a        .@      LSLS     r2,r2,r3
        0x0000074e:    d525        %.      BPL      0x79c ; _dsub1 + 190
        0x00000750:    2301        .#      MOVS     r3,#1
        0x00000752:    e020         .      B        0x796 ; _dsub1 + 184
        0x00000754:    1893        ..      ADDS     r3,r2,r2
        0x00000756:    462a        *F      MOV      r2,r5
        0x00000758:    416a        jA      ADCS     r2,r2,r5
        0x0000075a:    0052        R.      LSLS     r2,r2,#1
        0x0000075c:    2b00        .+      CMP      r3,#0
        0x0000075e:    d000        ..      BEQ      0x762 ; _dsub1 + 132
        0x00000760:    1c52        R.      ADDS     r2,r2,#1
        0x00000762:    3e20         >      SUBS     r6,r6,#0x20
        0x00000764:    231e        .#      MOVS     r3,#0x1e
        0x00000766:    1b9b        ..      SUBS     r3,r3,r6
        0x00000768:    2b00        .+      CMP      r3,#0
        0x0000076a:    dd60        `.      BLE      0x82e ; _dsub1 + 336
        0x0000076c:    4135        5A      ASRS     r5,r5,r6
        0x0000076e:    17ee        ..      ASRS     r6,r5,#31
        0x00000770:    1828        (.      ADDS     r0,r5,r0
        0x00000772:    4166        fA      ADCS     r6,r6,r4
        0x00000774:    d5e8        ..      BPL      0x748 ; _dsub1 + 106
        0x00000776:    1800        ..      ADDS     r0,r0,r0
        0x00000778:    4176        vA      ADCS     r6,r6,r6
        0x0000077a:    1c5b        [.      ADDS     r3,r3,#1
        0x0000077c:    409a        .@      LSLS     r2,r2,r3
        0x0000077e:    d300        ..      BCC      0x782 ; _dsub1 + 164
        0x00000780:    1c40        @.      ADDS     r0,r0,#1
        0x00000782:    054b        K.      LSLS     r3,r1,#21
        0x00000784:    18f3        ..      ADDS     r3,r6,r3
        0x00000786:    2415        .$      MOVS     r4,#0x15
        0x00000788:    40e3        .@      LSRS     r3,r3,r4
        0x0000078a:    d30f        ..      BCC      0x7ac ; _dsub1 + 206
        0x0000078c:    2b00        .+      CMP      r3,#0
        0x0000078e:    d051        Q.      BEQ      0x834 ; _dsub1 + 342
        0x00000790:    4671        qF      MOV      r1,lr
        0x00000792:    1871        q.      ADDS     r1,r6,r1
        0x00000794:    0fd3        ..      LSRS     r3,r2,#31
        0x00000796:    18c0        ..      ADDS     r0,r0,r3
        0x00000798:    d301        ..      BCC      0x79e ; _dsub1 + 192
        0x0000079a:    1c49        I.      ADDS     r1,r1,#1
        0x0000079c:    bdf0        ..      POP      {r4-r7,pc}
        0x0000079e:    2301        .#      MOVS     r3,#1
        0x000007a0:    07db        ..      LSLS     r3,r3,#31
        0x000007a2:    429a        .B      CMP      r2,r3
        0x000007a4:    d1fa        ..      BNE      0x79c ; _dsub1 + 190
        0x000007a6:    0840        @.      LSRS     r0,r0,#1
        0x000007a8:    0040        @.      LSLS     r0,r0,#1
        0x000007aa:    bdf0        ..      POP      {r4-r7,pc}
        0x000007ac:    2201        ."      MOVS     r2,#1
        0x000007ae:    0552        R.      LSLS     r2,r2,#21
        0x000007b0:    18b2        ..      ADDS     r2,r6,r2
        0x000007b2:    d101        ..      BNE      0x7b8 ; _dsub1 + 218
        0x000007b4:    2800        .(      CMP      r0,#0
        0x000007b6:    d053        S.      BEQ      0x860 ; _dsub1 + 386
        0x000007b8:    2301        .#      MOVS     r3,#1
        0x000007ba:    0acc        ..      LSRS     r4,r1,#11
        0x000007bc:    02db        ..      LSLS     r3,r3,#11
        0x000007be:    4399        .C      BICS     r1,r1,r3
        0x000007c0:    1e89        ..      SUBS     r1,r1,#2
        0x000007c2:    2a00        .*      CMP      r2,#0
        0x000007c4:    d108        ..      BNE      0x7d8 ; _dsub1 + 250
        0x000007c6:    0c02        ..      LSRS     r2,r0,#16
        0x000007c8:    d003        ..      BEQ      0x7d2 ; _dsub1 + 244
        0x000007ca:    0c02        ..      LSRS     r2,r0,#16
        0x000007cc:    0400        ..      LSLS     r0,r0,#16
        0x000007ce:    3910        .9      SUBS     r1,r1,#0x10
        0x000007d0:    e002        ..      B        0x7d8 ; _dsub1 + 250
        0x000007d2:    4602        .F      MOV      r2,r0
        0x000007d4:    2000        .       MOVS     r0,#0
        0x000007d6:    3920         9      SUBS     r1,r1,#0x20
        0x000007d8:    2300        .#      MOVS     r3,#0
        0x000007da:    0b55        U.      LSRS     r5,r2,#13
        0x000007dc:    d105        ..      BNE      0x7ea ; _dsub1 + 268
        0x000007de:    0212        ..      LSLS     r2,r2,#8
        0x000007e0:    2308        .#      MOVS     r3,#8
        0x000007e2:    0b55        U.      LSRS     r5,r2,#13
        0x000007e4:    d101        ..      BNE      0x7ea ; _dsub1 + 268
        0x000007e6:    0152        R.      LSLS     r2,r2,#5
        0x000007e8:    230d        .#      MOVS     r3,#0xd
        0x000007ea:    0c55        U.      LSRS     r5,r2,#17
        0x000007ec:    d101        ..      BNE      0x7f2 ; _dsub1 + 276
        0x000007ee:    0112        ..      LSLS     r2,r2,#4
        0x000007f0:    1d1b        ..      ADDS     r3,r3,#4
        0x000007f2:    0cd5        ..      LSRS     r5,r2,#19
        0x000007f4:    d101        ..      BNE      0x7fa ; _dsub1 + 284
        0x000007f6:    0092        ..      LSLS     r2,r2,#2
        0x000007f8:    1c9b        ..      ADDS     r3,r3,#2
        0x000007fa:    0d15        ..      LSRS     r5,r2,#20
        0x000007fc:    d101        ..      BNE      0x802 ; _dsub1 + 292
        0x000007fe:    0052        R.      LSLS     r2,r2,#1
        0x00000800:    1c5b        [.      ADDS     r3,r3,#1
        0x00000802:    2520         %      MOVS     r5,#0x20
        0x00000804:    1aee        ..      SUBS     r6,r5,r3
        0x00000806:    4605        .F      MOV      r5,r0
        0x00000808:    e001        ..      B        0x80e ; _dsub1 + 304
        0x0000080a:    e02b        +.      B        0x864 ; _dsub1 + 390
        0x0000080c:    e021        !.      B        0x852 ; _dsub1 + 372
        0x0000080e:    40f5        .@      LSRS     r5,r5,r6
        0x00000810:    4315        .C      ORRS     r5,r5,r2
        0x00000812:    4098        .@      LSLS     r0,r0,r3
        0x00000814:    1aca        ..      SUBS     r2,r1,r3
        0x00000816:    07e1        ..      LSLS     r1,r4,#31
        0x00000818:    1869        i.      ADDS     r1,r5,r1
        0x0000081a:    0513        ..      LSLS     r3,r2,#20
        0x0000081c:    18c9        ..      ADDS     r1,r1,r3
        0x0000081e:    2a00        .*      CMP      r2,#0
        0x00000820:    dac3        ..      BGE      0x7aa ; _dsub1 + 204
        0x00000822:    2003        .       MOVS     r0,#3
        0x00000824:    0740        @.      LSLS     r0,r0,#29
        0x00000826:    1808        ..      ADDS     r0,r1,r0
        0x00000828:    0fc1        ..      LSRS     r1,r0,#31
        0x0000082a:    07c9        ..      LSLS     r1,r1,#31
        0x0000082c:    e00f        ..      B        0x84e ; _dsub1 + 368
        0x0000082e:    4671        qF      MOV      r1,lr
        0x00000830:    1861        a.      ADDS     r1,r4,r1
        0x00000832:    bdf0        ..      POP      {r4-r7,pc}
        0x00000834:    07f1        ..      LSLS     r1,r6,#31
        0x00000836:    0840        @.      LSRS     r0,r0,#1
        0x00000838:    4308        .C      ORRS     r0,r0,r1
        0x0000083a:    1071        q.      ASRS     r1,r6,#1
        0x0000083c:    4471        qD      ADD      r1,r1,lr
        0x0000083e:    004a        J.      LSLS     r2,r1,#1
        0x00000840:    d00c        ..      BEQ      0x85c ; _dsub1 + 382
        0x00000842:    2301        .#      MOVS     r3,#1
        0x00000844:    055b        [.      LSLS     r3,r3,#21
        0x00000846:    429a        .B      CMP      r2,r3
        0x00000848:    d2f3        ..      BCS      0x832 ; _dsub1 + 340
        0x0000084a:    0fc9        ..      LSRS     r1,r1,#31
        0x0000084c:    07c9        ..      LSLS     r1,r1,#31
        0x0000084e:    2000        .       MOVS     r0,#0
        0x00000850:    bdf0        ..      POP      {r4-r7,pc}
        0x00000852:    0549        I.      LSLS     r1,r1,#21
        0x00000854:    0d49        I.      LSRS     r1,r1,#21
        0x00000856:    d125        %.      BNE      0x8a4 ; _dsub1 + 454
        0x00000858:    2000        .       MOVS     r0,#0
        0x0000085a:    e001        ..      B        0x860 ; _dsub1 + 386
        0x0000085c:    2800        .(      CMP      r0,#0
        0x0000085e:    d1f4        ..      BNE      0x84a ; _dsub1 + 364
        0x00000860:    2100        .!      MOVS     r1,#0
        0x00000862:    bdf0        ..      POP      {r4-r7,pc}
        0x00000864:    4d24        $M      LDR      r5,[pc,#144] ; [0x8f8] = 0xffe00000
        0x00000866:    0066        f.      LSLS     r6,r4,#1
        0x00000868:    2800        .(      CMP      r0,#0
        0x0000086a:    d001        ..      BEQ      0x870 ; _dsub1 + 402
        0x0000086c:    2101        .!      MOVS     r1,#1
        0x0000086e:    e000        ..      B        0x872 ; _dsub1 + 404
        0x00000870:    2100        .!      MOVS     r1,#0
        0x00000872:    1871        q.      ADDS     r1,r6,r1
        0x00000874:    005f        _.      LSLS     r7,r3,#1
        0x00000876:    2a00        .*      CMP      r2,#0
        0x00000878:    d001        ..      BEQ      0x87e ; _dsub1 + 416
        0x0000087a:    2601        .&      MOVS     r6,#1
        0x0000087c:    e000        ..      B        0x880 ; _dsub1 + 418
        0x0000087e:    2600        .&      MOVS     r6,#0
        0x00000880:    19be        ..      ADDS     r6,r7,r6
        0x00000882:    4f1f        .O      LDR      r7,[pc,#124] ; [0x900] = 0x7ff80000
        0x00000884:    42a9        .B      CMP      r1,r5
        0x00000886:    d80f        ..      BHI      0x8a8 ; _dsub1 + 458
        0x00000888:    42ae        .B      CMP      r6,r5
        0x0000088a:    d80d        ..      BHI      0x8a8 ; _dsub1 + 458
        0x0000088c:    42b1        .B      CMP      r1,r6
        0x0000088e:    d007        ..      BEQ      0x8a0 ; _dsub1 + 450
        0x00000890:    00bd        ..      LSLS     r5,r7,#2
        0x00000892:    42a9        .B      CMP      r1,r5
        0x00000894:    d006        ..      BEQ      0x8a4 ; _dsub1 + 454
        0x00000896:    4619        .F      MOV      r1,r3
        0x00000898:    02a8        ..      LSLS     r0,r5,#10
        0x0000089a:    4041        A@      EORS     r1,r1,r0
        0x0000089c:    4610        .F      MOV      r0,r2
        0x0000089e:    bdf0        ..      POP      {r4-r7,pc}
        0x000008a0:    429c        .B      CMP      r4,r3
        0x000008a2:    d001        ..      BEQ      0x8a8 ; _dsub1 + 458
        0x000008a4:    4621        !F      MOV      r1,r4
        0x000008a6:    bdf0        ..      POP      {r4-r7,pc}
        0x000008a8:    2000        .       MOVS     r0,#0
        0x000008aa:    4639        9F      MOV      r1,r7
        0x000008ac:    bdf0        ..      POP      {r4-r7,pc}
    __aeabi_dadd
    _dadd
        0x000008ae:    b430        0.      PUSH     {r4,r5}
        0x000008b0:    460c        .F      MOV      r4,r1
        0x000008b2:    405c        \@      EORS     r4,r4,r3
        0x000008b4:    d504        ..      BPL      0x8c0 ; __aeabi_dadd + 18
        0x000008b6:    2401        .$      MOVS     r4,#1
        0x000008b8:    07e4        ..      LSLS     r4,r4,#31
        0x000008ba:    4063        c@      EORS     r3,r3,r4
        0x000008bc:    bc30        0.      POP      {r4,r5}
        0x000008be:    e70e        ..      B        _dsub1 ; 0x6de
        0x000008c0:    bc30        0.      POP      {r4,r5}
        0x000008c2:    e67d        }.      B        _dadd1 ; 0x5c0
    __aeabi_dsub
    _dsub
        0x000008c4:    b430        0.      PUSH     {r4,r5}
        0x000008c6:    460c        .F      MOV      r4,r1
        0x000008c8:    405c        \@      EORS     r4,r4,r3
        0x000008ca:    d504        ..      BPL      0x8d6 ; __aeabi_dsub + 18
        0x000008cc:    2401        .$      MOVS     r4,#1
        0x000008ce:    07e4        ..      LSLS     r4,r4,#31
        0x000008d0:    4063        c@      EORS     r3,r3,r4
        0x000008d2:    bc30        0.      POP      {r4,r5}
        0x000008d4:    e674        t.      B        _dadd1 ; 0x5c0
        0x000008d6:    bc30        0.      POP      {r4,r5}
        0x000008d8:    e701        ..      B        _dsub1 ; 0x6de
    __aeabi_drsub
    _drsb
        0x000008da:    b430        0.      PUSH     {r4,r5}
        0x000008dc:    2401        .$      MOVS     r4,#1
        0x000008de:    07e4        ..      LSLS     r4,r4,#31
        0x000008e0:    4061        a@      EORS     r1,r1,r4
        0x000008e2:    460d        .F      MOV      r5,r1
        0x000008e4:    405d        ]@      EORS     r5,r5,r3
        0x000008e6:    d401        ..      BMI      0x8ec ; __aeabi_drsub + 18
        0x000008e8:    bc30        0.      POP      {r4,r5}
        0x000008ea:    e669        i.      B        _dadd1 ; 0x5c0
        0x000008ec:    4063        c@      EORS     r3,r3,r4
        0x000008ee:    bc30        0.      POP      {r4,r5}
        0x000008f0:    e6f5        ..      B        _dsub1 ; 0x6de
    $d
        0x000008f2:    0000        ..      DCW    0
        0x000008f4:    000007ff    ....    DCD    2047
        0x000008f8:    ffe00000    ....    DCD    4292870144
        0x000008fc:    7ff00000    ....    DCD    2146435072
        0x00000900:    7ff80000    ....    DCD    2146959360
        0x00000904:    fff00000    ....    DCD    4293918720
    $t
    .text
    __aeabi_ddiv
    _ddiv
        0x00000908:    b5f0        ..      PUSH     {r4-r7,lr}
        0x0000090a:    4694        .F      MOV      r12,r2
        0x0000090c:    4afb        .J      LDR      r2,[pc,#1004] ; [0xcfc] = 0x7ff0000
        0x0000090e:    090e        ..      LSRS     r6,r1,#4
        0x00000910:    091d        ..      LSRS     r5,r3,#4
        0x00000912:    4617        .F      MOV      r7,r2
        0x00000914:    4016        .@      ANDS     r6,r6,r2
        0x00000916:    4015        .@      ANDS     r5,r5,r2
        0x00000918:    460c        .F      MOV      r4,r1
        0x0000091a:    43b2        .C      BICS     r2,r2,r6
        0x0000091c:    405c        \@      EORS     r4,r4,r3
        0x0000091e:    b08b        ..      SUB      sp,sp,#0x2c
        0x00000920:    2a00        .*      CMP      r2,#0
        0x00000922:    d07e        ~.      BEQ      0xa22 ; __aeabi_ddiv + 282
        0x00000924:    43af        .C      BICS     r7,r7,r5
        0x00000926:    d07c        |.      BEQ      0xa22 ; __aeabi_ddiv + 282
        0x00000928:    2d00        .-      CMP      r5,#0
        0x0000092a:    d07b        {.      BEQ      0xa24 ; __aeabi_ddiv + 284
        0x0000092c:    2e00        ..      CMP      r6,#0
        0x0000092e:    d079        y.      BEQ      0xa24 ; __aeabi_ddiv + 284
        0x00000930:    0fe2        ..      LSRS     r2,r4,#31
        0x00000932:    4332        2C      ORRS     r2,r2,r6
        0x00000934:    1b52        R.      SUBS     r2,r2,r5
        0x00000936:    24ff        .$      MOVS     r4,#0xff
        0x00000938:    04a4        ..      LSLS     r4,r4,#18
        0x0000093a:    1912        ..      ADDS     r2,r2,r4
        0x0000093c:    9207        ..      STR      r2,[sp,#0x1c]
        0x0000093e:    0d42        B.      LSRS     r2,r0,#21
        0x00000940:    02cc        ..      LSLS     r4,r1,#11
        0x00000942:    02c7        ..      LSLS     r7,r0,#11
        0x00000944:    4314        .C      ORRS     r4,r4,r2
        0x00000946:    4660        `F      MOV      r0,r12
        0x00000948:    0d42        B.      LSRS     r2,r0,#21
        0x0000094a:    02d9        ..      LSLS     r1,r3,#11
        0x0000094c:    4311        .C      ORRS     r1,r1,r2
        0x0000094e:    02c2        ..      LSLS     r2,r0,#11
        0x00000950:    2001        .       MOVS     r0,#1
        0x00000952:    07c0        ..      LSLS     r0,r0,#31
        0x00000954:    4304        .C      ORRS     r4,r4,r0
        0x00000956:    4301        .C      ORRS     r1,r1,r0
        0x00000958:    9401        ..      STR      r4,[sp,#4]
        0x0000095a:    0c08        ..      LSRS     r0,r1,#16
        0x0000095c:    0c14        ..      LSRS     r4,r2,#16
        0x0000095e:    46a4        .F      MOV      r12,r4
        0x00000960:    0404        ..      LSLS     r4,r0,#16
        0x00000962:    460b        .F      MOV      r3,r1
        0x00000964:    43a3        .C      BICS     r3,r3,r4
        0x00000966:    9408        ..      STR      r4,[sp,#0x20]
        0x00000968:    4664        dF      MOV      r4,r12
        0x0000096a:    0424        $.      LSLS     r4,r4,#16
        0x0000096c:    4de4        .M      LDR      r5,[pc,#912] ; [0xd00] = 0x570c
        0x0000096e:    43a2        .C      BICS     r2,r2,r4
        0x00000970:    9409        ..      STR      r4,[sp,#0x24]
        0x00000972:    0a04        ..      LSRS     r4,r0,#8
        0x00000974:    447d        }D      ADD      r5,r5,pc
        0x00000976:    1964        d.      ADDS     r4,r4,r5
        0x00000978:    3c80        .<      SUBS     r4,r4,#0x80
        0x0000097a:    7824        $x      LDRB     r4,[r4,#0]
        0x0000097c:    4605        .F      MOV      r5,r0
        0x0000097e:    4365        eC      MULS     r5,r4,r5
        0x00000980:    2601        .&      MOVS     r6,#1
        0x00000982:    192d        -.      ADDS     r5,r5,r4
        0x00000984:    05f6        ..      LSLS     r6,r6,#23
        0x00000986:    1b75        u.      SUBS     r5,r6,r5
        0x00000988:    436c        lC      MULS     r4,r5,r4
        0x0000098a:    0ce4        ..      LSRS     r4,r4,#19
        0x0000098c:    1ca4        ..      ADDS     r4,r4,#2
        0x0000098e:    0b49        I.      LSRS     r1,r1,#13
        0x00000990:    4361        aC      MULS     r1,r4,r1
        0x00000992:    1909        ..      ADDS     r1,r1,r4
        0x00000994:    01b5        ..      LSLS     r5,r6,#6
        0x00000996:    1a69        i.      SUBS     r1,r5,r1
        0x00000998:    0c0e        ..      LSRS     r6,r1,#16
        0x0000099a:    0435        5.      LSLS     r5,r6,#16
        0x0000099c:    43a9        .C      BICS     r1,r1,r5
        0x0000099e:    4361        aC      MULS     r1,r4,r1
        0x000009a0:    4366        fC      MULS     r6,r4,r6
        0x000009a2:    0c09        ..      LSRS     r1,r1,#16
        0x000009a4:    1871        q.      ADDS     r1,r6,r1
        0x000009a6:    0989        ..      LSRS     r1,r1,#6
        0x000009a8:    9106        ..      STR      r1,[sp,#0x18]
        0x000009aa:    07f9        ..      LSLS     r1,r7,#31
        0x000009ac:    d001        ..      BEQ      0x9b2 ; __aeabi_ddiv + 170
        0x000009ae:    2101        .!      MOVS     r1,#1
        0x000009b0:    07c9        ..      LSLS     r1,r1,#31
        0x000009b2:    9103        ..      STR      r1,[sp,#0xc]
        0x000009b4:    9901        ..      LDR      r1,[sp,#4]
        0x000009b6:    087f        ..      LSRS     r7,r7,#1
        0x000009b8:    07cc        ..      LSLS     r4,r1,#31
        0x000009ba:    4327        'C      ORRS     r7,r7,r4
        0x000009bc:    084c        L.      LSRS     r4,r1,#1
        0x000009be:    9d06        ..      LDR      r5,[sp,#0x18]
        0x000009c0:    0be1        ..      LSRS     r1,r4,#15
        0x000009c2:    434d        MC      MULS     r5,r1,r5
        0x000009c4:    0c29        ).      LSRS     r1,r5,#16
        0x000009c6:    4665        eF      MOV      r5,r12
        0x000009c8:    460e        .F      MOV      r6,r1
        0x000009ca:    434d        MC      MULS     r5,r1,r5
        0x000009cc:    4346        FC      MULS     r6,r0,r6
        0x000009ce:    1b7d        }.      SUBS     r5,r7,r5
        0x000009d0:    41b4        .A      SBCS     r4,r4,r6
        0x000009d2:    9500        ..      STR      r5,[sp,#0]
        0x000009d4:    460d        .F      MOV      r5,r1
        0x000009d6:    9401        ..      STR      r4,[sp,#4]
        0x000009d8:    435d        ]C      MULS     r5,r3,r5
        0x000009da:    2400        .$      MOVS     r4,#0
        0x000009dc:    0c2e        ..      LSRS     r6,r5,#16
        0x000009de:    0424        $.      LSLS     r4,r4,#16
        0x000009e0:    4334        4C      ORRS     r4,r4,r6
        0x000009e2:    460e        .F      MOV      r6,r1
        0x000009e4:    042f        /.      LSLS     r7,r5,#16
        0x000009e6:    4356        VC      MULS     r6,r2,r6
        0x000009e8:    0c35        5.      LSRS     r5,r6,#16
        0x000009ea:    432f        /C      ORRS     r7,r7,r5
        0x000009ec:    9d03        ..      LDR      r5,[sp,#0xc]
        0x000009ee:    0436        6.      LSLS     r6,r6,#16
        0x000009f0:    1bad        ..      SUBS     r5,r5,r6
        0x000009f2:    9503        ..      STR      r5,[sp,#0xc]
        0x000009f4:    d202        ..      BCS      0x9fc ; __aeabi_ddiv + 244
        0x000009f6:    2600        .&      MOVS     r6,#0
        0x000009f8:    1c7f        ..      ADDS     r7,r7,#1
        0x000009fa:    4174        tA      ADCS     r4,r4,r6
        0x000009fc:    9e00        ..      LDR      r6,[sp,#0]
        0x000009fe:    9d01        ..      LDR      r5,[sp,#4]
        0x00000a00:    1bf6        ..      SUBS     r6,r6,r7
        0x00000a02:    41a5        .A      SBCS     r5,r5,r4
        0x00000a04:    0409        ..      LSLS     r1,r1,#16
        0x00000a06:    9600        ..      STR      r6,[sp,#0]
        0x00000a08:    9501        ..      STR      r5,[sp,#4]
        0x00000a0a:    9105        ..      STR      r1,[sp,#0x14]
        0x00000a0c:    08ac        ..      LSRS     r4,r5,#2
        0x00000a0e:    9906        ..      LDR      r1,[sp,#0x18]
        0x00000a10:    2500        .%      MOVS     r5,#0
        0x00000a12:    4361        aC      MULS     r1,r4,r1
        0x00000a14:    0c09        ..      LSRS     r1,r1,#16
        0x00000a16:    460f        .F      MOV      r7,r1
        0x00000a18:    4347        GC      MULS     r7,r0,r7
        0x00000a1a:    0b7c        |.      LSRS     r4,r7,#13
        0x00000a1c:    04ed        ..      LSLS     r5,r5,#19
        0x00000a1e:    4325        %C      ORRS     r5,r5,r4
        0x00000a20:    e001        ..      B        0xa26 ; __aeabi_ddiv + 286
        0x00000a22:    e12a        *.      B        0xc7a ; __aeabi_ddiv + 882
        0x00000a24:    e14f        O.      B        0xcc6 ; __aeabi_ddiv + 958
        0x00000a26:    04fe        ..      LSLS     r6,r7,#19
        0x00000a28:    4664        dF      MOV      r4,r12
        0x00000a2a:    460f        .F      MOV      r7,r1
        0x00000a2c:    4367        gC      MULS     r7,r4,r7
        0x00000a2e:    0b7c        |.      LSRS     r4,r7,#13
        0x00000a30:    4334        4C      ORRS     r4,r4,r6
        0x00000a32:    9402        ..      STR      r4,[sp,#8]
        0x00000a34:    9c03        ..      LDR      r4,[sp,#0xc]
        0x00000a36:    04fe        ..      LSLS     r6,r7,#19
        0x00000a38:    1ba4        ..      SUBS     r4,r4,r6
        0x00000a3a:    9403        ..      STR      r4,[sp,#0xc]
        0x00000a3c:    d204        ..      BCS      0xa48 ; __aeabi_ddiv + 320
        0x00000a3e:    9c02        ..      LDR      r4,[sp,#8]
        0x00000a40:    2600        .&      MOVS     r6,#0
        0x00000a42:    1c64        d.      ADDS     r4,r4,#1
        0x00000a44:    4175        uA      ADCS     r5,r5,r6
        0x00000a46:    9402        ..      STR      r4,[sp,#8]
        0x00000a48:    9f02        ..      LDR      r7,[sp,#8]
        0x00000a4a:    9e00        ..      LDR      r6,[sp,#0]
        0x00000a4c:    9c01        ..      LDR      r4,[sp,#4]
        0x00000a4e:    1bf6        ..      SUBS     r6,r6,r7
        0x00000a50:    41ac        .A      SBCS     r4,r4,r5
        0x00000a52:    9401        ..      STR      r4,[sp,#4]
        0x00000a54:    460c        .F      MOV      r4,r1
        0x00000a56:    435c        \C      MULS     r4,r3,r4
        0x00000a58:    9600        ..      STR      r6,[sp,#0]
        0x00000a5a:    0f66        f.      LSRS     r6,r4,#29
        0x00000a5c:    2500        .%      MOVS     r5,#0
        0x00000a5e:    00e7        ..      LSLS     r7,r4,#3
        0x00000a60:    00ed        ..      LSLS     r5,r5,#3
        0x00000a62:    460c        .F      MOV      r4,r1
        0x00000a64:    4335        5C      ORRS     r5,r5,r6
        0x00000a66:    4354        TC      MULS     r4,r2,r4
        0x00000a68:    0f66        f.      LSRS     r6,r4,#29
        0x00000a6a:    433e        >C      ORRS     r6,r6,r7
        0x00000a6c:    9f03        ..      LDR      r7,[sp,#0xc]
        0x00000a6e:    00e4        ..      LSLS     r4,r4,#3
        0x00000a70:    1b3c        <.      SUBS     r4,r7,r4
        0x00000a72:    9403        ..      STR      r4,[sp,#0xc]
        0x00000a74:    d202        ..      BCS      0xa7c ; __aeabi_ddiv + 372
        0x00000a76:    2400        .$      MOVS     r4,#0
        0x00000a78:    1c76        v.      ADDS     r6,r6,#1
        0x00000a7a:    4165        eA      ADCS     r5,r5,r4
        0x00000a7c:    9f00        ..      LDR      r7,[sp,#0]
        0x00000a7e:    9c01        ..      LDR      r4,[sp,#4]
        0x00000a80:    1bbe        ..      SUBS     r6,r7,r6
        0x00000a82:    41ac        .A      SBCS     r4,r4,r5
        0x00000a84:    09b5        ..      LSRS     r5,r6,#6
        0x00000a86:    06a4        ..      LSLS     r4,r4,#26
        0x00000a88:    432c        ,C      ORRS     r4,r4,r5
        0x00000a8a:    9d03        ..      LDR      r5,[sp,#0xc]
        0x00000a8c:    06b6        ..      LSLS     r6,r6,#26
        0x00000a8e:    09ad        ..      LSRS     r5,r5,#6
        0x00000a90:    432e        .C      ORRS     r6,r6,r5
        0x00000a92:    9d03        ..      LDR      r5,[sp,#0xc]
        0x00000a94:    00c9        ..      LSLS     r1,r1,#3
        0x00000a96:    06ad        ..      LSLS     r5,r5,#26
        0x00000a98:    9503        ..      STR      r5,[sp,#0xc]
        0x00000a9a:    9d05        ..      LDR      r5,[sp,#0x14]
        0x00000a9c:    1869        i.      ADDS     r1,r5,r1
        0x00000a9e:    9105        ..      STR      r1,[sp,#0x14]
        0x00000aa0:    9906        ..      LDR      r1,[sp,#0x18]
        0x00000aa2:    0be5        ..      LSRS     r5,r4,#15
        0x00000aa4:    4369        iC      MULS     r1,r5,r1
        0x00000aa6:    0c09        ..      LSRS     r1,r1,#16
        0x00000aa8:    4665        eF      MOV      r5,r12
        0x00000aaa:    460f        .F      MOV      r7,r1
        0x00000aac:    436f        oC      MULS     r7,r5,r7
        0x00000aae:    460d        .F      MOV      r5,r1
        0x00000ab0:    4345        EC      MULS     r5,r0,r5
        0x00000ab2:    46ae        .F      MOV      lr,r5
        0x00000ab4:    463d        =F      MOV      r5,r7
        0x00000ab6:    1b75        u.      SUBS     r5,r6,r5
        0x00000ab8:    4677        wF      MOV      r7,lr
        0x00000aba:    41bc        .A      SBCS     r4,r4,r7
        0x00000abc:    9500        ..      STR      r5,[sp,#0]
        0x00000abe:    460d        .F      MOV      r5,r1
        0x00000ac0:    9401        ..      STR      r4,[sp,#4]
        0x00000ac2:    435d        ]C      MULS     r5,r3,r5
        0x00000ac4:    2400        .$      MOVS     r4,#0
        0x00000ac6:    0c2e        ..      LSRS     r6,r5,#16
        0x00000ac8:    0424        $.      LSLS     r4,r4,#16
        0x00000aca:    460f        .F      MOV      r7,r1
        0x00000acc:    4334        4C      ORRS     r4,r4,r6
        0x00000ace:    4357        WC      MULS     r7,r2,r7
        0x00000ad0:    042d        -.      LSLS     r5,r5,#16
        0x00000ad2:    0c3e        >.      LSRS     r6,r7,#16
        0x00000ad4:    432e        .C      ORRS     r6,r6,r5
        0x00000ad6:    9602        ..      STR      r6,[sp,#8]
        0x00000ad8:    4626        &F      MOV      r6,r4
        0x00000ada:    9d03        ..      LDR      r5,[sp,#0xc]
        0x00000adc:    043c        <.      LSLS     r4,r7,#16
        0x00000ade:    1b2c        ,.      SUBS     r4,r5,r4
        0x00000ae0:    9403        ..      STR      r4,[sp,#0xc]
        0x00000ae2:    d205        ..      BCS      0xaf0 ; __aeabi_ddiv + 488
        0x00000ae4:    9c02        ..      LDR      r4,[sp,#8]
        0x00000ae6:    4635        5F      MOV      r5,r6
        0x00000ae8:    1c64        d.      ADDS     r4,r4,#1
        0x00000aea:    2600        .&      MOVS     r6,#0
        0x00000aec:    416e        nA      ADCS     r6,r6,r5
        0x00000aee:    9402        ..      STR      r4,[sp,#8]
        0x00000af0:    9f00        ..      LDR      r7,[sp,#0]
        0x00000af2:    9d02        ..      LDR      r5,[sp,#8]
        0x00000af4:    9c01        ..      LDR      r4,[sp,#4]
        0x00000af6:    1b7d        }.      SUBS     r5,r7,r5
        0x00000af8:    41b4        .A      SBCS     r4,r4,r6
        0x00000afa:    9500        ..      STR      r5,[sp,#0]
        0x00000afc:    058d        ..      LSLS     r5,r1,#22
        0x00000afe:    9504        ..      STR      r5,[sp,#0x10]
        0x00000b00:    9d05        ..      LDR      r5,[sp,#0x14]
        0x00000b02:    0a89        ..      LSRS     r1,r1,#10
        0x00000b04:    1869        i.      ADDS     r1,r5,r1
        0x00000b06:    9105        ..      STR      r1,[sp,#0x14]
        0x00000b08:    9906        ..      LDR      r1,[sp,#0x18]
        0x00000b0a:    08a5        ..      LSRS     r5,r4,#2
        0x00000b0c:    4369        iC      MULS     r1,r5,r1
        0x00000b0e:    0c09        ..      LSRS     r1,r1,#16
        0x00000b10:    460d        .F      MOV      r5,r1
        0x00000b12:    4345        EC      MULS     r5,r0,r5
        0x00000b14:    2000        .       MOVS     r0,#0
        0x00000b16:    0b6e        n.      LSRS     r6,r5,#13
        0x00000b18:    04c0        ..      LSLS     r0,r0,#19
        0x00000b1a:    4330        0C      ORRS     r0,r0,r6
        0x00000b1c:    04ef        ..      LSLS     r7,r5,#19
        0x00000b1e:    460d        .F      MOV      r5,r1
        0x00000b20:    4666        fF      MOV      r6,r12
        0x00000b22:    4375        uC      MULS     r5,r6,r5
        0x00000b24:    0b6e        n.      LSRS     r6,r5,#13
        0x00000b26:    433e        >C      ORRS     r6,r6,r7
        0x00000b28:    9f03        ..      LDR      r7,[sp,#0xc]
        0x00000b2a:    04ed        ..      LSLS     r5,r5,#19
        0x00000b2c:    1b7d        }.      SUBS     r5,r7,r5
        0x00000b2e:    d202        ..      BCS      0xb36 ; __aeabi_ddiv + 558
        0x00000b30:    2700        .'      MOVS     r7,#0
        0x00000b32:    1c76        v.      ADDS     r6,r6,#1
        0x00000b34:    4178        xA      ADCS     r0,r0,r7
        0x00000b36:    9f00        ..      LDR      r7,[sp,#0]
        0x00000b38:    1bbe        ..      SUBS     r6,r7,r6
        0x00000b3a:    4184        .A      SBCS     r4,r4,r0
        0x00000b3c:    4608        .F      MOV      r0,r1
        0x00000b3e:    9401        ..      STR      r4,[sp,#4]
        0x00000b40:    46b4        .F      MOV      r12,r6
        0x00000b42:    4358        XC      MULS     r0,r3,r0
        0x00000b44:    2400        .$      MOVS     r4,#0
        0x00000b46:    0f46        F.      LSRS     r6,r0,#29
        0x00000b48:    00e4        ..      LSLS     r4,r4,#3
        0x00000b4a:    4334        4C      ORRS     r4,r4,r6
        0x00000b4c:    00c6        ..      LSLS     r6,r0,#3
        0x00000b4e:    4608        .F      MOV      r0,r1
        0x00000b50:    4350        PC      MULS     r0,r2,r0
        0x00000b52:    0f47        G.      LSRS     r7,r0,#29
        0x00000b54:    4337        7C      ORRS     r7,r7,r6
        0x00000b56:    00c0        ..      LSLS     r0,r0,#3
        0x00000b58:    1a2d        -.      SUBS     r5,r5,r0
        0x00000b5a:    d202        ..      BCS      0xb62 ; __aeabi_ddiv + 602
        0x00000b5c:    2000        .       MOVS     r0,#0
        0x00000b5e:    1c7f        ..      ADDS     r7,r7,#1
        0x00000b60:    4144        DA      ADCS     r4,r4,r0
        0x00000b62:    4666        fF      MOV      r6,r12
        0x00000b64:    9801        ..      LDR      r0,[sp,#4]
        0x00000b66:    1bf6        ..      SUBS     r6,r6,r7
        0x00000b68:    41a0        .A      SBCS     r0,r0,r4
        0x00000b6a:    09b4        ..      LSRS     r4,r6,#6
        0x00000b6c:    0680        ..      LSLS     r0,r0,#26
        0x00000b6e:    4320         C      ORRS     r0,r0,r4
        0x00000b70:    09ac        ..      LSRS     r4,r5,#6
        0x00000b72:    06b6        ..      LSLS     r6,r6,#26
        0x00000b74:    4326        &C      ORRS     r6,r6,r4
        0x00000b76:    46b6        .F      MOV      lr,r6
        0x00000b78:    024c        L.      LSLS     r4,r1,#9
        0x00000b7a:    9e04        ..      LDR      r6,[sp,#0x10]
        0x00000b7c:    06ad        ..      LSLS     r5,r5,#26
        0x00000b7e:    9f05        ..      LDR      r7,[sp,#0x14]
        0x00000b80:    19a4        ..      ADDS     r4,r4,r6
        0x00000b82:    2100        .!      MOVS     r1,#0
        0x00000b84:    4179        yA      ADCS     r1,r1,r7
        0x00000b86:    9105        ..      STR      r1,[sp,#0x14]
        0x00000b88:    9908        ..      LDR      r1,[sp,#0x20]
        0x00000b8a:    4676        vF      MOV      r6,lr
        0x00000b8c:    4319        .C      ORRS     r1,r1,r3
        0x00000b8e:    9b09        ..      LDR      r3,[sp,#0x24]
        0x00000b90:    19b6        ..      ADDS     r6,r6,r6
        0x00000b92:    4313        .C      ORRS     r3,r3,r2
        0x00000b94:    2200        ."      MOVS     r2,#0
        0x00000b96:    4140        @A      ADCS     r0,r0,r0
        0x00000b98:    4694        .F      MOV      r12,r2
        0x00000b9a:    0fea        ..      LSRS     r2,r5,#31
        0x00000b9c:    006f        o.      LSLS     r7,r5,#1
        0x00000b9e:    4332        2C      ORRS     r2,r2,r6
        0x00000ba0:    4605        .F      MOV      r5,r0
        0x00000ba2:    1ad6        ..      SUBS     r6,r2,r3
        0x00000ba4:    418d        .A      SBCS     r5,r5,r1
        0x00000ba6:    42a8        .B      CMP      r0,r5
        0x00000ba8:    d903        ..      BLS      0xbb2 ; __aeabi_ddiv + 682
        0x00000baa:    2001        .       MOVS     r0,#1
        0x00000bac:    4684        .F      MOV      r12,r0
        0x00000bae:    4632        2F      MOV      r2,r6
        0x00000bb0:    4628        (F      MOV      r0,r5
        0x00000bb2:    0fc6        ..      LSRS     r6,r0,#31
        0x00000bb4:    1895        ..      ADDS     r5,r2,r2
        0x00000bb6:    4140        @A      ADCS     r0,r0,r0
        0x00000bb8:    0ffa        ..      LSRS     r2,r7,#31
        0x00000bba:    432a        *C      ORRS     r2,r2,r5
        0x00000bbc:    007d        }.      LSLS     r5,r7,#1
        0x00000bbe:    9503        ..      STR      r5,[sp,#0xc]
        0x00000bc0:    4665        eF      MOV      r5,r12
        0x00000bc2:    006f        o.      LSLS     r7,r5,#1
        0x00000bc4:    46b6        .F      MOV      lr,r6
        0x00000bc6:    1ad6        ..      SUBS     r6,r2,r3
        0x00000bc8:    4605        .F      MOV      r5,r0
        0x00000bca:    46b4        .F      MOV      r12,r6
        0x00000bcc:    418d        .A      SBCS     r5,r5,r1
        0x00000bce:    4676        vF      MOV      r6,lr
        0x00000bd0:    2e00        ..      CMP      r6,#0
        0x00000bd2:    d101        ..      BNE      0xbd8 ; __aeabi_ddiv + 720
        0x00000bd4:    42a8        .B      CMP      r0,r5
        0x00000bd6:    d902        ..      BLS      0xbde ; __aeabi_ddiv + 726
        0x00000bd8:    1c7f        ..      ADDS     r7,r7,#1
        0x00000bda:    4662        bF      MOV      r2,r12
        0x00000bdc:    4628        (F      MOV      r0,r5
        0x00000bde:    0fc5        ..      LSRS     r5,r0,#31
        0x00000be0:    46ac        .F      MOV      r12,r5
        0x00000be2:    1895        ..      ADDS     r5,r2,r2
        0x00000be4:    4140        @A      ADCS     r0,r0,r0
        0x00000be6:    9a03        ..      LDR      r2,[sp,#0xc]
        0x00000be8:    4606        .F      MOV      r6,r0
        0x00000bea:    0fd2        ..      LSRS     r2,r2,#31
        0x00000bec:    432a        *C      ORRS     r2,r2,r5
        0x00000bee:    007d        }.      LSLS     r5,r7,#1
        0x00000bf0:    1ad3        ..      SUBS     r3,r2,r3
        0x00000bf2:    418e        .A      SBCS     r6,r6,r1
        0x00000bf4:    4661        aF      MOV      r1,r12
        0x00000bf6:    2900        .)      CMP      r1,#0
        0x00000bf8:    d101        ..      BNE      0xbfe ; __aeabi_ddiv + 758
        0x00000bfa:    42b0        .B      CMP      r0,r6
        0x00000bfc:    d902        ..      BLS      0xc04 ; __aeabi_ddiv + 764
        0x00000bfe:    1c6d        m.      ADDS     r5,r5,#1
        0x00000c00:    4630        0F      MOV      r0,r6
        0x00000c02:    461a        .F      MOV      r2,r3
        0x00000c04:    4310        .C      ORRS     r0,r0,r2
        0x00000c06:    d001        ..      BEQ      0xc0c ; __aeabi_ddiv + 772
        0x00000c08:    2001        .       MOVS     r0,#1
        0x00000c0a:    4304        .C      ORRS     r4,r4,r0
        0x00000c0c:    0268        h.      LSLS     r0,r5,#9
        0x00000c0e:    9a05        ..      LDR      r2,[sp,#0x14]
        0x00000c10:    2100        .!      MOVS     r1,#0
        0x00000c12:    1900        ..      ADDS     r0,r0,r4
        0x00000c14:    4151        QA      ADCS     r1,r1,r2
        0x00000c16:    2202        ."      MOVS     r2,#2
        0x00000c18:    2900        .)      CMP      r1,#0
        0x00000c1a:    db02        ..      BLT      0xc22 ; __aeabi_ddiv + 794
        0x00000c1c:    2201        ."      MOVS     r2,#1
        0x00000c1e:    1800        ..      ADDS     r0,r0,r0
        0x00000c20:    4149        IA      ADCS     r1,r1,r1
        0x00000c22:    9b07        ..      LDR      r3,[sp,#0x1c]
        0x00000c24:    054c        L.      LSLS     r4,r1,#21
        0x00000c26:    141b        ..      ASRS     r3,r3,#16
        0x00000c28:    18d3        ..      ADDS     r3,r2,r3
        0x00000c2a:    0ac9        ..      LSRS     r1,r1,#11
        0x00000c2c:    051b        ..      LSLS     r3,r3,#20
        0x00000c2e:    18cb        ..      ADDS     r3,r1,r3
        0x00000c30:    9907        ..      LDR      r1,[sp,#0x1c]
        0x00000c32:    0542        B.      LSLS     r2,r0,#21
        0x00000c34:    0ac0        ..      LSRS     r0,r0,#11
        0x00000c36:    07c9        ..      LSLS     r1,r1,#31
        0x00000c38:    4320         C      ORRS     r0,r0,r4
        0x00000c3a:    4059        Y@      EORS     r1,r1,r3
        0x00000c3c:    2a00        .*      CMP      r2,#0
        0x00000c3e:    d009        ..      BEQ      0xc54 ; __aeabi_ddiv + 844
        0x00000c40:    2401        .$      MOVS     r4,#1
        0x00000c42:    40a2        .@      LSLS     r2,r2,r4
        0x00000c44:    d306        ..      BCC      0xc54 ; __aeabi_ddiv + 844
        0x00000c46:    2400        .$      MOVS     r4,#0
        0x00000c48:    1c40        @.      ADDS     r0,r0,#1
        0x00000c4a:    4161        aA      ADCS     r1,r1,r4
        0x00000c4c:    2a00        .*      CMP      r2,#0
        0x00000c4e:    d101        ..      BNE      0xc54 ; __aeabi_ddiv + 844
        0x00000c50:    0840        @.      LSRS     r0,r0,#1
        0x00000c52:    0040        @.      LSLS     r0,r0,#1
        0x00000c54:    4a2b        +J      LDR      r2,[pc,#172] ; [0xd04] = 0x7ff00000
        0x00000c56:    2b00        .+      CMP      r3,#0
        0x00000c58:    db04        ..      BLT      0xc64 ; __aeabi_ddiv + 860
        0x00000c5a:    461c        .F      MOV      r4,r3
        0x00000c5c:    4214        .B      TST      r4,r2
        0x00000c5e:    d001        ..      BEQ      0xc64 ; __aeabi_ddiv + 860
        0x00000c60:    439a        .C      BICS     r2,r2,r3
        0x00000c62:    d125        %.      BNE      0xcb0 ; __aeabi_ddiv + 936
        0x00000c64:    2201        ."      MOVS     r2,#1
        0x00000c66:    9807        ..      LDR      r0,[sp,#0x1c]
        0x00000c68:    0692        ..      LSLS     r2,r2,#26
        0x00000c6a:    4290        .B      CMP      r0,r2
        0x00000c6c:    dc33        3.      BGT      0xcd6 ; __aeabi_ddiv + 974
        0x00000c6e:    2003        .       MOVS     r0,#3
        0x00000c70:    0740        @.      LSLS     r0,r0,#29
        0x00000c72:    1808        ..      ADDS     r0,r1,r0
        0x00000c74:    0fc1        ..      LSRS     r1,r0,#31
        0x00000c76:    07c9        ..      LSLS     r1,r1,#31
        0x00000c78:    e034        4.      B        0xce4 ; __aeabi_ddiv + 988
        0x00000c7a:    460e        .F      MOV      r6,r1
        0x00000c7c:    1807        ..      ADDS     r7,r0,r0
        0x00000c7e:    414e        NA      ADCS     r6,r6,r1
        0x00000c80:    4d21        !M      LDR      r5,[pc,#132] ; [0xd08] = 0xffe00000
        0x00000c82:    427a        zB      RSBS     r2,r7,#0
        0x00000c84:    41b5        .A      SBCS     r5,r5,r6
        0x00000c86:    d31b        ..      BCC      0xcc0 ; __aeabi_ddiv + 952
        0x00000c88:    4662        bF      MOV      r2,r12
        0x00000c8a:    1896        ..      ADDS     r6,r2,r2
        0x00000c8c:    461d        .F      MOV      r5,r3
        0x00000c8e:    415d        ]A      ADCS     r5,r5,r3
        0x00000c90:    4a1d        .J      LDR      r2,[pc,#116] ; [0xd08] = 0xffe00000
        0x00000c92:    4276        vB      RSBS     r6,r6,#0
        0x00000c94:    41aa        .A      SBCS     r2,r2,r5
        0x00000c96:    d313        ..      BCC      0xcc0 ; __aeabi_ddiv + 952
        0x00000c98:    2201        ."      MOVS     r2,#1
        0x00000c9a:    0552        R.      LSLS     r2,r2,#21
        0x00000c9c:    004d        M.      LSLS     r5,r1,#1
        0x00000c9e:    42d5        .B      CMN      r5,r2
        0x00000ca0:    d10b        ..      BNE      0xcba ; __aeabi_ddiv + 946
        0x00000ca2:    005c        \.      LSLS     r4,r3,#1
        0x00000ca4:    42d4        .B      CMN      r4,r2
        0x00000ca6:    d00b        ..      BEQ      0xcc0 ; __aeabi_ddiv + 952
        0x00000ca8:    404b        K@      EORS     r3,r3,r1
        0x00000caa:    d503        ..      BPL      0xcb4 ; __aeabi_ddiv + 940
        0x00000cac:    0292        ..      LSLS     r2,r2,#10
        0x00000cae:    4311        .C      ORRS     r1,r1,r2
        0x00000cb0:    b00b        ..      ADD      sp,sp,#0x2c
        0x00000cb2:    bdf0        ..      POP      {r4-r7,pc}
        0x00000cb4:    0049        I.      LSLS     r1,r1,#1
        0x00000cb6:    0849        I.      LSRS     r1,r1,#1
        0x00000cb8:    e7fa        ..      B        0xcb0 ; __aeabi_ddiv + 936
        0x00000cba:    0fe1        ..      LSRS     r1,r4,#31
        0x00000cbc:    07c9        ..      LSLS     r1,r1,#31
        0x00000cbe:    e011        ..      B        0xce4 ; __aeabi_ddiv + 988
        0x00000cc0:    2000        .       MOVS     r0,#0
        0x00000cc2:    4912        .I      LDR      r1,[pc,#72] ; [0xd0c] = 0x7ff80000
        0x00000cc4:    e7f4        ..      B        0xcb0 ; __aeabi_ddiv + 936
        0x00000cc6:    480f        .H      LDR      r0,[pc,#60] ; [0xd04] = 0x7ff00000
        0x00000cc8:    4201        .B      TST      r1,r0
        0x00000cca:    d001        ..      BEQ      0xcd0 ; __aeabi_ddiv + 968
        0x00000ccc:    4621        !F      MOV      r1,r4
        0x00000cce:    e005        ..      B        0xcdc ; __aeabi_ddiv + 980
        0x00000cd0:    4203        .B      TST      r3,r0
        0x00000cd2:    d0f5        ..      BEQ      0xcc0 ; __aeabi_ddiv + 952
        0x00000cd4:    e7f1        ..      B        0xcba ; __aeabi_ddiv + 946
        0x00000cd6:    2005        .       MOVS     r0,#5
        0x00000cd8:    0740        @.      LSLS     r0,r0,#29
        0x00000cda:    1809        ..      ADDS     r1,r1,r0
        0x00000cdc:    480c        .H      LDR      r0,[pc,#48] ; [0xd10] = 0x7fffffff
        0x00000cde:    4301        .C      ORRS     r1,r1,r0
        0x00000ce0:    12c0        ..      ASRS     r0,r0,#11
        0x00000ce2:    4041        A@      EORS     r1,r1,r0
        0x00000ce4:    2000        .       MOVS     r0,#0
        0x00000ce6:    e7e3        ..      B        0xcb0 ; __aeabi_ddiv + 936
    _drdiv
        0x00000ce8:    4059        Y@      EORS     r1,r1,r3
        0x00000cea:    4050        P@      EORS     r0,r0,r2
        0x00000cec:    b510        ..      PUSH     {r4,lr}
        0x00000cee:    404b        K@      EORS     r3,r3,r1
        0x00000cf0:    4042        B@      EORS     r2,r2,r0
        0x00000cf2:    4059        Y@      EORS     r1,r1,r3
        0x00000cf4:    4050        P@      EORS     r0,r0,r2
        0x00000cf6:    f7fffe07    ....    BL       __aeabi_ddiv ; 0x908
        0x00000cfa:    bd10        ..      POP      {r4,pc}
    $d
        0x00000cfc:    07ff0000    ....    DCD    134152192
        0x00000d00:    0000570c    .W..    DCD    22284
        0x00000d04:    7ff00000    ....    DCD    2146435072
        0x00000d08:    ffe00000    ....    DCD    4292870144
        0x00000d0c:    7ff80000    ....    DCD    2146959360
        0x00000d10:    7fffffff    ....    DCD    2147483647
    $t
    .text
    __aeabi_i2d_normalise
        0x00000d14:    221f        ."      MOVS     r2,#0x1f
        0x00000d16:    0c03        ..      LSRS     r3,r0,#16
        0x00000d18:    d102        ..      BNE      0xd20 ; __aeabi_i2d_normalise + 12
        0x00000d1a:    220f        ."      MOVS     r2,#0xf
        0x00000d1c:    0400        ..      LSLS     r0,r0,#16
        0x00000d1e:    d002        ..      BEQ      0xd26 ; __aeabi_i2d_normalise + 18
        0x00000d20:    0e03        ..      LSRS     r3,r0,#24
        0x00000d22:    d003        ..      BEQ      0xd2c ; __aeabi_i2d_normalise + 24
        0x00000d24:    e004        ..      B        0xd30 ; __aeabi_i2d_normalise + 28
        0x00000d26:    2000        .       MOVS     r0,#0
        0x00000d28:    4601        .F      MOV      r1,r0
        0x00000d2a:    4770        pG      BX       lr
        0x00000d2c:    3a08        .:      SUBS     r2,r2,#8
        0x00000d2e:    0200        ..      LSLS     r0,r0,#8
        0x00000d30:    0f03        ..      LSRS     r3,r0,#28
        0x00000d32:    d101        ..      BNE      0xd38 ; __aeabi_i2d_normalise + 36
        0x00000d34:    1f12        ..      SUBS     r2,r2,#4
        0x00000d36:    0100        ..      LSLS     r0,r0,#4
        0x00000d38:    0f83        ..      LSRS     r3,r0,#30
        0x00000d3a:    d101        ..      BNE      0xd40 ; __aeabi_i2d_normalise + 44
        0x00000d3c:    1e92        ..      SUBS     r2,r2,#2
        0x00000d3e:    0080        ..      LSLS     r0,r0,#2
        0x00000d40:    2800        .(      CMP      r0,#0
        0x00000d42:    db01        ..      BLT      0xd48 ; __aeabi_i2d_normalise + 52
        0x00000d44:    1e52        R.      SUBS     r2,r2,#1
        0x00000d46:    0040        @.      LSLS     r0,r0,#1
        0x00000d48:    0512        ..      LSLS     r2,r2,#20
        0x00000d4a:    1851        Q.      ADDS     r1,r2,r1
        0x00000d4c:    0542        B.      LSLS     r2,r0,#21
        0x00000d4e:    12c0        ..      ASRS     r0,r0,#11
        0x00000d50:    1841        A.      ADDS     r1,r0,r1
        0x00000d52:    4610        .F      MOV      r0,r2
        0x00000d54:    4770        pG      BX       lr
    __aeabi_i2d
    _dflt
        0x00000d56:    0fc1        ..      LSRS     r1,r0,#31
        0x00000d58:    07c9        ..      LSLS     r1,r1,#31
        0x00000d5a:    d000        ..      BEQ      0xd5e ; __aeabi_i2d + 8
        0x00000d5c:    4240        @B      RSBS     r0,r0,#0
        0x00000d5e:    2201        ."      MOVS     r2,#1
        0x00000d60:    0792        ..      LSLS     r2,r2,#30
        0x00000d62:    4311        .C      ORRS     r1,r1,r2
        0x00000d64:    e7d6        ..      B        __aeabi_i2d_normalise ; 0xd14
    __aeabi_ui2d
    _dfltu
        0x00000d66:    2101        .!      MOVS     r1,#1
        0x00000d68:    0789        ..      LSLS     r1,r1,#30
        0x00000d6a:    e7d3        ..      B        __aeabi_i2d_normalise ; 0xd14
    .text
    __aeabi_dmul
    _dmul
        0x00000d6c:    b5f0        ..      PUSH     {r4-r7,lr}
        0x00000d6e:    4c9d        .L      LDR      r4,[pc,#628] ; [0xfe4] = 0x7ff0000
        0x00000d70:    090d        ..      LSRS     r5,r1,#4
        0x00000d72:    4626        &F      MOV      r6,r4
        0x00000d74:    46ac        .F      MOV      r12,r5
        0x00000d76:    43ae        .C      BICS     r6,r6,r5
        0x00000d78:    460d        .F      MOV      r5,r1
        0x00000d7a:    405d        ]@      EORS     r5,r5,r3
        0x00000d7c:    b089        ..      SUB      sp,sp,#0x24
        0x00000d7e:    2e00        ..      CMP      r6,#0
        0x00000d80:    d07e        ~.      BEQ      0xe80 ; __aeabi_dmul + 276
        0x00000d82:    091e        ..      LSRS     r6,r3,#4
        0x00000d84:    4627        'F      MOV      r7,r4
        0x00000d86:    43b7        .C      BICS     r7,r7,r6
        0x00000d88:    d07a        z.      BEQ      0xe80 ; __aeabi_dmul + 276
        0x00000d8a:    4667        gF      MOV      r7,r12
        0x00000d8c:    4027        '@      ANDS     r7,r7,r4
        0x00000d8e:    0fed        ..      LSRS     r5,r5,#31
        0x00000d90:    433d        =C      ORRS     r5,r5,r7
        0x00000d92:    4026        &@      ANDS     r6,r6,r4
        0x00000d94:    d075        u.      BEQ      0xe82 ; __aeabi_dmul + 278
        0x00000d96:    0124        $.      LSLS     r4,r4,#4
        0x00000d98:    4221        !B      TST      r1,r4
        0x00000d9a:    d072        r.      BEQ      0xe82 ; __aeabi_dmul + 278
        0x00000d9c:    1974        t.      ADDS     r4,r6,r5
        0x00000d9e:    25ff        .%      MOVS     r5,#0xff
        0x00000da0:    04ad        ..      LSLS     r5,r5,#18
        0x00000da2:    1b64        d.      SUBS     r4,r4,r5
        0x00000da4:    9404        ..      STR      r4,[sp,#0x10]
        0x00000da6:    02cc        ..      LSLS     r4,r1,#11
        0x00000da8:    02d9        ..      LSLS     r1,r3,#11
        0x00000daa:    2301        .#      MOVS     r3,#1
        0x00000dac:    051b        ..      LSLS     r3,r3,#20
        0x00000dae:    0ae4        ..      LSRS     r4,r4,#11
        0x00000db0:    0ac9        ..      LSRS     r1,r1,#11
        0x00000db2:    431c        .C      ORRS     r4,r4,r3
        0x00000db4:    4319        .C      ORRS     r1,r1,r3
        0x00000db6:    0124        $.      LSLS     r4,r4,#4
        0x00000db8:    0f03        ..      LSRS     r3,r0,#28
        0x00000dba:    431c        .C      ORRS     r4,r4,r3
        0x00000dbc:    010b        ..      LSLS     r3,r1,#4
        0x00000dbe:    0105        ..      LSLS     r5,r0,#4
        0x00000dc0:    0f11        ..      LSRS     r1,r2,#28
        0x00000dc2:    430b        .C      ORRS     r3,r3,r1
        0x00000dc4:    0ba0        ..      LSRS     r0,r4,#14
        0x00000dc6:    0381        ..      LSLS     r1,r0,#14
        0x00000dc8:    092d        -.      LSRS     r5,r5,#4
        0x00000dca:    0116        ..      LSLS     r6,r2,#4
        0x00000dcc:    438c        .C      BICS     r4,r4,r1
        0x00000dce:    0ba9        ..      LSRS     r1,r5,#14
        0x00000dd0:    038a        ..      LSLS     r2,r1,#14
        0x00000dd2:    4395        .C      BICS     r5,r5,r2
        0x00000dd4:    0b9a        ..      LSRS     r2,r3,#14
        0x00000dd6:    0397        ..      LSLS     r7,r2,#14
        0x00000dd8:    43bb        .C      BICS     r3,r3,r7
        0x00000dda:    0936        6.      LSRS     r6,r6,#4
        0x00000ddc:    469c        .F      MOV      r12,r3
        0x00000dde:    0bb3        ..      LSRS     r3,r6,#14
        0x00000de0:    039f        ..      LSLS     r7,r3,#14
        0x00000de2:    43be        .C      BICS     r6,r6,r7
        0x00000de4:    460f        .F      MOV      r7,r1
        0x00000de6:    435f        _C      MULS     r7,r3,r7
        0x00000de8:    9703        ..      STR      r7,[sp,#0xc]
        0x00000dea:    462f        /F      MOV      r7,r5
        0x00000dec:    4377        wC      MULS     r7,r6,r7
        0x00000dee:    9602        ..      STR      r6,[sp,#8]
        0x00000df0:    194e        N.      ADDS     r6,r1,r5
        0x00000df2:    46be        .F      MOV      lr,r7
        0x00000df4:    9607        ..      STR      r6,[sp,#0x1c]
        0x00000df6:    9f02        ..      LDR      r7,[sp,#8]
        0x00000df8:    19df        ..      ADDS     r7,r3,r7
        0x00000dfa:    437e        ~C      MULS     r6,r7,r6
        0x00000dfc:    9705        ..      STR      r7,[sp,#0x14]
        0x00000dfe:    9f03        ..      LDR      r7,[sp,#0xc]
        0x00000e00:    1bf7        ..      SUBS     r7,r6,r7
        0x00000e02:    4676        vF      MOV      r6,lr
        0x00000e04:    1bbe        ..      SUBS     r6,r7,r6
        0x00000e06:    4677        wF      MOV      r7,lr
        0x00000e08:    013f        ?.      LSLS     r7,r7,#4
        0x00000e0a:    9700        ..      STR      r7,[sp,#0]
        0x00000e0c:    9601        ..      STR      r6,[sp,#4]
        0x00000e0e:    9f03        ..      LDR      r7,[sp,#0xc]
        0x00000e10:    0bb6        ..      LSRS     r6,r6,#14
        0x00000e12:    19f6        ..      ADDS     r6,r6,r7
        0x00000e14:    46b6        .F      MOV      lr,r6
        0x00000e16:    9e01        ..      LDR      r6,[sp,#4]
        0x00000e18:    9f00        ..      LDR      r7,[sp,#0]
        0x00000e1a:    04b6        ..      LSLS     r6,r6,#18
        0x00000e1c:    19bf        ..      ADDS     r7,r7,r6
        0x00000e1e:    d302        ..      BCC      0xe26 ; __aeabi_dmul + 186
        0x00000e20:    4676        vF      MOV      r6,lr
        0x00000e22:    1c76        v.      ADDS     r6,r6,#1
        0x00000e24:    46b6        .F      MOV      lr,r6
        0x00000e26:    4676        vF      MOV      r6,lr
        0x00000e28:    0076        v.      LSLS     r6,r6,#1
        0x00000e2a:    2f00        ./      CMP      r7,#0
        0x00000e2c:    d001        ..      BEQ      0xe32 ; __aeabi_dmul + 198
        0x00000e2e:    2701        .'      MOVS     r7,#1
        0x00000e30:    433e        >C      ORRS     r6,r6,r7
        0x00000e32:    4667        gF      MOV      r7,r12
        0x00000e34:    437d        }C      MULS     r5,r7,r5
        0x00000e36:    9506        ..      STR      r5,[sp,#0x18]
        0x00000e38:    9d02        ..      LDR      r5,[sp,#8]
        0x00000e3a:    4627        'F      MOV      r7,r4
        0x00000e3c:    436f        oC      MULS     r7,r5,r7
        0x00000e3e:    9700        ..      STR      r7,[sp,#0]
        0x00000e40:    007f        ..      LSLS     r7,r7,#1
        0x00000e42:    9d06        ..      LDR      r5,[sp,#0x18]
        0x00000e44:    19be        ..      ADDS     r6,r7,r6
        0x00000e46:    006f        o.      LSLS     r7,r5,#1
        0x00000e48:    19bd        ..      ADDS     r5,r7,r6
        0x00000e4a:    4666        fF      MOV      r6,r12
        0x00000e4c:    1996        ..      ADDS     r6,r2,r6
        0x00000e4e:    9f07        ..      LDR      r7,[sp,#0x1c]
        0x00000e50:    46ae        .F      MOV      lr,r5
        0x00000e52:    4377        wC      MULS     r7,r6,r7
        0x00000e54:    9d06        ..      LDR      r5,[sp,#0x18]
        0x00000e56:    9603        ..      STR      r6,[sp,#0xc]
        0x00000e58:    1b7d        }.      SUBS     r5,r7,r5
        0x00000e5a:    9501        ..      STR      r5,[sp,#4]
        0x00000e5c:    1906        ..      ADDS     r6,r0,r4
        0x00000e5e:    9d05        ..      LDR      r5,[sp,#0x14]
        0x00000e60:    9f00        ..      LDR      r7,[sp,#0]
        0x00000e62:    4375        uC      MULS     r5,r6,r5
        0x00000e64:    9602        ..      STR      r6,[sp,#8]
        0x00000e66:    1bee        ..      SUBS     r6,r5,r7
        0x00000e68:    9d01        ..      LDR      r5,[sp,#4]
        0x00000e6a:    4351        QC      MULS     r1,r2,r1
        0x00000e6c:    1a6d        m.      SUBS     r5,r5,r1
        0x00000e6e:    4607        .F      MOV      r7,r0
        0x00000e70:    435f        _C      MULS     r7,r3,r7
        0x00000e72:    1bf3        ..      SUBS     r3,r6,r7
        0x00000e74:    9501        ..      STR      r5,[sp,#4]
        0x00000e76:    9300        ..      STR      r3,[sp,#0]
        0x00000e78:    4675        uF      MOV      r5,lr
        0x00000e7a:    06eb        ..      LSLS     r3,r5,#27
        0x00000e7c:    d006        ..      BEQ      0xe8c ; __aeabi_dmul + 288
        0x00000e7e:    e001        ..      B        0xe84 ; __aeabi_dmul + 280
        0x00000e80:    e091        ..      B        0xfa6 ; __aeabi_dmul + 570
        0x00000e82:    e08d        ..      B        0xfa0 ; __aeabi_dmul + 564
        0x00000e84:    096b        k.      LSRS     r3,r5,#5
        0x00000e86:    2501        .%      MOVS     r5,#1
        0x00000e88:    432b        +C      ORRS     r3,r3,r5
        0x00000e8a:    e000        ..      B        0xe8e ; __aeabi_dmul + 290
        0x00000e8c:    096b        k.      LSRS     r3,r5,#5
        0x00000e8e:    2600        .&      MOVS     r6,#0
        0x00000e90:    4635        5F      MOV      r5,r6
        0x00000e92:    46b6        .F      MOV      lr,r6
        0x00000e94:    0a0e        ..      LSRS     r6,r1,#8
        0x00000e96:    062d        -.      LSLS     r5,r5,#24
        0x00000e98:    0609        ..      LSLS     r1,r1,#24
        0x00000e9a:    4335        5C      ORRS     r5,r5,r6
        0x00000e9c:    18cb        ..      ADDS     r3,r1,r3
        0x00000e9e:    4676        vF      MOV      r6,lr
        0x00000ea0:    4175        uA      ADCS     r5,r5,r6
        0x00000ea2:    46ae        .F      MOV      lr,r5
        0x00000ea4:    2100        .!      MOVS     r1,#0
        0x00000ea6:    0a3d        =.      LSRS     r5,r7,#8
        0x00000ea8:    0609        ..      LSLS     r1,r1,#24
        0x00000eaa:    063e        >.      LSLS     r6,r7,#24
        0x00000eac:    4329        )C      ORRS     r1,r1,r5
        0x00000eae:    18f6        ..      ADDS     r6,r6,r3
        0x00000eb0:    4675        uF      MOV      r5,lr
        0x00000eb2:    4169        iA      ADCS     r1,r1,r5
        0x00000eb4:    46b6        .F      MOV      lr,r6
        0x00000eb6:    9b01        ..      LDR      r3,[sp,#4]
        0x00000eb8:    2600        .&      MOVS     r6,#0
        0x00000eba:    0d9d        ..      LSRS     r5,r3,#22
        0x00000ebc:    02b7        ..      LSLS     r7,r6,#10
        0x00000ebe:    432f        /C      ORRS     r7,r7,r5
        0x00000ec0:    029b        ..      LSLS     r3,r3,#10
        0x00000ec2:    4676        vF      MOV      r6,lr
        0x00000ec4:    199b        ..      ADDS     r3,r3,r6
        0x00000ec6:    414f        OA      ADCS     r7,r7,r1
        0x00000ec8:    9900        ..      LDR      r1,[sp,#0]
        0x00000eca:    2500        .%      MOVS     r5,#0
        0x00000ecc:    0d8e        ..      LSRS     r6,r1,#22
        0x00000ece:    02ad        ..      LSLS     r5,r5,#10
        0x00000ed0:    0289        ..      LSLS     r1,r1,#10
        0x00000ed2:    18c9        ..      ADDS     r1,r1,r3
        0x00000ed4:    4335        5C      ORRS     r5,r5,r6
        0x00000ed6:    417d        }A      ADCS     r5,r5,r7
        0x00000ed8:    4350        PC      MULS     r0,r2,r0
        0x00000eda:    4662        bF      MOV      r2,r12
        0x00000edc:    4354        TC      MULS     r4,r2,r4
        0x00000ede:    9b03        ..      LDR      r3,[sp,#0xc]
        0x00000ee0:    9a02        ..      LDR      r2,[sp,#8]
        0x00000ee2:    435a        ZC      MULS     r2,r3,r2
        0x00000ee4:    1a12        ..      SUBS     r2,r2,r0
        0x00000ee6:    1b16        ..      SUBS     r6,r2,r4
        0x00000ee8:    2200        ."      MOVS     r2,#0
        0x00000eea:    0eb7        ..      LSRS     r7,r6,#26
        0x00000eec:    0193        ..      LSLS     r3,r2,#6
        0x00000eee:    01b6        ..      LSLS     r6,r6,#6
        0x00000ef0:    1975        u.      ADDS     r5,r6,r5
        0x00000ef2:    433b        ;C      ORRS     r3,r3,r7
        0x00000ef4:    4153        SA      ADCS     r3,r3,r2
        0x00000ef6:    0b07        ..      LSRS     r7,r0,#12
        0x00000ef8:    0512        ..      LSLS     r2,r2,#20
        0x00000efa:    0500        ..      LSLS     r0,r0,#20
        0x00000efc:    1945        E.      ADDS     r5,r0,r5
        0x00000efe:    433a        :C      ORRS     r2,r2,r7
        0x00000f00:    415a        ZA      ADCS     r2,r2,r3
        0x00000f02:    2000        .       MOVS     r0,#0
        0x00000f04:    0603        ..      LSLS     r3,r0,#24
        0x00000f06:    0a27        '.      LSRS     r7,r4,#8
        0x00000f08:    0620         .      LSLS     r0,r4,#24
        0x00000f0a:    433b        ;C      ORRS     r3,r3,r7
        0x00000f0c:    1844        D.      ADDS     r4,r0,r1
        0x00000f0e:    2614        .&      MOVS     r6,#0x14
        0x00000f10:    416b        kA      ADCS     r3,r3,r5
        0x00000f12:    42ab        .B      CMP      r3,r5
        0x00000f14:    d200        ..      BCS      0xf18 ; __aeabi_dmul + 428
        0x00000f16:    1c52        R.      ADDS     r2,r2,#1
        0x00000f18:    2001        .       MOVS     r0,#1
        0x00000f1a:    0240        @.      LSLS     r0,r0,#9
        0x00000f1c:    4282        .B      CMP      r2,r0
        0x00000f1e:    d303        ..      BCC      0xf28 ; __aeabi_dmul + 444
        0x00000f20:    2615        .&      MOVS     r6,#0x15
        0x00000f22:    2102        .!      MOVS     r1,#2
        0x00000f24:    43c9        .C      MVNS     r1,r1
        0x00000f26:    e001        ..      B        0xf2c ; __aeabi_dmul + 448
        0x00000f28:    2103        .!      MOVS     r1,#3
        0x00000f2a:    43c9        .C      MVNS     r1,r1
        0x00000f2c:    2020                MOVS     r0,#0x20
        0x00000f2e:    1b85        ..      SUBS     r5,r0,r6
        0x00000f30:    40aa        .@      LSLS     r2,r2,r5
        0x00000f32:    461f        .F      MOV      r7,r3
        0x00000f34:    40af        .@      LSLS     r7,r7,r5
        0x00000f36:    40f3        .@      LSRS     r3,r3,r6
        0x00000f38:    4313        .C      ORRS     r3,r3,r2
        0x00000f3a:    4620         F      MOV      r0,r4
        0x00000f3c:    9a04        ..      LDR      r2,[sp,#0x10]
        0x00000f3e:    40f0        .@      LSRS     r0,r0,r6
        0x00000f40:    1412        ..      ASRS     r2,r2,#16
        0x00000f42:    1889        ..      ADDS     r1,r1,r2
        0x00000f44:    0509        ..      LSLS     r1,r1,#20
        0x00000f46:    185a        Z.      ADDS     r2,r3,r1
        0x00000f48:    9904        ..      LDR      r1,[sp,#0x10]
        0x00000f4a:    4338        8C      ORRS     r0,r0,r7
        0x00000f4c:    07c9        ..      LSLS     r1,r1,#31
        0x00000f4e:    4051        Q@      EORS     r1,r1,r2
        0x00000f50:    40ac        .@      LSLS     r4,r4,r5
        0x00000f52:    d009        ..      BEQ      0xf68 ; __aeabi_dmul + 508
        0x00000f54:    2301        .#      MOVS     r3,#1
        0x00000f56:    409c        .@      LSLS     r4,r4,r3
        0x00000f58:    d306        ..      BCC      0xf68 ; __aeabi_dmul + 508
        0x00000f5a:    2300        .#      MOVS     r3,#0
        0x00000f5c:    1c40        @.      ADDS     r0,r0,#1
        0x00000f5e:    4159        YA      ADCS     r1,r1,r3
        0x00000f60:    2c00        .,      CMP      r4,#0
        0x00000f62:    d101        ..      BNE      0xf68 ; __aeabi_dmul + 508
        0x00000f64:    0840        @.      LSRS     r0,r0,#1
        0x00000f66:    0040        @.      LSLS     r0,r0,#1
        0x00000f68:    4b1f        .K      LDR      r3,[pc,#124] ; [0xfe8] = 0x7ff00000
        0x00000f6a:    2a00        .*      CMP      r2,#0
        0x00000f6c:    db03        ..      BLT      0xf76 ; __aeabi_dmul + 522
        0x00000f6e:    421a        .B      TST      r2,r3
        0x00000f70:    d001        ..      BEQ      0xf76 ; __aeabi_dmul + 522
        0x00000f72:    438b        .C      BICS     r3,r3,r1
        0x00000f74:    d112        ..      BNE      0xf9c ; __aeabi_dmul + 560
        0x00000f76:    2201        ."      MOVS     r2,#1
        0x00000f78:    9804        ..      LDR      r0,[sp,#0x10]
        0x00000f7a:    0692        ..      LSLS     r2,r2,#26
        0x00000f7c:    4290        .B      CMP      r0,r2
        0x00000f7e:    db07        ..      BLT      0xf90 ; __aeabi_dmul + 548
        0x00000f80:    2005        .       MOVS     r0,#5
        0x00000f82:    0740        @.      LSLS     r0,r0,#29
        0x00000f84:    1809        ..      ADDS     r1,r1,r0
        0x00000f86:    4819        .H      LDR      r0,[pc,#100] ; [0xfec] = 0x7fffffff
        0x00000f88:    4301        .C      ORRS     r1,r1,r0
        0x00000f8a:    12c0        ..      ASRS     r0,r0,#11
        0x00000f8c:    4041        A@      EORS     r1,r1,r0
        0x00000f8e:    e004        ..      B        0xf9a ; __aeabi_dmul + 558
        0x00000f90:    2003        .       MOVS     r0,#3
        0x00000f92:    0740        @.      LSLS     r0,r0,#29
        0x00000f94:    1808        ..      ADDS     r0,r1,r0
        0x00000f96:    0fc1        ..      LSRS     r1,r0,#31
        0x00000f98:    07c9        ..      LSLS     r1,r1,#31
        0x00000f9a:    2000        .       MOVS     r0,#0
        0x00000f9c:    b009        ..      ADD      sp,sp,#0x24
        0x00000f9e:    bdf0        ..      POP      {r4-r7,pc}
        0x00000fa0:    2000        .       MOVS     r0,#0
        0x00000fa2:    07e9        ..      LSLS     r1,r5,#31
        0x00000fa4:    e7fa        ..      B        0xf9c ; __aeabi_dmul + 560
        0x00000fa6:    1806        ..      ADDS     r6,r0,r0
        0x00000fa8:    460c        .F      MOV      r4,r1
        0x00000faa:    414c        LA      ADCS     r4,r4,r1
        0x00000fac:    4810        .H      LDR      r0,[pc,#64] ; [0xff0] = 0xffe00000
        0x00000fae:    4276        vB      RSBS     r6,r6,#0
        0x00000fb0:    41a0        .A      SBCS     r0,r0,r4
        0x00000fb2:    d314        ..      BCC      0xfde ; __aeabi_dmul + 626
        0x00000fb4:    1894        ..      ADDS     r4,r2,r2
        0x00000fb6:    461a        .F      MOV      r2,r3
        0x00000fb8:    415a        ZA      ADCS     r2,r2,r3
        0x00000fba:    480d        .H      LDR      r0,[pc,#52] ; [0xff0] = 0xffe00000
        0x00000fbc:    4264        dB      RSBS     r4,r4,#0
        0x00000fbe:    4190        .A      SBCS     r0,r0,r2
        0x00000fc0:    d30d        ..      BCC      0xfde ; __aeabi_dmul + 626
        0x00000fc2:    2001        .       MOVS     r0,#1
        0x00000fc4:    0049        I.      LSLS     r1,r1,#1
        0x00000fc6:    0540        @.      LSLS     r0,r0,#21
        0x00000fc8:    4281        .B      CMP      r1,r0
        0x00000fca:    d308        ..      BCC      0xfde ; __aeabi_dmul + 626
        0x00000fcc:    0059        Y.      LSLS     r1,r3,#1
        0x00000fce:    4281        .B      CMP      r1,r0
        0x00000fd0:    d305        ..      BCC      0xfde ; __aeabi_dmul + 626
        0x00000fd2:    0fe9        ..      LSRS     r1,r5,#31
        0x00000fd4:    4a04        .J      LDR      r2,[pc,#16] ; [0xfe8] = 0x7ff00000
        0x00000fd6:    07c9        ..      LSLS     r1,r1,#31
        0x00000fd8:    2000        .       MOVS     r0,#0
        0x00000fda:    4311        .C      ORRS     r1,r1,r2
        0x00000fdc:    e7de        ..      B        0xf9c ; __aeabi_dmul + 560
        0x00000fde:    2000        .       MOVS     r0,#0
        0x00000fe0:    4904        .I      LDR      r1,[pc,#16] ; [0xff4] = 0x7ff80000
        0x00000fe2:    e7db        ..      B        0xf9c ; __aeabi_dmul + 560
    $d
        0x00000fe4:    07ff0000    ....    DCD    134152192
        0x00000fe8:    7ff00000    ....    DCD    2146435072
        0x00000fec:    7fffffff    ....    DCD    2147483647
        0x00000ff0:    ffe00000    ....    DCD    4292870144
        0x00000ff4:    7ff80000    ....    DCD    2146959360
    $t
    .text
    __aeabi_f2d
    _f2d
        0x00000ff8:    2101        .!      MOVS     r1,#1
        0x00000ffa:    05c9        ..      LSLS     r1,r1,#23
        0x00000ffc:    1841        A.      ADDS     r1,r0,r1
        0x00000ffe:    004a        J.      LSLS     r2,r1,#1
        0x00001000:    0e52        R.      LSRS     r2,r2,#25
        0x00001002:    d00b        ..      BEQ      0x101c ; __aeabi_f2d + 36
        0x00001004:    10c1        ..      ASRS     r1,r0,#3
        0x00001006:    2207        ."      MOVS     r2,#7
        0x00001008:    06d2        ..      LSLS     r2,r2,#27
        0x0000100a:    1889        ..      ADDS     r1,r1,r2
        0x0000100c:    0740        @.      LSLS     r0,r0,#29
        0x0000100e:    4252        RB      RSBS     r2,r2,#0
        0x00001010:    188a        ..      ADDS     r2,r1,r2
        0x00001012:    d502        ..      BPL      0x101a ; __aeabi_f2d + 34
        0x00001014:    2209        ."      MOVS     r2,#9
        0x00001016:    0712        ..      LSLS     r2,r2,#28
        0x00001018:    1889        ..      ADDS     r1,r1,r2
        0x0000101a:    4770        pG      BX       lr
        0x0000101c:    0209        ..      LSLS     r1,r1,#8
        0x0000101e:    d506        ..      BPL      0x102e ; __aeabi_f2d + 54
        0x00001020:    4601        .F      MOV      r1,r0
        0x00001022:    0040        @.      LSLS     r0,r0,#1
        0x00001024:    d0f9        ..      BEQ      0x101a ; __aeabi_f2d + 34
        0x00001026:    0fc9        ..      LSRS     r1,r1,#31
        0x00001028:    07c9        ..      LSLS     r1,r1,#31
        0x0000102a:    2000        .       MOVS     r0,#0
        0x0000102c:    4770        pG      BX       lr
        0x0000102e:    0242        B.      LSLS     r2,r0,#9
        0x00001030:    d002        ..      BEQ      0x1038 ; __aeabi_f2d + 64
        0x00001032:    2000        .       MOVS     r0,#0
        0x00001034:    4903        .I      LDR      r1,[pc,#12] ; [0x1044] = 0x7ff80000
        0x00001036:    4770        pG      BX       lr
        0x00001038:    2107        .!      MOVS     r1,#7
        0x0000103a:    0509        ..      LSLS     r1,r1,#20
        0x0000103c:    4301        .C      ORRS     r1,r1,r0
        0x0000103e:    4610        .F      MOV      r0,r2
        0x00001040:    4770        pG      BX       lr
    $d
        0x00001042:    0000        ..      DCW    0
        0x00001044:    7ff80000    ....    DCD    2146959360
    $t
    .text
    __aeabi_fdiv
    _fdiv
        0x00001048:    b570        p.      PUSH     {r4-r6,lr}
        0x0000104a:    24ff        .$      MOVS     r4,#0xff
        0x0000104c:    0424        $.      LSLS     r4,r4,#16
        0x0000104e:    09c6        ..      LSRS     r6,r0,#7
        0x00001050:    25ff        .%      MOVS     r5,#0xff
        0x00001052:    4026        &@      ANDS     r6,r6,r4
        0x00001054:    3501        .5      ADDS     r5,#1
        0x00001056:    432e        .C      ORRS     r6,r6,r5
        0x00001058:    09c2        ..      LSRS     r2,r0,#7
        0x0000105a:    09cb        ..      LSRS     r3,r1,#7
        0x0000105c:    4605        .F      MOV      r5,r0
        0x0000105e:    4022        "@      ANDS     r2,r2,r4
        0x00001060:    4023        #@      ANDS     r3,r3,r4
        0x00001062:    404d        M@      EORS     r5,r5,r1
        0x00001064:    2a00        .*      CMP      r2,#0
        0x00001066:    d06b        k.      BEQ      0x1140 ; __aeabi_fdiv + 248
        0x00001068:    2b00        .+      CMP      r3,#0
        0x0000106a:    d069        i.      BEQ      0x1140 ; __aeabi_fdiv + 248
        0x0000106c:    42a2        .B      CMP      r2,r4
        0x0000106e:    d067        g.      BEQ      0x1140 ; __aeabi_fdiv + 248
        0x00001070:    42a3        .B      CMP      r3,r4
        0x00001072:    d065        e.      BEQ      0x1140 ; __aeabi_fdiv + 248
        0x00001074:    2d00        .-      CMP      r5,#0
        0x00001076:    da00        ..      BGE      0x107a ; __aeabi_fdiv + 50
        0x00001078:    4632        2F      MOV      r2,r6
        0x0000107a:    2401        .$      MOVS     r4,#1
        0x0000107c:    05e4        ..      LSLS     r4,r4,#23
        0x0000107e:    4321        !C      ORRS     r1,r1,r4
        0x00001080:    4320         C      ORRS     r0,r0,r4
        0x00001082:    0209        ..      LSLS     r1,r1,#8
        0x00001084:    0200        ..      LSLS     r0,r0,#8
        0x00001086:    0a09        ..      LSRS     r1,r1,#8
        0x00001088:    1ad2        ..      SUBS     r2,r2,r3
        0x0000108a:    0a00        ..      LSRS     r0,r0,#8
        0x0000108c:    0c4b        K.      LSRS     r3,r1,#17
        0x0000108e:    247f        .$      MOVS     r4,#0x7f
        0x00001090:    1ae3        ..      SUBS     r3,r4,r3
        0x00001092:    4c43        CL      LDR      r4,[pc,#268] ; [0x11a0] = 0x506c
        0x00001094:    447c        |D      ADD      r4,r4,pc
        0x00001096:    5ce3        .\      LDRB     r3,[r4,r3]
        0x00001098:    247d        }$      MOVS     r4,#0x7d
        0x0000109a:    0424        $.      LSLS     r4,r4,#16
        0x0000109c:    1912        ..      ADDS     r2,r2,r4
        0x0000109e:    1414        ..      ASRS     r4,r2,#16
        0x000010a0:    005b        [.      LSLS     r3,r3,#1
        0x000010a2:    18a2        ..      ADDS     r2,r4,r2
        0x000010a4:    4288        .B      CMP      r0,r1
        0x000010a6:    d301        ..      BCC      0x10ac ; __aeabi_fdiv + 100
        0x000010a8:    1c52        R.      ADDS     r2,r2,#1
        0x000010aa:    e000        ..      B        0x10ae ; __aeabi_fdiv + 102
        0x000010ac:    0040        @.      LSLS     r0,r0,#1
        0x000010ae:    4249        IB      RSBS     r1,r1,#0
        0x000010b0:    460c        .F      MOV      r4,r1
        0x000010b2:    435c        \C      MULS     r4,r3,r4
        0x000010b4:    1124        $.      ASRS     r4,r4,#4
        0x000010b6:    435c        \C      MULS     r4,r3,r4
        0x000010b8:    01db        ..      LSLS     r3,r3,#7
        0x000010ba:    1564        d.      ASRS     r4,r4,#21
        0x000010bc:    18e3        ..      ADDS     r3,r4,r3
        0x000010be:    0a04        ..      LSRS     r4,r0,#8
        0x000010c0:    435c        \C      MULS     r4,r3,r4
        0x000010c2:    02c5        ..      LSLS     r5,r0,#11
        0x000010c4:    0d20         .      LSRS     r0,r4,#20
        0x000010c6:    460c        .F      MOV      r4,r1
        0x000010c8:    4344        DC      MULS     r4,r0,r4
        0x000010ca:    1964        d.      ADDS     r4,r4,r5
        0x000010cc:    0a25        %.      LSRS     r5,r4,#8
        0x000010ce:    435d        ]C      MULS     r5,r3,r5
        0x000010d0:    0323        #.      LSLS     r3,r4,#12
        0x000010d2:    0cec        ..      LSRS     r4,r5,#19
        0x000010d4:    460d        .F      MOV      r5,r1
        0x000010d6:    4365        eC      MULS     r5,r4,r5
        0x000010d8:    0300        ..      LSLS     r0,r0,#12
        0x000010da:    1900        ..      ADDS     r0,r0,r4
        0x000010dc:    18eb        ..      ADDS     r3,r5,r3
        0x000010de:    424c        LB      RSBS     r4,r1,#0
        0x000010e0:    42a3        .B      CMP      r3,r4
        0x000010e2:    d301        ..      BCC      0x10e8 ; __aeabi_fdiv + 160
        0x000010e4:    185b        [.      ADDS     r3,r3,r1
        0x000010e6:    1c40        @.      ADDS     r0,r0,#1
        0x000010e8:    05d4        ..      LSLS     r4,r2,#23
        0x000010ea:    1820         .      ADDS     r0,r4,r0
        0x000010ec:    2b00        .+      CMP      r3,#0
        0x000010ee:    d007        ..      BEQ      0x1100 ; __aeabi_fdiv + 184
        0x000010f0:    005b        [.      LSLS     r3,r3,#1
        0x000010f2:    18c9        ..      ADDS     r1,r1,r3
        0x000010f4:    d304        ..      BCC      0x1100 ; __aeabi_fdiv + 184
        0x000010f6:    1c40        @.      ADDS     r0,r0,#1
        0x000010f8:    2900        .)      CMP      r1,#0
        0x000010fa:    d101        ..      BNE      0x1100 ; __aeabi_fdiv + 184
        0x000010fc:    0840        @.      LSRS     r0,r0,#1
        0x000010fe:    0040        @.      LSLS     r0,r0,#1
        0x00001100:    213f        ?!      MOVS     r1,#0x3f
        0x00001102:    0489        ..      LSLS     r1,r1,#18
        0x00001104:    428a        .B      CMP      r2,r1
        0x00001106:    d309        ..      BCC      0x111c ; __aeabi_fdiv + 212
        0x00001108:    2a00        .*      CMP      r2,#0
        0x0000110a:    dc08        ..      BGT      0x111e ; __aeabi_fdiv + 214
        0x0000110c:    0611        ..      LSLS     r1,r2,#24
        0x0000110e:    0f09        ..      LSRS     r1,r1,#28
        0x00001110:    d004        ..      BEQ      0x111c ; __aeabi_fdiv + 212
        0x00001112:    2103        .!      MOVS     r1,#3
        0x00001114:    0749        I.      LSLS     r1,r1,#29
        0x00001116:    1840        @.      ADDS     r0,r0,r1
        0x00001118:    0fc0        ..      LSRS     r0,r0,#31
        0x0000111a:    07c0        ..      LSLS     r0,r0,#31
        0x0000111c:    bd70        p.      POP      {r4-r6,pc}
        0x0000111e:    2201        ."      MOVS     r2,#1
        0x00001120:    0041        A.      LSLS     r1,r0,#1
        0x00001122:    0612        ..      LSLS     r2,r2,#24
        0x00001124:    1889        ..      ADDS     r1,r1,r2
        0x00001126:    227f        ."      MOVS     r2,#0x7f
        0x00001128:    0652        R.      LSLS     r2,r2,#25
        0x0000112a:    4291        .B      CMP      r1,r2
        0x0000112c:    d2f6        ..      BCS      0x111c ; __aeabi_fdiv + 212
        0x0000112e:    2105        .!      MOVS     r1,#5
        0x00001130:    0749        I.      LSLS     r1,r1,#29
        0x00001132:    1840        @.      ADDS     r0,r0,r1
        0x00001134:    d501        ..      BPL      0x113a ; __aeabi_fdiv + 242
        0x00001136:    1090        ..      ASRS     r0,r2,#2
        0x00001138:    bd70        p.      POP      {r4-r6,pc}
        0x0000113a:    20ff        .       MOVS     r0,#0xff
        0x0000113c:    05c0        ..      LSLS     r0,r0,#23
        0x0000113e:    bd70        p.      POP      {r4-r6,pc}
        0x00001140:    2d00        .-      CMP      r5,#0
        0x00001142:    da00        ..      BGE      0x1146 ; __aeabi_fdiv + 254
        0x00001144:    4632        2F      MOV      r2,r6
        0x00001146:    4e17        .N      LDR      r6,[pc,#92] ; [0x11a4] = 0x7fc00000
        0x00001148:    42a2        .B      CMP      r2,r4
        0x0000114a:    d207        ..      BCS      0x115c ; __aeabi_fdiv + 276
        0x0000114c:    42a3        .B      CMP      r3,r4
        0x0000114e:    d205        ..      BCS      0x115c ; __aeabi_fdiv + 276
        0x00001150:    0218        ..      LSLS     r0,r3,#8
        0x00001152:    0e00        ..      LSRS     r0,r0,#24
        0x00001154:    d017        ..      BEQ      0x1186 ; __aeabi_fdiv + 318
        0x00001156:    0fe8        ..      LSRS     r0,r5,#31
        0x00001158:    07c0        ..      LSLS     r0,r0,#31
        0x0000115a:    bd70        p.      POP      {r4-r6,pc}
        0x0000115c:    24ff        .$      MOVS     r4,#0xff
        0x0000115e:    0043        C.      LSLS     r3,r0,#1
        0x00001160:    0624        $.      LSLS     r4,r4,#24
        0x00001162:    42a3        .B      CMP      r3,r4
        0x00001164:    d816        ..      BHI      0x1194 ; __aeabi_fdiv + 332
        0x00001166:    0049        I.      LSLS     r1,r1,#1
        0x00001168:    42a1        .B      CMP      r1,r4
        0x0000116a:    d813        ..      BHI      0x1194 ; __aeabi_fdiv + 332
        0x0000116c:    42a3        .B      CMP      r3,r4
        0x0000116e:    d101        ..      BNE      0x1174 ; __aeabi_fdiv + 300
        0x00001170:    42a1        .B      CMP      r1,r4
        0x00001172:    d00f        ..      BEQ      0x1194 ; __aeabi_fdiv + 332
        0x00001174:    42a1        .B      CMP      r1,r4
        0x00001176:    d101        ..      BNE      0x117c ; __aeabi_fdiv + 308
        0x00001178:    2100        .!      MOVS     r1,#0
        0x0000117a:    e001        ..      B        0x1180 ; __aeabi_fdiv + 312
        0x0000117c:    0041        A.      LSLS     r1,r0,#1
        0x0000117e:    0849        I.      LSRS     r1,r1,#1
        0x00001180:    05d0        ..      LSLS     r0,r2,#23
        0x00001182:    4308        .C      ORRS     r0,r0,r1
        0x00001184:    bd70        p.      POP      {r4-r6,pc}
        0x00001186:    0210        ..      LSLS     r0,r2,#8
        0x00001188:    0e00        ..      LSRS     r0,r0,#24
        0x0000118a:    d003        ..      BEQ      0x1194 ; __aeabi_fdiv + 332
        0x0000118c:    20ff        .       MOVS     r0,#0xff
        0x0000118e:    4302        .C      ORRS     r2,r2,r0
        0x00001190:    05d0        ..      LSLS     r0,r2,#23
        0x00001192:    bd70        p.      POP      {r4-r6,pc}
        0x00001194:    4630        0F      MOV      r0,r6
        0x00001196:    bd70        p.      POP      {r4-r6,pc}
    _frdiv
        0x00001198:    4048        H@      EORS     r0,r0,r1
        0x0000119a:    4041        A@      EORS     r1,r1,r0
        0x0000119c:    4048        H@      EORS     r0,r0,r1
        0x0000119e:    e753        S.      B        __aeabi_fdiv ; 0x1048
    $d
        0x000011a0:    0000506c    lP..    DCD    20588
        0x000011a4:    7fc00000    ....    DCD    2143289344
    $t
    .text
    __aeabi_f2iz
    _ffix
        0x000011a8:    b510        ..      PUSH     {r4,lr}
        0x000011aa:    4602        .F      MOV      r2,r0
        0x000011ac:    249e        .$      MOVS     r4,#0x9e
        0x000011ae:    0200        ..      LSLS     r0,r0,#8
        0x000011b0:    15d1        ..      ASRS     r1,r2,#23
        0x000011b2:    07a3        ..      LSLS     r3,r4,#30
        0x000011b4:    2900        .)      CMP      r1,#0
        0x000011b6:    d002        ..      BEQ      0x11be ; __aeabi_f2iz + 22
        0x000011b8:    4318        .C      ORRS     r0,r0,r3
        0x000011ba:    2900        .)      CMP      r1,#0
        0x000011bc:    db04        ..      BLT      0x11c8 ; __aeabi_f2iz + 32
        0x000011be:    1a61        a.      SUBS     r1,r4,r1
        0x000011c0:    2900        .)      CMP      r1,#0
        0x000011c2:    dd0c        ..      BLE      0x11de ; __aeabi_f2iz + 54
        0x000011c4:    40c8        .@      LSRS     r0,r0,r1
        0x000011c6:    bd10        ..      POP      {r4,pc}
        0x000011c8:    0609        ..      LSLS     r1,r1,#24
        0x000011ca:    0e09        ..      LSRS     r1,r1,#24
        0x000011cc:    d101        ..      BNE      0x11d2 ; __aeabi_f2iz + 42
        0x000011ce:    0040        @.      LSLS     r0,r0,#1
        0x000011d0:    0840        @.      LSRS     r0,r0,#1
        0x000011d2:    1a61        a.      SUBS     r1,r4,r1
        0x000011d4:    d403        ..      BMI      0x11de ; __aeabi_f2iz + 54
        0x000011d6:    40c8        .@      LSRS     r0,r0,r1
        0x000011d8:    4240        @B      RSBS     r0,r0,#0
        0x000011da:    2800        .(      CMP      r0,#0
        0x000011dc:    ddf3        ..      BLE      0x11c6 ; __aeabi_f2iz + 30
        0x000011de:    21ff        .!      MOVS     r1,#0xff
        0x000011e0:    0050        P.      LSLS     r0,r2,#1
        0x000011e2:    0609        ..      LSLS     r1,r1,#24
        0x000011e4:    4288        .B      CMP      r0,r1
        0x000011e6:    d901        ..      BLS      0x11ec ; __aeabi_f2iz + 68
        0x000011e8:    2000        .       MOVS     r0,#0
        0x000011ea:    bd10        ..      POP      {r4,pc}
        0x000011ec:    17d0        ..      ASRS     r0,r2,#31
        0x000011ee:    43c0        .C      MVNS     r0,r0
        0x000011f0:    4058        X@      EORS     r0,r0,r3
        0x000011f2:    bd10        ..      POP      {r4,pc}
    .text
    __aeabi_i2f_normalise
        0x000011f4:    221f        ."      MOVS     r2,#0x1f
        0x000011f6:    0c03        ..      LSRS     r3,r0,#16
        0x000011f8:    d102        ..      BNE      0x1200 ; __aeabi_i2f_normalise + 12
        0x000011fa:    220f        ."      MOVS     r2,#0xf
        0x000011fc:    0400        ..      LSLS     r0,r0,#16
        0x000011fe:    d01c        ..      BEQ      0x123a ; __aeabi_i2f_normalise + 70
        0x00001200:    0e03        ..      LSRS     r3,r0,#24
        0x00001202:    d101        ..      BNE      0x1208 ; __aeabi_i2f_normalise + 20
        0x00001204:    3a08        .:      SUBS     r2,r2,#8
        0x00001206:    0200        ..      LSLS     r0,r0,#8
        0x00001208:    0f03        ..      LSRS     r3,r0,#28
        0x0000120a:    d101        ..      BNE      0x1210 ; __aeabi_i2f_normalise + 28
        0x0000120c:    1f12        ..      SUBS     r2,r2,#4
        0x0000120e:    0100        ..      LSLS     r0,r0,#4
        0x00001210:    0f83        ..      LSRS     r3,r0,#30
        0x00001212:    d101        ..      BNE      0x1218 ; __aeabi_i2f_normalise + 36
        0x00001214:    1e92        ..      SUBS     r2,r2,#2
        0x00001216:    0080        ..      LSLS     r0,r0,#2
        0x00001218:    2800        .(      CMP      r0,#0
        0x0000121a:    db01        ..      BLT      0x1220 ; __aeabi_i2f_normalise + 44
        0x0000121c:    1e52        R.      SUBS     r2,r2,#1
        0x0000121e:    0040        @.      LSLS     r0,r0,#1
        0x00001220:    05d2        ..      LSLS     r2,r2,#23
        0x00001222:    1851        Q.      ADDS     r1,r2,r1
        0x00001224:    1202        ..      ASRS     r2,r0,#8
        0x00001226:    1851        Q.      ADDS     r1,r2,r1
        0x00001228:    2219        ."      MOVS     r2,#0x19
        0x0000122a:    4090        .@      LSLS     r0,r0,r2
        0x0000122c:    d304        ..      BCC      0x1238 ; __aeabi_i2f_normalise + 68
        0x0000122e:    1c49        I.      ADDS     r1,r1,#1
        0x00001230:    2800        .(      CMP      r0,#0
        0x00001232:    d101        ..      BNE      0x1238 ; __aeabi_i2f_normalise + 68
        0x00001234:    0849        I.      LSRS     r1,r1,#1
        0x00001236:    0049        I.      LSLS     r1,r1,#1
        0x00001238:    4608        .F      MOV      r0,r1
        0x0000123a:    4770        pG      BX       lr
    __aeabi_i2f
    _fflt
        0x0000123c:    0fc1        ..      LSRS     r1,r0,#31
        0x0000123e:    07c9        ..      LSLS     r1,r1,#31
        0x00001240:    d000        ..      BEQ      0x1244 ; __aeabi_i2f + 8
        0x00001242:    4240        @B      RSBS     r0,r0,#0
        0x00001244:    2201        ."      MOVS     r2,#1
        0x00001246:    0792        ..      LSLS     r2,r2,#30
        0x00001248:    4311        .C      ORRS     r1,r1,r2
        0x0000124a:    e7d3        ..      B        __aeabi_i2f_normalise ; 0x11f4
    __aeabi_ui2f
    _ffltu
        0x0000124c:    2101        .!      MOVS     r1,#1
        0x0000124e:    0789        ..      LSLS     r1,r1,#30
        0x00001250:    e7d0        ..      B        __aeabi_i2f_normalise ; 0x11f4
    .text
    __read_errno
        0x00001252:    b510        ..      PUSH     {r4,lr}
        0x00001254:    f000fb74    ..t.    BL       __aeabi_errno_addr ; 0x1940
        0x00001258:    6800        .h      LDR      r0,[r0,#0]
        0x0000125a:    bd10        ..      POP      {r4,pc}
    __set_errno
        0x0000125c:    b510        ..      PUSH     {r4,lr}
        0x0000125e:    4604        .F      MOV      r4,r0
        0x00001260:    f000fb6e    ..n.    BL       __aeabi_errno_addr ; 0x1940
        0x00001264:    6004        .`      STR      r4,[r0,#0]
        0x00001266:    bd10        ..      POP      {r4,pc}
    .text
    _printf_int_common
        0x00001268:    b5ff        ..      PUSH     {r0-r7,lr}
        0x0000126a:    4604        .F      MOV      r4,r0
        0x0000126c:    460d        .F      MOV      r5,r1
        0x0000126e:    b081        ..      SUB      sp,sp,#4
        0x00001270:    3024        $0      ADDS     r0,r0,#0x24
        0x00001272:    9000        ..      STR      r0,[sp,#0]
        0x00001274:    6821        !h      LDR      r1,[r4,#0]
        0x00001276:    0688        ..      LSLS     r0,r1,#26
        0x00001278:    d504        ..      BPL      0x1284 ; _printf_int_common + 28
        0x0000127a:    2210        ."      MOVS     r2,#0x10
        0x0000127c:    69e0        .i      LDR      r0,[r4,#0x1c]
        0x0000127e:    4391        .C      BICS     r1,r1,r2
        0x00001280:    6021        !`      STR      r1,[r4,#0]
        0x00001282:    e000        ..      B        0x1286 ; _printf_int_common + 30
        0x00001284:    2001        .       MOVS     r0,#1
        0x00001286:    2700        .'      MOVS     r7,#0
        0x00001288:    42a8        .B      CMP      r0,r5
        0x0000128a:    dd00        ..      BLE      0x128e ; _printf_int_common + 38
        0x0000128c:    1b47        G.      SUBS     r7,r0,r5
        0x0000128e:    9804        ..      LDR      r0,[sp,#0x10]
        0x00001290:    69a1        .i      LDR      r1,[r4,#0x18]
        0x00001292:    197a        z.      ADDS     r2,r7,r5
        0x00001294:    1810        ..      ADDS     r0,r2,r0
        0x00001296:    1a08        ..      SUBS     r0,r1,r0
        0x00001298:    61a0        .a      STR      r0,[r4,#0x18]
        0x0000129a:    6820         h      LDR      r0,[r4,#0]
        0x0000129c:    06c0        ..      LSLS     r0,r0,#27
        0x0000129e:    d402        ..      BMI      0x12a6 ; _printf_int_common + 62
        0x000012a0:    4620         F      MOV      r0,r4
        0x000012a2:    46c0        .F      MOV      r8,r8
        0x000012a4:    46c0        .F      MOV      r8,r8
        0x000012a6:    2600        .&      MOVS     r6,#0
        0x000012a8:    e008        ..      B        0x12bc ; _printf_int_common + 84
        0x000012aa:    9803        ..      LDR      r0,[sp,#0xc]
        0x000012ac:    6862        bh      LDR      r2,[r4,#4]
        0x000012ae:    68a1        .h      LDR      r1,[r4,#8]
        0x000012b0:    5d80        .]      LDRB     r0,[r0,r6]
        0x000012b2:    4790        .G      BLX      r2
        0x000012b4:    6a20         j      LDR      r0,[r4,#0x20]
        0x000012b6:    1c40        @.      ADDS     r0,r0,#1
        0x000012b8:    1c76        v.      ADDS     r6,r6,#1
        0x000012ba:    6220         b      STR      r0,[r4,#0x20]
        0x000012bc:    9804        ..      LDR      r0,[sp,#0x10]
        0x000012be:    4286        .B      CMP      r6,r0
        0x000012c0:    dbf3        ..      BLT      0x12aa ; _printf_int_common + 66
        0x000012c2:    6820         h      LDR      r0,[r4,#0]
        0x000012c4:    06c0        ..      LSLS     r0,r0,#27
        0x000012c6:    d50a        ..      BPL      0x12de ; _printf_int_common + 118
        0x000012c8:    4620         F      MOV      r0,r4
        0x000012ca:    46c0        .F      MOV      r8,r8
        0x000012cc:    46c0        .F      MOV      r8,r8
        0x000012ce:    e006        ..      B        0x12de ; _printf_int_common + 118
        0x000012d0:    6862        bh      LDR      r2,[r4,#4]
        0x000012d2:    68a1        .h      LDR      r1,[r4,#8]
        0x000012d4:    2030        0       MOVS     r0,#0x30
        0x000012d6:    4790        .G      BLX      r2
        0x000012d8:    6a20         j      LDR      r0,[r4,#0x20]
        0x000012da:    1c40        @.      ADDS     r0,r0,#1
        0x000012dc:    6220         b      STR      r0,[r4,#0x20]
        0x000012de:    4638        8F      MOV      r0,r7
        0x000012e0:    1e7f        ..      SUBS     r7,r7,#1
        0x000012e2:    2800        .(      CMP      r0,#0
        0x000012e4:    dcf4        ..      BGT      0x12d0 ; _printf_int_common + 104
        0x000012e6:    e007        ..      B        0x12f8 ; _printf_int_common + 144
        0x000012e8:    9800        ..      LDR      r0,[sp,#0]
        0x000012ea:    6862        bh      LDR      r2,[r4,#4]
        0x000012ec:    68a1        .h      LDR      r1,[r4,#8]
        0x000012ee:    5d40        @]      LDRB     r0,[r0,r5]
        0x000012f0:    4790        .G      BLX      r2
        0x000012f2:    6a20         j      LDR      r0,[r4,#0x20]
        0x000012f4:    1c40        @.      ADDS     r0,r0,#1
        0x000012f6:    6220         b      STR      r0,[r4,#0x20]
        0x000012f8:    4628        (F      MOV      r0,r5
        0x000012fa:    1e6d        m.      SUBS     r5,r5,#1
        0x000012fc:    2800        .(      CMP      r0,#0
        0x000012fe:    dcf3        ..      BGT      0x12e8 ; _printf_int_common + 128
        0x00001300:    4620         F      MOV      r0,r4
        0x00001302:    46c0        .F      MOV      r8,r8
        0x00001304:    46c0        .F      MOV      r8,r8
        0x00001306:    6821        !h      LDR      r1,[r4,#0]
        0x00001308:    2002        .       MOVS     r0,#2
        0x0000130a:    0609        ..      LSLS     r1,r1,#24
        0x0000130c:    d400        ..      BMI      0x1310 ; _printf_int_common + 168
        0x0000130e:    2001        .       MOVS     r0,#1
        0x00001310:    b005        ..      ADD      sp,sp,#0x14
        0x00001312:    bdf0        ..      POP      {r4-r7,pc}
    .text
    __lib_sel_fp_printf
        0x00001314:    4770        pG      BX       lr
    _fp_digits
        0x00001316:    b5ff        ..      PUSH     {r0-r7,lr}
        0x00001318:    460c        .F      MOV      r4,r1
        0x0000131a:    461e        .F      MOV      r6,r3
        0x0000131c:    b08d        ..      SUB      sp,sp,#0x34
        0x0000131e:    ca03        ..      LDM      r2!,{r0,r1}
        0x00001320:    9006        ..      STR      r0,[sp,#0x18]
        0x00001322:    9107        ..      STR      r1,[sp,#0x1c]
        0x00001324:    004f        O.      LSLS     r7,r1,#1
        0x00001326:    0d7d        }.      LSRS     r5,r7,#21
        0x00001328:    d100        ..      BNE      0x132c ; _fp_digits + 22
        0x0000132a:    1e6d        m.      SUBS     r5,r5,#1
        0x0000132c:    2100        .!      MOVS     r1,#0
        0x0000132e:    4608        .F      MOV      r0,r1
        0x00001330:    2000        .       MOVS     r0,#0
        0x00001332:    46c0        .F      MOV      r8,r8
        0x00001334:    2103        .!      MOVS     r1,#3
        0x00001336:    9a07        ..      LDR      r2,[sp,#0x1c]
        0x00001338:    0589        ..      LSLS     r1,r1,#22
        0x0000133a:    4008        .@      ANDS     r0,r0,r1
        0x0000133c:    2a00        .*      CMP      r2,#0
        0x0000133e:    da03        ..      BGE      0x1348 ; _fp_digits + 50
        0x00001340:    0082        ..      LSLS     r2,r0,#2
        0x00001342:    1880        ..      ADDS     r0,r0,r2
        0x00001344:    0840        @.      LSRS     r0,r0,#1
        0x00001346:    4008        .@      ANDS     r0,r0,r1
        0x00001348:    0d80        ..      LSRS     r0,r0,#22
        0x0000134a:    2801        .(      CMP      r0,#1
        0x0000134c:    9008        ..      STR      r0,[sp,#0x20]
        0x0000134e:    dd02        ..      BLE      0x1356 ; _fp_digits + 64
        0x00001350:    2000        .       MOVS     r0,#0
        0x00001352:    43c0        .C      MVNS     r0,r0
        0x00001354:    9008        ..      STR      r0,[sp,#0x20]
        0x00001356:    9806        ..      LDR      r0,[sp,#0x18]
        0x00001358:    4307        .C      ORRS     r7,r7,r0
        0x0000135a:    d02c        ,.      BEQ      0x13b6 ; _fp_digits + 160
        0x0000135c:    48eb        .H      LDR      r0,[pc,#940] ; [0x170c] = 0xfffffc01
        0x0000135e:    49ec        .I      LDR      r1,[pc,#944] ; [0x1710] = 0x4d10
        0x00001360:    1828        (.      ADDS     r0,r5,r0
        0x00001362:    4348        HC      MULS     r0,r1,r0
        0x00001364:    1407        ..      ASRS     r7,r0,#16
        0x00001366:    9808        ..      LDR      r0,[sp,#0x20]
        0x00001368:    4240        @B      RSBS     r0,r0,#0
        0x0000136a:    900b        ..      STR      r0,[sp,#0x2c]
        0x0000136c:    9816        ..      LDR      r0,[sp,#0x58]
        0x0000136e:    2800        .(      CMP      r0,#0
        0x00001370:    d039        9.      BEQ      0x13e6 ; _fp_digits + 208
        0x00001372:    4275        uB      RSBS     r5,r6,#0
        0x00001374:    9a0b        ..      LDR      r2,[sp,#0x2c]
        0x00001376:    1e29        ).      SUBS     r1,r5,#0
        0x00001378:    dc00        ..      BGT      0x137c ; _fp_digits + 102
        0x0000137a:    9a08        ..      LDR      r2,[sp,#0x20]
        0x0000137c:    2900        .)      CMP      r1,#0
        0x0000137e:    da00        ..      BGE      0x1382 ; _fp_digits + 108
        0x00001380:    4269        iB      RSBS     r1,r5,#0
        0x00001382:    a803        ..      ADD      r0,sp,#0xc
        0x00001384:    f000fb62    ..b.    BL       _btod_etento ; 0x1a4c
        0x00001388:    9906        ..      LDR      r1,[sp,#0x18]
        0x0000138a:    9807        ..      LDR      r0,[sp,#0x1c]
        0x0000138c:    f000fbc4    ....    BL       _btod_d2e ; 0x1b18
        0x00001390:    9101        ..      STR      r1,[sp,#4]
        0x00001392:    4601        .F      MOV      r1,r0
        0x00001394:    48df        .H      LDR      r0,[pc,#892] ; [0x1714] = 0xffffdfe1
        0x00001396:    9202        ..      STR      r2,[sp,#8]
        0x00001398:    1809        ..      ADDS     r1,r1,r0
        0x0000139a:    2d00        .-      CMP      r5,#0
        0x0000139c:    9100        ..      STR      r1,[sp,#0]
        0x0000139e:    dd25        %.      BLE      0x13ec ; _fp_digits + 214
        0x000013a0:    49dc        .I      LDR      r1,[pc,#880] ; [0x1714] = 0xffffdfe1
        0x000013a2:    9803        ..      LDR      r0,[sp,#0xc]
        0x000013a4:    4249        IB      RSBS     r1,r1,#0
        0x000013a6:    1840        @.      ADDS     r0,r0,r1
        0x000013a8:    9003        ..      STR      r0,[sp,#0xc]
        0x000013aa:    4668        hF      MOV      r0,sp
        0x000013ac:    9a08        ..      LDR      r2,[sp,#0x20]
        0x000013ae:    a903        ..      ADD      r1,sp,#0xc
        0x000013b0:    f000fdde    ....    BL       _btod_ediv ; 0x1f70
        0x000013b4:    e022        ".      B        0x13fc ; _fp_digits + 230
        0x000013b6:    9816        ..      LDR      r0,[sp,#0x58]
        0x000013b8:    2801        .(      CMP      r0,#1
        0x000013ba:    d002        ..      BEQ      0x13c2 ; _fp_digits + 172
        0x000013bc:    2000        .       MOVS     r0,#0
        0x000013be:    2130        0!      MOVS     r1,#0x30
        0x000013c0:    e004        ..      B        0x13cc ; _fp_digits + 182
        0x000013c2:    2000        .       MOVS     r0,#0
        0x000013c4:    43f2        .C      MVNS     r2,r6
        0x000013c6:    e005        ..      B        0x13d4 ; _fp_digits + 190
        0x000013c8:    5421        !T      STRB     r1,[r4,r0]
        0x000013ca:    1c40        @.      ADDS     r0,r0,#1
        0x000013cc:    42b0        .B      CMP      r0,r6
        0x000013ce:    dbfb        ..      BLT      0x13c8 ; _fp_digits + 178
        0x000013d0:    4630        0F      MOV      r0,r6
        0x000013d2:    2200        ."      MOVS     r2,#0
        0x000013d4:    9b16        ..      LDR      r3,[sp,#0x58]
        0x000013d6:    2100        .!      MOVS     r1,#0
        0x000013d8:    5421        !T      STRB     r1,[r4,r0]
        0x000013da:    990d        ..      LDR      r1,[sp,#0x34]
        0x000013dc:    608b        .`      STR      r3,[r1,#8]
        0x000013de:    600a        .`      STR      r2,[r1,#0]
        0x000013e0:    6048        H`      STR      r0,[r1,#4]
        0x000013e2:    b011        ..      ADD      sp,sp,#0x44
        0x000013e4:    bdf0        ..      POP      {r4-r7,pc}
        0x000013e6:    1bbd        ..      SUBS     r5,r7,r6
        0x000013e8:    1c6d        m.      ADDS     r5,r5,#1
        0x000013ea:    e7c3        ..      B        0x1374 ; _fp_digits + 94
        0x000013ec:    9903        ..      LDR      r1,[sp,#0xc]
        0x000013ee:    1808        ..      ADDS     r0,r1,r0
        0x000013f0:    9003        ..      STR      r0,[sp,#0xc]
        0x000013f2:    4668        hF      MOV      r0,sp
        0x000013f4:    9a08        ..      LDR      r2,[sp,#0x20]
        0x000013f6:    a903        ..      ADD      r1,sp,#0xc
        0x000013f8:    f000fd88    ....    BL       _btod_emul ; 0x1f0c
        0x000013fc:    9000        ..      STR      r0,[sp,#0]
        0x000013fe:    0400        ..      LSLS     r0,r0,#16
        0x00001400:    9202        ..      STR      r2,[sp,#8]
        0x00001402:    0c00        ..      LSRS     r0,r0,#16
        0x00001404:    9101        ..      STR      r1,[sp,#4]
        0x00001406:    d003        ..      BEQ      0x1410 ; _fp_digits + 250
        0x00001408:    2000        .       MOVS     r0,#0
        0x0000140a:    43c0        .C      MVNS     r0,r0
        0x0000140c:    0841        A.      LSRS     r1,r0,#1
        0x0000140e:    e000        ..      B        0x1412 ; _fp_digits + 252
        0x00001410:    4610        .F      MOV      r0,r2
        0x00001412:    9a16        ..      LDR      r2,[sp,#0x58]
        0x00001414:    2a00        .*      CMP      r2,#0
        0x00001416:    d003        ..      BEQ      0x1420 ; _fp_digits + 266
        0x00001418:    2200        ."      MOVS     r2,#0
        0x0000141a:    9200        ..      STR      r2,[sp,#0]
        0x0000141c:    4615        .F      MOV      r5,r2
        0x0000141e:    e01e        ..      B        0x145e ; _fp_digits + 328
        0x00001420:    1e75        u.      SUBS     r5,r6,#1
        0x00001422:    d405        ..      BMI      0x1430 ; _fp_digits + 282
        0x00001424:    f000fa92    ....    BL       _ll_udiv10 ; 0x194c
        0x00001428:    3230        02      ADDS     r2,r2,#0x30
        0x0000142a:    5562        bU      STRB     r2,[r4,r5]
        0x0000142c:    1e6d        m.      SUBS     r5,r5,#1
        0x0000142e:    d5f9        ..      BPL      0x1424 ; _fp_digits + 270
        0x00001430:    2201        ."      MOVS     r2,#1
        0x00001432:    4308        .C      ORRS     r0,r0,r1
        0x00001434:    9609        ..      STR      r6,[sp,#0x24]
        0x00001436:    d002        ..      BEQ      0x143e ; _fp_digits + 296
        0x00001438:    2200        ."      MOVS     r2,#0
        0x0000143a:    1c7f        ..      ADDS     r7,r7,#1
        0x0000143c:    e004        ..      B        0x1448 ; _fp_digits + 306
        0x0000143e:    7820         x      LDRB     r0,[r4,#0]
        0x00001440:    2830        0(      CMP      r0,#0x30
        0x00001442:    d101        ..      BNE      0x1448 ; _fp_digits + 306
        0x00001444:    2200        ."      MOVS     r2,#0
        0x00001446:    1e7f        ..      SUBS     r7,r7,#1
        0x00001448:    2a00        .*      CMP      r2,#0
        0x0000144a:    970a        ..      STR      r7,[sp,#0x28]
        0x0000144c:    d08e        ..      BEQ      0x136c ; _fp_digits + 86
        0x0000144e:    e01e        ..      B        0x148e ; _fp_digits + 376
        0x00001450:    2d11        .-      CMP      r5,#0x11
        0x00001452:    da07        ..      BGE      0x1464 ; _fp_digits + 334
        0x00001454:    f000fa7a    ..z.    BL       _ll_udiv10 ; 0x194c
        0x00001458:    3230        02      ADDS     r2,r2,#0x30
        0x0000145a:    5562        bU      STRB     r2,[r4,r5]
        0x0000145c:    1c6d        m.      ADDS     r5,r5,#1
        0x0000145e:    4602        .F      MOV      r2,r0
        0x00001460:    430a        .C      ORRS     r2,r2,r1
        0x00001462:    d1f5        ..      BNE      0x1450 ; _fp_digits + 314
        0x00001464:    4308        .C      ORRS     r0,r0,r1
        0x00001466:    d10f        ..      BNE      0x1488 ; _fp_digits + 370
        0x00001468:    2100        .!      MOVS     r1,#0
        0x0000146a:    1e68        h.      SUBS     r0,r5,#1
        0x0000146c:    e005        ..      B        0x147a ; _fp_digits + 356
        0x0000146e:    5c23        #\      LDRB     r3,[r4,r0]
        0x00001470:    5c62        b\      LDRB     r2,[r4,r1]
        0x00001472:    5463        cT      STRB     r3,[r4,r1]
        0x00001474:    1c49        I.      ADDS     r1,r1,#1
        0x00001476:    5422        "T      STRB     r2,[r4,r0]
        0x00001478:    1e40        @.      SUBS     r0,r0,#1
        0x0000147a:    4281        .B      CMP      r1,r0
        0x0000147c:    dbf7        ..      BLT      0x146e ; _fp_digits + 344
        0x0000147e:    1ba8        ..      SUBS     r0,r5,r6
        0x00001480:    1e40        @.      SUBS     r0,r0,#1
        0x00001482:    9509        ..      STR      r5,[sp,#0x24]
        0x00001484:    900a        ..      STR      r0,[sp,#0x28]
        0x00001486:    e002        ..      B        0x148e ; _fp_digits + 376
        0x00001488:    9800        ..      LDR      r0,[sp,#0]
        0x0000148a:    2800        .(      CMP      r0,#0
        0x0000148c:    d00a        ..      BEQ      0x14a4 ; _fp_digits + 398
        0x0000148e:    9a09        ..      LDR      r2,[sp,#0x24]
        0x00001490:    9916        ..      LDR      r1,[sp,#0x58]
        0x00001492:    2000        .       MOVS     r0,#0
        0x00001494:    54a0        .T      STRB     r0,[r4,r2]
        0x00001496:    980d        ..      LDR      r0,[sp,#0x34]
        0x00001498:    9b0a        ..      LDR      r3,[sp,#0x28]
        0x0000149a:    9a09        ..      LDR      r2,[sp,#0x24]
        0x0000149c:    6003        .`      STR      r3,[r0,#0]
        0x0000149e:    6042        B`      STR      r2,[r0,#4]
        0x000014a0:    6081        .`      STR      r1,[r0,#8]
        0x000014a2:    e79e        ..      B        0x13e2 ; _fp_digits + 204
        0x000014a4:    2611        .&      MOVS     r6,#0x11
        0x000014a6:    2000        .       MOVS     r0,#0
        0x000014a8:    9016        ..      STR      r0,[sp,#0x58]
        0x000014aa:    e75f        _.      B        0x136c ; _fp_digits + 86
    _printf_fp_dec_real
        0x000014ac:    1dd2        ..      ADDS     r2,r2,#7
        0x000014ae:    b5f0        ..      PUSH     {r4-r7,lr}
        0x000014b0:    460d        .F      MOV      r5,r1
        0x000014b2:    4604        .F      MOV      r4,r0
        0x000014b4:    08d1        ..      LSRS     r1,r2,#3
        0x000014b6:    b095        ..      SUB      sp,sp,#0x54
        0x000014b8:    00c9        ..      LSLS     r1,r1,#3
        0x000014ba:    c903        ..      LDM      r1,{r0,r1}
        0x000014bc:    9010        ..      STR      r0,[sp,#0x40]
        0x000014be:    9111        ..      STR      r1,[sp,#0x44]
        0x000014c0:    f002fd4c    ..L.    BL       __ARM_fpclassify ; 0x3f5c
        0x000014c4:    4602        .F      MOV      r2,r0
        0x000014c6:    9811        ..      LDR      r0,[sp,#0x44]
        0x000014c8:    0fc1        ..      LSRS     r1,r0,#31
        0x000014ca:    202d        -       MOVS     r0,#0x2d
        0x000014cc:    2900        .)      CMP      r1,#0
        0x000014ce:    d106        ..      BNE      0x14de ; _printf_fp_dec_real + 50
        0x000014d0:    6821        !h      LDR      r1,[r4,#0]
        0x000014d2:    202b        +       MOVS     r0,#0x2b
        0x000014d4:    078b        ..      LSLS     r3,r1,#30
        0x000014d6:    d402        ..      BMI      0x14de ; _printf_fp_dec_real + 50
        0x000014d8:    0748        H.      LSLS     r0,r1,#29
        0x000014da:    0fc0        ..      LSRS     r0,r0,#31
        0x000014dc:    0140        @.      LSLS     r0,r0,#5
        0x000014de:    2a03        .*      CMP      r2,#3
        0x000014e0:    900f        ..      STR      r0,[sp,#0x3c]
        0x000014e2:    d001        ..      BEQ      0x14e8 ; _printf_fp_dec_real + 60
        0x000014e4:    2a07        .*      CMP      r2,#7
        0x000014e6:    db05        ..      BLT      0x14f4 ; _printf_fp_dec_real + 72
        0x000014e8:    4603        .F      MOV      r3,r0
        0x000014ea:    4629        )F      MOV      r1,r5
        0x000014ec:    4620         F      MOV      r0,r4
        0x000014ee:    f000fa6b    ..k.    BL       _printf_fp_infnan ; 0x19c8
        0x000014f2:    e108        ..      B        0x1706 ; _printf_fp_dec_real + 602
        0x000014f4:    6820         h      LDR      r0,[r4,#0]
        0x000014f6:    0680        ..      LSLS     r0,r0,#26
        0x000014f8:    d501        ..      BPL      0x14fe ; _printf_fp_dec_real + 82
        0x000014fa:    69e7        .i      LDR      r7,[r4,#0x1c]
        0x000014fc:    e000        ..      B        0x1500 ; _printf_fp_dec_real + 84
        0x000014fe:    2706        .'      MOVS     r7,#6
        0x00001500:    4628        (F      MOV      r0,r5
        0x00001502:    2111        .!      MOVS     r1,#0x11
        0x00001504:    2d65        e-      CMP      r5,#0x65
        0x00001506:    d004        ..      BEQ      0x1512 ; _printf_fp_dec_real + 102
        0x00001508:    2866        f(      CMP      r0,#0x66
        0x0000150a:    d010        ..      BEQ      0x152e ; _printf_fp_dec_real + 130
        0x0000150c:    2d67        g-      CMP      r5,#0x67
        0x0000150e:    d164        d.      BNE      0x15da ; _printf_fp_dec_real + 302
        0x00001510:    e028        (.      B        0x1564 ; _printf_fp_dec_real + 184
        0x00001512:    2300        .#      MOVS     r3,#0
        0x00001514:    2f11        ./      CMP      r7,#0x11
        0x00001516:    9300        ..      STR      r3,[sp,#0]
        0x00001518:    da00        ..      BGE      0x151c ; _printf_fp_dec_real + 112
        0x0000151a:    1c79        y.      ADDS     r1,r7,#1
        0x0000151c:    460b        .F      MOV      r3,r1
        0x0000151e:    aa10        ..      ADD      r2,sp,#0x40
        0x00001520:    a903        ..      ADD      r1,sp,#0xc
        0x00001522:    a80b        ..      ADD      r0,sp,#0x2c
        0x00001524:    f7fffef7    ....    BL       _fp_digits ; 0x1316
        0x00001528:    2600        .&      MOVS     r6,#0
        0x0000152a:    1c7d        }.      ADDS     r5,r7,#1
        0x0000152c:    e03e        >.      B        0x15ac ; _printf_fp_dec_real + 256
        0x0000152e:    2001        .       MOVS     r0,#1
        0x00001530:    2301        .#      MOVS     r3,#1
        0x00001532:    07c0        ..      LSLS     r0,r0,#31
        0x00001534:    900e        ..      STR      r0,[sp,#0x38]
        0x00001536:    aa10        ..      ADD      r2,sp,#0x40
        0x00001538:    a903        ..      ADD      r1,sp,#0xc
        0x0000153a:    a80b        ..      ADD      r0,sp,#0x2c
        0x0000153c:    9300        ..      STR      r3,[sp,#0]
        0x0000153e:    463b        ;F      MOV      r3,r7
        0x00001540:    f7fffee9    ....    BL       _fp_digits ; 0x1316
        0x00001544:    980d        ..      LDR      r0,[sp,#0x34]
        0x00001546:    9d0c        ..      LDR      r5,[sp,#0x30]
        0x00001548:    2600        .&      MOVS     r6,#0
        0x0000154a:    2800        .(      CMP      r0,#0
        0x0000154c:    d102        ..      BNE      0x1554 ; _printf_fp_dec_real + 168
        0x0000154e:    990b        ..      LDR      r1,[sp,#0x2c]
        0x00001550:    1c78        x.      ADDS     r0,r7,#1
        0x00001552:    180d        ..      ADDS     r5,r1,r0
        0x00001554:    1b78        x.      SUBS     r0,r7,r5
        0x00001556:    d402        ..      BMI      0x155e ; _printf_fp_dec_real + 178
        0x00001558:    4246        FB      RSBS     r6,r0,#0
        0x0000155a:    1e76        v.      SUBS     r6,r6,#1
        0x0000155c:    1c7d        }.      ADDS     r5,r7,#1
        0x0000155e:    1be8        ..      SUBS     r0,r5,r7
        0x00001560:    9000        ..      STR      r0,[sp,#0]
        0x00001562:    e03a        :.      B        0x15da ; _printf_fp_dec_real + 302
        0x00001564:    2f01        ./      CMP      r7,#1
        0x00001566:    da00        ..      BGE      0x156a ; _printf_fp_dec_real + 190
        0x00001568:    2701        .'      MOVS     r7,#1
        0x0000156a:    2300        .#      MOVS     r3,#0
        0x0000156c:    2f11        ./      CMP      r7,#0x11
        0x0000156e:    9300        ..      STR      r3,[sp,#0]
        0x00001570:    dc00        ..      BGT      0x1574 ; _printf_fp_dec_real + 200
        0x00001572:    4639        9F      MOV      r1,r7
        0x00001574:    460b        .F      MOV      r3,r1
        0x00001576:    aa10        ..      ADD      r2,sp,#0x40
        0x00001578:    a903        ..      ADD      r1,sp,#0xc
        0x0000157a:    a80b        ..      ADD      r0,sp,#0x2c
        0x0000157c:    f7fffecb    ....    BL       _fp_digits ; 0x1316
        0x00001580:    6820         h      LDR      r0,[r4,#0]
        0x00001582:    463d        =F      MOV      r5,r7
        0x00001584:    2600        .&      MOVS     r6,#0
        0x00001586:    0700        ..      LSLS     r0,r0,#28
        0x00001588:    d40b        ..      BMI      0x15a2 ; _printf_fp_dec_real + 246
        0x0000158a:    980c        ..      LDR      r0,[sp,#0x30]
        0x0000158c:    42a8        .B      CMP      r0,r5
        0x0000158e:    da00        ..      BGE      0x1592 ; _printf_fp_dec_real + 230
        0x00001590:    4605        .F      MOV      r5,r0
        0x00001592:    a803        ..      ADD      r0,sp,#0xc
        0x00001594:    2d01        .-      CMP      r5,#1
        0x00001596:    dd04        ..      BLE      0x15a2 ; _printf_fp_dec_real + 246
        0x00001598:    1941        A.      ADDS     r1,r0,r5
        0x0000159a:    3920         9      SUBS     r1,r1,#0x20
        0x0000159c:    7fc9        ..      LDRB     r1,[r1,#0x1f]
        0x0000159e:    2930        0)      CMP      r1,#0x30
        0x000015a0:    d008        ..      BEQ      0x15b4 ; _printf_fp_dec_real + 264
        0x000015a2:    980b        ..      LDR      r0,[sp,#0x2c]
        0x000015a4:    42b8        .B      CMP      r0,r7
        0x000015a6:    da01        ..      BGE      0x15ac ; _printf_fp_dec_real + 256
        0x000015a8:    1d01        ..      ADDS     r1,r0,#4
        0x000015aa:    da05        ..      BGE      0x15b8 ; _printf_fp_dec_real + 268
        0x000015ac:    2001        .       MOVS     r0,#1
        0x000015ae:    9000        ..      STR      r0,[sp,#0]
        0x000015b0:    980b        ..      LDR      r0,[sp,#0x2c]
        0x000015b2:    e011        ..      B        0x15d8 ; _printf_fp_dec_real + 300
        0x000015b4:    1e6d        m.      SUBS     r5,r5,#1
        0x000015b6:    e7ed        ..      B        0x1594 ; _printf_fp_dec_real + 232
        0x000015b8:    2800        .(      CMP      r0,#0
        0x000015ba:    dc02        ..      BGT      0x15c2 ; _printf_fp_dec_real + 278
        0x000015bc:    1986        ..      ADDS     r6,r0,r6
        0x000015be:    1a2d        -.      SUBS     r5,r5,r0
        0x000015c0:    e004        ..      B        0x15cc ; _printf_fp_dec_real + 288
        0x000015c2:    1c40        @.      ADDS     r0,r0,#1
        0x000015c4:    42a8        .B      CMP      r0,r5
        0x000015c6:    dd01        ..      BLE      0x15cc ; _printf_fp_dec_real + 288
        0x000015c8:    9d0b        ..      LDR      r5,[sp,#0x2c]
        0x000015ca:    1c6d        m.      ADDS     r5,r5,#1
        0x000015cc:    980b        ..      LDR      r0,[sp,#0x2c]
        0x000015ce:    1b80        ..      SUBS     r0,r0,r6
        0x000015d0:    1c40        @.      ADDS     r0,r0,#1
        0x000015d2:    9000        ..      STR      r0,[sp,#0]
        0x000015d4:    2001        .       MOVS     r0,#1
        0x000015d6:    07c0        ..      LSLS     r0,r0,#31
        0x000015d8:    900e        ..      STR      r0,[sp,#0x38]
        0x000015da:    6820         h      LDR      r0,[r4,#0]
        0x000015dc:    0700        ..      LSLS     r0,r0,#28
        0x000015de:    d405        ..      BMI      0x15ec ; _printf_fp_dec_real + 320
        0x000015e0:    9800        ..      LDR      r0,[sp,#0]
        0x000015e2:    42a8        .B      CMP      r0,r5
        0x000015e4:    db02        ..      BLT      0x15ec ; _printf_fp_dec_real + 320
        0x000015e6:    2000        .       MOVS     r0,#0
        0x000015e8:    43c0        .C      MVNS     r0,r0
        0x000015ea:    9000        ..      STR      r0,[sp,#0]
        0x000015ec:    4669        iF      MOV      r1,sp
        0x000015ee:    2000        .       MOVS     r0,#0
        0x000015f0:    72c8        .r      STRB     r0,[r1,#0xb]
        0x000015f2:    980e        ..      LDR      r0,[sp,#0x38]
        0x000015f4:    2101        .!      MOVS     r1,#1
        0x000015f6:    af02        ..      ADD      r7,sp,#8
        0x000015f8:    3703        .7      ADDS     r7,#3
        0x000015fa:    07c9        ..      LSLS     r1,r1,#31
        0x000015fc:    4288        .B      CMP      r0,r1
        0x000015fe:    d024        $.      BEQ      0x164a ; _printf_fp_dec_real + 414
        0x00001600:    2002        .       MOVS     r0,#2
        0x00001602:    9012        ..      STR      r0,[sp,#0x48]
        0x00001604:    202b        +       MOVS     r0,#0x2b
        0x00001606:    9013        ..      STR      r0,[sp,#0x4c]
        0x00001608:    980e        ..      LDR      r0,[sp,#0x38]
        0x0000160a:    2800        .(      CMP      r0,#0
        0x0000160c:    da0b        ..      BGE      0x1626 ; _printf_fp_dec_real + 378
        0x0000160e:    4240        @B      RSBS     r0,r0,#0
        0x00001610:    900e        ..      STR      r0,[sp,#0x38]
        0x00001612:    202d        -       MOVS     r0,#0x2d
        0x00001614:    9013        ..      STR      r0,[sp,#0x4c]
        0x00001616:    e006        ..      B        0x1626 ; _printf_fp_dec_real + 378
        0x00001618:    980e        ..      LDR      r0,[sp,#0x38]
        0x0000161a:    f000f89a    ....    BL       __rt_udiv10 ; 0x1752
        0x0000161e:    3130        01      ADDS     r1,r1,#0x30
        0x00001620:    1e7f        ..      SUBS     r7,r7,#1
        0x00001622:    900e        ..      STR      r0,[sp,#0x38]
        0x00001624:    7039        9p      STRB     r1,[r7,#0]
        0x00001626:    9912        ..      LDR      r1,[sp,#0x48]
        0x00001628:    1e48        H.      SUBS     r0,r1,#1
        0x0000162a:    2900        .)      CMP      r1,#0
        0x0000162c:    9012        ..      STR      r0,[sp,#0x48]
        0x0000162e:    dcf3        ..      BGT      0x1618 ; _printf_fp_dec_real + 364
        0x00001630:    980e        ..      LDR      r0,[sp,#0x38]
        0x00001632:    2800        .(      CMP      r0,#0
        0x00001634:    d1f0        ..      BNE      0x1618 ; _printf_fp_dec_real + 364
        0x00001636:    9813        ..      LDR      r0,[sp,#0x4c]
        0x00001638:    1e7f        ..      SUBS     r7,r7,#1
        0x0000163a:    7038        8p      STRB     r0,[r7,#0]
        0x0000163c:    6821        !h      LDR      r1,[r4,#0]
        0x0000163e:    2045        E       MOVS     r0,#0x45
        0x00001640:    0509        ..      LSLS     r1,r1,#20
        0x00001642:    d400        ..      BMI      0x1646 ; _printf_fp_dec_real + 410
        0x00001644:    2065        e       MOVS     r0,#0x65
        0x00001646:    1e7f        ..      SUBS     r7,r7,#1
        0x00001648:    7038        8p      STRB     r0,[r7,#0]
        0x0000164a:    a801        ..      ADD      r0,sp,#4
        0x0000164c:    1bc0        ..      SUBS     r0,r0,r7
        0x0000164e:    1dc0        ..      ADDS     r0,r0,#7
        0x00001650:    900e        ..      STR      r0,[sp,#0x38]
        0x00001652:    980f        ..      LDR      r0,[sp,#0x3c]
        0x00001654:    2800        .(      CMP      r0,#0
        0x00001656:    d000        ..      BEQ      0x165a ; _printf_fp_dec_real + 430
        0x00001658:    2001        .       MOVS     r0,#1
        0x0000165a:    1941        A.      ADDS     r1,r0,r5
        0x0000165c:    9800        ..      LDR      r0,[sp,#0]
        0x0000165e:    17c0        ..      ASRS     r0,r0,#31
        0x00001660:    1809        ..      ADDS     r1,r1,r0
        0x00001662:    980e        ..      LDR      r0,[sp,#0x38]
        0x00001664:    1808        ..      ADDS     r0,r1,r0
        0x00001666:    69a1        .i      LDR      r1,[r4,#0x18]
        0x00001668:    1a08        ..      SUBS     r0,r1,r0
        0x0000166a:    1e40        @.      SUBS     r0,r0,#1
        0x0000166c:    61a0        .a      STR      r0,[r4,#0x18]
        0x0000166e:    6820         h      LDR      r0,[r4,#0]
        0x00001670:    06c0        ..      LSLS     r0,r0,#27
        0x00001672:    d402        ..      BMI      0x167a ; _printf_fp_dec_real + 462
        0x00001674:    4620         F      MOV      r0,r4
        0x00001676:    46c0        .F      MOV      r8,r8
        0x00001678:    46c0        .F      MOV      r8,r8
        0x0000167a:    980f        ..      LDR      r0,[sp,#0x3c]
        0x0000167c:    2800        .(      CMP      r0,#0
        0x0000167e:    d005        ..      BEQ      0x168c ; _printf_fp_dec_real + 480
        0x00001680:    6862        bh      LDR      r2,[r4,#4]
        0x00001682:    68a1        .h      LDR      r1,[r4,#8]
        0x00001684:    4790        .G      BLX      r2
        0x00001686:    6a20         j      LDR      r0,[r4,#0x20]
        0x00001688:    1c40        @.      ADDS     r0,r0,#1
        0x0000168a:    6220         b      STR      r0,[r4,#0x20]
        0x0000168c:    6820         h      LDR      r0,[r4,#0]
        0x0000168e:    06c0        ..      LSLS     r0,r0,#27
        0x00001690:    d524        $.      BPL      0x16dc ; _printf_fp_dec_real + 560
        0x00001692:    4620         F      MOV      r0,r4
        0x00001694:    46c0        .F      MOV      r8,r8
        0x00001696:    46c0        .F      MOV      r8,r8
        0x00001698:    e020         .      B        0x16dc ; _printf_fp_dec_real + 560
        0x0000169a:    2e00        ..      CMP      r6,#0
        0x0000169c:    db07        ..      BLT      0x16ae ; _printf_fp_dec_real + 514
        0x0000169e:    980c        ..      LDR      r0,[sp,#0x30]
        0x000016a0:    42b0        .B      CMP      r0,r6
        0x000016a2:    dd04        ..      BLE      0x16ae ; _printf_fp_dec_real + 514
        0x000016a4:    a803        ..      ADD      r0,sp,#0xc
        0x000016a6:    6862        bh      LDR      r2,[r4,#4]
        0x000016a8:    5d80        .]      LDRB     r0,[r0,r6]
        0x000016aa:    68a1        .h      LDR      r1,[r4,#8]
        0x000016ac:    e002        ..      B        0x16b4 ; _printf_fp_dec_real + 520
        0x000016ae:    6862        bh      LDR      r2,[r4,#4]
        0x000016b0:    68a1        .h      LDR      r1,[r4,#8]
        0x000016b2:    2030        0       MOVS     r0,#0x30
        0x000016b4:    4790        .G      BLX      r2
        0x000016b6:    6a20         j      LDR      r0,[r4,#0x20]
        0x000016b8:    1c76        v.      ADDS     r6,r6,#1
        0x000016ba:    1c40        @.      ADDS     r0,r0,#1
        0x000016bc:    6220         b      STR      r0,[r4,#0x20]
        0x000016be:    9800        ..      LDR      r0,[sp,#0]
        0x000016c0:    1e40        @.      SUBS     r0,r0,#1
        0x000016c2:    9000        ..      STR      r0,[sp,#0]
        0x000016c4:    d10a        ..      BNE      0x16dc ; _printf_fp_dec_real + 560
        0x000016c6:    f000f935    ..5.    BL       __rt_locale ; 0x1934
        0x000016ca:    68c0        .h      LDR      r0,[r0,#0xc]
        0x000016cc:    6862        bh      LDR      r2,[r4,#4]
        0x000016ce:    6801        .h      LDR      r1,[r0,#0]
        0x000016d0:    5c40        @\      LDRB     r0,[r0,r1]
        0x000016d2:    68a1        .h      LDR      r1,[r4,#8]
        0x000016d4:    4790        .G      BLX      r2
        0x000016d6:    6a20         j      LDR      r0,[r4,#0x20]
        0x000016d8:    1c40        @.      ADDS     r0,r0,#1
        0x000016da:    6220         b      STR      r0,[r4,#0x20]
        0x000016dc:    4628        (F      MOV      r0,r5
        0x000016de:    1e6d        m.      SUBS     r5,r5,#1
        0x000016e0:    2800        .(      CMP      r0,#0
        0x000016e2:    dcda        ..      BGT      0x169a ; _printf_fp_dec_real + 494
        0x000016e4:    e007        ..      B        0x16f6 ; _printf_fp_dec_real + 586
        0x000016e6:    6862        bh      LDR      r2,[r4,#4]
        0x000016e8:    7838        8x      LDRB     r0,[r7,#0]
        0x000016ea:    68a1        .h      LDR      r1,[r4,#8]
        0x000016ec:    1c7f        ..      ADDS     r7,r7,#1
        0x000016ee:    4790        .G      BLX      r2
        0x000016f0:    6a20         j      LDR      r0,[r4,#0x20]
        0x000016f2:    1c40        @.      ADDS     r0,r0,#1
        0x000016f4:    6220         b      STR      r0,[r4,#0x20]
        0x000016f6:    990e        ..      LDR      r1,[sp,#0x38]
        0x000016f8:    1e48        H.      SUBS     r0,r1,#1
        0x000016fa:    2900        .)      CMP      r1,#0
        0x000016fc:    900e        ..      STR      r0,[sp,#0x38]
        0x000016fe:    dcf2        ..      BGT      0x16e6 ; _printf_fp_dec_real + 570
        0x00001700:    4620         F      MOV      r0,r4
        0x00001702:    46c0        .F      MOV      r8,r8
        0x00001704:    46c0        .F      MOV      r8,r8
        0x00001706:    b015        ..      ADD      sp,sp,#0x54
        0x00001708:    2002        .       MOVS     r0,#2
        0x0000170a:    bdf0        ..      POP      {r4-r7,pc}
    $d
        0x0000170c:    fffffc01    ....    DCD    4294966273
        0x00001710:    00004d10    .M..    DCD    19728
        0x00001714:    ffffdfe1    ....    DCD    4294959073
    $t
    .text
    _printf_input_char
        0x00001718:    6901        .i      LDR      r1,[r0,#0x10]
        0x0000171a:    1c4a        J.      ADDS     r2,r1,#1
        0x0000171c:    6102        .a      STR      r2,[r0,#0x10]
        0x0000171e:    7808        .x      LDRB     r0,[r1,#0]
        0x00001720:    4770        pG      BX       lr
    _printf_char_common
        0x00001722:    b500        ..      PUSH     {lr}
        0x00001724:    b08f        ..      SUB      sp,sp,#0x3c
        0x00001726:    9102        ..      STR      r1,[sp,#8]
        0x00001728:    2100        .!      MOVS     r1,#0
        0x0000172a:    9105        ..      STR      r1,[sp,#0x14]
        0x0000172c:    4905        .I      LDR      r1,[pc,#20] ; [0x1744] = 0xffffffe5
        0x0000172e:    9301        ..      STR      r3,[sp,#4]
        0x00001730:    4479        yD      ADD      r1,r1,pc
        0x00001732:    9103        ..      STR      r1,[sp,#0xc]
        0x00001734:    4611        .F      MOV      r1,r2
        0x00001736:    9004        ..      STR      r0,[sp,#0x10]
        0x00001738:    4668        hF      MOV      r0,sp
        0x0000173a:    f7fefda5    ....    BL       __printf ; 0x288
        0x0000173e:    b00f        ..      ADD      sp,sp,#0x3c
        0x00001740:    bd00        ..      POP      {pc}
    $d
        0x00001742:    0000        ..      DCW    0
        0x00001744:    ffffffe5    ....    DCD    4294967269
    $t
    .text
    _sputc
        0x00001748:    680a        .h      LDR      r2,[r1,#0]
        0x0000174a:    7010        .p      STRB     r0,[r2,#0]
        0x0000174c:    1c52        R.      ADDS     r2,r2,#1
        0x0000174e:    600a        .`      STR      r2,[r1,#0]
        0x00001750:    4770        pG      BX       lr
    .text
    __rt_udiv10
        0x00001752:    4601        .F      MOV      r1,r0
        0x00001754:    0880        ..      LSRS     r0,r0,#2
        0x00001756:    1a08        ..      SUBS     r0,r1,r0
        0x00001758:    0902        ..      LSRS     r2,r0,#4
        0x0000175a:    1810        ..      ADDS     r0,r2,r0
        0x0000175c:    0a02        ..      LSRS     r2,r0,#8
        0x0000175e:    1810        ..      ADDS     r0,r2,r0
        0x00001760:    0c02        ..      LSRS     r2,r0,#16
        0x00001762:    1810        ..      ADDS     r0,r2,r0
        0x00001764:    08c0        ..      LSRS     r0,r0,#3
        0x00001766:    0082        ..      LSLS     r2,r0,#2
        0x00001768:    1812        ..      ADDS     r2,r2,r0
        0x0000176a:    0052        R.      LSLS     r2,r2,#1
        0x0000176c:    1a89        ..      SUBS     r1,r1,r2
        0x0000176e:    e001        ..      B        0x1774 ; __rt_udiv10 + 34
        0x00001770:    390a        .9      SUBS     r1,r1,#0xa
        0x00001772:    1c40        @.      ADDS     r0,r0,#1
        0x00001774:    290a        .)      CMP      r1,#0xa
        0x00001776:    d2fb        ..      BCS      0x1770 ; __rt_udiv10 + 30
        0x00001778:    4770        pG      BX       lr
        0x0000177a:    0000        ..      MOVS     r0,r0
    .text
    __ARM_scalbn
    scalbn
        0x0000177c:    b570        p.      PUSH     {r4-r6,lr}
        0x0000177e:    4605        .F      MOV      r5,r0
        0x00001780:    0048        H.      LSLS     r0,r1,#1
        0x00001782:    0d44        D.      LSRS     r4,r0,#21
        0x00001784:    4b13        .K      LDR      r3,[pc,#76] ; [0x17d4] = 0x7ff
        0x00001786:    2000        .       MOVS     r0,#0
        0x00001788:    2c00        .,      CMP      r4,#0
        0x0000178a:    d00a        ..      BEQ      0x17a2 ; __ARM_scalbn + 38
        0x0000178c:    4063        c@      EORS     r3,r3,r4
        0x0000178e:    d008        ..      BEQ      0x17a2 ; __ARM_scalbn + 38
        0x00001790:    429a        .B      CMP      r2,r3
        0x00001792:    da06        ..      BGE      0x17a2 ; __ARM_scalbn + 38
        0x00001794:    4266        fB      RSBS     r6,r4,#0
        0x00001796:    42b2        .B      CMP      r2,r6
        0x00001798:    dd03        ..      BLE      0x17a2 ; __ARM_scalbn + 38
        0x0000179a:    0512        ..      LSLS     r2,r2,#20
        0x0000179c:    1940        @.      ADDS     r0,r0,r5
        0x0000179e:    4151        QA      ADCS     r1,r1,r2
        0x000017a0:    bd70        p.      POP      {r4-r6,pc}
        0x000017a2:    0fce        ..      LSRS     r6,r1,#31
        0x000017a4:    07f6        ..      LSLS     r6,r6,#31
        0x000017a6:    2000        .       MOVS     r0,#0
        0x000017a8:    2c00        .,      CMP      r4,#0
        0x000017aa:    d007        ..      BEQ      0x17bc ; __ARM_scalbn + 64
        0x000017ac:    2b00        .+      CMP      r3,#0
        0x000017ae:    d007        ..      BEQ      0x17c0 ; __ARM_scalbn + 68
        0x000017b0:    4631        1F      MOV      r1,r6
        0x000017b2:    2a00        .*      CMP      r2,#0
        0x000017b4:    dbf4        ..      BLT      0x17a0 ; __ARM_scalbn + 36
        0x000017b6:    4a08        .J      LDR      r2,[pc,#32] ; [0x17d8] = 0x7ff00000
        0x000017b8:    4311        .C      ORRS     r1,r1,r2
        0x000017ba:    bd70        p.      POP      {r4-r6,pc}
        0x000017bc:    4631        1F      MOV      r1,r6
        0x000017be:    bd70        p.      POP      {r4-r6,pc}
        0x000017c0:    4628        (F      MOV      r0,r5
        0x000017c2:    030a        ..      LSLS     r2,r1,#12
        0x000017c4:    4310        .C      ORRS     r0,r0,r2
        0x000017c6:    d002        ..      BEQ      0x17ce ; __ARM_scalbn + 82
        0x000017c8:    2000        .       MOVS     r0,#0
        0x000017ca:    4904        .I      LDR      r1,[pc,#16] ; [0x17dc] = 0x7ff80000
        0x000017cc:    bd70        p.      POP      {r4-r6,pc}
        0x000017ce:    4628        (F      MOV      r0,r5
        0x000017d0:    bd70        p.      POP      {r4-r6,pc}
    $d
        0x000017d2:    0000        ..      DCW    0
        0x000017d4:    000007ff    ....    DCD    2047
        0x000017d8:    7ff00000    ....    DCD    2146435072
        0x000017dc:    7ff80000    ....    DCD    2146959360
    $t
    .text
    _dsqrt
        0x000017e0:    b5f0        ..      PUSH     {r4-r7,lr}
        0x000017e2:    4b3c        <K      LDR      r3,[pc,#240] ; [0x18d4] = 0x7ff00000
        0x000017e4:    460d        .F      MOV      r5,r1
        0x000017e6:    030c        ..      LSLS     r4,r1,#12
        0x000017e8:    4602        .F      MOV      r2,r0
        0x000017ea:    401d        .@      ANDS     r5,r5,r3
        0x000017ec:    4322        "C      ORRS     r2,r2,r4
        0x000017ee:    2d00        .-      CMP      r5,#0
        0x000017f0:    d062        b.      BEQ      0x18b8 ; _dsqrt + 216
        0x000017f2:    4c39        9L      LDR      r4,[pc,#228] ; [0x18d8] = 0x7ff80000
        0x000017f4:    438b        .C      BICS     r3,r3,r1
        0x000017f6:    d065        e.      BEQ      0x18c4 ; _dsqrt + 228
        0x000017f8:    2701        .'      MOVS     r7,#1
        0x000017fa:    2900        .)      CMP      r1,#0
        0x000017fc:    db66        f.      BLT      0x18cc ; _dsqrt + 236
        0x000017fe:    0d0a        ..      LSRS     r2,r1,#20
        0x00001800:    0513        ..      LSLS     r3,r2,#20
        0x00001802:    4399        .C      BICS     r1,r1,r3
        0x00001804:    053b        ;.      LSLS     r3,r7,#20
        0x00001806:    4319        .C      ORRS     r1,r1,r3
        0x00001808:    32fd        .2      ADDS     r2,r2,#0xfd
        0x0000180a:    40fa        .@      LSRS     r2,r2,r7
        0x0000180c:    d301        ..      BCC      0x1812 ; _dsqrt + 50
        0x0000180e:    1800        ..      ADDS     r0,r0,r0
        0x00001810:    4149        IA      ADCS     r1,r1,r1
        0x00001812:    32ff        .2      ADDS     r2,r2,#0xff
        0x00001814:    028b        ..      LSLS     r3,r1,#10
        0x00001816:    3281        .2      ADDS     r2,r2,#0x81
        0x00001818:    4694        .F      MOV      r12,r2
        0x0000181a:    0d82        ..      LSRS     r2,r0,#22
        0x0000181c:    4313        .C      ORRS     r3,r3,r2
        0x0000181e:    2101        .!      MOVS     r1,#1
        0x00001820:    0789        ..      LSLS     r1,r1,#30
        0x00001822:    0282        ..      LSLS     r2,r0,#10
        0x00001824:    424c        LB      RSBS     r4,r1,#0
        0x00001826:    2000        .       MOVS     r0,#0
        0x00001828:    191b        ..      ADDS     r3,r3,r4
        0x0000182a:    108c        ..      ASRS     r4,r1,#2
        0x0000182c:    1a5d        ].      SUBS     r5,r3,r1
        0x0000182e:    d404        ..      BMI      0x183a ; _dsqrt + 90
        0x00001830:    1b2d        -.      SUBS     r5,r5,r4
        0x00001832:    d402        ..      BMI      0x183a ; _dsqrt + 90
        0x00001834:    462b        +F      MOV      r3,r5
        0x00001836:    0065        e.      LSLS     r5,r4,#1
        0x00001838:    1949        I.      ADDS     r1,r1,r5
        0x0000183a:    1892        ..      ADDS     r2,r2,r2
        0x0000183c:    415b        [A      ADCS     r3,r3,r3
        0x0000183e:    0864        d.      LSRS     r4,r4,#1
        0x00001840:    d1f4        ..      BNE      0x182c ; _dsqrt + 76
        0x00001842:    1a5c        \.      SUBS     r4,r3,r1
        0x00001844:    d408        ..      BMI      0x1858 ; _dsqrt + 120
        0x00001846:    2501        .%      MOVS     r5,#1
        0x00001848:    07ed        ..      LSLS     r5,r5,#31
        0x0000184a:    17ee        ..      ASRS     r6,r5,#31
        0x0000184c:    1955        U.      ADDS     r5,r2,r5
        0x0000184e:    4174        tA      ADCS     r4,r4,r6
        0x00001850:    d402        ..      BMI      0x1858 ; _dsqrt + 120
        0x00001852:    4623        #F      MOV      r3,r4
        0x00001854:    462a        *F      MOV      r2,r5
        0x00001856:    1c49        I.      ADDS     r1,r1,#1
        0x00001858:    1894        ..      ADDS     r4,r2,r2
        0x0000185a:    415b        [A      ADCS     r3,r3,r3
        0x0000185c:    2201        ."      MOVS     r2,#1
        0x0000185e:    0792        ..      LSLS     r2,r2,#30
        0x00001860:    461d        .F      MOV      r5,r3
        0x00001862:    1a26        &.      SUBS     r6,r4,r0
        0x00001864:    418d        .A      SBCS     r5,r5,r1
        0x00001866:    d407        ..      BMI      0x1878 ; _dsqrt + 152
        0x00001868:    2700        .'      MOVS     r7,#0
        0x0000186a:    1ab6        ..      SUBS     r6,r6,r2
        0x0000186c:    41bd        .A      SBCS     r5,r5,r7
        0x0000186e:    d403        ..      BMI      0x1878 ; _dsqrt + 152
        0x00001870:    462b        +F      MOV      r3,r5
        0x00001872:    0055        U.      LSLS     r5,r2,#1
        0x00001874:    4634        4F      MOV      r4,r6
        0x00001876:    1940        @.      ADDS     r0,r0,r5
        0x00001878:    1924        $.      ADDS     r4,r4,r4
        0x0000187a:    415b        [A      ADCS     r3,r3,r3
        0x0000187c:    0852        R.      LSRS     r2,r2,#1
        0x0000187e:    2a80        .*      CMP      r2,#0x80
        0x00001880:    d1ee        ..      BNE      0x1860 ; _dsqrt + 128
        0x00001882:    4323        #C      ORRS     r3,r3,r4
        0x00001884:    d000        ..      BEQ      0x1888 ; _dsqrt + 168
        0x00001886:    2302        .#      MOVS     r3,#2
        0x00001888:    220a        ."      MOVS     r2,#0xa
        0x0000188a:    40d0        .@      LSRS     r0,r0,r2
        0x0000188c:    d301        ..      BCC      0x1892 ; _dsqrt + 178
        0x0000188e:    2201        ."      MOVS     r2,#1
        0x00001890:    4313        .C      ORRS     r3,r3,r2
        0x00001892:    058a        ..      LSLS     r2,r1,#22
        0x00001894:    4310        .C      ORRS     r0,r0,r2
        0x00001896:    4662        bF      MOV      r2,r12
        0x00001898:    0a89        ..      LSRS     r1,r1,#10
        0x0000189a:    0512        ..      LSLS     r2,r2,#20
        0x0000189c:    1889        ..      ADDS     r1,r1,r2
        0x0000189e:    2b00        .+      CMP      r3,#0
        0x000018a0:    d009        ..      BEQ      0x18b6 ; _dsqrt + 214
        0x000018a2:    2201        ."      MOVS     r2,#1
        0x000018a4:    40d3        .@      LSRS     r3,r3,r2
        0x000018a6:    d302        ..      BCC      0x18ae ; _dsqrt + 206
        0x000018a8:    2200        ."      MOVS     r2,#0
        0x000018aa:    1c40        @.      ADDS     r0,r0,#1
        0x000018ac:    4151        QA      ADCS     r1,r1,r2
        0x000018ae:    2b00        .+      CMP      r3,#0
        0x000018b0:    d101        ..      BNE      0x18b6 ; _dsqrt + 214
        0x000018b2:    0840        @.      LSRS     r0,r0,#1
        0x000018b4:    0040        @.      LSLS     r0,r0,#1
        0x000018b6:    bdf0        ..      POP      {r4-r7,pc}
        0x000018b8:    2a00        .*      CMP      r2,#0
        0x000018ba:    d0fc        ..      BEQ      0x18b6 ; _dsqrt + 214
        0x000018bc:    0fc9        ..      LSRS     r1,r1,#31
        0x000018be:    07c9        ..      LSLS     r1,r1,#31
        0x000018c0:    2000        .       MOVS     r0,#0
        0x000018c2:    bdf0        ..      POP      {r4-r7,pc}
        0x000018c4:    2a00        .*      CMP      r2,#0
        0x000018c6:    d101        ..      BNE      0x18cc ; _dsqrt + 236
        0x000018c8:    2900        .)      CMP      r1,#0
        0x000018ca:    dafa        ..      BGE      0x18c2 ; _dsqrt + 226
        0x000018cc:    2000        .       MOVS     r0,#0
        0x000018ce:    4621        !F      MOV      r1,r4
        0x000018d0:    bdf0        ..      POP      {r4-r7,pc}
    $d
        0x000018d2:    0000        ..      DCW    0
        0x000018d4:    7ff00000    ....    DCD    2146435072
        0x000018d8:    7ff80000    ....    DCD    2146959360
    $t
    .text
    __fpl_fcmp_InfNaN
        0x000018dc:    b510        ..      PUSH     {r4,lr}
        0x000018de:    23ff        .#      MOVS     r3,#0xff
        0x000018e0:    061b        ..      LSLS     r3,r3,#24
        0x000018e2:    0044        D.      LSLS     r4,r0,#1
        0x000018e4:    429c        .B      CMP      r4,r3
        0x000018e6:    d817        ..      BHI      0x1918 ; __fpl_fcmp_InfNaN + 60
        0x000018e8:    004c        L.      LSLS     r4,r1,#1
        0x000018ea:    429c        .B      CMP      r4,r3
        0x000018ec:    d814        ..      BHI      0x1918 ; __fpl_fcmp_InfNaN + 60
        0x000018ee:    4603        .F      MOV      r3,r0
        0x000018f0:    4a0f        .J      LDR      r2,[pc,#60] ; [0x1930] = 0x90000000
        0x000018f2:    430b        .C      ORRS     r3,r3,r1
        0x000018f4:    d403        ..      BMI      0x18fe ; __fpl_fcmp_InfNaN + 34
        0x000018f6:    1a40        @.      SUBS     r0,r0,r1
        0x000018f8:    f3ef8000    ....    MRS      r0,APSR ; formerly CPSR
        0x000018fc:    bd10        ..      POP      {r4,pc}
        0x000018fe:    1a08        ..      SUBS     r0,r1,r0
        0x00001900:    f3ef8000    ....    MRS      r0,APSR ; formerly CPSR
        0x00001904:    d204        ..      BCS      0x1910 ; __fpl_fcmp_InfNaN + 52
        0x00001906:    2101        .!      MOVS     r1,#1
        0x00001908:    4390        .C      BICS     r0,r0,r2
        0x0000190a:    07c9        ..      LSLS     r1,r1,#31
        0x0000190c:    4308        .C      ORRS     r0,r0,r1
        0x0000190e:    e000        ..      B        0x1912 ; __fpl_fcmp_InfNaN + 54
        0x00001910:    4390        .C      BICS     r0,r0,r2
        0x00001912:    f3808800    ....    MSR      APSR_nzcvq,r0 ; formerly CPSR_f
        0x00001916:    bd10        ..      POP      {r4,pc}
        0x00001918:    230d        .#      MOVS     r3,#0xd
        0x0000191a:    041b        ..      LSLS     r3,r3,#16
        0x0000191c:    421a        .B      TST      r2,r3
        0x0000191e:    d004        ..      BEQ      0x192a ; __fpl_fcmp_InfNaN + 78
        0x00001920:    4611        .F      MOV      r1,r2
        0x00001922:    2000        .       MOVS     r0,#0
        0x00001924:    f000fb5c    ..\.    BL       __fpl_cmpreturn ; 0x1fe0
        0x00001928:    bd10        ..      POP      {r4,pc}
        0x0000192a:    f000fba7    ....    BL       __fpl_fcheck_NaN2 ; 0x207c
        0x0000192e:    bd10        ..      POP      {r4,pc}
    $d
        0x00001930:    90000000    ....    DCD    2415919104
    $t
    .text
    __rt_locale
        0x00001934:    4801        .H      LDR      r0,[pc,#4] ; [0x193c] = 0x200007c4
        0x00001936:    4770        pG      BX       lr
        0x00001938:    4770        pG      BX       lr
        0x0000193a:    bf00        ..      NOP      
    $d
        0x0000193c:    200007c4    ...     DCD    536872900
    $t
    .text
    __aeabi_errno_addr
    __errno$intlibspace
    __rt_errno_addr$intlibspace
        0x00001940:    4801        .H      LDR      r0,[pc,#4] ; [0x1948] = 0x200007a4
        0x00001942:    4770        pG      BX       lr
        0x00001944:    4770        pG      BX       lr
        0x00001946:    bf00        ..      NOP      
    $d
        0x00001948:    200007a4    ...     DCD    536872868
    $t
    .text
    _ll_udiv10
        0x0000194c:    460b        .F      MOV      r3,r1
        0x0000194e:    b570        p.      PUSH     {r4-r6,lr}
        0x00001950:    4602        .F      MOV      r2,r0
        0x00001952:    461d        .F      MOV      r5,r3
        0x00001954:    0789        ..      LSLS     r1,r1,#30
        0x00001956:    0880        ..      LSRS     r0,r0,#2
        0x00001958:    4308        .C      ORRS     r0,r0,r1
        0x0000195a:    089c        ..      LSRS     r4,r3,#2
        0x0000195c:    1a11        ..      SUBS     r1,r2,r0
        0x0000195e:    41a5        .A      SBCS     r5,r5,r4
        0x00001960:    090c        ..      LSRS     r4,r1,#4
        0x00001962:    0728        (.      LSLS     r0,r5,#28
        0x00001964:    4304        .C      ORRS     r4,r4,r0
        0x00001966:    0928        (.      LSRS     r0,r5,#4
        0x00001968:    1864        d.      ADDS     r4,r4,r1
        0x0000196a:    4168        hA      ADCS     r0,r0,r5
        0x0000196c:    0a25        %.      LSRS     r5,r4,#8
        0x0000196e:    0601        ..      LSLS     r1,r0,#24
        0x00001970:    430d        .C      ORRS     r5,r5,r1
        0x00001972:    0a01        ..      LSRS     r1,r0,#8
        0x00001974:    192c        ,.      ADDS     r4,r5,r4
        0x00001976:    4141        AA      ADCS     r1,r1,r0
        0x00001978:    0c20         .      LSRS     r0,r4,#16
        0x0000197a:    040d        ..      LSLS     r5,r1,#16
        0x0000197c:    4328        (C      ORRS     r0,r0,r5
        0x0000197e:    0c0d        ..      LSRS     r5,r1,#16
        0x00001980:    1900        ..      ADDS     r0,r0,r4
        0x00001982:    414d        MA      ADCS     r5,r5,r1
        0x00001984:    2100        .!      MOVS     r1,#0
        0x00001986:    1940        @.      ADDS     r0,r0,r5
        0x00001988:    414d        MA      ADCS     r5,r5,r1
        0x0000198a:    08c0        ..      LSRS     r0,r0,#3
        0x0000198c:    0769        i.      LSLS     r1,r5,#29
        0x0000198e:    4308        .C      ORRS     r0,r0,r1
        0x00001990:    08e9        ..      LSRS     r1,r5,#3
        0x00001992:    0f84        ..      LSRS     r4,r0,#30
        0x00001994:    008d        ..      LSLS     r5,r1,#2
        0x00001996:    4325        %C      ORRS     r5,r5,r4
        0x00001998:    0084        ..      LSLS     r4,r0,#2
        0x0000199a:    1824        $.      ADDS     r4,r4,r0
        0x0000199c:    414d        MA      ADCS     r5,r5,r1
        0x0000199e:    1924        $.      ADDS     r4,r4,r4
        0x000019a0:    416d        mA      ADCS     r5,r5,r5
        0x000019a2:    1b12        ..      SUBS     r2,r2,r4
        0x000019a4:    41ab        .A      SBCS     r3,r3,r5
        0x000019a6:    e007        ..      B        0x19b8 ; _ll_udiv10 + 108
        0x000019a8:    2509        .%      MOVS     r5,#9
        0x000019aa:    43ed        .C      MVNS     r5,r5
        0x000019ac:    112c        ,.      ASRS     r4,r5,#4
        0x000019ae:    1952        R.      ADDS     r2,r2,r5
        0x000019b0:    4163        cA      ADCS     r3,r3,r4
        0x000019b2:    2400        .$      MOVS     r4,#0
        0x000019b4:    1c40        @.      ADDS     r0,r0,#1
        0x000019b6:    4161        aA      ADCS     r1,r1,r4
        0x000019b8:    461c        .F      MOV      r4,r3
        0x000019ba:    250a        .%      MOVS     r5,#0xa
        0x000019bc:    2600        .&      MOVS     r6,#0
        0x000019be:    1b55        U.      SUBS     r5,r2,r5
        0x000019c0:    41b4        .A      SBCS     r4,r4,r6
        0x000019c2:    d2f1        ..      BCS      0x19a8 ; _ll_udiv10 + 92
        0x000019c4:    bd70        p.      POP      {r4-r6,pc}
        0x000019c6:    0000        ..      MOVS     r0,r0
    .text
    _printf_fp_infnan
        0x000019c8:    b5f8        ..      PUSH     {r3-r7,lr}
        0x000019ca:    4604        .F      MOV      r4,r0
        0x000019cc:    461f        .F      MOV      r7,r3
        0x000019ce:    2301        .#      MOVS     r3,#1
        0x000019d0:    6800        .h      LDR      r0,[r0,#0]
        0x000019d2:    02db        ..      LSLS     r3,r3,#11
        0x000019d4:    2603        .&      MOVS     r6,#3
        0x000019d6:    4601        .F      MOV      r1,r0
        0x000019d8:    4018        .@      ANDS     r0,r0,r3
        0x000019da:    2a07        .*      CMP      r2,#7
        0x000019dc:    db04        ..      BLT      0x19e8 ; _printf_fp_infnan + 32
        0x000019de:    2800        .(      CMP      r0,#0
        0x000019e0:    a516        ..      ADR      r5,{pc}+0x5c ; 0x1a3c
        0x000019e2:    d105        ..      BNE      0x19f0 ; _printf_fp_infnan + 40
        0x000019e4:    a516        ..      ADR      r5,{pc}+0x5c ; 0x1a40
        0x000019e6:    e003        ..      B        0x19f0 ; _printf_fp_infnan + 40
        0x000019e8:    2800        .(      CMP      r0,#0
        0x000019ea:    a516        ..      ADR      r5,{pc}+0x5a ; 0x1a44
        0x000019ec:    d100        ..      BNE      0x19f0 ; _printf_fp_infnan + 40
        0x000019ee:    a516        ..      ADR      r5,{pc}+0x5a ; 0x1a48
        0x000019f0:    2010        .       MOVS     r0,#0x10
        0x000019f2:    4381        .C      BICS     r1,r1,r0
        0x000019f4:    6021        !`      STR      r1,[r4,#0]
        0x000019f6:    69a0        .i      LDR      r0,[r4,#0x18]
        0x000019f8:    1ec0        ..      SUBS     r0,r0,#3
        0x000019fa:    2f00        ./      CMP      r7,#0
        0x000019fc:    61a0        .a      STR      r0,[r4,#0x18]
        0x000019fe:    d001        ..      BEQ      0x1a04 ; _printf_fp_infnan + 60
        0x00001a00:    1e40        @.      SUBS     r0,r0,#1
        0x00001a02:    61a0        .a      STR      r0,[r4,#0x18]
        0x00001a04:    4620         F      MOV      r0,r4
        0x00001a06:    46c0        .F      MOV      r8,r8
        0x00001a08:    46c0        .F      MOV      r8,r8
        0x00001a0a:    2f00        ./      CMP      r7,#0
        0x00001a0c:    d009        ..      BEQ      0x1a22 ; _printf_fp_infnan + 90
        0x00001a0e:    4638        8F      MOV      r0,r7
        0x00001a10:    6862        bh      LDR      r2,[r4,#4]
        0x00001a12:    68a1        .h      LDR      r1,[r4,#8]
        0x00001a14:    4790        .G      BLX      r2
        0x00001a16:    6a20         j      LDR      r0,[r4,#0x20]
        0x00001a18:    1c40        @.      ADDS     r0,r0,#1
        0x00001a1a:    6220         b      STR      r0,[r4,#0x20]
        0x00001a1c:    1cc0        ..      ADDS     r0,r0,#3
        0x00001a1e:    6220         b      STR      r0,[r4,#0x20]
        0x00001a20:    e006        ..      B        0x1a30 ; _printf_fp_infnan + 104
        0x00001a22:    6a20         j      LDR      r0,[r4,#0x20]
        0x00001a24:    e7fa        ..      B        0x1a1c ; _printf_fp_infnan + 84
        0x00001a26:    6862        bh      LDR      r2,[r4,#4]
        0x00001a28:    7828        (x      LDRB     r0,[r5,#0]
        0x00001a2a:    68a1        .h      LDR      r1,[r4,#8]
        0x00001a2c:    1c6d        m.      ADDS     r5,r5,#1
        0x00001a2e:    4790        .G      BLX      r2
        0x00001a30:    1e76        v.      SUBS     r6,r6,#1
        0x00001a32:    d2f8        ..      BCS      0x1a26 ; _printf_fp_infnan + 94
        0x00001a34:    4620         F      MOV      r0,r4
        0x00001a36:    46c0        .F      MOV      r8,r8
        0x00001a38:    46c0        .F      MOV      r8,r8
        0x00001a3a:    bdf8        ..      POP      {r3-r7,pc}
    $d
        0x00001a3c:    004e414e    NAN.    DCD    5128526
        0x00001a40:    006e616e    nan.    DCD    7233902
        0x00001a44:    00464e49    INF.    DCD    4607561
        0x00001a48:    00666e69    inf.    DCD    6712937
    $t
    .text
    _btod_etento
        0x00001a4c:    b5f7        ..      PUSH     {r0-r2,r4-r7,lr}
        0x00001a4e:    4616        .F      MOV      r6,r2
        0x00001a50:    b08a        ..      SUB      sp,sp,#0x28
        0x00001a52:    4830        0H      LDR      r0,[pc,#192] ; [0x1b14] = 0x48b0
        0x00001a54:    4478        xD      ADD      r0,r0,pc
        0x00001a56:    466c        lF      MOV      r4,sp
        0x00001a58:    4603        .F      MOV      r3,r0
        0x00001a5a:    337c        |3      ADDS     r3,r3,#0x7c
        0x00001a5c:    6fc0        .o      LDR      r0,[r0,#0x7c]
        0x00001a5e:    685a        Zh      LDR      r2,[r3,#4]
        0x00001a60:    689b        .h      LDR      r3,[r3,#8]
        0x00001a62:    c40d        ..      STM      r4!,{r0,r2,r3}
        0x00001a64:    4b2b        +K      LDR      r3,[pc,#172] ; [0x1b14] = 0x48b0
        0x00001a66:    447b        {D      ADD      r3,r3,pc
        0x00001a68:    336e        n3      ADDS     r3,r3,#0x6e
        0x00001a6a:    3308        .3      ADDS     r3,r3,#8
        0x00001a6c:    ac03        ..      ADD      r4,sp,#0xc
        0x00001a6e:    cb0d        ..      LDM      r3,{r0,r2,r3}
        0x00001a70:    c40d        ..      STM      r4!,{r0,r2,r3}
        0x00001a72:    2037        7       MOVS     r0,#0x37
        0x00001a74:    01c0        ..      LSLS     r0,r0,#7
        0x00001a76:    1808        ..      ADDS     r0,r1,r0
        0x00001a78:    2137        7!      MOVS     r1,#0x37
        0x00001a7a:    301b        .0      ADDS     r0,r0,#0x1b
        0x00001a7c:    f7fefcbc    ....    BL       __aeabi_idiv ; 0x3f8
        0x00001a80:    4605        .F      MOV      r5,r0
        0x00001a82:    460c        .F      MOV      r4,r1
        0x00001a84:    3d80        .=      SUBS     r5,r5,#0x80
        0x00001a86:    3c1b        .<      SUBS     r4,r4,#0x1b
        0x00001a88:    d502        ..      BPL      0x1a90 ; _btod_etento + 68
        0x00001a8a:    4264        dB      RSBS     r4,r4,#0
        0x00001a8c:    2001        .       MOVS     r0,#1
        0x00001a8e:    e000        ..      B        0x1a92 ; _btod_etento + 70
        0x00001a90:    2000        .       MOVS     r0,#0
        0x00001a92:    2700        .'      MOVS     r7,#0
        0x00001a94:    9009        ..      STR      r0,[sp,#0x24]
        0x00001a96:    e00f        ..      B        0x1ab8 ; _btod_etento + 108
        0x00001a98:    07e0        ..      LSLS     r0,r4,#31
        0x00001a9a:    d00b        ..      BEQ      0x1ab4 ; _btod_etento + 104
        0x00001a9c:    200c        .       MOVS     r0,#0xc
        0x00001a9e:    491d        .I      LDR      r1,[pc,#116] ; [0x1b14] = 0x48b0
        0x00001aa0:    4378        xC      MULS     r0,r7,r0
        0x00001aa2:    4479        yD      ADD      r1,r1,pc
        0x00001aa4:    4632        2F      MOV      r2,r6
        0x00001aa6:    394e        N9      SUBS     r1,r1,#0x4e
        0x00001aa8:    1841        A.      ADDS     r1,r0,r1
        0x00001aaa:    4668        hF      MOV      r0,sp
        0x00001aac:    f000fa2e    ....    BL       _btod_emul ; 0x1f0c
        0x00001ab0:    466b        kF      MOV      r3,sp
        0x00001ab2:    c307        ..      STM      r3!,{r0-r2}
        0x00001ab4:    1064        d.      ASRS     r4,r4,#1
        0x00001ab6:    1c7f        ..      ADDS     r7,r7,#1
        0x00001ab8:    2c00        .,      CMP      r4,#0
        0x00001aba:    d1ed        ..      BNE      0x1a98 ; _btod_etento + 76
        0x00001abc:    4f15        .O      LDR      r7,[pc,#84] ; [0x1b14] = 0x48b0
        0x00001abe:    447f        .D      ADD      r7,r7,pc
        0x00001ac0:    3f2e        .?      SUBS     r7,r7,#0x2e
        0x00001ac2:    e016        ..      B        0x1af2 ; _btod_etento + 166
        0x00001ac4:    07e8        ..      LSLS     r0,r5,#31
        0x00001ac6:    d012        ..      BEQ      0x1aee ; _btod_etento + 162
        0x00001ac8:    0120         .      LSLS     r0,r4,#4
        0x00001aca:    19c0        ..      ADDS     r0,r0,r7
        0x00001acc:    4601        .F      MOV      r1,r0
        0x00001ace:    c90e        ..      LDM      r1,{r1-r3}
        0x00001ad0:    9106        ..      STR      r1,[sp,#0x18]
        0x00001ad2:    9308        ..      STR      r3,[sp,#0x20]
        0x00001ad4:    9207        ..      STR      r2,[sp,#0x1c]
        0x00001ad6:    68c0        .h      LDR      r0,[r0,#0xc]
        0x00001ad8:    42f0        .B      CMN      r0,r6
        0x00001ada:    d101        ..      BNE      0x1ae0 ; _btod_etento + 148
        0x00001adc:    1998        ..      ADDS     r0,r3,r6
        0x00001ade:    9008        ..      STR      r0,[sp,#0x20]
        0x00001ae0:    4632        2F      MOV      r2,r6
        0x00001ae2:    a906        ..      ADD      r1,sp,#0x18
        0x00001ae4:    a803        ..      ADD      r0,sp,#0xc
        0x00001ae6:    f000fa11    ....    BL       _btod_emul ; 0x1f0c
        0x00001aea:    ab03        ..      ADD      r3,sp,#0xc
        0x00001aec:    c307        ..      STM      r3!,{r0-r2}
        0x00001aee:    106d        m.      ASRS     r5,r5,#1
        0x00001af0:    1c64        d.      ADDS     r4,r4,#1
        0x00001af2:    2d00        .-      CMP      r5,#0
        0x00001af4:    d1e6        ..      BNE      0x1ac4 ; _btod_etento + 120
        0x00001af6:    4632        2F      MOV      r2,r6
        0x00001af8:    4669        iF      MOV      r1,sp
        0x00001afa:    9809        ..      LDR      r0,[sp,#0x24]
        0x00001afc:    2800        .(      CMP      r0,#0
        0x00001afe:    a803        ..      ADD      r0,sp,#0xc
        0x00001b00:    d002        ..      BEQ      0x1b08 ; _btod_etento + 188
        0x00001b02:    f000fa35    ..5.    BL       _btod_ediv ; 0x1f70
        0x00001b06:    e001        ..      B        0x1b0c ; _btod_etento + 192
        0x00001b08:    f000fa00    ....    BL       _btod_emul ; 0x1f0c
        0x00001b0c:    9b0a        ..      LDR      r3,[sp,#0x28]
        0x00001b0e:    c307        ..      STM      r3!,{r0-r2}
        0x00001b10:    b00d        ..      ADD      sp,sp,#0x34
        0x00001b12:    bdf0        ..      POP      {r4-r7,pc}
    $d
        0x00001b14:    000048b0    .H..    DCD    18608
    $t
    .text
    _btod_d2e
        0x00001b18:    4603        .F      MOV      r3,r0
        0x00001b1a:    0040        @.      LSLS     r0,r0,#1
        0x00001b1c:    460a        .F      MOV      r2,r1
        0x00001b1e:    b510        ..      PUSH     {r4,lr}
        0x00001b20:    0d40        @.      LSRS     r0,r0,#21
        0x00001b22:    d00b        ..      BEQ      0x1b3c ; _btod_d2e + 36
        0x00001b24:    2101        .!      MOVS     r1,#1
        0x00001b26:    07c9        ..      LSLS     r1,r1,#31
        0x00001b28:    240f        .$      MOVS     r4,#0xf
        0x00001b2a:    02a4        ..      LSLS     r4,r4,#10
        0x00001b2c:    1900        ..      ADDS     r0,r0,r4
        0x00001b2e:    031c        ..      LSLS     r4,r3,#12
        0x00001b30:    0864        d.      LSRS     r4,r4,#1
        0x00001b32:    4321        !C      ORRS     r1,r1,r4
        0x00001b34:    0d54        T.      LSRS     r4,r2,#21
        0x00001b36:    4321        !C      ORRS     r1,r1,r4
        0x00001b38:    02d2        ..      LSLS     r2,r2,#11
        0x00001b3a:    e007        ..      B        0x1b4c ; _btod_d2e + 52
        0x00001b3c:    2100        .!      MOVS     r1,#0
        0x00001b3e:    2001        .       MOVS     r0,#1
        0x00001b40:    e7f2        ..      B        0x1b28 ; _btod_d2e + 16
        0x00001b42:    0fd4        ..      LSRS     r4,r2,#31
        0x00001b44:    0049        I.      LSLS     r1,r1,#1
        0x00001b46:    4321        !C      ORRS     r1,r1,r4
        0x00001b48:    0052        R.      LSLS     r2,r2,#1
        0x00001b4a:    1e40        @.      SUBS     r0,r0,#1
        0x00001b4c:    2900        .)      CMP      r1,#0
        0x00001b4e:    daf8        ..      BGE      0x1b42 ; _btod_d2e + 42
        0x00001b50:    0fdb        ..      LSRS     r3,r3,#31
        0x00001b52:    07db        ..      LSLS     r3,r3,#31
        0x00001b54:    4318        .C      ORRS     r0,r0,r3
        0x00001b56:    bd10        ..      POP      {r4,pc}
    btod_internal_mul
        0x00001b58:    b5ff        ..      PUSH     {r0-r7,lr}
        0x00001b5a:    460c        .F      MOV      r4,r1
        0x00001b5c:    4615        .F      MOV      r5,r2
        0x00001b5e:    b085        ..      SUB      sp,sp,#0x14
        0x00001b60:    6848        Hh      LDR      r0,[r1,#4]
        0x00001b62:    6851        Qh      LDR      r1,[r2,#4]
        0x00001b64:    f002f9d4    ....    BL       __ARM_common_ll_muluu ; 0x3f10
        0x00001b68:    9100        ..      STR      r1,[sp,#0]
        0x00001b6a:    9001        ..      STR      r0,[sp,#4]
        0x00001b6c:    68a0        .h      LDR      r0,[r4,#8]
        0x00001b6e:    68a9        .h      LDR      r1,[r5,#8]
        0x00001b70:    f002f9ce    ....    BL       __ARM_common_ll_muluu ; 0x3f10
        0x00001b74:    9102        ..      STR      r1,[sp,#8]
        0x00001b76:    9003        ..      STR      r0,[sp,#0xc]
        0x00001b78:    68a0        .h      LDR      r0,[r4,#8]
        0x00001b7a:    6869        ih      LDR      r1,[r5,#4]
        0x00001b7c:    f002f9c8    ....    BL       __ARM_common_ll_muluu ; 0x3f10
        0x00001b80:    9a02        ..      LDR      r2,[sp,#8]
        0x00001b82:    2601        .&      MOVS     r6,#1
        0x00001b84:    1812        ..      ADDS     r2,r2,r0
        0x00001b86:    9202        ..      STR      r2,[sp,#8]
        0x00001b88:    4632        2F      MOV      r2,r6
        0x00001b8a:    9b02        ..      LDR      r3,[sp,#8]
        0x00001b8c:    4283        .B      CMP      r3,r0
        0x00001b8e:    d300        ..      BCC      0x1b92 ; btod_internal_mul + 58
        0x00001b90:    2200        ."      MOVS     r2,#0
        0x00001b92:    9801        ..      LDR      r0,[sp,#4]
        0x00001b94:    188b        ..      ADDS     r3,r1,r2
        0x00001b96:    18c0        ..      ADDS     r0,r0,r3
        0x00001b98:    2a00        .*      CMP      r2,#0
        0x00001b9a:    9001        ..      STR      r0,[sp,#4]
        0x00001b9c:    4630        0F      MOV      r0,r6
        0x00001b9e:    9a01        ..      LDR      r2,[sp,#4]
        0x00001ba0:    d002        ..      BEQ      0x1ba8 ; btod_internal_mul + 80
        0x00001ba2:    428a        .B      CMP      r2,r1
        0x00001ba4:    d903        ..      BLS      0x1bae ; btod_internal_mul + 86
        0x00001ba6:    e001        ..      B        0x1bac ; btod_internal_mul + 84
        0x00001ba8:    428a        .B      CMP      r2,r1
        0x00001baa:    d300        ..      BCC      0x1bae ; btod_internal_mul + 86
        0x00001bac:    2000        .       MOVS     r0,#0
        0x00001bae:    9900        ..      LDR      r1,[sp,#0]
        0x00001bb0:    1808        ..      ADDS     r0,r1,r0
        0x00001bb2:    9000        ..      STR      r0,[sp,#0]
        0x00001bb4:    6860        `h      LDR      r0,[r4,#4]
        0x00001bb6:    68a9        .h      LDR      r1,[r5,#8]
        0x00001bb8:    f002f9aa    ....    BL       __ARM_common_ll_muluu ; 0x3f10
        0x00001bbc:    9a02        ..      LDR      r2,[sp,#8]
        0x00001bbe:    1812        ..      ADDS     r2,r2,r0
        0x00001bc0:    9202        ..      STR      r2,[sp,#8]
        0x00001bc2:    4632        2F      MOV      r2,r6
        0x00001bc4:    9b02        ..      LDR      r3,[sp,#8]
        0x00001bc6:    4283        .B      CMP      r3,r0
        0x00001bc8:    d300        ..      BCC      0x1bcc ; btod_internal_mul + 116
        0x00001bca:    2200        ."      MOVS     r2,#0
        0x00001bcc:    9801        ..      LDR      r0,[sp,#4]
        0x00001bce:    188b        ..      ADDS     r3,r1,r2
        0x00001bd0:    18c0        ..      ADDS     r0,r0,r3
        0x00001bd2:    2a00        .*      CMP      r2,#0
        0x00001bd4:    9001        ..      STR      r0,[sp,#4]
        0x00001bd6:    d002        ..      BEQ      0x1bde ; btod_internal_mul + 134
        0x00001bd8:    4288        .B      CMP      r0,r1
        0x00001bda:    d903        ..      BLS      0x1be4 ; btod_internal_mul + 140
        0x00001bdc:    e001        ..      B        0x1be2 ; btod_internal_mul + 138
        0x00001bde:    4288        .B      CMP      r0,r1
        0x00001be0:    d300        ..      BCC      0x1be4 ; btod_internal_mul + 140
        0x00001be2:    2600        .&      MOVS     r6,#0
        0x00001be4:    9800        ..      LDR      r0,[sp,#0]
        0x00001be6:    1980        ..      ADDS     r0,r0,r6
        0x00001be8:    9000        ..      STR      r0,[sp,#0]
        0x00001bea:    6820         h      LDR      r0,[r4,#0]
        0x00001bec:    6829        )h      LDR      r1,[r5,#0]
        0x00001bee:    0040        @.      LSLS     r0,r0,#1
        0x00001bf0:    0049        I.      LSLS     r1,r1,#1
        0x00001bf2:    0840        @.      LSRS     r0,r0,#1
        0x00001bf4:    0849        I.      LSRS     r1,r1,#1
        0x00001bf6:    1840        @.      ADDS     r0,r0,r1
        0x00001bf8:    49f6        .I      LDR      r1,[pc,#984] ; [0x1fd4] = 0xffffc002
        0x00001bfa:    1847        G.      ADDS     r7,r0,r1
        0x00001bfc:    e014        ..      B        0x1c28 ; btod_internal_mul + 208
        0x00001bfe:    9901        ..      LDR      r1,[sp,#4]
        0x00001c00:    0040        @.      LSLS     r0,r0,#1
        0x00001c02:    0fc9        ..      LSRS     r1,r1,#31
        0x00001c04:    4308        .C      ORRS     r0,r0,r1
        0x00001c06:    9000        ..      STR      r0,[sp,#0]
        0x00001c08:    9801        ..      LDR      r0,[sp,#4]
        0x00001c0a:    9902        ..      LDR      r1,[sp,#8]
        0x00001c0c:    0040        @.      LSLS     r0,r0,#1
        0x00001c0e:    0fc9        ..      LSRS     r1,r1,#31
        0x00001c10:    4308        .C      ORRS     r0,r0,r1
        0x00001c12:    9001        ..      STR      r0,[sp,#4]
        0x00001c14:    9802        ..      LDR      r0,[sp,#8]
        0x00001c16:    9903        ..      LDR      r1,[sp,#0xc]
        0x00001c18:    0040        @.      LSLS     r0,r0,#1
        0x00001c1a:    0fc9        ..      LSRS     r1,r1,#31
        0x00001c1c:    4308        .C      ORRS     r0,r0,r1
        0x00001c1e:    9002        ..      STR      r0,[sp,#8]
        0x00001c20:    9803        ..      LDR      r0,[sp,#0xc]
        0x00001c22:    0040        @.      LSLS     r0,r0,#1
        0x00001c24:    1e7f        ..      SUBS     r7,r7,#1
        0x00001c26:    9003        ..      STR      r0,[sp,#0xc]
        0x00001c28:    9800        ..      LDR      r0,[sp,#0]
        0x00001c2a:    2800        .(      CMP      r0,#0
        0x00001c2c:    dae7        ..      BGE      0x1bfe ; btod_internal_mul + 166
        0x00001c2e:    9808        ..      LDR      r0,[sp,#0x20]
        0x00001c30:    2800        .(      CMP      r0,#0
        0x00001c32:    d001        ..      BEQ      0x1c38 ; btod_internal_mul + 224
        0x00001c34:    4ee8        .N      LDR      r6,[pc,#928] ; [0x1fd8] = 0x3c01
        0x00001c36:    e000        ..      B        0x1c3a ; btod_internal_mul + 226
        0x00001c38:    2600        .&      MOVS     r6,#0
        0x00001c3a:    42b7        .B      CMP      r7,r6
        0x00001c3c:    da28        (.      BGE      0x1c90 ; btod_internal_mul + 312
        0x00001c3e:    1bf7        ..      SUBS     r7,r6,r7
        0x00001c40:    06f8        ..      LSLS     r0,r7,#27
        0x00001c42:    0ec0        ..      LSRS     r0,r0,#27
        0x00001c44:    d015        ..      BEQ      0x1c72 ; btod_internal_mul + 282
        0x00001c46:    9b02        ..      LDR      r3,[sp,#8]
        0x00001c48:    2120         !      MOVS     r1,#0x20
        0x00001c4a:    1a09        ..      SUBS     r1,r1,r0
        0x00001c4c:    9a03        ..      LDR      r2,[sp,#0xc]
        0x00001c4e:    408b        .@      LSLS     r3,r3,r1
        0x00001c50:    431a        .C      ORRS     r2,r2,r3
        0x00001c52:    9203        ..      STR      r2,[sp,#0xc]
        0x00001c54:    9a02        ..      LDR      r2,[sp,#8]
        0x00001c56:    9b01        ..      LDR      r3,[sp,#4]
        0x00001c58:    40c2        .@      LSRS     r2,r2,r0
        0x00001c5a:    408b        .@      LSLS     r3,r3,r1
        0x00001c5c:    431a        .C      ORRS     r2,r2,r3
        0x00001c5e:    9202        ..      STR      r2,[sp,#8]
        0x00001c60:    9a01        ..      LDR      r2,[sp,#4]
        0x00001c62:    9b00        ..      LDR      r3,[sp,#0]
        0x00001c64:    40c2        .@      LSRS     r2,r2,r0
        0x00001c66:    408b        .@      LSLS     r3,r3,r1
        0x00001c68:    9900        ..      LDR      r1,[sp,#0]
        0x00001c6a:    431a        .C      ORRS     r2,r2,r3
        0x00001c6c:    9201        ..      STR      r2,[sp,#4]
        0x00001c6e:    40c1        .@      LSRS     r1,r1,r0
        0x00001c70:    9100        ..      STR      r1,[sp,#0]
        0x00001c72:    117a        z.      ASRS     r2,r7,#5
        0x00001c74:    d00b        ..      BEQ      0x1c8e ; btod_internal_mul + 310
        0x00001c76:    466b        kF      MOV      r3,sp
        0x00001c78:    2003        .       MOVS     r0,#3
        0x00001c7a:    1a81        ..      SUBS     r1,r0,r2
        0x00001c7c:    d501        ..      BPL      0x1c82 ; btod_internal_mul + 298
        0x00001c7e:    2100        .!      MOVS     r1,#0
        0x00001c80:    e001        ..      B        0x1c86 ; btod_internal_mul + 302
        0x00001c82:    0089        ..      LSLS     r1,r1,#2
        0x00001c84:    5859        YX      LDR      r1,[r3,r1]
        0x00001c86:    0087        ..      LSLS     r7,r0,#2
        0x00001c88:    1e40        @.      SUBS     r0,r0,#1
        0x00001c8a:    51d9        .Q      STR      r1,[r3,r7]
        0x00001c8c:    d5f5        ..      BPL      0x1c7a ; btod_internal_mul + 290
        0x00001c8e:    4637        7F      MOV      r7,r6
        0x00001c90:    9803        ..      LDR      r0,[sp,#0xc]
        0x00001c92:    9902        ..      LDR      r1,[sp,#8]
        0x00001c94:    2800        .(      CMP      r0,#0
        0x00001c96:    d000        ..      BEQ      0x1c9a ; btod_internal_mul + 322
        0x00001c98:    2001        .       MOVS     r0,#1
        0x00001c9a:    4301        .C      ORRS     r1,r1,r0
        0x00001c9c:    9808        ..      LDR      r0,[sp,#0x20]
        0x00001c9e:    9102        ..      STR      r1,[sp,#8]
        0x00001ca0:    2800        .(      CMP      r0,#0
        0x00001ca2:    4608        .F      MOV      r0,r1
        0x00001ca4:    d00c        ..      BEQ      0x1cc0 ; btod_internal_mul + 360
        0x00001ca6:    2800        .(      CMP      r0,#0
        0x00001ca8:    d000        ..      BEQ      0x1cac ; btod_internal_mul + 340
        0x00001caa:    2001        .       MOVS     r0,#1
        0x00001cac:    9901        ..      LDR      r1,[sp,#4]
        0x00001cae:    9a01        ..      LDR      r2,[sp,#4]
        0x00001cb0:    0549        I.      LSLS     r1,r1,#21
        0x00001cb2:    4308        .C      ORRS     r0,r0,r1
        0x00001cb4:    2101        .!      MOVS     r1,#1
        0x00001cb6:    0ad2        ..      LSRS     r2,r2,#11
        0x00001cb8:    02c9        ..      LSLS     r1,r1,#11
        0x00001cba:    02d2        ..      LSLS     r2,r2,#11
        0x00001cbc:    9201        ..      STR      r2,[sp,#4]
        0x00001cbe:    e000        ..      B        0x1cc2 ; btod_internal_mul + 362
        0x00001cc0:    2101        .!      MOVS     r1,#1
        0x00001cc2:    9b0e        ..      LDR      r3,[sp,#0x38]
        0x00001cc4:    2201        ."      MOVS     r2,#1
        0x00001cc6:    07d2        ..      LSLS     r2,r2,#31
        0x00001cc8:    2b01        .+      CMP      r3,#1
        0x00001cca:    d002        ..      BEQ      0x1cd2 ; btod_internal_mul + 378
        0x00001ccc:    2b00        .+      CMP      r3,#0
        0x00001cce:    d003        ..      BEQ      0x1cd8 ; btod_internal_mul + 384
        0x00001cd0:    e013        ..      B        0x1cfa ; btod_internal_mul + 418
        0x00001cd2:    2800        .(      CMP      r0,#0
        0x00001cd4:    d107        ..      BNE      0x1ce6 ; btod_internal_mul + 398
        0x00001cd6:    e016        ..      B        0x1d06 ; btod_internal_mul + 430
        0x00001cd8:    4290        .B      CMP      r0,r2
        0x00001cda:    d804        ..      BHI      0x1ce6 ; btod_internal_mul + 398
        0x00001cdc:    4290        .B      CMP      r0,r2
        0x00001cde:    d10c        ..      BNE      0x1cfa ; btod_internal_mul + 418
        0x00001ce0:    9b01        ..      LDR      r3,[sp,#4]
        0x00001ce2:    420b        .B      TST      r3,r1
        0x00001ce4:    d009        ..      BEQ      0x1cfa ; btod_internal_mul + 418
        0x00001ce6:    9b01        ..      LDR      r3,[sp,#4]
        0x00001ce8:    1859        Y.      ADDS     r1,r3,r1
        0x00001cea:    9101        ..      STR      r1,[sp,#4]
        0x00001cec:    d105        ..      BNE      0x1cfa ; btod_internal_mul + 418
        0x00001cee:    9900        ..      LDR      r1,[sp,#0]
        0x00001cf0:    1c49        I.      ADDS     r1,r1,#1
        0x00001cf2:    9100        ..      STR      r1,[sp,#0]
        0x00001cf4:    d101        ..      BNE      0x1cfa ; btod_internal_mul + 418
        0x00001cf6:    1c7f        ..      ADDS     r7,r7,#1
        0x00001cf8:    9200        ..      STR      r2,[sp,#0]
        0x00001cfa:    2800        .(      CMP      r0,#0
        0x00001cfc:    d003        ..      BEQ      0x1d06 ; btod_internal_mul + 430
        0x00001cfe:    2110        .!      MOVS     r1,#0x10
        0x00001d00:    4608        .F      MOV      r0,r1
        0x00001d02:    2000        .       MOVS     r0,#0
        0x00001d04:    46c0        .F      MOV      r8,r8
        0x00001d06:    6820         h      LDR      r0,[r4,#0]
        0x00001d08:    6829        )h      LDR      r1,[r5,#0]
        0x00001d0a:    9b01        ..      LDR      r3,[sp,#4]
        0x00001d0c:    9a00        ..      LDR      r2,[sp,#0]
        0x00001d0e:    4048        H@      EORS     r0,r0,r1
        0x00001d10:    0fc1        ..      LSRS     r1,r0,#31
        0x00001d12:    9805        ..      LDR      r0,[sp,#0x14]
        0x00001d14:    07c9        ..      LSLS     r1,r1,#31
        0x00001d16:    4339        9C      ORRS     r1,r1,r7
        0x00001d18:    c00e        ..      STM      r0!,{r1-r3}
        0x00001d1a:    b009        ..      ADD      sp,sp,#0x24
        0x00001d1c:    bdf0        ..      POP      {r4-r7,pc}
    btod_internal_div
        0x00001d1e:    b5ff        ..      PUSH     {r0-r7,lr}
        0x00001d20:    b087        ..      SUB      sp,sp,#0x1c
        0x00001d22:    9a09        ..      LDR      r2,[sp,#0x24]
        0x00001d24:    9808        ..      LDR      r0,[sp,#0x20]
        0x00001d26:    9908        ..      LDR      r1,[sp,#0x20]
        0x00001d28:    9b09        ..      LDR      r3,[sp,#0x24]
        0x00001d2a:    6852        Rh      LDR      r2,[r2,#4]
        0x00001d2c:    6840        @h      LDR      r0,[r0,#4]
        0x00001d2e:    6889        .h      LDR      r1,[r1,#8]
        0x00001d30:    689b        .h      LDR      r3,[r3,#8]
        0x00001d32:    9203        ..      STR      r2,[sp,#0xc]
        0x00001d34:    2200        ."      MOVS     r2,#0
        0x00001d36:    4617        .F      MOV      r7,r2
        0x00001d38:    4694        .F      MOV      r12,r2
        0x00001d3a:    9a08        ..      LDR      r2,[sp,#0x20]
        0x00001d3c:    469e        .F      MOV      lr,r3
        0x00001d3e:    6812        .h      LDR      r2,[r2,#0]
        0x00001d40:    0053        S.      LSLS     r3,r2,#1
        0x00001d42:    9a09        ..      LDR      r2,[sp,#0x24]
        0x00001d44:    085b        [.      LSRS     r3,r3,#1
        0x00001d46:    6812        .h      LDR      r2,[r2,#0]
        0x00001d48:    0052        R.      LSLS     r2,r2,#1
        0x00001d4a:    0852        R.      LSRS     r2,r2,#1
        0x00001d4c:    1a9a        ..      SUBS     r2,r3,r2
        0x00001d4e:    4ba3        .K      LDR      r3,[pc,#652] ; [0x1fdc] = 0x3fff
        0x00001d50:    18d4        ..      ADDS     r4,r2,r3
        0x00001d52:    9b0a        ..      LDR      r3,[sp,#0x28]
        0x00001d54:    2235        5"      MOVS     r2,#0x35
        0x00001d56:    2b00        .+      CMP      r3,#0
        0x00001d58:    d100        ..      BNE      0x1d5c ; btod_internal_div + 62
        0x00001d5a:    2240        @"      MOVS     r2,#0x40
        0x00001d5c:    9206        ..      STR      r2,[sp,#0x18]
        0x00001d5e:    2200        ."      MOVS     r2,#0
        0x00001d60:    2301        .#      MOVS     r3,#1
        0x00001d62:    4615        .F      MOV      r5,r2
        0x00001d64:    9204        ..      STR      r2,[sp,#0x10]
        0x00001d66:    07db        ..      LSLS     r3,r3,#31
        0x00001d68:    9305        ..      STR      r3,[sp,#0x14]
        0x00001d6a:    e024        $.      B        0x1db6 ; btod_internal_div + 152
        0x00001d6c:    2d00        .-      CMP      r5,#0
        0x00001d6e:    d105        ..      BNE      0x1d7c ; btod_internal_div + 94
        0x00001d70:    4675        uF      MOV      r5,lr
        0x00001d72:    4603        .F      MOV      r3,r0
        0x00001d74:    9e03        ..      LDR      r6,[sp,#0xc]
        0x00001d76:    1b4d        M.      SUBS     r5,r1,r5
        0x00001d78:    41b3        .A      SBCS     r3,r3,r6
        0x00001d7a:    d309        ..      BCC      0x1d90 ; btod_internal_div + 114
        0x00001d7c:    4675        uF      MOV      r5,lr
        0x00001d7e:    4666        fF      MOV      r6,r12
        0x00001d80:    9b03        ..      LDR      r3,[sp,#0xc]
        0x00001d82:    1b49        I.      SUBS     r1,r1,r5
        0x00001d84:    9d04        ..      LDR      r5,[sp,#0x10]
        0x00001d86:    4198        .A      SBCS     r0,r0,r3
        0x00001d88:    9b05        ..      LDR      r3,[sp,#0x14]
        0x00001d8a:    1975        u.      ADDS     r5,r6,r5
        0x00001d8c:    46ac        .F      MOV      r12,r5
        0x00001d8e:    415f        _A      ADCS     r7,r7,r3
        0x00001d90:    4663        cF      MOV      r3,r12
        0x00001d92:    433b        ;C      ORRS     r3,r3,r7
        0x00001d94:    d008        ..      BEQ      0x1da8 ; btod_internal_div + 138
        0x00001d96:    9b05        ..      LDR      r3,[sp,#0x14]
        0x00001d98:    9e04        ..      LDR      r6,[sp,#0x10]
        0x00001d9a:    07dd        ..      LSLS     r5,r3,#31
        0x00001d9c:    0876        v.      LSRS     r6,r6,#1
        0x00001d9e:    432e        .C      ORRS     r6,r6,r5
        0x00001da0:    085b        [.      LSRS     r3,r3,#1
        0x00001da2:    9604        ..      STR      r6,[sp,#0x10]
        0x00001da4:    9305        ..      STR      r3,[sp,#0x14]
        0x00001da6:    e001        ..      B        0x1dac ; btod_internal_div + 142
        0x00001da8:    1e64        d.      SUBS     r4,r4,#1
        0x00001daa:    1e52        R.      SUBS     r2,r2,#1
        0x00001dac:    0fc5        ..      LSRS     r5,r0,#31
        0x00001dae:    07ed        ..      LSLS     r5,r5,#31
        0x00001db0:    1849        I.      ADDS     r1,r1,r1
        0x00001db2:    4140        @A      ADCS     r0,r0,r0
        0x00001db4:    1c52        R.      ADDS     r2,r2,#1
        0x00001db6:    9b06        ..      LDR      r3,[sp,#0x18]
        0x00001db8:    429a        .B      CMP      r2,r3
        0x00001dba:    dbd7        ..      BLT      0x1d6c ; btod_internal_div + 78
        0x00001dbc:    2d00        .-      CMP      r5,#0
        0x00001dbe:    d104        ..      BNE      0x1dca ; btod_internal_div + 172
        0x00001dc0:    4675        uF      MOV      r5,lr
        0x00001dc2:    9a03        ..      LDR      r2,[sp,#0xc]
        0x00001dc4:    1a6b        k.      SUBS     r3,r5,r1
        0x00001dc6:    4182        .A      SBCS     r2,r2,r0
        0x00001dc8:    d201        ..      BCS      0x1dce ; btod_internal_div + 176
        0x00001dca:    2003        .       MOVS     r0,#3
        0x00001dcc:    e00c        ..      B        0x1de8 ; btod_internal_div + 202
        0x00001dce:    9a03        ..      LDR      r2,[sp,#0xc]
        0x00001dd0:    460b        .F      MOV      r3,r1
        0x00001dd2:    406b        k@      EORS     r3,r3,r5
        0x00001dd4:    4042        B@      EORS     r2,r2,r0
        0x00001dd6:    4313        .C      ORRS     r3,r3,r2
        0x00001dd8:    d101        ..      BNE      0x1dde ; btod_internal_div + 192
        0x00001dda:    2002        .       MOVS     r0,#2
        0x00001ddc:    e004        ..      B        0x1de8 ; btod_internal_div + 202
        0x00001dde:    4301        .C      ORRS     r1,r1,r0
        0x00001de0:    d001        ..      BEQ      0x1de6 ; btod_internal_div + 200
        0x00001de2:    2001        .       MOVS     r0,#1
        0x00001de4:    e000        ..      B        0x1de8 ; btod_internal_div + 202
        0x00001de6:    2000        .       MOVS     r0,#0
        0x00001de8:    4661        aF      MOV      r1,r12
        0x00001dea:    9101        ..      STR      r1,[sp,#4]
        0x00001dec:    2100        .!      MOVS     r1,#0
        0x00001dee:    9700        ..      STR      r7,[sp,#0]
        0x00001df0:    9102        ..      STR      r1,[sp,#8]
        0x00001df2:    990a        ..      LDR      r1,[sp,#0x28]
        0x00001df4:    2900        .)      CMP      r1,#0
        0x00001df6:    d005        ..      BEQ      0x1e04 ; btod_internal_div + 230
        0x00001df8:    4661        aF      MOV      r1,r12
        0x00001dfa:    0240        @.      LSLS     r0,r0,#9
        0x00001dfc:    4301        .C      ORRS     r1,r1,r0
        0x00001dfe:    4b76        vK      LDR      r3,[pc,#472] ; [0x1fd8] = 0x3c01
        0x00001e00:    9101        ..      STR      r1,[sp,#4]
        0x00001e02:    e002        ..      B        0x1e0a ; btod_internal_div + 236
        0x00001e04:    0780        ..      LSLS     r0,r0,#30
        0x00001e06:    2300        .#      MOVS     r3,#0
        0x00001e08:    9002        ..      STR      r0,[sp,#8]
        0x00001e0a:    429c        .B      CMP      r4,r3
        0x00001e0c:    da3a        :.      BGE      0x1e84 ; btod_internal_div + 358
        0x00001e0e:    1b1a        ..      SUBS     r2,r3,r4
        0x00001e10:    06d0        ..      LSLS     r0,r2,#27
        0x00001e12:    0ec0        ..      LSRS     r0,r0,#27
        0x00001e14:    d015        ..      BEQ      0x1e42 ; btod_internal_div + 292
        0x00001e16:    9d02        ..      LDR      r5,[sp,#8]
        0x00001e18:    2120         !      MOVS     r1,#0x20
        0x00001e1a:    9c01        ..      LDR      r4,[sp,#4]
        0x00001e1c:    1a09        ..      SUBS     r1,r1,r0
        0x00001e1e:    40c5        .@      LSRS     r5,r5,r0
        0x00001e20:    408c        .@      LSLS     r4,r4,r1
        0x00001e22:    4325        %C      ORRS     r5,r5,r4
        0x00001e24:    9c02        ..      LDR      r4,[sp,#8]
        0x00001e26:    408c        .@      LSLS     r4,r4,r1
        0x00001e28:    d000        ..      BEQ      0x1e2c ; btod_internal_div + 270
        0x00001e2a:    2401        .$      MOVS     r4,#1
        0x00001e2c:    4325        %C      ORRS     r5,r5,r4
        0x00001e2e:    9c01        ..      LDR      r4,[sp,#4]
        0x00001e30:    9502        ..      STR      r5,[sp,#8]
        0x00001e32:    463d        =F      MOV      r5,r7
        0x00001e34:    40c4        .@      LSRS     r4,r4,r0
        0x00001e36:    408d        .@      LSLS     r5,r5,r1
        0x00001e38:    4639        9F      MOV      r1,r7
        0x00001e3a:    432c        ,C      ORRS     r4,r4,r5
        0x00001e3c:    40c1        .@      LSRS     r1,r1,r0
        0x00001e3e:    9401        ..      STR      r4,[sp,#4]
        0x00001e40:    9100        ..      STR      r1,[sp,#0]
        0x00001e42:    1154        T.      ASRS     r4,r2,#5
        0x00001e44:    d01d        ..      BEQ      0x1e82 ; btod_internal_div + 356
        0x00001e46:    466d        mF      MOV      r5,sp
        0x00001e48:    2102        .!      MOVS     r1,#2
        0x00001e4a:    2200        ."      MOVS     r2,#0
        0x00001e4c:    2902        .)      CMP      r1,#2
        0x00001e4e:    d10c        ..      BNE      0x1e6a ; btod_internal_div + 332
        0x00001e50:    2003        .       MOVS     r0,#3
        0x00001e52:    1b00        ..      SUBS     r0,r0,r4
        0x00001e54:    e007        ..      B        0x1e66 ; btod_internal_div + 328
        0x00001e56:    2800        .(      CMP      r0,#0
        0x00001e58:    db04        ..      BLT      0x1e64 ; btod_internal_div + 326
        0x00001e5a:    0086        ..      LSLS     r6,r0,#2
        0x00001e5c:    59ae        .Y      LDR      r6,[r5,r6]
        0x00001e5e:    2e00        ..      CMP      r6,#0
        0x00001e60:    d000        ..      BEQ      0x1e64 ; btod_internal_div + 326
        0x00001e62:    2201        ."      MOVS     r2,#1
        0x00001e64:    1c40        @.      ADDS     r0,r0,#1
        0x00001e66:    2803        .(      CMP      r0,#3
        0x00001e68:    dbf5        ..      BLT      0x1e56 ; btod_internal_div + 312
        0x00001e6a:    1b08        ..      SUBS     r0,r1,r4
        0x00001e6c:    d502        ..      BPL      0x1e74 ; btod_internal_div + 342
        0x00001e6e:    0088        ..      LSLS     r0,r1,#2
        0x00001e70:    502a        *P      STR      r2,[r5,r0]
        0x00001e72:    e004        ..      B        0x1e7e ; btod_internal_div + 352
        0x00001e74:    0080        ..      LSLS     r0,r0,#2
        0x00001e76:    5828        (X      LDR      r0,[r5,r0]
        0x00001e78:    4310        .C      ORRS     r0,r0,r2
        0x00001e7a:    008a        ..      LSLS     r2,r1,#2
        0x00001e7c:    50a8        .P      STR      r0,[r5,r2]
        0x00001e7e:    1e49        I.      SUBS     r1,r1,#1
        0x00001e80:    d5e3        ..      BPL      0x1e4a ; btod_internal_div + 300
        0x00001e82:    461c        .F      MOV      r4,r3
        0x00001e84:    980a        ..      LDR      r0,[sp,#0x28]
        0x00001e86:    2800        .(      CMP      r0,#0
        0x00001e88:    9802        ..      LDR      r0,[sp,#8]
        0x00001e8a:    d00c        ..      BEQ      0x1ea6 ; btod_internal_div + 392
        0x00001e8c:    2800        .(      CMP      r0,#0
        0x00001e8e:    d000        ..      BEQ      0x1e92 ; btod_internal_div + 372
        0x00001e90:    2001        .       MOVS     r0,#1
        0x00001e92:    9901        ..      LDR      r1,[sp,#4]
        0x00001e94:    9a01        ..      LDR      r2,[sp,#4]
        0x00001e96:    0549        I.      LSLS     r1,r1,#21
        0x00001e98:    4308        .C      ORRS     r0,r0,r1
        0x00001e9a:    2101        .!      MOVS     r1,#1
        0x00001e9c:    0ad2        ..      LSRS     r2,r2,#11
        0x00001e9e:    02c9        ..      LSLS     r1,r1,#11
        0x00001ea0:    02d2        ..      LSLS     r2,r2,#11
        0x00001ea2:    9201        ..      STR      r2,[sp,#4]
        0x00001ea4:    e000        ..      B        0x1ea8 ; btod_internal_div + 394
        0x00001ea6:    2101        .!      MOVS     r1,#1
        0x00001ea8:    9b10        ..      LDR      r3,[sp,#0x40]
        0x00001eaa:    2201        ."      MOVS     r2,#1
        0x00001eac:    07d2        ..      LSLS     r2,r2,#31
        0x00001eae:    2b01        .+      CMP      r3,#1
        0x00001eb0:    d002        ..      BEQ      0x1eb8 ; btod_internal_div + 410
        0x00001eb2:    2b00        .+      CMP      r3,#0
        0x00001eb4:    d003        ..      BEQ      0x1ebe ; btod_internal_div + 416
        0x00001eb6:    e013        ..      B        0x1ee0 ; btod_internal_div + 450
        0x00001eb8:    2800        .(      CMP      r0,#0
        0x00001eba:    d107        ..      BNE      0x1ecc ; btod_internal_div + 430
        0x00001ebc:    e016        ..      B        0x1eec ; btod_internal_div + 462
        0x00001ebe:    4290        .B      CMP      r0,r2
        0x00001ec0:    d804        ..      BHI      0x1ecc ; btod_internal_div + 430
        0x00001ec2:    4290        .B      CMP      r0,r2
        0x00001ec4:    d10c        ..      BNE      0x1ee0 ; btod_internal_div + 450
        0x00001ec6:    9b01        ..      LDR      r3,[sp,#4]
        0x00001ec8:    420b        .B      TST      r3,r1
        0x00001eca:    d009        ..      BEQ      0x1ee0 ; btod_internal_div + 450
        0x00001ecc:    9b01        ..      LDR      r3,[sp,#4]
        0x00001ece:    1859        Y.      ADDS     r1,r3,r1
        0x00001ed0:    9101        ..      STR      r1,[sp,#4]
        0x00001ed2:    d105        ..      BNE      0x1ee0 ; btod_internal_div + 450
        0x00001ed4:    9900        ..      LDR      r1,[sp,#0]
        0x00001ed6:    1c49        I.      ADDS     r1,r1,#1
        0x00001ed8:    9100        ..      STR      r1,[sp,#0]
        0x00001eda:    d101        ..      BNE      0x1ee0 ; btod_internal_div + 450
        0x00001edc:    1c64        d.      ADDS     r4,r4,#1
        0x00001ede:    9200        ..      STR      r2,[sp,#0]
        0x00001ee0:    2800        .(      CMP      r0,#0
        0x00001ee2:    d003        ..      BEQ      0x1eec ; btod_internal_div + 462
        0x00001ee4:    2110        .!      MOVS     r1,#0x10
        0x00001ee6:    4608        .F      MOV      r0,r1
        0x00001ee8:    2000        .       MOVS     r0,#0
        0x00001eea:    46c0        .F      MOV      r8,r8
        0x00001eec:    9808        ..      LDR      r0,[sp,#0x20]
        0x00001eee:    9909        ..      LDR      r1,[sp,#0x24]
        0x00001ef0:    9b00        ..      LDR      r3,[sp,#0]
        0x00001ef2:    6800        .h      LDR      r0,[r0,#0]
        0x00001ef4:    6809        .h      LDR      r1,[r1,#0]
        0x00001ef6:    4048        H@      EORS     r0,r0,r1
        0x00001ef8:    9901        ..      LDR      r1,[sp,#4]
        0x00001efa:    0fc2        ..      LSRS     r2,r0,#31
        0x00001efc:    9807        ..      LDR      r0,[sp,#0x1c]
        0x00001efe:    07d2        ..      LSLS     r2,r2,#31
        0x00001f00:    4322        "C      ORRS     r2,r2,r4
        0x00001f02:    6043        C`      STR      r3,[r0,#4]
        0x00001f04:    6002        .`      STR      r2,[r0,#0]
        0x00001f06:    6081        .`      STR      r1,[r0,#8]
        0x00001f08:    b00b        ..      ADD      sp,sp,#0x2c
        0x00001f0a:    bdf0        ..      POP      {r4-r7,pc}
    _btod_emul
        0x00001f0c:    b51f        ..      PUSH     {r0-r4,lr}
        0x00001f0e:    2300        .#      MOVS     r3,#0
        0x00001f10:    9200        ..      STR      r2,[sp,#0]
        0x00001f12:    460a        .F      MOV      r2,r1
        0x00001f14:    4601        .F      MOV      r1,r0
        0x00001f16:    a801        ..      ADD      r0,sp,#4
        0x00001f18:    f7fffe1e    ....    BL       btod_internal_mul ; 0x1b58
        0x00001f1c:    a801        ..      ADD      r0,sp,#4
        0x00001f1e:    c807        ..      LDM      r0,{r0-r2}
        0x00001f20:    b004        ..      ADD      sp,sp,#0x10
        0x00001f22:    bd10        ..      POP      {r4,pc}
    _btod_emuld
        0x00001f24:    b51f        ..      PUSH     {r0-r4,lr}
        0x00001f26:    2301        .#      MOVS     r3,#1
        0x00001f28:    9200        ..      STR      r2,[sp,#0]
        0x00001f2a:    460a        .F      MOV      r2,r1
        0x00001f2c:    4601        .F      MOV      r1,r0
        0x00001f2e:    a801        ..      ADD      r0,sp,#4
        0x00001f30:    f7fffe12    ....    BL       btod_internal_mul ; 0x1b58
        0x00001f34:    9801        ..      LDR      r0,[sp,#4]
        0x00001f36:    220f        ."      MOVS     r2,#0xf
        0x00001f38:    0292        ..      LSLS     r2,r2,#10
        0x00001f3a:    0fc1        ..      LSRS     r1,r0,#31
        0x00001f3c:    0040        @.      LSLS     r0,r0,#1
        0x00001f3e:    07c9        ..      LSLS     r1,r1,#31
        0x00001f40:    0840        @.      LSRS     r0,r0,#1
        0x00001f42:    1a80        ..      SUBS     r0,r0,r2
        0x00001f44:    9001        ..      STR      r0,[sp,#4]
        0x00001f46:    9802        ..      LDR      r0,[sp,#8]
        0x00001f48:    2800        .(      CMP      r0,#0
        0x00001f4a:    db01        ..      BLT      0x1f50 ; _btod_emuld + 44
        0x00001f4c:    2000        .       MOVS     r0,#0
        0x00001f4e:    9001        ..      STR      r0,[sp,#4]
        0x00001f50:    9802        ..      LDR      r0,[sp,#8]
        0x00001f52:    0040        @.      LSLS     r0,r0,#1
        0x00001f54:    0840        @.      LSRS     r0,r0,#1
        0x00001f56:    9002        ..      STR      r0,[sp,#8]
        0x00001f58:    9801        ..      LDR      r0,[sp,#4]
        0x00001f5a:    9a02        ..      LDR      r2,[sp,#8]
        0x00001f5c:    0500        ..      LSLS     r0,r0,#20
        0x00001f5e:    0ad2        ..      LSRS     r2,r2,#11
        0x00001f60:    4310        .C      ORRS     r0,r0,r2
        0x00001f62:    4308        .C      ORRS     r0,r0,r1
        0x00001f64:    9902        ..      LDR      r1,[sp,#8]
        0x00001f66:    9a03        ..      LDR      r2,[sp,#0xc]
        0x00001f68:    0549        I.      LSLS     r1,r1,#21
        0x00001f6a:    0ad2        ..      LSRS     r2,r2,#11
        0x00001f6c:    4311        .C      ORRS     r1,r1,r2
        0x00001f6e:    e7d7        ..      B        0x1f20 ; _btod_emul + 20
    _btod_ediv
        0x00001f70:    b51f        ..      PUSH     {r0-r4,lr}
        0x00001f72:    2300        .#      MOVS     r3,#0
        0x00001f74:    9200        ..      STR      r2,[sp,#0]
        0x00001f76:    460a        .F      MOV      r2,r1
        0x00001f78:    4601        .F      MOV      r1,r0
        0x00001f7a:    a801        ..      ADD      r0,sp,#4
        0x00001f7c:    f7fffecf    ....    BL       btod_internal_div ; 0x1d1e
        0x00001f80:    a801        ..      ADD      r0,sp,#4
        0x00001f82:    c807        ..      LDM      r0,{r0-r2}
        0x00001f84:    e7cc        ..      B        0x1f20 ; _btod_emul + 20
    _btod_edivd
        0x00001f86:    b51f        ..      PUSH     {r0-r4,lr}
        0x00001f88:    2301        .#      MOVS     r3,#1
        0x00001f8a:    9200        ..      STR      r2,[sp,#0]
        0x00001f8c:    460a        .F      MOV      r2,r1
        0x00001f8e:    4601        .F      MOV      r1,r0
        0x00001f90:    a801        ..      ADD      r0,sp,#4
        0x00001f92:    f7fffec4    ....    BL       btod_internal_div ; 0x1d1e
        0x00001f96:    9801        ..      LDR      r0,[sp,#4]
        0x00001f98:    220f        ."      MOVS     r2,#0xf
        0x00001f9a:    0292        ..      LSLS     r2,r2,#10
        0x00001f9c:    0fc1        ..      LSRS     r1,r0,#31
        0x00001f9e:    0040        @.      LSLS     r0,r0,#1
        0x00001fa0:    07c9        ..      LSLS     r1,r1,#31
        0x00001fa2:    0840        @.      LSRS     r0,r0,#1
        0x00001fa4:    1a80        ..      SUBS     r0,r0,r2
        0x00001fa6:    9001        ..      STR      r0,[sp,#4]
        0x00001fa8:    9802        ..      LDR      r0,[sp,#8]
        0x00001faa:    2800        .(      CMP      r0,#0
        0x00001fac:    db01        ..      BLT      0x1fb2 ; _btod_edivd + 44
        0x00001fae:    2000        .       MOVS     r0,#0
        0x00001fb0:    9001        ..      STR      r0,[sp,#4]
        0x00001fb2:    9802        ..      LDR      r0,[sp,#8]
        0x00001fb4:    0040        @.      LSLS     r0,r0,#1
        0x00001fb6:    0840        @.      LSRS     r0,r0,#1
        0x00001fb8:    9002        ..      STR      r0,[sp,#8]
        0x00001fba:    9801        ..      LDR      r0,[sp,#4]
        0x00001fbc:    9a02        ..      LDR      r2,[sp,#8]
        0x00001fbe:    0500        ..      LSLS     r0,r0,#20
        0x00001fc0:    0ad2        ..      LSRS     r2,r2,#11
        0x00001fc2:    4310        .C      ORRS     r0,r0,r2
        0x00001fc4:    4308        .C      ORRS     r0,r0,r1
        0x00001fc6:    9902        ..      LDR      r1,[sp,#8]
        0x00001fc8:    9a03        ..      LDR      r2,[sp,#0xc]
        0x00001fca:    0549        I.      LSLS     r1,r1,#21
        0x00001fcc:    0ad2        ..      LSRS     r2,r2,#11
        0x00001fce:    4311        .C      ORRS     r1,r1,r2
        0x00001fd0:    e7a6        ..      B        0x1f20 ; _btod_emul + 20
    $d
        0x00001fd2:    0000        ..      DCW    0
        0x00001fd4:    ffffc002    ....    DCD    4294950914
        0x00001fd8:    00003c01    .<..    DCD    15361
        0x00001fdc:    00003fff    .?..    DCD    16383
    $t
    .text
    __fpl_cmpreturn
        0x00001fe0:    02ca        ..      LSLS     r2,r1,#11
        0x00001fe2:    d510        ..      BPL      0x2006 ; __fpl_cmpreturn + 38
        0x00001fe4:    034a        J.      LSLS     r2,r1,#13
        0x00001fe6:    0f52        R.      LSRS     r2,r2,#29
        0x00001fe8:    d004        ..      BEQ      0x1ff4 ; __fpl_cmpreturn + 20
        0x00001fea:    03c8        ..      LSLS     r0,r1,#15
        0x00001fec:    43c0        .C      MVNS     r0,r0
        0x00001fee:    2101        .!      MOVS     r1,#1
        0x00001ff0:    4088        .@      LSLS     r0,r0,r1
        0x00001ff2:    4770        pG      BX       lr
        0x00001ff4:    4a05        .J      LDR      r2,[pc,#20] ; [0x200c] = 0x30000000
        0x00001ff6:    f3ef8100    ....    MRS      r1,APSR ; formerly CPSR
        0x00001ffa:    0108        ..      LSLS     r0,r1,#4
        0x00001ffc:    0900        ..      LSRS     r0,r0,#4
        0x00001ffe:    4310        .C      ORRS     r0,r0,r2
        0x00002000:    f3808800    ....    MSR      APSR_nzcvq,r0 ; formerly CPSR_f
        0x00002004:    4770        pG      BX       lr
        0x00002006:    2000        .       MOVS     r0,#0
        0x00002008:    4770        pG      BX       lr
    $d
        0x0000200a:    0000        ..      DCW    0
        0x0000200c:    30000000    ...0    DCD    805306368
    $t
    .text
    __aeabi_d2iz
    _dfix
        0x00002010:    b530        0.      PUSH     {r4,r5,lr}
        0x00002012:    4603        .F      MOV      r3,r0
        0x00002014:    02ca        ..      LSLS     r2,r1,#11
        0x00002016:    0d40        @.      LSRS     r0,r0,#21
        0x00002018:    4310        .C      ORRS     r0,r0,r2
        0x0000201a:    4d15        .M      LDR      r5,[pc,#84] ; [0x2070] = 0x41e
        0x0000201c:    4c15        .L      LDR      r4,[pc,#84] ; [0x2074] = 0x80000000
        0x0000201e:    150a        ..      ASRS     r2,r1,#20
        0x00002020:    d002        ..      BEQ      0x2028 ; __aeabi_d2iz + 24
        0x00002022:    4320         C      ORRS     r0,r0,r4
        0x00002024:    2a00        .*      CMP      r2,#0
        0x00002026:    db06        ..      BLT      0x2036 ; __aeabi_d2iz + 38
        0x00002028:    1aaa        ..      SUBS     r2,r5,r2
        0x0000202a:    2a00        .*      CMP      r2,#0
        0x0000202c:    dd12        ..      BLE      0x2054 ; __aeabi_d2iz + 68
        0x0000202e:    40d0        .@      LSRS     r0,r0,r2
        0x00002030:    2aff        .*      CMP      r2,#0xff
        0x00002032:    dc0b        ..      BGT      0x204c ; __aeabi_d2iz + 60
        0x00002034:    bd30        0.      POP      {r4,r5,pc}
        0x00002036:    0552        R.      LSLS     r2,r2,#21
        0x00002038:    0d52        R.      LSRS     r2,r2,#21
        0x0000203a:    d101        ..      BNE      0x2040 ; __aeabi_d2iz + 48
        0x0000203c:    0040        @.      LSLS     r0,r0,#1
        0x0000203e:    0840        @.      LSRS     r0,r0,#1
        0x00002040:    1aaa        ..      SUBS     r2,r5,r2
        0x00002042:    d407        ..      BMI      0x2054 ; __aeabi_d2iz + 68
        0x00002044:    40d0        .@      LSRS     r0,r0,r2
        0x00002046:    4240        @B      RSBS     r0,r0,#0
        0x00002048:    2aff        .*      CMP      r2,#0xff
        0x0000204a:    dd01        ..      BLE      0x2050 ; __aeabi_d2iz + 64
        0x0000204c:    2000        .       MOVS     r0,#0
        0x0000204e:    bd30        0.      POP      {r4,r5,pc}
        0x00002050:    2800        .(      CMP      r0,#0
        0x00002052:    ddfc        ..      BLE      0x204e ; __aeabi_d2iz + 62
        0x00002054:    004a        J.      LSLS     r2,r1,#1
        0x00002056:    2b00        .+      CMP      r3,#0
        0x00002058:    d001        ..      BEQ      0x205e ; __aeabi_d2iz + 78
        0x0000205a:    2001        .       MOVS     r0,#1
        0x0000205c:    e000        ..      B        0x2060 ; __aeabi_d2iz + 80
        0x0000205e:    2000        .       MOVS     r0,#0
        0x00002060:    1810        ..      ADDS     r0,r2,r0
        0x00002062:    4a05        .J      LDR      r2,[pc,#20] ; [0x2078] = 0xffe00000
        0x00002064:    4290        .B      CMP      r0,r2
        0x00002066:    d8f1        ..      BHI      0x204c ; __aeabi_d2iz + 60
        0x00002068:    17c8        ..      ASRS     r0,r1,#31
        0x0000206a:    43c0        .C      MVNS     r0,r0
        0x0000206c:    4060        `@      EORS     r0,r0,r4
        0x0000206e:    bd30        0.      POP      {r4,r5,pc}
    $d
        0x00002070:    0000041e    ....    DCD    1054
        0x00002074:    80000000    ....    DCD    2147483648
        0x00002078:    ffe00000    ....    DCD    4292870144
    $t
    .text
    __fpl_fcheck_NaN2
        0x0000207c:    b510        ..      PUSH     {r4,lr}
        0x0000207e:    4802        .H      LDR      r0,[pc,#8] ; [0x2088] = 0x7fc00000
        0x00002080:    f000f86c    ..l.    BL       __fpl_return_NaN ; 0x215c
        0x00002084:    bd10        ..      POP      {r4,pc}
    $d
        0x00002086:    0000        ..      DCW    0
        0x00002088:    7fc00000    ....    DCD    2143289344
    $t
    .text
    __user_libspace
    __user_perproc_libspace
    __user_perthread_libspace
        0x0000208c:    4800        .H      LDR      r0,[pc,#0] ; [0x2090] = 0x200007a4
        0x0000208e:    4770        pG      BX       lr
    $d
        0x00002090:    200007a4    ...     DCD    536872868
    $t
    .text
    __user_setup_stackheap
        0x00002094:    4675        uF      MOV      r5,lr
        0x00002096:    f7fffff9    ....    BL       __user_libspace ; 0x208c
        0x0000209a:    46ae        .F      MOV      lr,r5
        0x0000209c:    0005        ..      MOVS     r5,r0
        0x0000209e:    4669        iF      MOV      r1,sp
        0x000020a0:    4653        SF      MOV      r3,r10
        0x000020a2:    08c0        ..      LSRS     r0,r0,#3
        0x000020a4:    00c0        ..      LSLS     r0,r0,#3
        0x000020a6:    4685        .F      MOV      sp,r0
        0x000020a8:    b018        ..      ADD      sp,sp,#0x60
        0x000020aa:    b520         .      PUSH     {r5,lr}
        0x000020ac:    f7fef886    ....    BL       __user_initial_stackheap ; 0x1bc
        0x000020b0:    bc60        `.      POP      {r5,r6}
        0x000020b2:    2700        .'      MOVS     r7,#0
        0x000020b4:    0849        I.      LSRS     r1,r1,#1
        0x000020b6:    46b6        .F      MOV      lr,r6
        0x000020b8:    2600        .&      MOVS     r6,#0
        0x000020ba:    c5c0        ..      STM      r5!,{r6,r7}
        0x000020bc:    c5c0        ..      STM      r5!,{r6,r7}
        0x000020be:    c5c0        ..      STM      r5!,{r6,r7}
        0x000020c0:    c5c0        ..      STM      r5!,{r6,r7}
        0x000020c2:    c5c0        ..      STM      r5!,{r6,r7}
        0x000020c4:    c5c0        ..      STM      r5!,{r6,r7}
        0x000020c6:    c5c0        ..      STM      r5!,{r6,r7}
        0x000020c8:    c5c0        ..      STM      r5!,{r6,r7}
        0x000020ca:    3d40        @=      SUBS     r5,r5,#0x40
        0x000020cc:    0049        I.      LSLS     r1,r1,#1
        0x000020ce:    468d        .F      MOV      sp,r1
        0x000020d0:    4770        pG      BX       lr
    .text
    exit
        0x000020d2:    4604        .F      MOV      r4,r0
        0x000020d4:    46c0        .F      MOV      r8,r8
        0x000020d6:    46c0        .F      MOV      r8,r8
        0x000020d8:    4620         F      MOV      r0,r4
        0x000020da:    f7fef853    ..S.    BL       __rt_exit ; 0x184
        0x000020de:    0000        ..      MOVS     r0,r0
    .text
    strcmp
        0x000020e0:    4602        .F      MOV      r2,r0
        0x000020e2:    b570        p.      PUSH     {r4-r6,lr}
        0x000020e4:    430a        .C      ORRS     r2,r2,r1
        0x000020e6:    0792        ..      LSLS     r2,r2,#30
        0x000020e8:    d124        $.      BNE      0x2134 ; strcmp + 84
        0x000020ea:    4d1b        .M      LDR      r5,[pc,#108] ; [0x2158] = 0x1010101
        0x000020ec:    01ee        ..      LSLS     r6,r5,#7
        0x000020ee:    c804        ..      LDM      r0!,{r2}
        0x000020f0:    c908        ..      LDM      r1!,{r3}
        0x000020f2:    1b54        T.      SUBS     r4,r2,r5
        0x000020f4:    4394        .C      BICS     r4,r4,r2
        0x000020f6:    4034        4@      ANDS     r4,r4,r6
        0x000020f8:    d017        ..      BEQ      0x212a ; strcmp + 74
        0x000020fa:    b2d0        ..      UXTB     r0,r2
        0x000020fc:    b2d9        ..      UXTB     r1,r3
        0x000020fe:    1a40        @.      SUBS     r0,r0,r1
        0x00002100:    0621        !.      LSLS     r1,r4,#24
        0x00002102:    4301        .C      ORRS     r1,r1,r0
        0x00002104:    d110        ..      BNE      0x2128 ; strcmp + 72
        0x00002106:    b290        ..      UXTH     r0,r2
        0x00002108:    b299        ..      UXTH     r1,r3
        0x0000210a:    1a40        @.      SUBS     r0,r0,r1
        0x0000210c:    0421        !.      LSLS     r1,r4,#16
        0x0000210e:    4301        .C      ORRS     r1,r1,r0
        0x00002110:    d10a        ..      BNE      0x2128 ; strcmp + 72
        0x00002112:    0210        ..      LSLS     r0,r2,#8
        0x00002114:    0219        ..      LSLS     r1,r3,#8
        0x00002116:    0a00        ..      LSRS     r0,r0,#8
        0x00002118:    0a09        ..      LSRS     r1,r1,#8
        0x0000211a:    1a40        @.      SUBS     r0,r0,r1
        0x0000211c:    0221        !.      LSLS     r1,r4,#8
        0x0000211e:    4301        .C      ORRS     r1,r1,r0
        0x00002120:    d102        ..      BNE      0x2128 ; strcmp + 72
        0x00002122:    0e10        ..      LSRS     r0,r2,#24
        0x00002124:    0e19        ..      LSRS     r1,r3,#24
        0x00002126:    1a40        @.      SUBS     r0,r0,r1
        0x00002128:    bd70        p.      POP      {r4-r6,pc}
        0x0000212a:    429a        .B      CMP      r2,r3
        0x0000212c:    d0df        ..      BEQ      0x20ee ; strcmp + 14
        0x0000212e:    ba10        ..      REV      r0,r2
        0x00002130:    ba19        ..      REV      r1,r3
        0x00002132:    e7f8        ..      B        0x2126 ; strcmp + 70
        0x00002134:    7802        .x      LDRB     r2,[r0,#0]
        0x00002136:    780b        .x      LDRB     r3,[r1,#0]
        0x00002138:    1c40        @.      ADDS     r0,r0,#1
        0x0000213a:    1c49        I.      ADDS     r1,r1,#1
        0x0000213c:    2a00        .*      CMP      r2,#0
        0x0000213e:    d009        ..      BEQ      0x2154 ; strcmp + 116
        0x00002140:    429a        .B      CMP      r2,r3
        0x00002142:    d107        ..      BNE      0x2154 ; strcmp + 116
        0x00002144:    7802        .x      LDRB     r2,[r0,#0]
        0x00002146:    780b        .x      LDRB     r3,[r1,#0]
        0x00002148:    1c40        @.      ADDS     r0,r0,#1
        0x0000214a:    1c49        I.      ADDS     r1,r1,#1
        0x0000214c:    2a00        .*      CMP      r2,#0
        0x0000214e:    d001        ..      BEQ      0x2154 ; strcmp + 116
        0x00002150:    429a        .B      CMP      r2,r3
        0x00002152:    d0ef        ..      BEQ      0x2134 ; strcmp + 84
        0x00002154:    1ad0        ..      SUBS     r0,r2,r3
        0x00002156:    bd70        p.      POP      {r4-r6,pc}
    $d
        0x00002158:    01010101    ....    DCD    16843009
    $t
    .text
    __fpl_return_NaN
        0x0000215c:    b510        ..      PUSH     {r4,lr}
        0x0000215e:    460c        .F      MOV      r4,r1
        0x00002160:    0711        ..      LSLS     r1,r2,#28
        0x00002162:    0f09        ..      LSRS     r1,r1,#28
        0x00002164:    2909        .)      CMP      r1,#9
        0x00002166:    d004        ..      BEQ      0x2172 ; __fpl_return_NaN + 22
        0x00002168:    290a        .)      CMP      r1,#0xa
        0x0000216a:    d00a        ..      BEQ      0x2182 ; __fpl_return_NaN + 38
        0x0000216c:    2908        .)      CMP      r1,#8
        0x0000216e:    d10c        ..      BNE      0x218a ; __fpl_return_NaN + 46
        0x00002170:    e004        ..      B        0x217c ; __fpl_return_NaN + 32
        0x00002172:    4611        .F      MOV      r1,r2
        0x00002174:    2008        .       MOVS     r0,#8
        0x00002176:    f7ffff33    ..3.    BL       __fpl_cmpreturn ; 0x1fe0
        0x0000217a:    e006        ..      B        0x218a ; __fpl_return_NaN + 46
        0x0000217c:    0651        Q.      LSLS     r1,r2,#25
        0x0000217e:    d506        ..      BPL      0x218e ; __fpl_return_NaN + 50
        0x00002180:    e001        ..      B        0x2186 ; __fpl_return_NaN + 42
        0x00002182:    0651        Q.      LSLS     r1,r2,#25
        0x00002184:    d501        ..      BPL      0x218a ; __fpl_return_NaN + 46
        0x00002186:    2001        .       MOVS     r0,#1
        0x00002188:    07c0        ..      LSLS     r0,r0,#31
        0x0000218a:    4621        !F      MOV      r1,r4
        0x0000218c:    bd10        ..      POP      {r4,pc}
        0x0000218e:    06d1        ..      LSLS     r1,r2,#27
        0x00002190:    d50a        ..      BPL      0x21a8 ; __fpl_return_NaN + 76
        0x00002192:    0101        ..      LSLS     r1,r0,#4
        0x00002194:    0909        ..      LSRS     r1,r1,#4
        0x00002196:    2200        ."      MOVS     r2,#0
        0x00002198:    08cb        ..      LSRS     r3,r1,#3
        0x0000219a:    0754        T.      LSLS     r4,r2,#29
        0x0000219c:    0749        I.      LSLS     r1,r1,#29
        0x0000219e:    0e00        ..      LSRS     r0,r0,#24
        0x000021a0:    431c        .C      ORRS     r4,r4,r3
        0x000021a2:    0600        ..      LSLS     r0,r0,#24
        0x000021a4:    4304        .C      ORRS     r4,r4,r0
        0x000021a6:    e009        ..      B        0x21bc ; __fpl_return_NaN + 96
        0x000021a8:    0f41        A.      LSRS     r1,r0,#29
        0x000021aa:    0220         .      LSLS     r0,r4,#8
        0x000021ac:    0749        I.      LSLS     r1,r1,#29
        0x000021ae:    0a00        ..      LSRS     r0,r0,#8
        0x000021b0:    4301        .C      ORRS     r1,r1,r0
        0x000021b2:    0e20         .      LSRS     r0,r4,#24
        0x000021b4:    0600        ..      LSLS     r0,r0,#24
        0x000021b6:    221d        ."      MOVS     r2,#0x1d
        0x000021b8:    41d1        .A      RORS     r1,r1,r2
        0x000021ba:    4301        .C      ORRS     r1,r1,r0
        0x000021bc:    4608        .F      MOV      r0,r1
        0x000021be:    e7e4        ..      B        0x218a ; __fpl_return_NaN + 46
    .text
    _sys_exit
        0x000021c0:    4901        .I      LDR      r1,[pc,#4] ; [0x21c8] = 0x20026
        0x000021c2:    2018        .       MOVS     r0,#0x18
        0x000021c4:    beab        ..      BKPT     #0xab
        0x000021c6:    e7fe        ..      B        0x21c6 ; _sys_exit + 6
    $d
        0x000021c8:    00020026    &...    DCD    131110
    $t
    .text
    __I$use$semihosting
    __use_no_semihosting_swi
        0x000021cc:    4770        pG      BX       lr
        0x000021ce:    0000        ..      MOVS     r0,r0
    i.ADC_IRQHandler
    ADC_IRQHandler
        0x000021d0:    b510        ..      PUSH     {r4,lr}
        0x000021d2:    4821        !H      LDR      r0,[pc,#132] ; [0x2258] = 0x400e0000
        0x000021d4:    6b00        .k      LDR      r0,[r0,#0x30]
        0x000021d6:    07c0        ..      LSLS     r0,r0,#31
        0x000021d8:    0fc0        ..      LSRS     r0,r0,#31
        0x000021da:    2801        .(      CMP      r0,#1
        0x000021dc:    d10f        ..      BNE      0x21fe ; ADC_IRQHandler + 46
        0x000021de:    481f        .H      LDR      r0,[pc,#124] ; [0x225c] = 0x200006a8
        0x000021e0:    6800        .h      LDR      r0,[r0,#0]
        0x000021e2:    2800        .(      CMP      r0,#0
        0x000021e4:    d004        ..      BEQ      0x21f0 ; ADC_IRQHandler + 32
        0x000021e6:    491e        .I      LDR      r1,[pc,#120] ; [0x2260] = 0x20000798
        0x000021e8:    6808        .h      LDR      r0,[r1,#0]
        0x000021ea:    491c        .I      LDR      r1,[pc,#112] ; [0x225c] = 0x200006a8
        0x000021ec:    6809        .h      LDR      r1,[r1,#0]
        0x000021ee:    4788        .G      BLX      r1
        0x000021f0:    4819        .H      LDR      r0,[pc,#100] ; [0x2258] = 0x400e0000
        0x000021f2:    6b00        .k      LDR      r0,[r0,#0x30]
        0x000021f4:    08c0        ..      LSRS     r0,r0,#3
        0x000021f6:    00c0        ..      LSLS     r0,r0,#3
        0x000021f8:    1c40        @.      ADDS     r0,r0,#1
        0x000021fa:    4917        .I      LDR      r1,[pc,#92] ; [0x2258] = 0x400e0000
        0x000021fc:    6308        .c      STR      r0,[r1,#0x30]
        0x000021fe:    4816        .H      LDR      r0,[pc,#88] ; [0x2258] = 0x400e0000
        0x00002200:    6b00        .k      LDR      r0,[r0,#0x30]
        0x00002202:    0780        ..      LSLS     r0,r0,#30
        0x00002204:    0fc0        ..      LSRS     r0,r0,#31
        0x00002206:    2801        .(      CMP      r0,#1
        0x00002208:    d10f        ..      BNE      0x222a ; ADC_IRQHandler + 90
        0x0000220a:    4816        .H      LDR      r0,[pc,#88] ; [0x2264] = 0x200006ac
        0x0000220c:    6800        .h      LDR      r0,[r0,#0]
        0x0000220e:    2800        .(      CMP      r0,#0
        0x00002210:    d004        ..      BEQ      0x221c ; ADC_IRQHandler + 76
        0x00002212:    4913        .I      LDR      r1,[pc,#76] ; [0x2260] = 0x20000798
        0x00002214:    6848        Hh      LDR      r0,[r1,#4]
        0x00002216:    4913        .I      LDR      r1,[pc,#76] ; [0x2264] = 0x200006ac
        0x00002218:    6809        .h      LDR      r1,[r1,#0]
        0x0000221a:    4788        .G      BLX      r1
        0x0000221c:    480e        .H      LDR      r0,[pc,#56] ; [0x2258] = 0x400e0000
        0x0000221e:    6b00        .k      LDR      r0,[r0,#0x30]
        0x00002220:    08c0        ..      LSRS     r0,r0,#3
        0x00002222:    00c0        ..      LSLS     r0,r0,#3
        0x00002224:    1c80        ..      ADDS     r0,r0,#2
        0x00002226:    490c        .I      LDR      r1,[pc,#48] ; [0x2258] = 0x400e0000
        0x00002228:    6308        .c      STR      r0,[r1,#0x30]
        0x0000222a:    480b        .H      LDR      r0,[pc,#44] ; [0x2258] = 0x400e0000
        0x0000222c:    6b00        .k      LDR      r0,[r0,#0x30]
        0x0000222e:    0740        @.      LSLS     r0,r0,#29
        0x00002230:    0fc0        ..      LSRS     r0,r0,#31
        0x00002232:    2801        .(      CMP      r0,#1
        0x00002234:    d10f        ..      BNE      0x2256 ; ADC_IRQHandler + 134
        0x00002236:    480c        .H      LDR      r0,[pc,#48] ; [0x2268] = 0x200006b0
        0x00002238:    6800        .h      LDR      r0,[r0,#0]
        0x0000223a:    2800        .(      CMP      r0,#0
        0x0000223c:    d004        ..      BEQ      0x2248 ; ADC_IRQHandler + 120
        0x0000223e:    4908        .I      LDR      r1,[pc,#32] ; [0x2260] = 0x20000798
        0x00002240:    6888        .h      LDR      r0,[r1,#8]
        0x00002242:    4909        .I      LDR      r1,[pc,#36] ; [0x2268] = 0x200006b0
        0x00002244:    6809        .h      LDR      r1,[r1,#0]
        0x00002246:    4788        .G      BLX      r1
        0x00002248:    4803        .H      LDR      r0,[pc,#12] ; [0x2258] = 0x400e0000
        0x0000224a:    6b00        .k      LDR      r0,[r0,#0x30]
        0x0000224c:    08c0        ..      LSRS     r0,r0,#3
        0x0000224e:    00c0        ..      LSLS     r0,r0,#3
        0x00002250:    1d00        ..      ADDS     r0,r0,#4
        0x00002252:    4901        .I      LDR      r1,[pc,#4] ; [0x2258] = 0x400e0000
        0x00002254:    6308        .c      STR      r0,[r1,#0x30]
        0x00002256:    bd10        ..      POP      {r4,pc}
    $d
        0x00002258:    400e0000    ...@    DCD    1074659328
        0x0000225c:    200006a8    ...     DCD    536872616
        0x00002260:    20000798    ...     DCD    536872856
        0x00002264:    200006ac    ...     DCD    536872620
        0x00002268:    200006b0    ...     DCD    536872624
    $t
    i.ADC_initialize
    ADC_initialize
        0x0000226c:    482b        +H      LDR      r0,[pc,#172] ; [0x231c] = 0x50004000
        0x0000226e:    6840        @h      LDR      r0,[r0,#4]
        0x00002270:    2101        .!      MOVS     r1,#1
        0x00002272:    05c9        ..      LSLS     r1,r1,#23
        0x00002274:    4308        .C      ORRS     r0,r0,r1
        0x00002276:    4929        )I      LDR      r1,[pc,#164] ; [0x231c] = 0x50004000
        0x00002278:    6048        H`      STR      r0,[r1,#4]
        0x0000227a:    2005        .       MOVS     r0,#5
        0x0000227c:    0700        ..      LSLS     r0,r0,#28
        0x0000227e:    6b00        .k      LDR      r0,[r0,#0x30]
        0x00002280:    2102        .!      MOVS     r1,#2
        0x00002282:    4388        .C      BICS     r0,r0,r1
        0x00002284:    1c80        ..      ADDS     r0,r0,#2
        0x00002286:    2105        .!      MOVS     r1,#5
        0x00002288:    0709        ..      LSLS     r1,r1,#28
        0x0000228a:    6308        .c      STR      r0,[r1,#0x30]
        0x0000228c:    4824        $H      LDR      r0,[pc,#144] ; [0x2320] = 0x50000200
        0x0000228e:    6940        @i      LDR      r0,[r0,#0x14]
        0x00002290:    210c        .!      MOVS     r1,#0xc
        0x00002292:    4388        .C      BICS     r0,r0,r1
        0x00002294:    3008        .0      ADDS     r0,r0,#8
        0x00002296:    4922        "I      LDR      r1,[pc,#136] ; [0x2320] = 0x50000200
        0x00002298:    6148        Ha      STR      r0,[r1,#0x14]
        0x0000229a:    4608        .F      MOV      r0,r1
        0x0000229c:    6980        .i      LDR      r0,[r0,#0x18]
        0x0000229e:    21ff        .!      MOVS     r1,#0xff
        0x000022a0:    0409        ..      LSLS     r1,r1,#16
        0x000022a2:    4388        .C      BICS     r0,r0,r1
        0x000022a4:    2101        .!      MOVS     r1,#1
        0x000022a6:    0409        ..      LSLS     r1,r1,#16
        0x000022a8:    1840        @.      ADDS     r0,r0,r1
        0x000022aa:    491d        .I      LDR      r1,[pc,#116] ; [0x2320] = 0x50000200
        0x000022ac:    6188        .a      STR      r0,[r1,#0x18]
        0x000022ae:    4608        .F      MOV      r0,r1
        0x000022b0:    6880        .h      LDR      r0,[r0,#8]
        0x000022b2:    04c9        ..      LSLS     r1,r1,#19
        0x000022b4:    4388        .C      BICS     r0,r0,r1
        0x000022b6:    1840        @.      ADDS     r0,r0,r1
        0x000022b8:    4919        .I      LDR      r1,[pc,#100] ; [0x2320] = 0x50000200
        0x000022ba:    6088        .`      STR      r0,[r1,#8]
        0x000022bc:    4819        .H      LDR      r0,[pc,#100] ; [0x2324] = 0x400e0000
        0x000022be:    6a00        .j      LDR      r0,[r0,#0x20]
        0x000022c0:    0840        @.      LSRS     r0,r0,#1
        0x000022c2:    0040        @.      LSLS     r0,r0,#1
        0x000022c4:    1c40        @.      ADDS     r0,r0,#1
        0x000022c6:    4917        .I      LDR      r1,[pc,#92] ; [0x2324] = 0x400e0000
        0x000022c8:    6208        .b      STR      r0,[r1,#0x20]
        0x000022ca:    4608        .F      MOV      r0,r1
        0x000022cc:    6a00        .j      LDR      r0,[r0,#0x20]
        0x000022ce:    1509        ..      ASRS     r1,r1,#20
        0x000022d0:    4388        .C      BICS     r0,r0,r1
        0x000022d2:    4914        .I      LDR      r1,[pc,#80] ; [0x2324] = 0x400e0000
        0x000022d4:    6208        .b      STR      r0,[r1,#0x20]
        0x000022d6:    4608        .F      MOV      r0,r1
        0x000022d8:    6a00        .j      LDR      r0,[r0,#0x20]
        0x000022da:    210c        .!      MOVS     r1,#0xc
        0x000022dc:    4388        .C      BICS     r0,r0,r1
        0x000022de:    4911        .I      LDR      r1,[pc,#68] ; [0x2324] = 0x400e0000
        0x000022e0:    6208        .b      STR      r0,[r1,#0x20]
        0x000022e2:    4608        .F      MOV      r0,r1
        0x000022e4:    6a40        @j      LDR      r0,[r0,#0x24]
        0x000022e6:    0a00        ..      LSRS     r0,r0,#8
        0x000022e8:    0200        ..      LSLS     r0,r0,#8
        0x000022ea:    3080        .0      ADDS     r0,r0,#0x80
        0x000022ec:    6248        Hb      STR      r0,[r1,#0x24]
        0x000022ee:    4608        .F      MOV      r0,r1
        0x000022f0:    6b00        .k      LDR      r0,[r0,#0x30]
        0x000022f2:    0840        @.      LSRS     r0,r0,#1
        0x000022f4:    0040        @.      LSLS     r0,r0,#1
        0x000022f6:    1c40        @.      ADDS     r0,r0,#1
        0x000022f8:    6308        .c      STR      r0,[r1,#0x30]
        0x000022fa:    4608        .F      MOV      r0,r1
        0x000022fc:    6a00        .j      LDR      r0,[r0,#0x20]
        0x000022fe:    2102        .!      MOVS     r1,#2
        0x00002300:    4388        .C      BICS     r0,r0,r1
        0x00002302:    1c80        ..      ADDS     r0,r0,#2
        0x00002304:    4907        .I      LDR      r1,[pc,#28] ; [0x2324] = 0x400e0000
        0x00002306:    6208        .b      STR      r0,[r1,#0x20]
        0x00002308:    4608        .F      MOV      r0,r1
        0x0000230a:    6a00        .j      LDR      r0,[r0,#0x20]
        0x0000230c:    2101        .!      MOVS     r1,#1
        0x0000230e:    02c9        ..      LSLS     r1,r1,#11
        0x00002310:    4388        .C      BICS     r0,r0,r1
        0x00002312:    1840        @.      ADDS     r0,r0,r1
        0x00002314:    4903        .I      LDR      r1,[pc,#12] ; [0x2324] = 0x400e0000
        0x00002316:    6208        .b      STR      r0,[r1,#0x20]
        0x00002318:    4770        pG      BX       lr
    $d
        0x0000231a:    0000        ..      DCW    0
        0x0000231c:    50004000    .@.P    DCD    1342193664
        0x00002320:    50000200    ...P    DCD    1342177792
        0x00002324:    400e0000    ...@    DCD    1074659328
    $t
    i.BOD_IRQHandler
    BOD_IRQHandler
        0x00002328:    b510        ..      PUSH     {r4,lr}
        0x0000232a:    2005        .       MOVS     r0,#5
        0x0000232c:    0700        ..      LSLS     r0,r0,#28
        0x0000232e:    6980        .i      LDR      r0,[r0,#0x18]
        0x00002330:    2110        .!      MOVS     r1,#0x10
        0x00002332:    4388        .C      BICS     r0,r0,r1
        0x00002334:    3010        .0      ADDS     r0,r0,#0x10
        0x00002336:    2105        .!      MOVS     r1,#5
        0x00002338:    0709        ..      LSLS     r1,r1,#28
        0x0000233a:    6188        .a      STR      r0,[r1,#0x18]
        0x0000233c:    4803        .H      LDR      r0,[pc,#12] ; [0x234c] = 0x20000694
        0x0000233e:    6800        .h      LDR      r0,[r0,#0]
        0x00002340:    2800        .(      CMP      r0,#0
        0x00002342:    d002        ..      BEQ      0x234a ; BOD_IRQHandler + 34
        0x00002344:    4801        .H      LDR      r0,[pc,#4] ; [0x234c] = 0x20000694
        0x00002346:    6800        .h      LDR      r0,[r0,#0]
        0x00002348:    4780        .G      BLX      r0
        0x0000234a:    bd10        ..      POP      {r4,pc}
    $d
        0x0000234c:    20000694    ...     DCD    536872596
    $t
    i.BaudRateCalculator
    BaudRateCalculator
        0x00002350:    b5f7        ..      PUSH     {r0-r2,r4-r7,lr}
        0x00002352:    b082        ..      SUB      sp,sp,#8
        0x00002354:    4617        .F      MOV      r7,r2
        0x00002356:    4831        1H      LDR      r0,[pc,#196] ; [0x241c] = 0x40050000
        0x00002358:    183c        <.      ADDS     r4,r7,r0
        0x0000235a:    9903        ..      LDR      r1,[sp,#0xc]
        0x0000235c:    9802        ..      LDR      r0,[sp,#8]
        0x0000235e:    f7fef841    ..A.    BL       __aeabi_uidiv ; 0x3e4
        0x00002362:    0700        ..      LSLS     r0,r0,#28
        0x00002364:    0f00        ..      LSRS     r0,r0,#28
        0x00002366:    2803        .(      CMP      r0,#3
        0x00002368:    d20f        ..      BCS      0x238a ; BaudRateCalculator + 58
        0x0000236a:    6a60        `j      LDR      r0,[r4,#0x24]
        0x0000236c:    2101        .!      MOVS     r1,#1
        0x0000236e:    0749        I.      LSLS     r1,r1,#29
        0x00002370:    4388        .C      BICS     r0,r0,r1
        0x00002372:    6260        `b      STR      r0,[r4,#0x24]
        0x00002374:    6a60        `j      LDR      r0,[r4,#0x24]
        0x00002376:    1049        I.      ASRS     r1,r1,#1
        0x00002378:    4388        .C      BICS     r0,r0,r1
        0x0000237a:    6260        `b      STR      r0,[r4,#0x24]
        0x0000237c:    9903        ..      LDR      r1,[sp,#0xc]
        0x0000237e:    9802        ..      LDR      r0,[sp,#8]
        0x00002380:    f7fef830    ..0.    BL       __aeabi_uidiv ; 0x3e4
        0x00002384:    0900        ..      LSRS     r0,r0,#4
        0x00002386:    1e86        ..      SUBS     r6,r0,#2
        0x00002388:    e040        @.      B        0x240c ; BaudRateCalculator + 188
        0x0000238a:    6a60        `j      LDR      r0,[r4,#0x24]
        0x0000238c:    2101        .!      MOVS     r1,#1
        0x0000238e:    0749        I.      LSLS     r1,r1,#29
        0x00002390:    4388        .C      BICS     r0,r0,r1
        0x00002392:    1840        @.      ADDS     r0,r0,r1
        0x00002394:    6260        `b      STR      r0,[r4,#0x24]
        0x00002396:    6a60        `j      LDR      r0,[r4,#0x24]
        0x00002398:    1049        I.      ASRS     r1,r1,#1
        0x0000239a:    4388        .C      BICS     r0,r0,r1
        0x0000239c:    1840        @.      ADDS     r0,r0,r1
        0x0000239e:    6260        `b      STR      r0,[r4,#0x24]
        0x000023a0:    9903        ..      LDR      r1,[sp,#0xc]
        0x000023a2:    9802        ..      LDR      r0,[sp,#8]
        0x000023a4:    f7fef81e    ....    BL       __aeabi_uidiv ; 0x3e4
        0x000023a8:    1e86        ..      SUBS     r6,r0,#2
        0x000023aa:    481d        .H      LDR      r0,[pc,#116] ; [0x2420] = 0xffff
        0x000023ac:    4286        .B      CMP      r6,r0
        0x000023ae:    dd2d        -.      BLE      0x240c ; BaudRateCalculator + 188
        0x000023b0:    6a60        `j      LDR      r0,[r4,#0x24]
        0x000023b2:    2101        .!      MOVS     r1,#1
        0x000023b4:    0749        I.      LSLS     r1,r1,#29
        0x000023b6:    4388        .C      BICS     r0,r0,r1
        0x000023b8:    1840        @.      ADDS     r0,r0,r1
        0x000023ba:    6260        `b      STR      r0,[r4,#0x24]
        0x000023bc:    6a60        `j      LDR      r0,[r4,#0x24]
        0x000023be:    1049        I.      ASRS     r1,r1,#1
        0x000023c0:    4388        .C      BICS     r0,r0,r1
        0x000023c2:    6260        `b      STR      r0,[r4,#0x24]
        0x000023c4:    2508        .%      MOVS     r5,#8
        0x000023c6:    e01e        ..      B        0x2406 ; BaudRateCalculator + 182
        0x000023c8:    9903        ..      LDR      r1,[sp,#0xc]
        0x000023ca:    9802        ..      LDR      r0,[sp,#8]
        0x000023cc:    f7fef80a    ....    BL       __aeabi_uidiv ; 0x3e4
        0x000023d0:    1c69        i.      ADDS     r1,r5,#1
        0x000023d2:    9001        ..      STR      r0,[sp,#4]
        0x000023d4:    f7fef806    ....    BL       __aeabi_uidiv ; 0x3e4
        0x000023d8:    2903        .)      CMP      r1,#3
        0x000023da:    d213        ..      BCS      0x2404 ; BaudRateCalculator + 180
        0x000023dc:    6a60        `j      LDR      r0,[r4,#0x24]
        0x000023de:    210f        .!      MOVS     r1,#0xf
        0x000023e0:    0609        ..      LSLS     r1,r1,#24
        0x000023e2:    4388        .C      BICS     r0,r0,r1
        0x000023e4:    0629        ).      LSLS     r1,r5,#24
        0x000023e6:    220f        ."      MOVS     r2,#0xf
        0x000023e8:    0612        ..      LSLS     r2,r2,#24
        0x000023ea:    4011        .@      ANDS     r1,r1,r2
        0x000023ec:    4308        .C      ORRS     r0,r0,r1
        0x000023ee:    6260        `b      STR      r0,[r4,#0x24]
        0x000023f0:    9903        ..      LDR      r1,[sp,#0xc]
        0x000023f2:    9802        ..      LDR      r0,[sp,#8]
        0x000023f4:    f7fdfff6    ....    BL       __aeabi_uidiv ; 0x3e4
        0x000023f8:    1c69        i.      ADDS     r1,r5,#1
        0x000023fa:    9001        ..      STR      r0,[sp,#4]
        0x000023fc:    f7fdfff2    ....    BL       __aeabi_uidiv ; 0x3e4
        0x00002400:    1e86        ..      SUBS     r6,r0,#2
        0x00002402:    e002        ..      B        0x240a ; BaudRateCalculator + 186
        0x00002404:    1c6d        m.      ADDS     r5,r5,#1
        0x00002406:    2d10        .-      CMP      r5,#0x10
        0x00002408:    dbde        ..      BLT      0x23c8 ; BaudRateCalculator + 120
        0x0000240a:    bf00        ..      NOP      
        0x0000240c:    6a60        `j      LDR      r0,[r4,#0x24]
        0x0000240e:    0c00        ..      LSRS     r0,r0,#16
        0x00002410:    0400        ..      LSLS     r0,r0,#16
        0x00002412:    b2b1        ..      UXTH     r1,r6
        0x00002414:    4308        .C      ORRS     r0,r0,r1
        0x00002416:    6260        `b      STR      r0,[r4,#0x24]
        0x00002418:    b005        ..      ADD      sp,sp,#0x14
        0x0000241a:    bdf0        ..      POP      {r4-r7,pc}
    $d
        0x0000241c:    40050000    ...@    DCD    1074069504
        0x00002420:    0000ffff    ....    DCD    65535
    $t
    i.CAN0_IRQHandler
    CAN0_IRQHandler
        0x00002424:    b510        ..      PUSH     {r4,lr}
        0x00002426:    4838        8H      LDR      r0,[pc,#224] ; [0x2508] = 0x40180000
        0x00002428:    6900        .i      LDR      r0,[r0,#0x10]
        0x0000242a:    2101        .!      MOVS     r1,#1
        0x0000242c:    03c9        ..      LSLS     r1,r1,#15
        0x0000242e:    4288        .B      CMP      r0,r1
        0x00002430:    d144        D.      BNE      0x24bc ; CAN0_IRQHandler + 152
        0x00002432:    4835        5H      LDR      r0,[pc,#212] ; [0x2508] = 0x40180000
        0x00002434:    6840        @h      LDR      r0,[r0,#4]
        0x00002436:    06c0        ..      LSLS     r0,r0,#27
        0x00002438:    0fc0        ..      LSRS     r0,r0,#31
        0x0000243a:    2801        .(      CMP      r0,#1
        0x0000243c:    d10d        ..      BNE      0x245a ; CAN0_IRQHandler + 54
        0x0000243e:    4832        2H      LDR      r0,[pc,#200] ; [0x2508] = 0x40180000
        0x00002440:    6840        @h      LDR      r0,[r0,#4]
        0x00002442:    2110        .!      MOVS     r1,#0x10
        0x00002444:    4388        .C      BICS     r0,r0,r1
        0x00002446:    4930        0I      LDR      r1,[pc,#192] ; [0x2508] = 0x40180000
        0x00002448:    6048        H`      STR      r0,[r1,#4]
        0x0000244a:    4830        0H      LDR      r0,[pc,#192] ; [0x250c] = 0x20000730
        0x0000244c:    6800        .h      LDR      r0,[r0,#0]
        0x0000244e:    2800        .(      CMP      r0,#0
        0x00002450:    d003        ..      BEQ      0x245a ; CAN0_IRQHandler + 54
        0x00002452:    482e        .H      LDR      r0,[pc,#184] ; [0x250c] = 0x20000730
        0x00002454:    6801        .h      LDR      r1,[r0,#0]
        0x00002456:    2000        .       MOVS     r0,#0
        0x00002458:    4788        .G      BLX      r1
        0x0000245a:    482b        +H      LDR      r0,[pc,#172] ; [0x2508] = 0x40180000
        0x0000245c:    6840        @h      LDR      r0,[r0,#4]
        0x0000245e:    0700        ..      LSLS     r0,r0,#28
        0x00002460:    0fc0        ..      LSRS     r0,r0,#31
        0x00002462:    2801        .(      CMP      r0,#1
        0x00002464:    d10d        ..      BNE      0x2482 ; CAN0_IRQHandler + 94
        0x00002466:    4828        (H      LDR      r0,[pc,#160] ; [0x2508] = 0x40180000
        0x00002468:    6840        @h      LDR      r0,[r0,#4]
        0x0000246a:    2108        .!      MOVS     r1,#8
        0x0000246c:    4388        .C      BICS     r0,r0,r1
        0x0000246e:    4926        &I      LDR      r1,[pc,#152] ; [0x2508] = 0x40180000
        0x00002470:    6048        H`      STR      r0,[r1,#4]
        0x00002472:    4826        &H      LDR      r0,[pc,#152] ; [0x250c] = 0x20000730
        0x00002474:    6840        @h      LDR      r0,[r0,#4]
        0x00002476:    2800        .(      CMP      r0,#0
        0x00002478:    d003        ..      BEQ      0x2482 ; CAN0_IRQHandler + 94
        0x0000247a:    4824        $H      LDR      r0,[pc,#144] ; [0x250c] = 0x20000730
        0x0000247c:    6841        Ah      LDR      r1,[r0,#4]
        0x0000247e:    2000        .       MOVS     r0,#0
        0x00002480:    4788        .G      BLX      r1
        0x00002482:    4821        !H      LDR      r0,[pc,#132] ; [0x2508] = 0x40180000
        0x00002484:    6840        @h      LDR      r0,[r0,#4]
        0x00002486:    0640        @.      LSLS     r0,r0,#25
        0x00002488:    0fc0        ..      LSRS     r0,r0,#31
        0x0000248a:    2801        .(      CMP      r0,#1
        0x0000248c:    d107        ..      BNE      0x249e ; CAN0_IRQHandler + 122
        0x0000248e:    481f        .H      LDR      r0,[pc,#124] ; [0x250c] = 0x20000730
        0x00002490:    6880        .h      LDR      r0,[r0,#8]
        0x00002492:    2800        .(      CMP      r0,#0
        0x00002494:    d003        ..      BEQ      0x249e ; CAN0_IRQHandler + 122
        0x00002496:    481d        .H      LDR      r0,[pc,#116] ; [0x250c] = 0x20000730
        0x00002498:    6881        .h      LDR      r1,[r0,#8]
        0x0000249a:    2000        .       MOVS     r0,#0
        0x0000249c:    4788        .G      BLX      r1
        0x0000249e:    481a        .H      LDR      r0,[pc,#104] ; [0x2508] = 0x40180000
        0x000024a0:    6840        @h      LDR      r0,[r0,#4]
        0x000024a2:    0600        ..      LSLS     r0,r0,#24
        0x000024a4:    0fc0        ..      LSRS     r0,r0,#31
        0x000024a6:    2801        .(      CMP      r0,#1
        0x000024a8:    d12d        -.      BNE      0x2506 ; CAN0_IRQHandler + 226
        0x000024aa:    4818        .H      LDR      r0,[pc,#96] ; [0x250c] = 0x20000730
        0x000024ac:    68c0        .h      LDR      r0,[r0,#0xc]
        0x000024ae:    2800        .(      CMP      r0,#0
        0x000024b0:    d029        ).      BEQ      0x2506 ; CAN0_IRQHandler + 226
        0x000024b2:    4816        .H      LDR      r0,[pc,#88] ; [0x250c] = 0x20000730
        0x000024b4:    68c1        .h      LDR      r1,[r0,#0xc]
        0x000024b6:    2000        .       MOVS     r0,#0
        0x000024b8:    4788        .G      BLX      r1
        0x000024ba:    e024        $.      B        0x2506 ; CAN0_IRQHandler + 226
        0x000024bc:    4812        .H      LDR      r0,[pc,#72] ; [0x2508] = 0x40180000
        0x000024be:    6900        .i      LDR      r0,[r0,#0x10]
        0x000024c0:    2800        .(      CMP      r0,#0
        0x000024c2:    d011        ..      BEQ      0x24e8 ; CAN0_IRQHandler + 196
        0x000024c4:    4810        .H      LDR      r0,[pc,#64] ; [0x2508] = 0x40180000
        0x000024c6:    6900        .i      LDR      r0,[r0,#0x10]
        0x000024c8:    b2c4        ..      UXTB     r4,r0
        0x000024ca:    4810        .H      LDR      r0,[pc,#64] ; [0x250c] = 0x20000730
        0x000024cc:    6900        .i      LDR      r0,[r0,#0x10]
        0x000024ce:    2800        .(      CMP      r0,#0
        0x000024d0:    d003        ..      BEQ      0x24da ; CAN0_IRQHandler + 182
        0x000024d2:    480e        .H      LDR      r0,[pc,#56] ; [0x250c] = 0x20000730
        0x000024d4:    6901        .i      LDR      r1,[r0,#0x10]
        0x000024d6:    4620         F      MOV      r0,r4
        0x000024d8:    4788        .G      BLX      r1
        0x000024da:    490b        .I      LDR      r1,[pc,#44] ; [0x2508] = 0x40180000
        0x000024dc:    6909        .i      LDR      r1,[r1,#0x10]
        0x000024de:    1e49        I.      SUBS     r1,r1,#1
        0x000024e0:    b2c8        ..      UXTB     r0,r1
        0x000024e2:    f000f817    ....    BL       DrvCAN_ClrIntPnd ; 0x2514
        0x000024e6:    e00e        ..      B        0x2506 ; CAN0_IRQHandler + 226
        0x000024e8:    4809        .H      LDR      r0,[pc,#36] ; [0x2510] = 0x40180140
        0x000024ea:    6ac0        .j      LDR      r0,[r0,#0x2c]
        0x000024ec:    2801        .(      CMP      r0,#1
        0x000024ee:    d10a        ..      BNE      0x2506 ; CAN0_IRQHandler + 226
        0x000024f0:    2000        .       MOVS     r0,#0
        0x000024f2:    4907        .I      LDR      r1,[pc,#28] ; [0x2510] = 0x40180140
        0x000024f4:    62c8        .b      STR      r0,[r1,#0x2c]
        0x000024f6:    4805        .H      LDR      r0,[pc,#20] ; [0x250c] = 0x20000730
        0x000024f8:    6940        @i      LDR      r0,[r0,#0x14]
        0x000024fa:    2800        .(      CMP      r0,#0
        0x000024fc:    d003        ..      BEQ      0x2506 ; CAN0_IRQHandler + 226
        0x000024fe:    4803        .H      LDR      r0,[pc,#12] ; [0x250c] = 0x20000730
        0x00002500:    6941        Ai      LDR      r1,[r0,#0x14]
        0x00002502:    2000        .       MOVS     r0,#0
        0x00002504:    4788        .G      BLX      r1
        0x00002506:    bd10        ..      POP      {r4,pc}
    $d
        0x00002508:    40180000    ...@    DCD    1075314688
        0x0000250c:    20000730    0..     DCD    536872752
        0x00002510:    40180140    @..@    DCD    1075315008
    $t
    i.DrvCAN_ClrIntPnd
    DrvCAN_ClrIntPnd
        0x00002514:    b570        p.      PUSH     {r4-r6,lr}
        0x00002516:    4604        .F      MOV      r4,r0
        0x00002518:    2500        .%      MOVS     r5,#0
        0x0000251a:    f001f8b7    ....    BL       GetFreeIF ; 0x368c
        0x0000251e:    b2c0        ..      UXTB     r0,r0
        0x00002520:    4605        .F      MOV      r5,r0
        0x00002522:    2802        .(      CMP      r0,#2
        0x00002524:    d101        ..      BNE      0x252a ; DrvCAN_ClrIntPnd + 22
        0x00002526:    4807        .H      LDR      r0,[pc,#28] ; [0x2544] = 0xffff8586
        0x00002528:    bd70        p.      POP      {r4-r6,pc}
        0x0000252a:    220c        ."      MOVS     r2,#0xc
        0x0000252c:    4806        .H      LDR      r0,[pc,#24] ; [0x2548] = 0x40180020
        0x0000252e:    2160        `!      MOVS     r1,#0x60
        0x00002530:    4369        iC      MULS     r1,r5,r1
        0x00002532:    1840        @.      ADDS     r0,r0,r1
        0x00002534:    6042        B`      STR      r2,[r0,#4]
        0x00002536:    1c60        `.      ADDS     r0,r4,#1
        0x00002538:    4903        .I      LDR      r1,[pc,#12] ; [0x2548] = 0x40180020
        0x0000253a:    2260        `"      MOVS     r2,#0x60
        0x0000253c:    436a        jC      MULS     r2,r5,r2
        0x0000253e:    5088        .P      STR      r0,[r1,r2]
        0x00002540:    2000        .       MOVS     r0,#0
        0x00002542:    e7f1        ..      B        0x2528 ; DrvCAN_ClrIntPnd + 20
    $d
        0x00002544:    ffff8586    ....    DCD    4294935942
        0x00002548:    40180020     ..@    DCD    1075314720
    $t
    i.DrvGPIO_InitFunction
    DrvGPIO_InitFunction
        0x0000254c:    b510        ..      PUSH     {r4,lr}
        0x0000254e:    4601        .F      MOV      r1,r0
        0x00002550:    460b        .F      MOV      r3,r1
        0x00002552:    f001fcf5    ....    BL       __ARM_common_switch8 ; 0x3f40
    $d
        0x00002556:    203e        >       DCW    8254
        0x00002558:    5c4b412a    *AK\    DCD    1548435754
        0x0000255c:    947e7d74    t}~.    DCD    2491317620
        0x00002560:    eff1b4a4    ....    DCD    4025595044
        0x00002564:    ebecedee    ....    DCD    3958173166
        0x00002568:    e7e8e9ea    ....    DCD    3890801130
        0x0000256c:    e3e4e5e6    ....    DCD    3823429094
        0x00002570:    dfe0e1e2    ....    DCD    3756057058
        0x00002574:    dbdcddde    ....    DCD    3688685022
        0x00002578:    d7d8d9da    ....    DCD    3621312986
        0x0000257c:    d3d4d5d6    ....    DCD    3553940950
        0x00002580:    cfd0d1d2    ....    DCD    3486568914
        0x00002584:    cbcccdce    ....    DCD    3419196878
        0x00002588:    c7c8c9ca    ....    DCD    3351824842
        0x0000258c:    c3c4c5c6    ....    DCD    3284452806
        0x00002590:    bfc0c1c2    ....    DCD    3217080770
        0x00002594:    bdbe        ..      DCW    48574
    $t
        0x00002596:    2000        .       MOVS     r0,#0
        0x00002598:    2305        .#      MOVS     r3,#5
        0x0000259a:    071b        ..      LSLS     r3,r3,#28
        0x0000259c:    6318        .c      STR      r0,[r3,#0x30]
        0x0000259e:    6358        Xc      STR      r0,[r3,#0x34]
        0x000025a0:    6398        .c      STR      r0,[r3,#0x38]
        0x000025a2:    63d8        .c      STR      r0,[r3,#0x3c]
        0x000025a4:    4bfa        .K      LDR      r3,[pc,#1000] ; [0x2990] = 0x50000040
        0x000025a6:    6018        .`      STR      r0,[r3,#0]
        0x000025a8:    e371        q.      B        0x2c8e ; DrvGPIO_InitFunction + 1858
        0x000025aa:    2005        .       MOVS     r0,#5
        0x000025ac:    0700        ..      LSLS     r0,r0,#28
        0x000025ae:    6b40        @k      LDR      r0,[r0,#0x34]
        0x000025b0:    2301        .#      MOVS     r3,#1
        0x000025b2:    031b        ..      LSLS     r3,r3,#12
        0x000025b4:    4318        .C      ORRS     r0,r0,r3
        0x000025b6:    2305        .#      MOVS     r3,#5
        0x000025b8:    071b        ..      LSLS     r3,r3,#28
        0x000025ba:    6358        Xc      STR      r0,[r3,#0x34]
        0x000025bc:    48f4        .H      LDR      r0,[pc,#976] ; [0x2990] = 0x50000040
        0x000025be:    6900        .i      LDR      r0,[r0,#0x10]
        0x000025c0:    2301        .#      MOVS     r3,#1
        0x000025c2:    029b        ..      LSLS     r3,r3,#10
        0x000025c4:    4318        .C      ORRS     r0,r0,r3
        0x000025c6:    4bf2        .K      LDR      r3,[pc,#968] ; [0x2990] = 0x50000040
        0x000025c8:    6118        .a      STR      r0,[r3,#0x10]
        0x000025ca:    4618        .F      MOV      r0,r3
        0x000025cc:    6900        .i      LDR      r0,[r0,#0x10]
        0x000025ce:    015b        [.      LSLS     r3,r3,#5
        0x000025d0:    4398        .C      BICS     r0,r0,r3
        0x000025d2:    4bef        .K      LDR      r3,[pc,#956] ; [0x2990] = 0x50000040
        0x000025d4:    6118        .a      STR      r0,[r3,#0x10]
        0x000025d6:    e35a        Z.      B        0x2c8e ; DrvGPIO_InitFunction + 1858
        0x000025d8:    2005        .       MOVS     r0,#5
        0x000025da:    0700        ..      LSLS     r0,r0,#28
        0x000025dc:    6b00        .k      LDR      r0,[r0,#0x30]
        0x000025de:    2303        .#      MOVS     r3,#3
        0x000025e0:    021b        ..      LSLS     r3,r3,#8
        0x000025e2:    4318        .C      ORRS     r0,r0,r3
        0x000025e4:    2305        .#      MOVS     r3,#5
        0x000025e6:    071b        ..      LSLS     r3,r3,#28
        0x000025e8:    6318        .c      STR      r0,[r3,#0x30]
        0x000025ea:    e350        P.      B        0x2c8e ; DrvGPIO_InitFunction + 1858
        0x000025ec:    2005        .       MOVS     r0,#5
        0x000025ee:    0700        ..      LSLS     r0,r0,#28
        0x000025f0:    6b00        .k      LDR      r0,[r0,#0x30]
        0x000025f2:    2303        .#      MOVS     r3,#3
        0x000025f4:    029b        ..      LSLS     r3,r3,#10
        0x000025f6:    4318        .C      ORRS     r0,r0,r3
        0x000025f8:    2305        .#      MOVS     r3,#5
        0x000025fa:    071b        ..      LSLS     r3,r3,#28
        0x000025fc:    6318        .c      STR      r0,[r3,#0x30]
        0x000025fe:    48e4        .H      LDR      r0,[pc,#912] ; [0x2990] = 0x50000040
        0x00002600:    6900        .i      LDR      r0,[r0,#0x10]
        0x00002602:    2301        .#      MOVS     r3,#1
        0x00002604:    02db        ..      LSLS     r3,r3,#11
        0x00002606:    4398        .C      BICS     r0,r0,r3
        0x00002608:    4be1        .K      LDR      r3,[pc,#900] ; [0x2990] = 0x50000040
        0x0000260a:    6118        .a      STR      r0,[r3,#0x10]
        0x0000260c:    e33f        ?.      B        0x2c8e ; DrvGPIO_InitFunction + 1858
        0x0000260e:    2005        .       MOVS     r0,#5
        0x00002610:    0700        ..      LSLS     r0,r0,#28
        0x00002612:    6b80        .k      LDR      r0,[r0,#0x38]
        0x00002614:    230f        .#      MOVS     r3,#0xf
        0x00002616:    4318        .C      ORRS     r0,r0,r3
        0x00002618:    2305        .#      MOVS     r3,#5
        0x0000261a:    071b        ..      LSLS     r3,r3,#28
        0x0000261c:    6398        .c      STR      r0,[r3,#0x38]
        0x0000261e:    4618        .F      MOV      r0,r3
        0x00002620:    6b00        .k      LDR      r0,[r0,#0x30]
        0x00002622:    2301        .#      MOVS     r3,#1
        0x00002624:    03db        ..      LSLS     r3,r3,#15
        0x00002626:    4318        .C      ORRS     r0,r0,r3
        0x00002628:    2305        .#      MOVS     r3,#5
        0x0000262a:    071b        ..      LSLS     r3,r3,#28
        0x0000262c:    6318        .c      STR      r0,[r3,#0x30]
        0x0000262e:    48d8        .H      LDR      r0,[pc,#864] ; [0x2990] = 0x50000040
        0x00002630:    6900        .i      LDR      r0,[r0,#0x10]
        0x00002632:    231f        .#      MOVS     r3,#0x1f
        0x00002634:    015b        [.      LSLS     r3,r3,#5
        0x00002636:    4318        .C      ORRS     r0,r0,r3
        0x00002638:    4bd5        .K      LDR      r3,[pc,#852] ; [0x2990] = 0x50000040
        0x0000263a:    6118        .a      STR      r0,[r3,#0x10]
        0x0000263c:    e327        '.      B        0x2c8e ; DrvGPIO_InitFunction + 1858
        0x0000263e:    2005        .       MOVS     r0,#5
        0x00002640:    0700        ..      LSLS     r0,r0,#28
        0x00002642:    6bc0        .k      LDR      r0,[r0,#0x3c]
        0x00002644:    23c0        .#      MOVS     r3,#0xc0
        0x00002646:    4318        .C      ORRS     r0,r0,r3
        0x00002648:    2305        .#      MOVS     r3,#5
        0x0000264a:    071b        ..      LSLS     r3,r3,#28
        0x0000264c:    63d8        .c      STR      r0,[r3,#0x3c]
        0x0000264e:    e31e        ..      B        0x2c8e ; DrvGPIO_InitFunction + 1858
        0x00002650:    bf00        ..      NOP      
        0x00002652:    2906        .)      CMP      r1,#6
        0x00002654:    d101        ..      BNE      0x265a ; DrvGPIO_InitFunction + 270
        0x00002656:    2206        ."      MOVS     r2,#6
        0x00002658:    e000        ..      B        0x265c ; DrvGPIO_InitFunction + 272
        0x0000265a:    220e        ."      MOVS     r2,#0xe
        0x0000265c:    2005        .       MOVS     r0,#5
        0x0000265e:    0700        ..      LSLS     r0,r0,#28
        0x00002660:    6b80        .k      LDR      r0,[r0,#0x38]
        0x00002662:    2303        .#      MOVS     r3,#3
        0x00002664:    4093        .@      LSLS     r3,r3,r2
        0x00002666:    4318        .C      ORRS     r0,r0,r3
        0x00002668:    2305        .#      MOVS     r3,#5
        0x0000266a:    071b        ..      LSLS     r3,r3,#28
        0x0000266c:    6398        .c      STR      r0,[r3,#0x38]
        0x0000266e:    48c8        .H      LDR      r0,[pc,#800] ; [0x2990] = 0x50000040
        0x00002670:    6900        .i      LDR      r0,[r0,#0x10]
        0x00002672:    2301        .#      MOVS     r3,#1
        0x00002674:    02db        ..      LSLS     r3,r3,#11
        0x00002676:    4398        .C      BICS     r0,r0,r3
        0x00002678:    4bc5        .K      LDR      r3,[pc,#788] ; [0x2990] = 0x50000040
        0x0000267a:    6118        .a      STR      r0,[r3,#0x10]
        0x0000267c:    e307        ..      B        0x2c8e ; DrvGPIO_InitFunction + 1858
        0x0000267e:    2005        .       MOVS     r0,#5
        0x00002680:    0700        ..      LSLS     r0,r0,#28
        0x00002682:    6b80        .k      LDR      r0,[r0,#0x38]
        0x00002684:    230f        .#      MOVS     r3,#0xf
        0x00002686:    4318        .C      ORRS     r0,r0,r3
        0x00002688:    2305        .#      MOVS     r3,#5
        0x0000268a:    071b        ..      LSLS     r3,r3,#28
        0x0000268c:    6398        .c      STR      r0,[r3,#0x38]
        0x0000268e:    48c0        .H      LDR      r0,[pc,#768] ; [0x2990] = 0x50000040
        0x00002690:    6900        .i      LDR      r0,[r0,#0x10]
        0x00002692:    23ff        .#      MOVS     r3,#0xff
        0x00002694:    33e1        .3      ADDS     r3,r3,#0xe1
        0x00002696:    4398        .C      BICS     r0,r0,r3
        0x00002698:    4bbd        .K      LDR      r3,[pc,#756] ; [0x2990] = 0x50000040
        0x0000269a:    6118        .a      STR      r0,[r3,#0x10]
        0x0000269c:    e2f7        ..      B        0x2c8e ; DrvGPIO_InitFunction + 1858
        0x0000269e:    2005        .       MOVS     r0,#5
        0x000026a0:    0700        ..      LSLS     r0,r0,#28
        0x000026a2:    6b40        @k      LDR      r0,[r0,#0x34]
        0x000026a4:    2301        .#      MOVS     r3,#1
        0x000026a6:    029b        ..      LSLS     r3,r3,#10
        0x000026a8:    4318        .C      ORRS     r0,r0,r3
        0x000026aa:    2305        .#      MOVS     r3,#5
        0x000026ac:    071b        ..      LSLS     r3,r3,#28
        0x000026ae:    6358        Xc      STR      r0,[r3,#0x34]
        0x000026b0:    48b7        .H      LDR      r0,[pc,#732] ; [0x2990] = 0x50000040
        0x000026b2:    6900        .i      LDR      r0,[r0,#0x10]
        0x000026b4:    2301        .#      MOVS     r3,#1
        0x000026b6:    4318        .C      ORRS     r0,r0,r3
        0x000026b8:    4bb5        .K      LDR      r3,[pc,#724] ; [0x2990] = 0x50000040
        0x000026ba:    6118        .a      STR      r0,[r3,#0x10]
        0x000026bc:    e2e7        ..      B        0x2c8e ; DrvGPIO_InitFunction + 1858
        0x000026be:    2005        .       MOVS     r0,#5
        0x000026c0:    0700        ..      LSLS     r0,r0,#28
        0x000026c2:    6b80        .k      LDR      r0,[r0,#0x38]
        0x000026c4:    2330        0#      MOVS     r3,#0x30
        0x000026c6:    4318        .C      ORRS     r0,r0,r3
        0x000026c8:    2305        .#      MOVS     r3,#5
        0x000026ca:    071b        ..      LSLS     r3,r3,#28
        0x000026cc:    6398        .c      STR      r0,[r3,#0x38]
        0x000026ce:    e2de        ..      B        0x2c8e ; DrvGPIO_InitFunction + 1858
        0x000026d0:    e2db        ..      B        0x2c8a ; DrvGPIO_InitFunction + 1854
        0x000026d2:    e264        d.      B        0x2b9e ; DrvGPIO_InitFunction + 1618
        0x000026d4:    e282        ..      B        0x2bdc ; DrvGPIO_InitFunction + 1680
        0x000026d6:    e248        H.      B        0x2b6a ; DrvGPIO_InitFunction + 1566
        0x000026d8:    e246        F.      B        0x2b68 ; DrvGPIO_InitFunction + 1564
        0x000026da:    e213        ..      B        0x2b04 ; DrvGPIO_InitFunction + 1464
        0x000026dc:    e211        ..      B        0x2b02 ; DrvGPIO_InitFunction + 1462
        0x000026de:    e1d9        ..      B        0x2a94 ; DrvGPIO_InitFunction + 1352
        0x000026e0:    e1d7        ..      B        0x2a92 ; DrvGPIO_InitFunction + 1350
        0x000026e2:    e1b7        ..      B        0x2a54 ; DrvGPIO_InitFunction + 1288
        0x000026e4:    e1b5        ..      B        0x2a52 ; DrvGPIO_InitFunction + 1286
        0x000026e6:    e241        A.      B        0x2b6c ; DrvGPIO_InitFunction + 1568
        0x000026e8:    e20d        ..      B        0x2b06 ; DrvGPIO_InitFunction + 1466
        0x000026ea:    e1d4        ..      B        0x2a96 ; DrvGPIO_InitFunction + 1354
        0x000026ec:    e1b3        ..      B        0x2a56 ; DrvGPIO_InitFunction + 1290
        0x000026ee:    e1a6        ..      B        0x2a3e ; DrvGPIO_InitFunction + 1266
        0x000026f0:    e165        e.      B        0x29be ; DrvGPIO_InitFunction + 1138
        0x000026f2:    e163        c.      B        0x29bc ; DrvGPIO_InitFunction + 1136
        0x000026f4:    e161        a.      B        0x29ba ; DrvGPIO_InitFunction + 1134
        0x000026f6:    e15f        _.      B        0x29b8 ; DrvGPIO_InitFunction + 1132
        0x000026f8:    e15d        ].      B        0x29b6 ; DrvGPIO_InitFunction + 1130
        0x000026fa:    e15b        [.      B        0x29b4 ; DrvGPIO_InitFunction + 1128
        0x000026fc:    e14a        J.      B        0x2994 ; DrvGPIO_InitFunction + 1096
        0x000026fe:    e137        7.      B        0x2970 ; DrvGPIO_InitFunction + 1060
        0x00002700:    e129        ).      B        0x2956 ; DrvGPIO_InitFunction + 1034
        0x00002702:    e117        ..      B        0x2934 ; DrvGPIO_InitFunction + 1000
        0x00002704:    e106        ..      B        0x2914 ; DrvGPIO_InitFunction + 968
        0x00002706:    e0f5        ..      B        0x28f4 ; DrvGPIO_InitFunction + 936
        0x00002708:    e0e4        ..      B        0x28d4 ; DrvGPIO_InitFunction + 904
        0x0000270a:    e0d9        ..      B        0x28c0 ; DrvGPIO_InitFunction + 884
        0x0000270c:    e0cc        ..      B        0x28a8 ; DrvGPIO_InitFunction + 860
        0x0000270e:    e0c4        ..      B        0x289a ; DrvGPIO_InitFunction + 846
        0x00002710:    e0a3        ..      B        0x285a ; DrvGPIO_InitFunction + 782
        0x00002712:    e0ae        ..      B        0x2872 ; DrvGPIO_InitFunction + 806
        0x00002714:    e0ac        ..      B        0x2870 ; DrvGPIO_InitFunction + 804
        0x00002716:    e0aa        ..      B        0x286e ; DrvGPIO_InitFunction + 802
        0x00002718:    e0a8        ..      B        0x286c ; DrvGPIO_InitFunction + 800
        0x0000271a:    e0a6        ..      B        0x286a ; DrvGPIO_InitFunction + 798
        0x0000271c:    e0a4        ..      B        0x2868 ; DrvGPIO_InitFunction + 796
        0x0000271e:    e0b0        ..      B        0x2882 ; DrvGPIO_InitFunction + 822
        0x00002720:    e092        ..      B        0x2848 ; DrvGPIO_InitFunction + 764
        0x00002722:    e088        ..      B        0x2836 ; DrvGPIO_InitFunction + 746
        0x00002724:    e07e        ~.      B        0x2824 ; DrvGPIO_InitFunction + 728
        0x00002726:    e073        s.      B        0x2810 ; DrvGPIO_InitFunction + 708
        0x00002728:    e062        b.      B        0x27f0 ; DrvGPIO_InitFunction + 676
        0x0000272a:    e057        W.      B        0x27dc ; DrvGPIO_InitFunction + 656
        0x0000272c:    e04d        M.      B        0x27ca ; DrvGPIO_InitFunction + 638
        0x0000272e:    e037        7.      B        0x27a0 ; DrvGPIO_InitFunction + 596
        0x00002730:    e02d        -.      B        0x278e ; DrvGPIO_InitFunction + 578
        0x00002732:    e022        ".      B        0x277a ; DrvGPIO_InitFunction + 558
        0x00002734:    e011        ..      B        0x275a ; DrvGPIO_InitFunction + 526
        0x00002736:    e7ff        ..      B        0x2738 ; DrvGPIO_InitFunction + 492
        0x00002738:    2005        .       MOVS     r0,#5
        0x0000273a:    0700        ..      LSLS     r0,r0,#28
        0x0000273c:    6b80        .k      LDR      r0,[r0,#0x38]
        0x0000273e:    230f        .#      MOVS     r3,#0xf
        0x00002740:    021b        ..      LSLS     r3,r3,#8
        0x00002742:    4318        .C      ORRS     r0,r0,r3
        0x00002744:    2305        .#      MOVS     r3,#5
        0x00002746:    071b        ..      LSLS     r3,r3,#28
        0x00002748:    6398        .c      STR      r0,[r3,#0x38]
        0x0000274a:    4891        .H      LDR      r0,[pc,#580] ; [0x2990] = 0x50000040
        0x0000274c:    6900        .i      LDR      r0,[r0,#0x10]
        0x0000274e:    2301        .#      MOVS     r3,#1
        0x00002750:    02db        ..      LSLS     r3,r3,#11
        0x00002752:    4398        .C      BICS     r0,r0,r3
        0x00002754:    4b8e        .K      LDR      r3,[pc,#568] ; [0x2990] = 0x50000040
        0x00002756:    6118        .a      STR      r0,[r3,#0x10]
        0x00002758:    e299        ..      B        0x2c8e ; DrvGPIO_InitFunction + 1858
        0x0000275a:    2005        .       MOVS     r0,#5
        0x0000275c:    0700        ..      LSLS     r0,r0,#28
        0x0000275e:    6b40        @k      LDR      r0,[r0,#0x34]
        0x00002760:    2301        .#      MOVS     r3,#1
        0x00002762:    025b        [.      LSLS     r3,r3,#9
        0x00002764:    4318        .C      ORRS     r0,r0,r3
        0x00002766:    2305        .#      MOVS     r3,#5
        0x00002768:    071b        ..      LSLS     r3,r3,#28
        0x0000276a:    6358        Xc      STR      r0,[r3,#0x34]
        0x0000276c:    4888        .H      LDR      r0,[pc,#544] ; [0x2990] = 0x50000040
        0x0000276e:    6900        .i      LDR      r0,[r0,#0x10]
        0x00002770:    2302        .#      MOVS     r3,#2
        0x00002772:    4318        .C      ORRS     r0,r0,r3
        0x00002774:    4b86        .K      LDR      r3,[pc,#536] ; [0x2990] = 0x50000040
        0x00002776:    6118        .a      STR      r0,[r3,#0x10]
        0x00002778:    e289        ..      B        0x2c8e ; DrvGPIO_InitFunction + 1858
        0x0000277a:    2005        .       MOVS     r0,#5
        0x0000277c:    0700        ..      LSLS     r0,r0,#28
        0x0000277e:    6b80        .k      LDR      r0,[r0,#0x38]
        0x00002780:    2303        .#      MOVS     r3,#3
        0x00002782:    031b        ..      LSLS     r3,r3,#12
        0x00002784:    4318        .C      ORRS     r0,r0,r3
        0x00002786:    2305        .#      MOVS     r3,#5
        0x00002788:    071b        ..      LSLS     r3,r3,#28
        0x0000278a:    6398        .c      STR      r0,[r3,#0x38]
        0x0000278c:    e27f        ..      B        0x2c8e ; DrvGPIO_InitFunction + 1858
        0x0000278e:    2005        .       MOVS     r0,#5
        0x00002790:    0700        ..      LSLS     r0,r0,#28
        0x00002792:    6bc0        .k      LDR      r0,[r0,#0x3c]
        0x00002794:    230f        .#      MOVS     r3,#0xf
        0x00002796:    4318        .C      ORRS     r0,r0,r3
        0x00002798:    2305        .#      MOVS     r3,#5
        0x0000279a:    071b        ..      LSLS     r3,r3,#28
        0x0000279c:    63d8        .c      STR      r0,[r3,#0x3c]
        0x0000279e:    e276        v.      B        0x2c8e ; DrvGPIO_InitFunction + 1858
        0x000027a0:    2005        .       MOVS     r0,#5
        0x000027a2:    0700        ..      LSLS     r0,r0,#28
        0x000027a4:    6b00        .k      LDR      r0,[r0,#0x30]
        0x000027a6:    2380        .#      MOVS     r3,#0x80
        0x000027a8:    4318        .C      ORRS     r0,r0,r3
        0x000027aa:    2305        .#      MOVS     r3,#5
        0x000027ac:    071b        ..      LSLS     r3,r3,#28
        0x000027ae:    6318        .c      STR      r0,[r3,#0x30]
        0x000027b0:    4877        wH      LDR      r0,[pc,#476] ; [0x2990] = 0x50000040
        0x000027b2:    6900        .i      LDR      r0,[r0,#0x10]
        0x000027b4:    2304        .#      MOVS     r3,#4
        0x000027b6:    4318        .C      ORRS     r0,r0,r3
        0x000027b8:    4b75        uK      LDR      r3,[pc,#468] ; [0x2990] = 0x50000040
        0x000027ba:    6118        .a      STR      r0,[r3,#0x10]
        0x000027bc:    4618        .F      MOV      r0,r3
        0x000027be:    6900        .i      LDR      r0,[r0,#0x10]
        0x000027c0:    015b        [.      LSLS     r3,r3,#5
        0x000027c2:    4398        .C      BICS     r0,r0,r3
        0x000027c4:    4b72        rK      LDR      r3,[pc,#456] ; [0x2990] = 0x50000040
        0x000027c6:    6118        .a      STR      r0,[r3,#0x10]
        0x000027c8:    e261        a.      B        0x2c8e ; DrvGPIO_InitFunction + 1858
        0x000027ca:    2005        .       MOVS     r0,#5
        0x000027cc:    0700        ..      LSLS     r0,r0,#28
        0x000027ce:    6bc0        .k      LDR      r0,[r0,#0x3c]
        0x000027d0:    2330        0#      MOVS     r3,#0x30
        0x000027d2:    4318        .C      ORRS     r0,r0,r3
        0x000027d4:    2305        .#      MOVS     r3,#5
        0x000027d6:    071b        ..      LSLS     r3,r3,#28
        0x000027d8:    63d8        .c      STR      r0,[r3,#0x3c]
        0x000027da:    e258        X.      B        0x2c8e ; DrvGPIO_InitFunction + 1858
        0x000027dc:    2005        .       MOVS     r0,#5
        0x000027de:    0700        ..      LSLS     r0,r0,#28
        0x000027e0:    6bc0        .k      LDR      r0,[r0,#0x3c]
        0x000027e2:    230f        .#      MOVS     r3,#0xf
        0x000027e4:    021b        ..      LSLS     r3,r3,#8
        0x000027e6:    4318        .C      ORRS     r0,r0,r3
        0x000027e8:    2305        .#      MOVS     r3,#5
        0x000027ea:    071b        ..      LSLS     r3,r3,#28
        0x000027ec:    63d8        .c      STR      r0,[r3,#0x3c]
        0x000027ee:    e24e        N.      B        0x2c8e ; DrvGPIO_InitFunction + 1858
        0x000027f0:    2005        .       MOVS     r0,#5
        0x000027f2:    0700        ..      LSLS     r0,r0,#28
        0x000027f4:    6b40        @k      LDR      r0,[r0,#0x34]
        0x000027f6:    2301        .#      MOVS     r3,#1
        0x000027f8:    039b        ..      LSLS     r3,r3,#14
        0x000027fa:    4318        .C      ORRS     r0,r0,r3
        0x000027fc:    2305        .#      MOVS     r3,#5
        0x000027fe:    071b        ..      LSLS     r3,r3,#28
        0x00002800:    6358        Xc      STR      r0,[r3,#0x34]
        0x00002802:    4863        cH      LDR      r0,[pc,#396] ; [0x2990] = 0x50000040
        0x00002804:    6900        .i      LDR      r0,[r0,#0x10]
        0x00002806:    2308        .#      MOVS     r3,#8
        0x00002808:    4318        .C      ORRS     r0,r0,r3
        0x0000280a:    4b61        aK      LDR      r3,[pc,#388] ; [0x2990] = 0x50000040
        0x0000280c:    6118        .a      STR      r0,[r3,#0x10]
        0x0000280e:    e23e        >.      B        0x2c8e ; DrvGPIO_InitFunction + 1858
        0x00002810:    2005        .       MOVS     r0,#5
        0x00002812:    0700        ..      LSLS     r0,r0,#28
        0x00002814:    6bc0        .k      LDR      r0,[r0,#0x3c]
        0x00002816:    2303        .#      MOVS     r3,#3
        0x00002818:    031b        ..      LSLS     r3,r3,#12
        0x0000281a:    4318        .C      ORRS     r0,r0,r3
        0x0000281c:    2305        .#      MOVS     r3,#5
        0x0000281e:    071b        ..      LSLS     r3,r3,#28
        0x00002820:    63d8        .c      STR      r0,[r3,#0x3c]
        0x00002822:    e234        4.      B        0x2c8e ; DrvGPIO_InitFunction + 1858
        0x00002824:    2005        .       MOVS     r0,#5
        0x00002826:    0700        ..      LSLS     r0,r0,#28
        0x00002828:    6b80        .k      LDR      r0,[r0,#0x38]
        0x0000282a:    230f        .#      MOVS     r3,#0xf
        0x0000282c:    4318        .C      ORRS     r0,r0,r3
        0x0000282e:    2305        .#      MOVS     r3,#5
        0x00002830:    071b        ..      LSLS     r3,r3,#28
        0x00002832:    6398        .c      STR      r0,[r3,#0x38]
        0x00002834:    e22b        +.      B        0x2c8e ; DrvGPIO_InitFunction + 1858
        0x00002836:    2005        .       MOVS     r0,#5
        0x00002838:    0700        ..      LSLS     r0,r0,#28
        0x0000283a:    6bc0        .k      LDR      r0,[r0,#0x3c]
        0x0000283c:    2302        .#      MOVS     r3,#2
        0x0000283e:    4318        .C      ORRS     r0,r0,r3
        0x00002840:    2305        .#      MOVS     r3,#5
        0x00002842:    071b        ..      LSLS     r3,r3,#28
        0x00002844:    63d8        .c      STR      r0,[r3,#0x3c]
        0x00002846:    e222        ".      B        0x2c8e ; DrvGPIO_InitFunction + 1858
        0x00002848:    2005        .       MOVS     r0,#5
        0x0000284a:    0700        ..      LSLS     r0,r0,#28
        0x0000284c:    6bc0        .k      LDR      r0,[r0,#0x3c]
        0x0000284e:    2304        .#      MOVS     r3,#4
        0x00002850:    4318        .C      ORRS     r0,r0,r3
        0x00002852:    2305        .#      MOVS     r3,#5
        0x00002854:    071b        ..      LSLS     r3,r3,#28
        0x00002856:    63d8        .c      STR      r0,[r3,#0x3c]
        0x00002858:    e219        ..      B        0x2c8e ; DrvGPIO_InitFunction + 1858
        0x0000285a:    484d        MH      LDR      r0,[pc,#308] ; [0x2990] = 0x50000040
        0x0000285c:    6900        .i      LDR      r0,[r0,#0x10]
        0x0000285e:    2304        .#      MOVS     r3,#4
        0x00002860:    4398        .C      BICS     r0,r0,r3
        0x00002862:    4b4b        KK      LDR      r3,[pc,#300] ; [0x2990] = 0x50000040
        0x00002864:    6118        .a      STR      r0,[r3,#0x10]
        0x00002866:    bf00        ..      NOP      
        0x00002868:    bf00        ..      NOP      
        0x0000286a:    bf00        ..      NOP      
        0x0000286c:    bf00        ..      NOP      
        0x0000286e:    bf00        ..      NOP      
        0x00002870:    bf00        ..      NOP      
        0x00002872:    4847        GH      LDR      r0,[pc,#284] ; [0x2990] = 0x50000040
        0x00002874:    6900        .i      LDR      r0,[r0,#0x10]
        0x00002876:    2301        .#      MOVS     r3,#1
        0x00002878:    02db        ..      LSLS     r3,r3,#11
        0x0000287a:    4398        .C      BICS     r0,r0,r3
        0x0000287c:    4b44        DK      LDR      r3,[pc,#272] ; [0x2990] = 0x50000040
        0x0000287e:    6118        .a      STR      r0,[r3,#0x10]
        0x00002880:    bf00        ..      NOP      
        0x00002882:    2005        .       MOVS     r0,#5
        0x00002884:    0700        ..      LSLS     r0,r0,#28
        0x00002886:    6b00        .k      LDR      r0,[r0,#0x30]
        0x00002888:    460b        .F      MOV      r3,r1
        0x0000288a:    3b17        .;      SUBS     r3,r3,#0x17
        0x0000288c:    2401        .$      MOVS     r4,#1
        0x0000288e:    409c        .@      LSLS     r4,r4,r3
        0x00002890:    4320         C      ORRS     r0,r0,r4
        0x00002892:    2305        .#      MOVS     r3,#5
        0x00002894:    071b        ..      LSLS     r3,r3,#28
        0x00002896:    6318        .c      STR      r0,[r3,#0x30]
        0x00002898:    e1f9        ..      B        0x2c8e ; DrvGPIO_InitFunction + 1858
        0x0000289a:    483d        =H      LDR      r0,[pc,#244] ; [0x2990] = 0x50000040
        0x0000289c:    6900        .i      LDR      r0,[r0,#0x10]
        0x0000289e:    2308        .#      MOVS     r3,#8
        0x000028a0:    4398        .C      BICS     r0,r0,r3
        0x000028a2:    4b3b        ;K      LDR      r3,[pc,#236] ; [0x2990] = 0x50000040
        0x000028a4:    6118        .a      STR      r0,[r3,#0x10]
        0x000028a6:    bf00        ..      NOP      
        0x000028a8:    2005        .       MOVS     r0,#5
        0x000028aa:    0700        ..      LSLS     r0,r0,#28
        0x000028ac:    6b43        Ck      LDR      r3,[r0,#0x34]
        0x000028ae:    4608        .F      MOV      r0,r1
        0x000028b0:    3811        .8      SUBS     r0,r0,#0x11
        0x000028b2:    2401        .$      MOVS     r4,#1
        0x000028b4:    4084        .@      LSLS     r4,r4,r0
        0x000028b6:    4323        #C      ORRS     r3,r3,r4
        0x000028b8:    2005        .       MOVS     r0,#5
        0x000028ba:    0700        ..      LSLS     r0,r0,#28
        0x000028bc:    6343        Cc      STR      r3,[r0,#0x34]
        0x000028be:    e1e6        ..      B        0x2c8e ; DrvGPIO_InitFunction + 1858
        0x000028c0:    2005        .       MOVS     r0,#5
        0x000028c2:    0700        ..      LSLS     r0,r0,#28
        0x000028c4:    6b40        @k      LDR      r0,[r0,#0x34]
        0x000028c6:    23ff        .#      MOVS     r3,#0xff
        0x000028c8:    3301        .3      ADDS     r3,#1
        0x000028ca:    4318        .C      ORRS     r0,r0,r3
        0x000028cc:    2305        .#      MOVS     r3,#5
        0x000028ce:    071b        ..      LSLS     r3,r3,#28
        0x000028d0:    6358        Xc      STR      r0,[r3,#0x34]
        0x000028d2:    e1dc        ..      B        0x2c8e ; DrvGPIO_InitFunction + 1858
        0x000028d4:    2005        .       MOVS     r0,#5
        0x000028d6:    0700        ..      LSLS     r0,r0,#28
        0x000028d8:    6b40        @k      LDR      r0,[r0,#0x34]
        0x000028da:    2301        .#      MOVS     r3,#1
        0x000028dc:    025b        [.      LSLS     r3,r3,#9
        0x000028de:    4318        .C      ORRS     r0,r0,r3
        0x000028e0:    2305        .#      MOVS     r3,#5
        0x000028e2:    071b        ..      LSLS     r3,r3,#28
        0x000028e4:    6358        Xc      STR      r0,[r3,#0x34]
        0x000028e6:    482a        *H      LDR      r0,[pc,#168] ; [0x2990] = 0x50000040
        0x000028e8:    6900        .i      LDR      r0,[r0,#0x10]
        0x000028ea:    2302        .#      MOVS     r3,#2
        0x000028ec:    4398        .C      BICS     r0,r0,r3
        0x000028ee:    4b28        (K      LDR      r3,[pc,#160] ; [0x2990] = 0x50000040
        0x000028f0:    6118        .a      STR      r0,[r3,#0x10]
        0x000028f2:    e1cc        ..      B        0x2c8e ; DrvGPIO_InitFunction + 1858
        0x000028f4:    2005        .       MOVS     r0,#5
        0x000028f6:    0700        ..      LSLS     r0,r0,#28
        0x000028f8:    6b40        @k      LDR      r0,[r0,#0x34]
        0x000028fa:    2301        .#      MOVS     r3,#1
        0x000028fc:    029b        ..      LSLS     r3,r3,#10
        0x000028fe:    4318        .C      ORRS     r0,r0,r3
        0x00002900:    2305        .#      MOVS     r3,#5
        0x00002902:    071b        ..      LSLS     r3,r3,#28
        0x00002904:    6358        Xc      STR      r0,[r3,#0x34]
        0x00002906:    4822        "H      LDR      r0,[pc,#136] ; [0x2990] = 0x50000040
        0x00002908:    6900        .i      LDR      r0,[r0,#0x10]
        0x0000290a:    0840        @.      LSRS     r0,r0,#1
        0x0000290c:    0040        @.      LSLS     r0,r0,#1
        0x0000290e:    4b20         K      LDR      r3,[pc,#128] ; [0x2990] = 0x50000040
        0x00002910:    6118        .a      STR      r0,[r3,#0x10]
        0x00002912:    e1bc        ..      B        0x2c8e ; DrvGPIO_InitFunction + 1858
        0x00002914:    2005        .       MOVS     r0,#5
        0x00002916:    0700        ..      LSLS     r0,r0,#28
        0x00002918:    6b40        @k      LDR      r0,[r0,#0x34]
        0x0000291a:    2301        .#      MOVS     r3,#1
        0x0000291c:    02db        ..      LSLS     r3,r3,#11
        0x0000291e:    4318        .C      ORRS     r0,r0,r3
        0x00002920:    2305        .#      MOVS     r3,#5
        0x00002922:    071b        ..      LSLS     r3,r3,#28
        0x00002924:    6358        Xc      STR      r0,[r3,#0x34]
        0x00002926:    481a        .H      LDR      r0,[pc,#104] ; [0x2990] = 0x50000040
        0x00002928:    6900        .i      LDR      r0,[r0,#0x10]
        0x0000292a:    2310        .#      MOVS     r3,#0x10
        0x0000292c:    4398        .C      BICS     r0,r0,r3
        0x0000292e:    4b18        .K      LDR      r3,[pc,#96] ; [0x2990] = 0x50000040
        0x00002930:    6118        .a      STR      r0,[r3,#0x10]
        0x00002932:    e1ac        ..      B        0x2c8e ; DrvGPIO_InitFunction + 1858
        0x00002934:    2005        .       MOVS     r0,#5
        0x00002936:    0700        ..      LSLS     r0,r0,#28
        0x00002938:    6b40        @k      LDR      r0,[r0,#0x34]
        0x0000293a:    2301        .#      MOVS     r3,#1
        0x0000293c:    03db        ..      LSLS     r3,r3,#15
        0x0000293e:    4318        .C      ORRS     r0,r0,r3
        0x00002940:    2305        .#      MOVS     r3,#5
        0x00002942:    071b        ..      LSLS     r3,r3,#28
        0x00002944:    6358        Xc      STR      r0,[r3,#0x34]
        0x00002946:    4812        .H      LDR      r0,[pc,#72] ; [0x2990] = 0x50000040
        0x00002948:    6900        .i      LDR      r0,[r0,#0x10]
        0x0000294a:    2301        .#      MOVS     r3,#1
        0x0000294c:    061b        ..      LSLS     r3,r3,#24
        0x0000294e:    4318        .C      ORRS     r0,r0,r3
        0x00002950:    4b0f        .K      LDR      r3,[pc,#60] ; [0x2990] = 0x50000040
        0x00002952:    6118        .a      STR      r0,[r3,#0x10]
        0x00002954:    e19b        ..      B        0x2c8e ; DrvGPIO_InitFunction + 1858
        0x00002956:    480e        .H      LDR      r0,[pc,#56] ; [0x2990] = 0x50000040
        0x00002958:    6800        .h      LDR      r0,[r0,#0]
        0x0000295a:    2320         #      MOVS     r3,#0x20
        0x0000295c:    4318        .C      ORRS     r0,r0,r3
        0x0000295e:    4b0c        .K      LDR      r3,[pc,#48] ; [0x2990] = 0x50000040
        0x00002960:    6018        .`      STR      r0,[r3,#0]
        0x00002962:    4618        .F      MOV      r0,r3
        0x00002964:    6900        .i      LDR      r0,[r0,#0x10]
        0x00002966:    04db        ..      LSLS     r3,r3,#19
        0x00002968:    4318        .C      ORRS     r0,r0,r3
        0x0000296a:    4b09        .K      LDR      r3,[pc,#36] ; [0x2990] = 0x50000040
        0x0000296c:    6118        .a      STR      r0,[r3,#0x10]
        0x0000296e:    e18e        ..      B        0x2c8e ; DrvGPIO_InitFunction + 1858
        0x00002970:    2005        .       MOVS     r0,#5
        0x00002972:    0700        ..      LSLS     r0,r0,#28
        0x00002974:    6b40        @k      LDR      r0,[r0,#0x34]
        0x00002976:    2304        .#      MOVS     r3,#4
        0x00002978:    4318        .C      ORRS     r0,r0,r3
        0x0000297a:    2305        .#      MOVS     r3,#5
        0x0000297c:    071b        ..      LSLS     r3,r3,#28
        0x0000297e:    6358        Xc      STR      r0,[r3,#0x34]
        0x00002980:    4803        .H      LDR      r0,[pc,#12] ; [0x2990] = 0x50000040
        0x00002982:    6900        .i      LDR      r0,[r0,#0x10]
        0x00002984:    2301        .#      MOVS     r3,#1
        0x00002986:    069b        ..      LSLS     r3,r3,#26
        0x00002988:    4318        .C      ORRS     r0,r0,r3
        0x0000298a:    4b01        .K      LDR      r3,[pc,#4] ; [0x2990] = 0x50000040
        0x0000298c:    6118        .a      STR      r0,[r3,#0x10]
        0x0000298e:    e17e        ~.      B        0x2c8e ; DrvGPIO_InitFunction + 1858
    $d
        0x00002990:    50000040    @..P    DCD    1342177344
    $t
        0x00002994:    2005        .       MOVS     r0,#5
        0x00002996:    0700        ..      LSLS     r0,r0,#28
        0x00002998:    6b40        @k      LDR      r0,[r0,#0x34]
        0x0000299a:    2308        .#      MOVS     r3,#8
        0x0000299c:    4318        .C      ORRS     r0,r0,r3
        0x0000299e:    2305        .#      MOVS     r3,#5
        0x000029a0:    071b        ..      LSLS     r3,r3,#28
        0x000029a2:    6358        Xc      STR      r0,[r3,#0x34]
        0x000029a4:    48bb        .H      LDR      r0,[pc,#748] ; [0x2c94] = 0x50000040
        0x000029a6:    6900        .i      LDR      r0,[r0,#0x10]
        0x000029a8:    2301        .#      MOVS     r3,#1
        0x000029aa:    06db        ..      LSLS     r3,r3,#27
        0x000029ac:    4318        .C      ORRS     r0,r0,r3
        0x000029ae:    4bb9        .K      LDR      r3,[pc,#740] ; [0x2c94] = 0x50000040
        0x000029b0:    6118        .a      STR      r0,[r3,#0x10]
        0x000029b2:    e16c        l.      B        0x2c8e ; DrvGPIO_InitFunction + 1858
        0x000029b4:    bf00        ..      NOP      
        0x000029b6:    bf00        ..      NOP      
        0x000029b8:    bf00        ..      NOP      
        0x000029ba:    bf00        ..      NOP      
        0x000029bc:    bf00        ..      NOP      
        0x000029be:    2929        ))      CMP      r1,#0x29
        0x000029c0:    db03        ..      BLT      0x29ca ; DrvGPIO_InitFunction + 1150
        0x000029c2:    292b        +)      CMP      r1,#0x2b
        0x000029c4:    dc01        ..      BGT      0x29ca ; DrvGPIO_InitFunction + 1150
        0x000029c6:    2200        ."      MOVS     r2,#0
        0x000029c8:    e000        ..      B        0x29cc ; DrvGPIO_InitFunction + 1152
        0x000029ca:    2204        ."      MOVS     r2,#4
        0x000029cc:    2929        ))      CMP      r1,#0x29
        0x000029ce:    d001        ..      BEQ      0x29d4 ; DrvGPIO_InitFunction + 1160
        0x000029d0:    292c        ,)      CMP      r1,#0x2c
        0x000029d2:    d110        ..      BNE      0x29f6 ; DrvGPIO_InitFunction + 1194
        0x000029d4:    2005        .       MOVS     r0,#5
        0x000029d6:    0700        ..      LSLS     r0,r0,#28
        0x000029d8:    6b40        @k      LDR      r0,[r0,#0x34]
        0x000029da:    230f        .#      MOVS     r3,#0xf
        0x000029dc:    4093        .@      LSLS     r3,r3,r2
        0x000029de:    4318        .C      ORRS     r0,r0,r3
        0x000029e0:    2305        .#      MOVS     r3,#5
        0x000029e2:    071b        ..      LSLS     r3,r3,#28
        0x000029e4:    6358        Xc      STR      r0,[r3,#0x34]
        0x000029e6:    48ab        .H      LDR      r0,[pc,#684] ; [0x2c94] = 0x50000040
        0x000029e8:    6900        .i      LDR      r0,[r0,#0x10]
        0x000029ea:    2301        .#      MOVS     r3,#1
        0x000029ec:    02db        ..      LSLS     r3,r3,#11
        0x000029ee:    4398        .C      BICS     r0,r0,r3
        0x000029f0:    4ba8        .K      LDR      r3,[pc,#672] ; [0x2c94] = 0x50000040
        0x000029f2:    6118        .a      STR      r0,[r3,#0x10]
        0x000029f4:    e022        ".      B        0x2a3c ; DrvGPIO_InitFunction + 1264
        0x000029f6:    292a        *)      CMP      r1,#0x2a
        0x000029f8:    d001        ..      BEQ      0x29fe ; DrvGPIO_InitFunction + 1202
        0x000029fa:    292d        -)      CMP      r1,#0x2d
        0x000029fc:    d109        ..      BNE      0x2a12 ; DrvGPIO_InitFunction + 1222
        0x000029fe:    2005        .       MOVS     r0,#5
        0x00002a00:    0700        ..      LSLS     r0,r0,#28
        0x00002a02:    6b40        @k      LDR      r0,[r0,#0x34]
        0x00002a04:    2303        .#      MOVS     r3,#3
        0x00002a06:    4093        .@      LSLS     r3,r3,r2
        0x00002a08:    4318        .C      ORRS     r0,r0,r3
        0x00002a0a:    2305        .#      MOVS     r3,#5
        0x00002a0c:    071b        ..      LSLS     r3,r3,#28
        0x00002a0e:    6358        Xc      STR      r0,[r3,#0x34]
        0x00002a10:    e014        ..      B        0x2a3c ; DrvGPIO_InitFunction + 1264
        0x00002a12:    292b        +)      CMP      r1,#0x2b
        0x00002a14:    d001        ..      BEQ      0x2a1a ; DrvGPIO_InitFunction + 1230
        0x00002a16:    292e        .)      CMP      r1,#0x2e
        0x00002a18:    d110        ..      BNE      0x2a3c ; DrvGPIO_InitFunction + 1264
        0x00002a1a:    2005        .       MOVS     r0,#5
        0x00002a1c:    0700        ..      LSLS     r0,r0,#28
        0x00002a1e:    6b40        @k      LDR      r0,[r0,#0x34]
        0x00002a20:    1c93        ..      ADDS     r3,r2,#2
        0x00002a22:    2403        .$      MOVS     r4,#3
        0x00002a24:    409c        .@      LSLS     r4,r4,r3
        0x00002a26:    4320         C      ORRS     r0,r0,r4
        0x00002a28:    2305        .#      MOVS     r3,#5
        0x00002a2a:    071b        ..      LSLS     r3,r3,#28
        0x00002a2c:    6358        Xc      STR      r0,[r3,#0x34]
        0x00002a2e:    4899        .H      LDR      r0,[pc,#612] ; [0x2c94] = 0x50000040
        0x00002a30:    6900        .i      LDR      r0,[r0,#0x10]
        0x00002a32:    2301        .#      MOVS     r3,#1
        0x00002a34:    02db        ..      LSLS     r3,r3,#11
        0x00002a36:    4398        .C      BICS     r0,r0,r3
        0x00002a38:    4b96        .K      LDR      r3,[pc,#600] ; [0x2c94] = 0x50000040
        0x00002a3a:    6118        .a      STR      r0,[r3,#0x10]
        0x00002a3c:    e127        '.      B        0x2c8e ; DrvGPIO_InitFunction + 1858
        0x00002a3e:    2005        .       MOVS     r0,#5
        0x00002a40:    0700        ..      LSLS     r0,r0,#28
        0x00002a42:    6bc0        .k      LDR      r0,[r0,#0x3c]
        0x00002a44:    2303        .#      MOVS     r3,#3
        0x00002a46:    039b        ..      LSLS     r3,r3,#14
        0x00002a48:    4318        .C      ORRS     r0,r0,r3
        0x00002a4a:    2305        .#      MOVS     r3,#5
        0x00002a4c:    071b        ..      LSLS     r3,r3,#28
        0x00002a4e:    63d8        .c      STR      r0,[r3,#0x3c]
        0x00002a50:    e11d        ..      B        0x2c8e ; DrvGPIO_InitFunction + 1858
        0x00002a52:    bf00        ..      NOP      
        0x00002a54:    bf00        ..      NOP      
        0x00002a56:    2930        0)      CMP      r1,#0x30
        0x00002a58:    d108        ..      BNE      0x2a6c ; DrvGPIO_InitFunction + 1312
        0x00002a5a:    2005        .       MOVS     r0,#5
        0x00002a5c:    0700        ..      LSLS     r0,r0,#28
        0x00002a5e:    6b00        .k      LDR      r0,[r0,#0x30]
        0x00002a60:    020b        ..      LSLS     r3,r1,#8
        0x00002a62:    4318        .C      ORRS     r0,r0,r3
        0x00002a64:    2305        .#      MOVS     r3,#5
        0x00002a66:    071b        ..      LSLS     r3,r3,#28
        0x00002a68:    6318        .c      STR      r0,[r3,#0x30]
        0x00002a6a:    e00a        ..      B        0x2a82 ; DrvGPIO_InitFunction + 1334
        0x00002a6c:    2005        .       MOVS     r0,#5
        0x00002a6e:    0700        ..      LSLS     r0,r0,#28
        0x00002a70:    6b03        .k      LDR      r3,[r0,#0x30]
        0x00002a72:    4608        .F      MOV      r0,r1
        0x00002a74:    3828        (8      SUBS     r0,r0,#0x28
        0x00002a76:    2401        .$      MOVS     r4,#1
        0x00002a78:    4084        .@      LSLS     r4,r4,r0
        0x00002a7a:    4323        #C      ORRS     r3,r3,r4
        0x00002a7c:    2005        .       MOVS     r0,#5
        0x00002a7e:    0700        ..      LSLS     r0,r0,#28
        0x00002a80:    6303        .c      STR      r3,[r0,#0x30]
        0x00002a82:    4884        .H      LDR      r0,[pc,#528] ; [0x2c94] = 0x50000040
        0x00002a84:    6900        .i      LDR      r0,[r0,#0x10]
        0x00002a86:    2301        .#      MOVS     r3,#1
        0x00002a88:    02db        ..      LSLS     r3,r3,#11
        0x00002a8a:    4398        .C      BICS     r0,r0,r3
        0x00002a8c:    4b81        .K      LDR      r3,[pc,#516] ; [0x2c94] = 0x50000040
        0x00002a8e:    6118        .a      STR      r0,[r3,#0x10]
        0x00002a90:    e0fd        ..      B        0x2c8e ; DrvGPIO_InitFunction + 1858
        0x00002a92:    bf00        ..      NOP      
        0x00002a94:    bf00        ..      NOP      
        0x00002a96:    2931        1)      CMP      r1,#0x31
        0x00002a98:    d116        ..      BNE      0x2ac8 ; DrvGPIO_InitFunction + 1404
        0x00002a9a:    2005        .       MOVS     r0,#5
        0x00002a9c:    0700        ..      LSLS     r0,r0,#28
        0x00002a9e:    6b00        .k      LDR      r0,[r0,#0x30]
        0x00002aa0:    2303        .#      MOVS     r3,#3
        0x00002aa2:    039b        ..      LSLS     r3,r3,#14
        0x00002aa4:    4318        .C      ORRS     r0,r0,r3
        0x00002aa6:    2305        .#      MOVS     r3,#5
        0x00002aa8:    071b        ..      LSLS     r3,r3,#28
        0x00002aaa:    6318        .c      STR      r0,[r3,#0x30]
        0x00002aac:    4879        yH      LDR      r0,[pc,#484] ; [0x2c94] = 0x50000040
        0x00002aae:    6900        .i      LDR      r0,[r0,#0x10]
        0x00002ab0:    2301        .#      MOVS     r3,#1
        0x00002ab2:    025b        [.      LSLS     r3,r3,#9
        0x00002ab4:    4398        .C      BICS     r0,r0,r3
        0x00002ab6:    4b77        wK      LDR      r3,[pc,#476] ; [0x2c94] = 0x50000040
        0x00002ab8:    6118        .a      STR      r0,[r3,#0x10]
        0x00002aba:    4618        .F      MOV      r0,r3
        0x00002abc:    6900        .i      LDR      r0,[r0,#0x10]
        0x00002abe:    015b        [.      LSLS     r3,r3,#5
        0x00002ac0:    4398        .C      BICS     r0,r0,r3
        0x00002ac2:    4b74        tK      LDR      r3,[pc,#464] ; [0x2c94] = 0x50000040
        0x00002ac4:    6118        .a      STR      r0,[r3,#0x10]
        0x00002ac6:    e01b        ..      B        0x2b00 ; DrvGPIO_InitFunction + 1460
        0x00002ac8:    2005        .       MOVS     r0,#5
        0x00002aca:    0700        ..      LSLS     r0,r0,#28
        0x00002acc:    6b03        .k      LDR      r3,[r0,#0x30]
        0x00002ace:    4608        .F      MOV      r0,r1
        0x00002ad0:    3828        (8      SUBS     r0,r0,#0x28
        0x00002ad2:    2401        .$      MOVS     r4,#1
        0x00002ad4:    4084        .@      LSLS     r4,r4,r0
        0x00002ad6:    4323        #C      ORRS     r3,r3,r4
        0x00002ad8:    2005        .       MOVS     r0,#5
        0x00002ada:    0700        ..      LSLS     r0,r0,#28
        0x00002adc:    6303        .c      STR      r3,[r0,#0x30]
        0x00002ade:    2936        6)      CMP      r1,#0x36
        0x00002ae0:    d107        ..      BNE      0x2af2 ; DrvGPIO_InitFunction + 1446
        0x00002ae2:    486c        lH      LDR      r0,[pc,#432] ; [0x2c94] = 0x50000040
        0x00002ae4:    6900        .i      LDR      r0,[r0,#0x10]
        0x00002ae6:    2301        .#      MOVS     r3,#1
        0x00002ae8:    02db        ..      LSLS     r3,r3,#11
        0x00002aea:    4398        .C      BICS     r0,r0,r3
        0x00002aec:    4b69        iK      LDR      r3,[pc,#420] ; [0x2c94] = 0x50000040
        0x00002aee:    6118        .a      STR      r0,[r3,#0x10]
        0x00002af0:    e006        ..      B        0x2b00 ; DrvGPIO_InitFunction + 1460
        0x00002af2:    4868        hH      LDR      r0,[pc,#416] ; [0x2c94] = 0x50000040
        0x00002af4:    6900        .i      LDR      r0,[r0,#0x10]
        0x00002af6:    2301        .#      MOVS     r3,#1
        0x00002af8:    025b        [.      LSLS     r3,r3,#9
        0x00002afa:    4398        .C      BICS     r0,r0,r3
        0x00002afc:    4b65        eK      LDR      r3,[pc,#404] ; [0x2c94] = 0x50000040
        0x00002afe:    6118        .a      STR      r0,[r3,#0x10]
        0x00002b00:    e0c5        ..      B        0x2c8e ; DrvGPIO_InitFunction + 1858
        0x00002b02:    bf00        ..      NOP      
        0x00002b04:    bf00        ..      NOP      
        0x00002b06:    2932        2)      CMP      r1,#0x32
        0x00002b08:    d115        ..      BNE      0x2b36 ; DrvGPIO_InitFunction + 1514
        0x00002b0a:    2005        .       MOVS     r0,#5
        0x00002b0c:    0700        ..      LSLS     r0,r0,#28
        0x00002b0e:    6b40        @k      LDR      r0,[r0,#0x34]
        0x00002b10:    2301        .#      MOVS     r3,#1
        0x00002b12:    02db        ..      LSLS     r3,r3,#11
        0x00002b14:    4318        .C      ORRS     r0,r0,r3
        0x00002b16:    2305        .#      MOVS     r3,#5
        0x00002b18:    071b        ..      LSLS     r3,r3,#28
        0x00002b1a:    6358        Xc      STR      r0,[r3,#0x34]
        0x00002b1c:    485d        ]H      LDR      r0,[pc,#372] ; [0x2c94] = 0x50000040
        0x00002b1e:    6900        .i      LDR      r0,[r0,#0x10]
        0x00002b20:    2310        .#      MOVS     r3,#0x10
        0x00002b22:    4318        .C      ORRS     r0,r0,r3
        0x00002b24:    4b5b        [K      LDR      r3,[pc,#364] ; [0x2c94] = 0x50000040
        0x00002b26:    6118        .a      STR      r0,[r3,#0x10]
        0x00002b28:    4618        .F      MOV      r0,r3
        0x00002b2a:    6800        .h      LDR      r0,[r0,#0]
        0x00002b2c:    2320         #      MOVS     r3,#0x20
        0x00002b2e:    4318        .C      ORRS     r0,r0,r3
        0x00002b30:    4b58        XK      LDR      r3,[pc,#352] ; [0x2c94] = 0x50000040
        0x00002b32:    6018        .`      STR      r0,[r3,#0]
        0x00002b34:    e017        ..      B        0x2b66 ; DrvGPIO_InitFunction + 1562
        0x00002b36:    2938        8)      CMP      r1,#0x38
        0x00002b38:    d10f        ..      BNE      0x2b5a ; DrvGPIO_InitFunction + 1550
        0x00002b3a:    2005        .       MOVS     r0,#5
        0x00002b3c:    0700        ..      LSLS     r0,r0,#28
        0x00002b3e:    6b40        @k      LDR      r0,[r0,#0x34]
        0x00002b40:    2301        .#      MOVS     r3,#1
        0x00002b42:    02db        ..      LSLS     r3,r3,#11
        0x00002b44:    4318        .C      ORRS     r0,r0,r3
        0x00002b46:    2305        .#      MOVS     r3,#5
        0x00002b48:    071b        ..      LSLS     r3,r3,#28
        0x00002b4a:    6358        Xc      STR      r0,[r3,#0x34]
        0x00002b4c:    4851        QH      LDR      r0,[pc,#324] ; [0x2c94] = 0x50000040
        0x00002b4e:    6900        .i      LDR      r0,[r0,#0x10]
        0x00002b50:    2310        .#      MOVS     r3,#0x10
        0x00002b52:    4318        .C      ORRS     r0,r0,r3
        0x00002b54:    4b4f        OK      LDR      r3,[pc,#316] ; [0x2c94] = 0x50000040
        0x00002b56:    6118        .a      STR      r0,[r3,#0x10]
        0x00002b58:    e005        ..      B        0x2b66 ; DrvGPIO_InitFunction + 1562
        0x00002b5a:    484e        NH      LDR      r0,[pc,#312] ; [0x2c94] = 0x50000040
        0x00002b5c:    6800        .h      LDR      r0,[r0,#0]
        0x00002b5e:    2320         #      MOVS     r3,#0x20
        0x00002b60:    4318        .C      ORRS     r0,r0,r3
        0x00002b62:    4b4c        LK      LDR      r3,[pc,#304] ; [0x2c94] = 0x50000040
        0x00002b64:    6018        .`      STR      r0,[r3,#0]
        0x00002b66:    e092        ..      B        0x2c8e ; DrvGPIO_InitFunction + 1858
        0x00002b68:    bf00        ..      NOP      
        0x00002b6a:    bf00        ..      NOP      
        0x00002b6c:    2933        3)      CMP      r1,#0x33
        0x00002b6e:    d106        ..      BNE      0x2b7e ; DrvGPIO_InitFunction + 1586
        0x00002b70:    4848        HH      LDR      r0,[pc,#288] ; [0x2c94] = 0x50000040
        0x00002b72:    6800        .h      LDR      r0,[r0,#0]
        0x00002b74:    2303        .#      MOVS     r3,#3
        0x00002b76:    4318        .C      ORRS     r0,r0,r3
        0x00002b78:    4b46        FK      LDR      r3,[pc,#280] ; [0x2c94] = 0x50000040
        0x00002b7a:    6018        .`      STR      r0,[r3,#0]
        0x00002b7c:    e00e        ..      B        0x2b9c ; DrvGPIO_InitFunction + 1616
        0x00002b7e:    293a        :)      CMP      r1,#0x3a
        0x00002b80:    d106        ..      BNE      0x2b90 ; DrvGPIO_InitFunction + 1604
        0x00002b82:    4844        DH      LDR      r0,[pc,#272] ; [0x2c94] = 0x50000040
        0x00002b84:    6800        .h      LDR      r0,[r0,#0]
        0x00002b86:    2301        .#      MOVS     r3,#1
        0x00002b88:    4318        .C      ORRS     r0,r0,r3
        0x00002b8a:    4b42        BK      LDR      r3,[pc,#264] ; [0x2c94] = 0x50000040
        0x00002b8c:    6018        .`      STR      r0,[r3,#0]
        0x00002b8e:    e005        ..      B        0x2b9c ; DrvGPIO_InitFunction + 1616
        0x00002b90:    4840        @H      LDR      r0,[pc,#256] ; [0x2c94] = 0x50000040
        0x00002b92:    6800        .h      LDR      r0,[r0,#0]
        0x00002b94:    2302        .#      MOVS     r3,#2
        0x00002b96:    4318        .C      ORRS     r0,r0,r3
        0x00002b98:    4b3e        >K      LDR      r3,[pc,#248] ; [0x2c94] = 0x50000040
        0x00002b9a:    6018        .`      STR      r0,[r3,#0]
        0x00002b9c:    e077        w.      B        0x2c8e ; DrvGPIO_InitFunction + 1858
        0x00002b9e:    2005        .       MOVS     r0,#5
        0x00002ba0:    0700        ..      LSLS     r0,r0,#28
        0x00002ba2:    6b40        @k      LDR      r0,[r0,#0x34]
        0x00002ba4:    230c        .#      MOVS     r3,#0xc
        0x00002ba6:    4318        .C      ORRS     r0,r0,r3
        0x00002ba8:    2305        .#      MOVS     r3,#5
        0x00002baa:    071b        ..      LSLS     r3,r3,#28
        0x00002bac:    6358        Xc      STR      r0,[r3,#0x34]
        0x00002bae:    4839        9H      LDR      r0,[pc,#228] ; [0x2c94] = 0x50000040
        0x00002bb0:    6900        .i      LDR      r0,[r0,#0x10]
        0x00002bb2:    2303        .#      MOVS     r3,#3
        0x00002bb4:    035b        [.      LSLS     r3,r3,#13
        0x00002bb6:    4318        .C      ORRS     r0,r0,r3
        0x00002bb8:    4b36        6K      LDR      r3,[pc,#216] ; [0x2c94] = 0x50000040
        0x00002bba:    6118        .a      STR      r0,[r3,#0x10]
        0x00002bbc:    2005        .       MOVS     r0,#5
        0x00002bbe:    0700        ..      LSLS     r0,r0,#28
        0x00002bc0:    6b00        .k      LDR      r0,[r0,#0x30]
        0x00002bc2:    4b35        5K      LDR      r3,[pc,#212] ; [0x2c98] = 0x703e
        0x00002bc4:    4318        .C      ORRS     r0,r0,r3
        0x00002bc6:    2305        .#      MOVS     r3,#5
        0x00002bc8:    071b        ..      LSLS     r3,r3,#28
        0x00002bca:    6318        .c      STR      r0,[r3,#0x30]
        0x00002bcc:    4831        1H      LDR      r0,[pc,#196] ; [0x2c94] = 0x50000040
        0x00002bce:    6900        .i      LDR      r0,[r0,#0x10]
        0x00002bd0:    23ff        .#      MOVS     r3,#0xff
        0x00002bd2:    041b        ..      LSLS     r3,r3,#16
        0x00002bd4:    4318        .C      ORRS     r0,r0,r3
        0x00002bd6:    4b2f        /K      LDR      r3,[pc,#188] ; [0x2c94] = 0x50000040
        0x00002bd8:    6118        .a      STR      r0,[r3,#0x10]
        0x00002bda:    bf00        ..      NOP      
        0x00002bdc:    293c        <)      CMP      r1,#0x3c
        0x00002bde:    d11e        ..      BNE      0x2c1e ; DrvGPIO_InitFunction + 1746
        0x00002be0:    2005        .       MOVS     r0,#5
        0x00002be2:    0700        ..      LSLS     r0,r0,#28
        0x00002be4:    6b40        @k      LDR      r0,[r0,#0x34]
        0x00002be6:    230c        .#      MOVS     r3,#0xc
        0x00002be8:    4398        .C      BICS     r0,r0,r3
        0x00002bea:    2305        .#      MOVS     r3,#5
        0x00002bec:    071b        ..      LSLS     r3,r3,#28
        0x00002bee:    6358        Xc      STR      r0,[r3,#0x34]
        0x00002bf0:    4828        (H      LDR      r0,[pc,#160] ; [0x2c94] = 0x50000040
        0x00002bf2:    6900        .i      LDR      r0,[r0,#0x10]
        0x00002bf4:    2303        .#      MOVS     r3,#3
        0x00002bf6:    035b        [.      LSLS     r3,r3,#13
        0x00002bf8:    4398        .C      BICS     r0,r0,r3
        0x00002bfa:    4b26        &K      LDR      r3,[pc,#152] ; [0x2c94] = 0x50000040
        0x00002bfc:    6118        .a      STR      r0,[r3,#0x10]
        0x00002bfe:    2005        .       MOVS     r0,#5
        0x00002c00:    0700        ..      LSLS     r0,r0,#28
        0x00002c02:    6b00        .k      LDR      r0,[r0,#0x30]
        0x00002c04:    4b24        $K      LDR      r3,[pc,#144] ; [0x2c98] = 0x703e
        0x00002c06:    43db        .C      MVNS     r3,r3
        0x00002c08:    4018        .@      ANDS     r0,r0,r3
        0x00002c0a:    2305        .#      MOVS     r3,#5
        0x00002c0c:    071b        ..      LSLS     r3,r3,#28
        0x00002c0e:    6318        .c      STR      r0,[r3,#0x30]
        0x00002c10:    4820         H      LDR      r0,[pc,#128] ; [0x2c94] = 0x50000040
        0x00002c12:    6900        .i      LDR      r0,[r0,#0x10]
        0x00002c14:    23ff        .#      MOVS     r3,#0xff
        0x00002c16:    041b        ..      LSLS     r3,r3,#16
        0x00002c18:    4398        .C      BICS     r0,r0,r3
        0x00002c1a:    4b1e        .K      LDR      r3,[pc,#120] ; [0x2c94] = 0x50000040
        0x00002c1c:    6118        .a      STR      r0,[r3,#0x10]
        0x00002c1e:    481d        .H      LDR      r0,[pc,#116] ; [0x2c94] = 0x50000040
        0x00002c20:    6900        .i      LDR      r0,[r0,#0x10]
        0x00002c22:    2303        .#      MOVS     r3,#3
        0x00002c24:    02db        ..      LSLS     r3,r3,#11
        0x00002c26:    4318        .C      ORRS     r0,r0,r3
        0x00002c28:    4b1a        .K      LDR      r3,[pc,#104] ; [0x2c94] = 0x50000040
        0x00002c2a:    6118        .a      STR      r0,[r3,#0x10]
        0x00002c2c:    2005        .       MOVS     r0,#5
        0x00002c2e:    0700        ..      LSLS     r0,r0,#28
        0x00002c30:    6b80        .k      LDR      r0,[r0,#0x38]
        0x00002c32:    23ff        .#      MOVS     r3,#0xff
        0x00002c34:    3301        .3      ADDS     r3,#1
        0x00002c36:    4318        .C      ORRS     r0,r0,r3
        0x00002c38:    2305        .#      MOVS     r3,#5
        0x00002c3a:    071b        ..      LSLS     r3,r3,#28
        0x00002c3c:    6398        .c      STR      r0,[r3,#0x38]
        0x00002c3e:    4618        .F      MOV      r0,r3
        0x00002c40:    6b00        .k      LDR      r0,[r0,#0x30]
        0x00002c42:    2303        .#      MOVS     r3,#3
        0x00002c44:    029b        ..      LSLS     r3,r3,#10
        0x00002c46:    4318        .C      ORRS     r0,r0,r3
        0x00002c48:    2305        .#      MOVS     r3,#5
        0x00002c4a:    071b        ..      LSLS     r3,r3,#28
        0x00002c4c:    6318        .c      STR      r0,[r3,#0x30]
        0x00002c4e:    4618        .F      MOV      r0,r3
        0x00002c50:    6b40        @k      LDR      r0,[r0,#0x34]
        0x00002c52:    23c0        .#      MOVS     r3,#0xc0
        0x00002c54:    4318        .C      ORRS     r0,r0,r3
        0x00002c56:    2305        .#      MOVS     r3,#5
        0x00002c58:    071b        ..      LSLS     r3,r3,#28
        0x00002c5a:    6358        Xc      STR      r0,[r3,#0x34]
        0x00002c5c:    4618        .F      MOV      r0,r3
        0x00002c5e:    6b00        .k      LDR      r0,[r0,#0x30]
        0x00002c60:    23c0        .#      MOVS     r3,#0xc0
        0x00002c62:    4318        .C      ORRS     r0,r0,r3
        0x00002c64:    2305        .#      MOVS     r3,#5
        0x00002c66:    071b        ..      LSLS     r3,r3,#28
        0x00002c68:    6318        .c      STR      r0,[r3,#0x30]
        0x00002c6a:    4618        .F      MOV      r0,r3
        0x00002c6c:    6b80        .k      LDR      r0,[r0,#0x38]
        0x00002c6e:    4b0b        .K      LDR      r3,[pc,#44] ; [0x2c9c] = 0xc0c0
        0x00002c70:    4318        .C      ORRS     r0,r0,r3
        0x00002c72:    2305        .#      MOVS     r3,#5
        0x00002c74:    071b        ..      LSLS     r3,r3,#28
        0x00002c76:    6398        .c      STR      r0,[r3,#0x38]
        0x00002c78:    4618        .F      MOV      r0,r3
        0x00002c7a:    6b40        @k      LDR      r0,[r0,#0x34]
        0x00002c7c:    2303        .#      MOVS     r3,#3
        0x00002c7e:    031b        ..      LSLS     r3,r3,#12
        0x00002c80:    4318        .C      ORRS     r0,r0,r3
        0x00002c82:    2305        .#      MOVS     r3,#5
        0x00002c84:    071b        ..      LSLS     r3,r3,#28
        0x00002c86:    6358        Xc      STR      r0,[r3,#0x34]
        0x00002c88:    e001        ..      B        0x2c8e ; DrvGPIO_InitFunction + 1858
        0x00002c8a:    4805        .H      LDR      r0,[pc,#20] ; [0x2ca0] = 0xffff8901
        0x00002c8c:    bd10        ..      POP      {r4,pc}
        0x00002c8e:    bf00        ..      NOP      
        0x00002c90:    2000        .       MOVS     r0,#0
        0x00002c92:    e7fb        ..      B        0x2c8c ; DrvGPIO_InitFunction + 1856
    $d
        0x00002c94:    50000040    @..P    DCD    1342177344
        0x00002c98:    0000703e    >p..    DCD    28734
        0x00002c9c:    0000c0c0    ....    DCD    49344
        0x00002ca0:    ffff8901    ....    DCD    4294936833
    $t
    i.DrvI2C_Close
    DrvI2C_Close
        0x00002ca4:    4601        .F      MOV      r1,r0
        0x00002ca6:    2900        .)      CMP      r1,#0
        0x00002ca8:    d01e        ..      BEQ      0x2ce8 ; DrvI2C_Close + 68
        0x00002caa:    481f        .H      LDR      r0,[pc,#124] ; [0x2d28] = 0x40120000
        0x00002cac:    6800        .h      LDR      r0,[r0,#0]
        0x00002cae:    2240        @"      MOVS     r2,#0x40
        0x00002cb0:    4390        .C      BICS     r0,r0,r2
        0x00002cb2:    4a1d        .J      LDR      r2,[pc,#116] ; [0x2d28] = 0x40120000
        0x00002cb4:    6010        .`      STR      r0,[r2,#0]
        0x00002cb6:    2005        .       MOVS     r0,#5
        0x00002cb8:    0700        ..      LSLS     r0,r0,#28
        0x00002cba:    68c0        .h      LDR      r0,[r0,#0xc]
        0x00002cbc:    1552        R.      ASRS     r2,r2,#21
        0x00002cbe:    4390        .C      BICS     r0,r0,r2
        0x00002cc0:    1880        ..      ADDS     r0,r0,r2
        0x00002cc2:    2205        ."      MOVS     r2,#5
        0x00002cc4:    0712        ..      LSLS     r2,r2,#28
        0x00002cc6:    60d0        .`      STR      r0,[r2,#0xc]
        0x00002cc8:    4610        .F      MOV      r0,r2
        0x00002cca:    68c0        .h      LDR      r0,[r0,#0xc]
        0x00002ccc:    2201        ."      MOVS     r2,#1
        0x00002cce:    0252        R.      LSLS     r2,r2,#9
        0x00002cd0:    4390        .C      BICS     r0,r0,r2
        0x00002cd2:    2205        ."      MOVS     r2,#5
        0x00002cd4:    0712        ..      LSLS     r2,r2,#28
        0x00002cd6:    60d0        .`      STR      r0,[r2,#0xc]
        0x00002cd8:    4814        .H      LDR      r0,[pc,#80] ; [0x2d2c] = 0x50000200
        0x00002cda:    6880        .h      LDR      r0,[r0,#8]
        0x00002cdc:    2201        ."      MOVS     r2,#1
        0x00002cde:    0252        R.      LSLS     r2,r2,#9
        0x00002ce0:    4390        .C      BICS     r0,r0,r2
        0x00002ce2:    4a12        .J      LDR      r2,[pc,#72] ; [0x2d2c] = 0x50000200
        0x00002ce4:    6090        .`      STR      r0,[r2,#8]
        0x00002ce6:    e01d        ..      B        0x2d24 ; DrvI2C_Close + 128
        0x00002ce8:    4811        .H      LDR      r0,[pc,#68] ; [0x2d30] = 0x40020000
        0x00002cea:    6800        .h      LDR      r0,[r0,#0]
        0x00002cec:    2240        @"      MOVS     r2,#0x40
        0x00002cee:    4390        .C      BICS     r0,r0,r2
        0x00002cf0:    4a0f        .J      LDR      r2,[pc,#60] ; [0x2d30] = 0x40020000
        0x00002cf2:    6010        .`      STR      r0,[r2,#0]
        0x00002cf4:    2005        .       MOVS     r0,#5
        0x00002cf6:    0700        ..      LSLS     r0,r0,#28
        0x00002cf8:    68c0        .h      LDR      r0,[r0,#0xc]
        0x00002cfa:    1592        ..      ASRS     r2,r2,#22
        0x00002cfc:    4390        .C      BICS     r0,r0,r2
        0x00002cfe:    1880        ..      ADDS     r0,r0,r2
        0x00002d00:    2205        ."      MOVS     r2,#5
        0x00002d02:    0712        ..      LSLS     r2,r2,#28
        0x00002d04:    60d0        .`      STR      r0,[r2,#0xc]
        0x00002d06:    4610        .F      MOV      r0,r2
        0x00002d08:    68c0        .h      LDR      r0,[r0,#0xc]
        0x00002d0a:    22ff        ."      MOVS     r2,#0xff
        0x00002d0c:    3201        .2      ADDS     r2,#1
        0x00002d0e:    4390        .C      BICS     r0,r0,r2
        0x00002d10:    2205        ."      MOVS     r2,#5
        0x00002d12:    0712        ..      LSLS     r2,r2,#28
        0x00002d14:    60d0        .`      STR      r0,[r2,#0xc]
        0x00002d16:    4805        .H      LDR      r0,[pc,#20] ; [0x2d2c] = 0x50000200
        0x00002d18:    6880        .h      LDR      r0,[r0,#8]
        0x00002d1a:    22ff        ."      MOVS     r2,#0xff
        0x00002d1c:    3201        .2      ADDS     r2,#1
        0x00002d1e:    4390        .C      BICS     r0,r0,r2
        0x00002d20:    4a02        .J      LDR      r2,[pc,#8] ; [0x2d2c] = 0x50000200
        0x00002d22:    6090        .`      STR      r0,[r2,#8]
        0x00002d24:    2000        .       MOVS     r0,#0
        0x00002d26:    4770        pG      BX       lr
    $d
        0x00002d28:    40120000    ...@    DCD    1074921472
        0x00002d2c:    50000200    ...P    DCD    1342177792
        0x00002d30:    40020000    ...@    DCD    1073872896
    $t
    i.DrvI2C_Ctrl
    DrvI2C_Ctrl
        0x00002d34:    b5f0        ..      PUSH     {r4-r7,lr}
        0x00002d36:    9c05        ..      LDR      r4,[sp,#0x14]
        0x00002d38:    2500        .%      MOVS     r5,#0
        0x00002d3a:    2900        .)      CMP      r1,#0
        0x00002d3c:    d001        ..      BEQ      0x2d42 ; DrvI2C_Ctrl + 14
        0x00002d3e:    2620         &      MOVS     r6,#0x20
        0x00002d40:    4335        5C      ORRS     r5,r5,r6
        0x00002d42:    2a00        .*      CMP      r2,#0
        0x00002d44:    d001        ..      BEQ      0x2d4a ; DrvI2C_Ctrl + 22
        0x00002d46:    2610        .&      MOVS     r6,#0x10
        0x00002d48:    4335        5C      ORRS     r5,r5,r6
        0x00002d4a:    2b00        .+      CMP      r3,#0
        0x00002d4c:    d001        ..      BEQ      0x2d52 ; DrvI2C_Ctrl + 30
        0x00002d4e:    2608        .&      MOVS     r6,#8
        0x00002d50:    4335        5C      ORRS     r5,r5,r6
        0x00002d52:    2c00        .,      CMP      r4,#0
        0x00002d54:    d001        ..      BEQ      0x2d5a ; DrvI2C_Ctrl + 38
        0x00002d56:    2604        .&      MOVS     r6,#4
        0x00002d58:    4335        5C      ORRS     r5,r5,r6
        0x00002d5a:    2800        .(      CMP      r0,#0
        0x00002d5c:    d007        ..      BEQ      0x2d6e ; DrvI2C_Ctrl + 58
        0x00002d5e:    4e08        .N      LDR      r6,[pc,#32] ; [0x2d80] = 0x40120000
        0x00002d60:    6836        6h      LDR      r6,[r6,#0]
        0x00002d62:    273c        <'      MOVS     r7,#0x3c
        0x00002d64:    43be        .C      BICS     r6,r6,r7
        0x00002d66:    432e        .C      ORRS     r6,r6,r5
        0x00002d68:    4f05        .O      LDR      r7,[pc,#20] ; [0x2d80] = 0x40120000
        0x00002d6a:    603e        >`      STR      r6,[r7,#0]
        0x00002d6c:    e006        ..      B        0x2d7c ; DrvI2C_Ctrl + 72
        0x00002d6e:    4e05        .N      LDR      r6,[pc,#20] ; [0x2d84] = 0x40020000
        0x00002d70:    6836        6h      LDR      r6,[r6,#0]
        0x00002d72:    273c        <'      MOVS     r7,#0x3c
        0x00002d74:    43be        .C      BICS     r6,r6,r7
        0x00002d76:    432e        .C      ORRS     r6,r6,r5
        0x00002d78:    4f02        .O      LDR      r7,[pc,#8] ; [0x2d84] = 0x40020000
        0x00002d7a:    603e        >`      STR      r6,[r7,#0]
        0x00002d7c:    bdf0        ..      POP      {r4-r7,pc}
    $d
        0x00002d7e:    0000        ..      DCW    0
        0x00002d80:    40120000    ...@    DCD    1074921472
        0x00002d84:    40020000    ...@    DCD    1073872896
    $t
    i.DrvI2C_Open
    DrvI2C_Open
        0x00002d88:    b5f8        ..      PUSH     {r3-r7,lr}
        0x00002d8a:    4604        .F      MOV      r4,r0
        0x00002d8c:    460d        .F      MOV      r5,r1
        0x00002d8e:    00a9        ..      LSLS     r1,r5,#2
        0x00002d90:    4a2b        +J      LDR      r2,[pc,#172] ; [0x2e40] = 0x20000000
        0x00002d92:    6812        .h      LDR      r2,[r2,#0]
        0x00002d94:    230a        .#      MOVS     r3,#0xa
        0x00002d96:    435a        ZC      MULS     r2,r3,r2
        0x00002d98:    4610        .F      MOV      r0,r2
        0x00002d9a:    f7fdfb23    ..#.    BL       __aeabi_uidiv ; 0x3e4
        0x00002d9e:    1d47        G.      ADDS     r7,r0,#5
        0x00002da0:    210a        .!      MOVS     r1,#0xa
        0x00002da2:    4638        8F      MOV      r0,r7
        0x00002da4:    f7fdfb1e    ....    BL       __aeabi_uidiv ; 0x3e4
        0x00002da8:    1e46        F.      SUBS     r6,r0,#1
        0x00002daa:    2c00        .,      CMP      r4,#0
        0x00002dac:    d023        #.      BEQ      0x2df6 ; DrvI2C_Open + 110
        0x00002dae:    4825        %H      LDR      r0,[pc,#148] ; [0x2e44] = 0x50000200
        0x00002db0:    6880        .h      LDR      r0,[r0,#8]
        0x00002db2:    2101        .!      MOVS     r1,#1
        0x00002db4:    0249        I.      LSLS     r1,r1,#9
        0x00002db6:    4388        .C      BICS     r0,r0,r1
        0x00002db8:    1840        @.      ADDS     r0,r0,r1
        0x00002dba:    4922        "I      LDR      r1,[pc,#136] ; [0x2e44] = 0x50000200
        0x00002dbc:    6088        .`      STR      r0,[r1,#8]
        0x00002dbe:    2005        .       MOVS     r0,#5
        0x00002dc0:    0700        ..      LSLS     r0,r0,#28
        0x00002dc2:    68c0        .h      LDR      r0,[r0,#0xc]
        0x00002dc4:    2101        .!      MOVS     r1,#1
        0x00002dc6:    0249        I.      LSLS     r1,r1,#9
        0x00002dc8:    4388        .C      BICS     r0,r0,r1
        0x00002dca:    1840        @.      ADDS     r0,r0,r1
        0x00002dcc:    2105        .!      MOVS     r1,#5
        0x00002dce:    0709        ..      LSLS     r1,r1,#28
        0x00002dd0:    60c8        .`      STR      r0,[r1,#0xc]
        0x00002dd2:    4608        .F      MOV      r0,r1
        0x00002dd4:    68c0        .h      LDR      r0,[r0,#0xc]
        0x00002dd6:    2101        .!      MOVS     r1,#1
        0x00002dd8:    0249        I.      LSLS     r1,r1,#9
        0x00002dda:    4388        .C      BICS     r0,r0,r1
        0x00002ddc:    2105        .!      MOVS     r1,#5
        0x00002dde:    0709        ..      LSLS     r1,r1,#28
        0x00002de0:    60c8        .`      STR      r0,[r1,#0xc]
        0x00002de2:    4819        .H      LDR      r0,[pc,#100] ; [0x2e48] = 0x40120000
        0x00002de4:    6800        .h      LDR      r0,[r0,#0]
        0x00002de6:    2140        @!      MOVS     r1,#0x40
        0x00002de8:    4388        .C      BICS     r0,r0,r1
        0x00002dea:    3040        @0      ADDS     r0,r0,#0x40
        0x00002dec:    4916        .I      LDR      r1,[pc,#88] ; [0x2e48] = 0x40120000
        0x00002dee:    6008        .`      STR      r0,[r1,#0]
        0x00002df0:    4608        .F      MOV      r0,r1
        0x00002df2:    6106        .a      STR      r6,[r0,#0x10]
        0x00002df4:    e022        ".      B        0x2e3c ; DrvI2C_Open + 180
        0x00002df6:    4813        .H      LDR      r0,[pc,#76] ; [0x2e44] = 0x50000200
        0x00002df8:    6880        .h      LDR      r0,[r0,#8]
        0x00002dfa:    21ff        .!      MOVS     r1,#0xff
        0x00002dfc:    3101        .1      ADDS     r1,#1
        0x00002dfe:    4388        .C      BICS     r0,r0,r1
        0x00002e00:    1840        @.      ADDS     r0,r0,r1
        0x00002e02:    4910        .I      LDR      r1,[pc,#64] ; [0x2e44] = 0x50000200
        0x00002e04:    6088        .`      STR      r0,[r1,#8]
        0x00002e06:    2005        .       MOVS     r0,#5
        0x00002e08:    0700        ..      LSLS     r0,r0,#28
        0x00002e0a:    68c0        .h      LDR      r0,[r0,#0xc]
        0x00002e0c:    21ff        .!      MOVS     r1,#0xff
        0x00002e0e:    3101        .1      ADDS     r1,#1
        0x00002e10:    4388        .C      BICS     r0,r0,r1
        0x00002e12:    1840        @.      ADDS     r0,r0,r1
        0x00002e14:    2105        .!      MOVS     r1,#5
        0x00002e16:    0709        ..      LSLS     r1,r1,#28
        0x00002e18:    60c8        .`      STR      r0,[r1,#0xc]
        0x00002e1a:    4608        .F      MOV      r0,r1
        0x00002e1c:    68c0        .h      LDR      r0,[r0,#0xc]
        0x00002e1e:    21ff        .!      MOVS     r1,#0xff
        0x00002e20:    3101        .1      ADDS     r1,#1
        0x00002e22:    4388        .C      BICS     r0,r0,r1
        0x00002e24:    2105        .!      MOVS     r1,#5
        0x00002e26:    0709        ..      LSLS     r1,r1,#28
        0x00002e28:    60c8        .`      STR      r0,[r1,#0xc]
        0x00002e2a:    4808        .H      LDR      r0,[pc,#32] ; [0x2e4c] = 0x40020000
        0x00002e2c:    6800        .h      LDR      r0,[r0,#0]
        0x00002e2e:    2140        @!      MOVS     r1,#0x40
        0x00002e30:    4388        .C      BICS     r0,r0,r1
        0x00002e32:    3040        @0      ADDS     r0,r0,#0x40
        0x00002e34:    4905        .I      LDR      r1,[pc,#20] ; [0x2e4c] = 0x40020000
        0x00002e36:    6008        .`      STR      r0,[r1,#0]
        0x00002e38:    4608        .F      MOV      r0,r1
        0x00002e3a:    6106        .a      STR      r6,[r0,#0x10]
        0x00002e3c:    2000        .       MOVS     r0,#0
        0x00002e3e:    bdf8        ..      POP      {r3-r7,pc}
    $d
        0x00002e40:    20000000    ...     DCD    536870912
        0x00002e44:    50000200    ...P    DCD    1342177792
        0x00002e48:    40120000    ...@    DCD    1074921472
        0x00002e4c:    40020000    ...@    DCD    1073872896
    $t
    i.DrvSYS_Delay
    DrvSYS_Delay
        0x00002e50:    4908        .I      LDR      r1,[pc,#32] ; [0x2e74] = 0x20000004
        0x00002e52:    6809        .h      LDR      r1,[r1,#0]
        0x00002e54:    4341        AC      MULS     r1,r0,r1
        0x00002e56:    4a08        .J      LDR      r2,[pc,#32] ; [0x2e78] = 0xe000e000
        0x00002e58:    6151        Qa      STR      r1,[r2,#0x14]
        0x00002e5a:    2100        .!      MOVS     r1,#0
        0x00002e5c:    6191        .a      STR      r1,[r2,#0x18]
        0x00002e5e:    2105        .!      MOVS     r1,#5
        0x00002e60:    6111        .a      STR      r1,[r2,#0x10]
        0x00002e62:    bf00        ..      NOP      
        0x00002e64:    4904        .I      LDR      r1,[pc,#16] ; [0x2e78] = 0xe000e000
        0x00002e66:    6909        .i      LDR      r1,[r1,#0x10]
        0x00002e68:    2201        ."      MOVS     r2,#1
        0x00002e6a:    0412        ..      LSLS     r2,r2,#16
        0x00002e6c:    4211        .B      TST      r1,r2
        0x00002e6e:    d0f9        ..      BEQ      0x2e64 ; DrvSYS_Delay + 20
        0x00002e70:    4770        pG      BX       lr
    $d
        0x00002e72:    0000        ..      DCW    0
        0x00002e74:    20000004    ...     DCD    536870916
        0x00002e78:    e000e000    ....    DCD    3758153728
    $t
    i.DrvSYS_GetExtClockFreq
    DrvSYS_GetExtClockFreq
        0x00002e7c:    4800        .H      LDR      r0,[pc,#0] ; [0x2e80] = 0xb71b00
        0x00002e7e:    4770        pG      BX       lr
    $d
        0x00002e80:    00b71b00    ....    DCD    12000000
    $t
    i.DrvSYS_GetHCLKFreq
    DrvSYS_GetHCLKFreq
        0x00002e84:    b570        p.      PUSH     {r4-r6,lr}
        0x00002e86:    2500        .%      MOVS     r5,#0
        0x00002e88:    4815        .H      LDR      r0,[pc,#84] ; [0x2ee0] = 0x50000200
        0x00002e8a:    6900        .i      LDR      r0,[r0,#0x10]
        0x00002e8c:    0740        @.      LSLS     r0,r0,#29
        0x00002e8e:    0f40        @.      LSRS     r0,r0,#29
        0x00002e90:    d101        ..      BNE      0x2e96 ; DrvSYS_GetHCLKFreq + 18
        0x00002e92:    4d14        .M      LDR      r5,[pc,#80] ; [0x2ee4] = 0xb71b00
        0x00002e94:    e01a        ..      B        0x2ecc ; DrvSYS_GetHCLKFreq + 72
        0x00002e96:    4812        .H      LDR      r0,[pc,#72] ; [0x2ee0] = 0x50000200
        0x00002e98:    6900        .i      LDR      r0,[r0,#0x10]
        0x00002e9a:    0740        @.      LSLS     r0,r0,#29
        0x00002e9c:    0f40        @.      LSRS     r0,r0,#29
        0x00002e9e:    2801        .(      CMP      r0,#1
        0x00002ea0:    d101        ..      BNE      0x2ea6 ; DrvSYS_GetHCLKFreq + 34
        0x00002ea2:    03c5        ..      LSLS     r5,r0,#15
        0x00002ea4:    e012        ..      B        0x2ecc ; DrvSYS_GetHCLKFreq + 72
        0x00002ea6:    480e        .H      LDR      r0,[pc,#56] ; [0x2ee0] = 0x50000200
        0x00002ea8:    6900        .i      LDR      r0,[r0,#0x10]
        0x00002eaa:    0740        @.      LSLS     r0,r0,#29
        0x00002eac:    0f40        @.      LSRS     r0,r0,#29
        0x00002eae:    2802        .(      CMP      r0,#2
        0x00002eb0:    d103        ..      BNE      0x2eba ; DrvSYS_GetHCLKFreq + 54
        0x00002eb2:    f000f81d    ....    BL       DrvSYS_GetPLLClockFreq ; 0x2ef0
        0x00002eb6:    4605        .F      MOV      r5,r0
        0x00002eb8:    e008        ..      B        0x2ecc ; DrvSYS_GetHCLKFreq + 72
        0x00002eba:    4809        .H      LDR      r0,[pc,#36] ; [0x2ee0] = 0x50000200
        0x00002ebc:    6900        .i      LDR      r0,[r0,#0x10]
        0x00002ebe:    0740        @.      LSLS     r0,r0,#29
        0x00002ec0:    0f40        @.      LSRS     r0,r0,#29
        0x00002ec2:    2803        .(      CMP      r0,#3
        0x00002ec4:    d101        ..      BNE      0x2eca ; DrvSYS_GetHCLKFreq + 70
        0x00002ec6:    4d08        .M      LDR      r5,[pc,#32] ; [0x2ee8] = 0x2710
        0x00002ec8:    e000        ..      B        0x2ecc ; DrvSYS_GetHCLKFreq + 72
        0x00002eca:    4d08        .M      LDR      r5,[pc,#32] ; [0x2eec] = 0x1518000
        0x00002ecc:    4804        .H      LDR      r0,[pc,#16] ; [0x2ee0] = 0x50000200
        0x00002ece:    6980        .i      LDR      r0,[r0,#0x18]
        0x00002ed0:    0700        ..      LSLS     r0,r0,#28
        0x00002ed2:    0f00        ..      LSRS     r0,r0,#28
        0x00002ed4:    1c44        D.      ADDS     r4,r0,#1
        0x00002ed6:    4621        !F      MOV      r1,r4
        0x00002ed8:    4628        (F      MOV      r0,r5
        0x00002eda:    f7fdfa83    ....    BL       __aeabi_uidiv ; 0x3e4
        0x00002ede:    bd70        p.      POP      {r4-r6,pc}
    $d
        0x00002ee0:    50000200    ...P    DCD    1342177792
        0x00002ee4:    00b71b00    ....    DCD    12000000
        0x00002ee8:    00002710    .'..    DCD    10000
        0x00002eec:    01518000    ..Q.    DCD    22118400
    $t
    i.DrvSYS_GetPLLClockFreq
    DrvSYS_GetPLLClockFreq
        0x00002ef0:    b57f        ..      PUSH     {r0-r6,lr}
        0x00002ef2:    2500        .%      MOVS     r5,#0
        0x00002ef4:    4b18        .K      LDR      r3,[pc,#96] ; [0x2f58] = 0x6074
        0x00002ef6:    cb0f        ..      LDM      r3,{r0-r3}
        0x00002ef8:    466c        lF      MOV      r4,sp
        0x00002efa:    c40f        ..      STM      r4!,{r0-r3}
        0x00002efc:    4817        .H      LDR      r0,[pc,#92] ; [0x2f5c] = 0x50000200
        0x00002efe:    6a00        .j      LDR      r0,[r0,#0x20]
        0x00002f00:    0300        ..      LSLS     r0,r0,#12
        0x00002f02:    0fc0        ..      LSRS     r0,r0,#31
        0x00002f04:    2801        .(      CMP      r0,#1
        0x00002f06:    d101        ..      BNE      0x2f0c ; DrvSYS_GetPLLClockFreq + 28
        0x00002f08:    4c15        .L      LDR      r4,[pc,#84] ; [0x2f60] = 0x1518000
        0x00002f0a:    e000        ..      B        0x2f0e ; DrvSYS_GetPLLClockFreq + 30
        0x00002f0c:    4c15        .L      LDR      r4,[pc,#84] ; [0x2f64] = 0xb71b00
        0x00002f0e:    4813        .H      LDR      r0,[pc,#76] ; [0x2f5c] = 0x50000200
        0x00002f10:    6a00        .j      LDR      r0,[r0,#0x20]
        0x00002f12:    03c0        ..      LSLS     r0,r0,#15
        0x00002f14:    0fc0        ..      LSRS     r0,r0,#31
        0x00002f16:    2801        .(      CMP      r0,#1
        0x00002f18:    d101        ..      BNE      0x2f1e ; DrvSYS_GetPLLClockFreq + 46
        0x00002f1a:    2500        .%      MOVS     r5,#0
        0x00002f1c:    e019        ..      B        0x2f52 ; DrvSYS_GetPLLClockFreq + 98
        0x00002f1e:    4a0f        .J      LDR      r2,[pc,#60] ; [0x2f5c] = 0x50000200
        0x00002f20:    6a12        .j      LDR      r2,[r2,#0x20]
        0x00002f22:    0492        ..      LSLS     r2,r2,#18
        0x00002f24:    0ed2        ..      LSRS     r2,r2,#27
        0x00002f26:    1c91        ..      ADDS     r1,r2,#2
        0x00002f28:    4a0c        .J      LDR      r2,[pc,#48] ; [0x2f5c] = 0x50000200
        0x00002f2a:    6a12        .j      LDR      r2,[r2,#0x20]
        0x00002f2c:    05d2        ..      LSLS     r2,r2,#23
        0x00002f2e:    0dd2        ..      LSRS     r2,r2,#23
        0x00002f30:    1c92        ..      ADDS     r2,r2,#2
        0x00002f32:    4362        bC      MULS     r2,r4,r2
        0x00002f34:    4610        .F      MOV      r0,r2
        0x00002f36:    f7fdfa55    ..U.    BL       __aeabi_uidiv ; 0x3e4
        0x00002f3a:    4606        .F      MOV      r6,r0
        0x00002f3c:    4807        .H      LDR      r0,[pc,#28] ; [0x2f5c] = 0x50000200
        0x00002f3e:    6a00        .j      LDR      r0,[r0,#0x20]
        0x00002f40:    0400        ..      LSLS     r0,r0,#16
        0x00002f42:    0f80        ..      LSRS     r0,r0,#30
        0x00002f44:    0080        ..      LSLS     r0,r0,#2
        0x00002f46:    466a        jF      MOV      r2,sp
        0x00002f48:    5811        .X      LDR      r1,[r2,r0]
        0x00002f4a:    4630        0F      MOV      r0,r6
        0x00002f4c:    f7fdfa4a    ..J.    BL       __aeabi_uidiv ; 0x3e4
        0x00002f50:    4605        .F      MOV      r5,r0
        0x00002f52:    4628        (F      MOV      r0,r5
        0x00002f54:    b004        ..      ADD      sp,sp,#0x10
        0x00002f56:    bd70        p.      POP      {r4-r6,pc}
    $d
        0x00002f58:    00006074    t`..    DCD    24692
        0x00002f5c:    50000200    ...P    DCD    1342177792
        0x00002f60:    01518000    ..Q.    DCD    22118400
        0x00002f64:    00b71b00    ....    DCD    12000000
    $t
    i.DrvSYS_GetPLLContent
    DrvSYS_GetPLLContent
        0x00002f68:    b5f3        ..      PUSH     {r0,r1,r4-r7,lr}
        0x00002f6a:    b083        ..      SUB      sp,sp,#0xc
        0x00002f6c:    460c        .F      MOV      r4,r1
        0x00002f6e:    4827        'H      LDR      r0,[pc,#156] ; [0x300c] = 0xb71b00
        0x00002f70:    9002        ..      STR      r0,[sp,#8]
        0x00002f72:    2000        .       MOVS     r0,#0
        0x00002f74:    9001        ..      STR      r0,[sp,#4]
        0x00002f76:    4826        &H      LDR      r0,[pc,#152] ; [0x3010] = 0xbebc200
        0x00002f78:    4284        .B      CMP      r4,r0
        0x00002f7a:    d804        ..      BHI      0x2f86 ; DrvSYS_GetPLLContent + 30
        0x00002f7c:    1040        @.      ASRS     r0,r0,#1
        0x00002f7e:    4284        .B      CMP      r4,r0
        0x00002f80:    d901        ..      BLS      0x2f86 ; DrvSYS_GetPLLContent + 30
        0x00002f82:    2700        .'      MOVS     r7,#0
        0x00002f84:    e014        ..      B        0x2fb0 ; DrvSYS_GetPLLContent + 72
        0x00002f86:    4823        #H      LDR      r0,[pc,#140] ; [0x3014] = 0x5f5e100
        0x00002f88:    4284        .B      CMP      r4,r0
        0x00002f8a:    d805        ..      BHI      0x2f98 ; DrvSYS_GetPLLContent + 48
        0x00002f8c:    1040        @.      ASRS     r0,r0,#1
        0x00002f8e:    4284        .B      CMP      r4,r0
        0x00002f90:    d902        ..      BLS      0x2f98 ; DrvSYS_GetPLLContent + 48
        0x00002f92:    2701        .'      MOVS     r7,#1
        0x00002f94:    0064        d.      LSLS     r4,r4,#1
        0x00002f96:    e00b        ..      B        0x2fb0 ; DrvSYS_GetPLLContent + 72
        0x00002f98:    481f        .H      LDR      r0,[pc,#124] ; [0x3018] = 0x2faf080
        0x00002f9a:    4284        .B      CMP      r4,r0
        0x00002f9c:    d805        ..      BHI      0x2faa ; DrvSYS_GetPLLContent + 66
        0x00002f9e:    1040        @.      ASRS     r0,r0,#1
        0x00002fa0:    4284        .B      CMP      r4,r0
        0x00002fa2:    d302        ..      BCC      0x2faa ; DrvSYS_GetPLLContent + 66
        0x00002fa4:    2703        .'      MOVS     r7,#3
        0x00002fa6:    00a4        ..      LSLS     r4,r4,#2
        0x00002fa8:    e002        ..      B        0x2fb0 ; DrvSYS_GetPLLContent + 72
        0x00002faa:    481c        .H      LDR      r0,[pc,#112] ; [0x301c] = 0xc22e
        0x00002fac:    b005        ..      ADD      sp,sp,#0x14
        0x00002fae:    bdf0        ..      POP      {r4-r7,pc}
        0x00002fb0:    9803        ..      LDR      r0,[sp,#0xc]
        0x00002fb2:    2800        .(      CMP      r0,#0
        0x00002fb4:    d102        ..      BNE      0x2fbc ; DrvSYS_GetPLLContent + 84
        0x00002fb6:    4815        .H      LDR      r0,[pc,#84] ; [0x300c] = 0xb71b00
        0x00002fb8:    9002        ..      STR      r0,[sp,#8]
        0x00002fba:    e004        ..      B        0x2fc6 ; DrvSYS_GetPLLContent + 94
        0x00002fbc:    9803        ..      LDR      r0,[sp,#0xc]
        0x00002fbe:    2801        .(      CMP      r0,#1
        0x00002fc0:    d101        ..      BNE      0x2fc6 ; DrvSYS_GetPLLContent + 94
        0x00002fc2:    4817        .H      LDR      r0,[pc,#92] ; [0x3020] = 0x1518000
        0x00002fc4:    9002        ..      STR      r0,[sp,#8]
        0x00002fc6:    4917        .I      LDR      r1,[pc,#92] ; [0x3024] = 0xf4240
        0x00002fc8:    4620         F      MOV      r0,r4
        0x00002fca:    f7fdfa0b    ....    BL       __aeabi_uidiv ; 0x3e4
        0x00002fce:    4606        .F      MOV      r6,r0
        0x00002fd0:    4914        .I      LDR      r1,[pc,#80] ; [0x3024] = 0xf4240
        0x00002fd2:    9802        ..      LDR      r0,[sp,#8]
        0x00002fd4:    f7fdfa06    ....    BL       __aeabi_uidiv ; 0x3e4
        0x00002fd8:    4605        .F      MOV      r5,r0
        0x00002fda:    e00c        ..      B        0x2ff6 ; DrvSYS_GetPLLContent + 142
        0x00002fdc:    07e8        ..      LSLS     r0,r5,#31
        0x00002fde:    0fc0        ..      LSRS     r0,r0,#31
        0x00002fe0:    d106        ..      BNE      0x2ff0 ; DrvSYS_GetPLLContent + 136
        0x00002fe2:    07f0        ..      LSLS     r0,r6,#31
        0x00002fe4:    0fc0        ..      LSRS     r0,r0,#31
        0x00002fe6:    d103        ..      BNE      0x2ff0 ; DrvSYS_GetPLLContent + 136
        0x00002fe8:    2d02        .-      CMP      r5,#2
        0x00002fea:    d001        ..      BEQ      0x2ff0 ; DrvSYS_GetPLLContent + 136
        0x00002fec:    2e02        ..      CMP      r6,#2
        0x00002fee:    d100        ..      BNE      0x2ff2 ; DrvSYS_GetPLLContent + 138
        0x00002ff0:    e002        ..      B        0x2ff8 ; DrvSYS_GetPLLContent + 144
        0x00002ff2:    086d        m.      LSRS     r5,r5,#1
        0x00002ff4:    0876        v.      LSRS     r6,r6,#1
        0x00002ff6:    e7f1        ..      B        0x2fdc ; DrvSYS_GetPLLContent + 116
        0x00002ff8:    bf00        ..      NOP      
        0x00002ffa:    03b8        ..      LSLS     r0,r7,#14
        0x00002ffc:    1ea9        ..      SUBS     r1,r5,#2
        0x00002ffe:    0249        I.      LSLS     r1,r1,#9
        0x00003000:    4308        .C      ORRS     r0,r0,r1
        0x00003002:    1eb1        ..      SUBS     r1,r6,#2
        0x00003004:    4308        .C      ORRS     r0,r0,r1
        0x00003006:    9001        ..      STR      r0,[sp,#4]
        0x00003008:    9801        ..      LDR      r0,[sp,#4]
        0x0000300a:    e7cf        ..      B        0x2fac ; DrvSYS_GetPLLContent + 68
    $d
        0x0000300c:    00b71b00    ....    DCD    12000000
        0x00003010:    0bebc200    ....    DCD    200000000
        0x00003014:    05f5e100    ....    DCD    100000000
        0x00003018:    02faf080    ....    DCD    50000000
        0x0000301c:    0000c22e    ....    DCD    49710
        0x00003020:    01518000    ..Q.    DCD    22118400
        0x00003024:    000f4240    @B..    DCD    1000000
    $t
    i.DrvSYS_IsProtectedRegLocked
    DrvSYS_IsProtectedRegLocked
        0x00003028:    4802        .H      LDR      r0,[pc,#8] ; [0x3034] = 0x50000100
        0x0000302a:    6800        .h      LDR      r0,[r0,#0]
        0x0000302c:    07c0        ..      LSLS     r0,r0,#31
        0x0000302e:    0fc0        ..      LSRS     r0,r0,#31
        0x00003030:    4770        pG      BX       lr
    $d
        0x00003032:    0000        ..      DCW    0
        0x00003034:    50000100    ...P    DCD    1342177536
    $t
    i.DrvSYS_Open
    DrvSYS_Open
        0x00003038:    b5f8        ..      PUSH     {r3-r7,lr}
        0x0000303a:    4605        .F      MOV      r5,r0
        0x0000303c:    2600        .&      MOVS     r6,#0
        0x0000303e:    4825        %H      LDR      r0,[pc,#148] ; [0x30d4] = 0x2faf080
        0x00003040:    4285        .B      CMP      r5,r0
        0x00003042:    d802        ..      BHI      0x304a ; DrvSYS_Open + 18
        0x00003044:    1040        @.      ASRS     r0,r0,#1
        0x00003046:    4285        .B      CMP      r5,r0
        0x00003048:    d201        ..      BCS      0x304e ; DrvSYS_Open + 22
        0x0000304a:    4823        #H      LDR      r0,[pc,#140] ; [0x30d8] = 0xffff9606
        0x0000304c:    bdf8        ..      POP      {r3-r7,pc}
        0x0000304e:    f7ffffeb    ....    BL       DrvSYS_IsProtectedRegLocked ; 0x3028
        0x00003052:    2800        .(      CMP      r0,#0
        0x00003054:    d102        ..      BNE      0x305c ; DrvSYS_Open + 36
        0x00003056:    4820         H      LDR      r0,[pc,#128] ; [0x30d8] = 0xffff9606
        0x00003058:    1c40        @.      ADDS     r0,r0,#1
        0x0000305a:    e7f7        ..      B        0x304c ; DrvSYS_Open + 20
        0x0000305c:    481f        .H      LDR      r0,[pc,#124] ; [0x30dc] = 0x50000200
        0x0000305e:    6a00        .j      LDR      r0,[r0,#0x20]
        0x00003060:    0300        ..      LSLS     r0,r0,#12
        0x00003062:    0fc0        ..      LSRS     r0,r0,#31
        0x00003064:    d108        ..      BNE      0x3078 ; DrvSYS_Open + 64
        0x00003066:    481d        .H      LDR      r0,[pc,#116] ; [0x30dc] = 0x50000200
        0x00003068:    6800        .h      LDR      r0,[r0,#0]
        0x0000306a:    0840        @.      LSRS     r0,r0,#1
        0x0000306c:    0040        @.      LSLS     r0,r0,#1
        0x0000306e:    1c40        @.      ADDS     r0,r0,#1
        0x00003070:    491a        .I      LDR      r1,[pc,#104] ; [0x30dc] = 0x50000200
        0x00003072:    6008        .`      STR      r0,[r1,#0]
        0x00003074:    2600        .&      MOVS     r6,#0
        0x00003076:    e007        ..      B        0x3088 ; DrvSYS_Open + 80
        0x00003078:    4818        .H      LDR      r0,[pc,#96] ; [0x30dc] = 0x50000200
        0x0000307a:    6800        .h      LDR      r0,[r0,#0]
        0x0000307c:    2104        .!      MOVS     r1,#4
        0x0000307e:    4388        .C      BICS     r0,r0,r1
        0x00003080:    1d00        ..      ADDS     r0,r0,#4
        0x00003082:    4916        .I      LDR      r1,[pc,#88] ; [0x30dc] = 0x50000200
        0x00003084:    6008        .`      STR      r0,[r1,#0]
        0x00003086:    2601        .&      MOVS     r6,#1
        0x00003088:    4629        )F      MOV      r1,r5
        0x0000308a:    4630        0F      MOV      r0,r6
        0x0000308c:    f7ffff6c    ..l.    BL       DrvSYS_GetPLLContent ; 0x2f68
        0x00003090:    4607        .F      MOV      r7,r0
        0x00003092:    2400        .$      MOVS     r4,#0
        0x00003094:    e000        ..      B        0x3098 ; DrvSYS_Open + 96
        0x00003096:    1c64        d.      ADDS     r4,r4,#1
        0x00003098:    4811        .H      LDR      r0,[pc,#68] ; [0x30e0] = 0x2710
        0x0000309a:    4284        .B      CMP      r4,r0
        0x0000309c:    d3fb        ..      BCC      0x3096 ; DrvSYS_Open + 94
        0x0000309e:    4638        8F      MOV      r0,r7
        0x000030a0:    f000f87c    ..|.    BL       DrvSYS_SetPLLContent ; 0x319c
        0x000030a4:    480d        .H      LDR      r0,[pc,#52] ; [0x30dc] = 0x50000200
        0x000030a6:    6a00        .j      LDR      r0,[r0,#0x20]
        0x000030a8:    2101        .!      MOVS     r1,#1
        0x000030aa:    0489        ..      LSLS     r1,r1,#18
        0x000030ac:    4388        .C      BICS     r0,r0,r1
        0x000030ae:    490b        .I      LDR      r1,[pc,#44] ; [0x30dc] = 0x50000200
        0x000030b0:    6208        .b      STR      r0,[r1,#0x20]
        0x000030b2:    4608        .F      MOV      r0,r1
        0x000030b4:    6a00        .j      LDR      r0,[r0,#0x20]
        0x000030b6:    01c9        ..      LSLS     r1,r1,#7
        0x000030b8:    4388        .C      BICS     r0,r0,r1
        0x000030ba:    4908        .I      LDR      r1,[pc,#32] ; [0x30dc] = 0x50000200
        0x000030bc:    6208        .b      STR      r0,[r1,#0x20]
        0x000030be:    2400        .$      MOVS     r4,#0
        0x000030c0:    e000        ..      B        0x30c4 ; DrvSYS_Open + 140
        0x000030c2:    1c64        d.      ADDS     r4,r4,#1
        0x000030c4:    4806        .H      LDR      r0,[pc,#24] ; [0x30e0] = 0x2710
        0x000030c6:    4284        .B      CMP      r4,r0
        0x000030c8:    d3fb        ..      BCC      0x30c2 ; DrvSYS_Open + 138
        0x000030ca:    2002        .       MOVS     r0,#2
        0x000030cc:    f000f80a    ....    BL       DrvSYS_SelectHCLKSource ; 0x30e4
        0x000030d0:    2000        .       MOVS     r0,#0
        0x000030d2:    e7bb        ..      B        0x304c ; DrvSYS_Open + 20
    $d
        0x000030d4:    02faf080    ....    DCD    50000000
        0x000030d8:    ffff9606    ....    DCD    4294940166
        0x000030dc:    50000200    ...P    DCD    1342177792
        0x000030e0:    00002710    .'..    DCD    10000
    $t
    i.DrvSYS_SelectHCLKSource
    DrvSYS_SelectHCLKSource
        0x000030e4:    b510        ..      PUSH     {r4,lr}
        0x000030e6:    4604        .F      MOV      r4,r0
        0x000030e8:    2c07        .,      CMP      r4,#7
        0x000030ea:    dc03        ..      BGT      0x30f4 ; DrvSYS_SelectHCLKSource + 16
        0x000030ec:    2c03        .,      CMP      r4,#3
        0x000030ee:    dd03        ..      BLE      0x30f8 ; DrvSYS_SelectHCLKSource + 20
        0x000030f0:    2c07        .,      CMP      r4,#7
        0x000030f2:    da01        ..      BGE      0x30f8 ; DrvSYS_SelectHCLKSource + 20
        0x000030f4:    4807        .H      LDR      r0,[pc,#28] ; [0x3114] = 0xffff9603
        0x000030f6:    bd10        ..      POP      {r4,pc}
        0x000030f8:    4807        .H      LDR      r0,[pc,#28] ; [0x3118] = 0x50000200
        0x000030fa:    6900        .i      LDR      r0,[r0,#0x10]
        0x000030fc:    08c0        ..      LSRS     r0,r0,#3
        0x000030fe:    00c0        ..      LSLS     r0,r0,#3
        0x00003100:    0761        a.      LSLS     r1,r4,#29
        0x00003102:    0f49        I.      LSRS     r1,r1,#29
        0x00003104:    4308        .C      ORRS     r0,r0,r1
        0x00003106:    4904        .I      LDR      r1,[pc,#16] ; [0x3118] = 0x50000200
        0x00003108:    6108        .a      STR      r0,[r1,#0x10]
        0x0000310a:    f000fe31    ..1.    BL       SystemCoreClockUpdate ; 0x3d70
        0x0000310e:    2000        .       MOVS     r0,#0
        0x00003110:    e7f1        ..      B        0x30f6 ; DrvSYS_SelectHCLKSource + 18
    $d
        0x00003112:    0000        ..      DCW    0
        0x00003114:    ffff9603    ....    DCD    4294940163
        0x00003118:    50000200    ...P    DCD    1342177792
    $t
    i.DrvSYS_SetOscCtrl
    DrvSYS_SetOscCtrl
        0x0000311c:    b510        ..      PUSH     {r4,lr}
        0x0000311e:    4602        .F      MOV      r2,r0
        0x00003120:    2a00        .*      CMP      r2,#0
        0x00003122:    d006        ..      BEQ      0x3132 ; DrvSYS_SetOscCtrl + 22
        0x00003124:    2a01        .*      CMP      r2,#1
        0x00003126:    d00e        ..      BEQ      0x3146 ; DrvSYS_SetOscCtrl + 42
        0x00003128:    2a02        .*      CMP      r2,#2
        0x0000312a:    d017        ..      BEQ      0x315c ; DrvSYS_SetOscCtrl + 64
        0x0000312c:    2a03        .*      CMP      r2,#3
        0x0000312e:    d12b        +.      BNE      0x3188 ; DrvSYS_SetOscCtrl + 108
        0x00003130:    e01f        ..      B        0x3172 ; DrvSYS_SetOscCtrl + 86
        0x00003132:    4818        .H      LDR      r0,[pc,#96] ; [0x3194] = 0x50000200
        0x00003134:    6800        .h      LDR      r0,[r0,#0]
        0x00003136:    0840        @.      LSRS     r0,r0,#1
        0x00003138:    0040        @.      LSLS     r0,r0,#1
        0x0000313a:    07cb        ..      LSLS     r3,r1,#31
        0x0000313c:    0fdb        ..      LSRS     r3,r3,#31
        0x0000313e:    4318        .C      ORRS     r0,r0,r3
        0x00003140:    4b14        .K      LDR      r3,[pc,#80] ; [0x3194] = 0x50000200
        0x00003142:    6018        .`      STR      r0,[r3,#0]
        0x00003144:    e022        ".      B        0x318c ; DrvSYS_SetOscCtrl + 112
        0x00003146:    4813        .H      LDR      r0,[pc,#76] ; [0x3194] = 0x50000200
        0x00003148:    6800        .h      LDR      r0,[r0,#0]
        0x0000314a:    2302        .#      MOVS     r3,#2
        0x0000314c:    4398        .C      BICS     r0,r0,r3
        0x0000314e:    004b        K.      LSLS     r3,r1,#1
        0x00003150:    2402        .$      MOVS     r4,#2
        0x00003152:    4023        #@      ANDS     r3,r3,r4
        0x00003154:    4318        .C      ORRS     r0,r0,r3
        0x00003156:    4b0f        .K      LDR      r3,[pc,#60] ; [0x3194] = 0x50000200
        0x00003158:    6018        .`      STR      r0,[r3,#0]
        0x0000315a:    e017        ..      B        0x318c ; DrvSYS_SetOscCtrl + 112
        0x0000315c:    480d        .H      LDR      r0,[pc,#52] ; [0x3194] = 0x50000200
        0x0000315e:    6800        .h      LDR      r0,[r0,#0]
        0x00003160:    2304        .#      MOVS     r3,#4
        0x00003162:    4398        .C      BICS     r0,r0,r3
        0x00003164:    008b        ..      LSLS     r3,r1,#2
        0x00003166:    2404        .$      MOVS     r4,#4
        0x00003168:    4023        #@      ANDS     r3,r3,r4
        0x0000316a:    4318        .C      ORRS     r0,r0,r3
        0x0000316c:    4b09        .K      LDR      r3,[pc,#36] ; [0x3194] = 0x50000200
        0x0000316e:    6018        .`      STR      r0,[r3,#0]
        0x00003170:    e00c        ..      B        0x318c ; DrvSYS_SetOscCtrl + 112
        0x00003172:    4808        .H      LDR      r0,[pc,#32] ; [0x3194] = 0x50000200
        0x00003174:    6800        .h      LDR      r0,[r0,#0]
        0x00003176:    2308        .#      MOVS     r3,#8
        0x00003178:    4398        .C      BICS     r0,r0,r3
        0x0000317a:    00cb        ..      LSLS     r3,r1,#3
        0x0000317c:    2408        .$      MOVS     r4,#8
        0x0000317e:    4023        #@      ANDS     r3,r3,r4
        0x00003180:    4318        .C      ORRS     r0,r0,r3
        0x00003182:    4b04        .K      LDR      r3,[pc,#16] ; [0x3194] = 0x50000200
        0x00003184:    6018        .`      STR      r0,[r3,#0]
        0x00003186:    e001        ..      B        0x318c ; DrvSYS_SetOscCtrl + 112
        0x00003188:    4803        .H      LDR      r0,[pc,#12] ; [0x3198] = 0xffff9603
        0x0000318a:    bd10        ..      POP      {r4,pc}
        0x0000318c:    bf00        ..      NOP      
        0x0000318e:    2000        .       MOVS     r0,#0
        0x00003190:    e7fb        ..      B        0x318a ; DrvSYS_SetOscCtrl + 110
    $d
        0x00003192:    0000        ..      DCW    0
        0x00003194:    50000200    ...P    DCD    1342177792
        0x00003198:    ffff9603    ....    DCD    4294940163
    $t
    i.DrvSYS_SetPLLContent
    DrvSYS_SetPLLContent
        0x0000319c:    4911        .I      LDR      r1,[pc,#68] ; [0x31e4] = 0x50000200
        0x0000319e:    6a09        .j      LDR      r1,[r1,#0x20]
        0x000031a0:    0a49        I.      LSRS     r1,r1,#9
        0x000031a2:    0249        I.      LSLS     r1,r1,#9
        0x000031a4:    05c2        ..      LSLS     r2,r0,#23
        0x000031a6:    0dd2        ..      LSRS     r2,r2,#23
        0x000031a8:    4311        .C      ORRS     r1,r1,r2
        0x000031aa:    4a0e        .J      LDR      r2,[pc,#56] ; [0x31e4] = 0x50000200
        0x000031ac:    6211        .b      STR      r1,[r2,#0x20]
        0x000031ae:    4611        .F      MOV      r1,r2
        0x000031b0:    6a09        .j      LDR      r1,[r1,#0x20]
        0x000031b2:    221f        ."      MOVS     r2,#0x1f
        0x000031b4:    0252        R.      LSLS     r2,r2,#9
        0x000031b6:    4391        .C      BICS     r1,r1,r2
        0x000031b8:    0a42        B.      LSRS     r2,r0,#9
        0x000031ba:    0252        R.      LSLS     r2,r2,#9
        0x000031bc:    231f        .#      MOVS     r3,#0x1f
        0x000031be:    025b        [.      LSLS     r3,r3,#9
        0x000031c0:    401a        .@      ANDS     r2,r2,r3
        0x000031c2:    4311        .C      ORRS     r1,r1,r2
        0x000031c4:    4a07        .J      LDR      r2,[pc,#28] ; [0x31e4] = 0x50000200
        0x000031c6:    6211        .b      STR      r1,[r2,#0x20]
        0x000031c8:    4611        .F      MOV      r1,r2
        0x000031ca:    6a09        .j      LDR      r1,[r1,#0x20]
        0x000031cc:    2203        ."      MOVS     r2,#3
        0x000031ce:    0392        ..      LSLS     r2,r2,#14
        0x000031d0:    4391        .C      BICS     r1,r1,r2
        0x000031d2:    0b82        ..      LSRS     r2,r0,#14
        0x000031d4:    0392        ..      LSLS     r2,r2,#14
        0x000031d6:    2303        .#      MOVS     r3,#3
        0x000031d8:    039b        ..      LSLS     r3,r3,#14
        0x000031da:    401a        .@      ANDS     r2,r2,r3
        0x000031dc:    4311        .C      ORRS     r1,r1,r2
        0x000031de:    4a01        .J      LDR      r2,[pc,#4] ; [0x31e4] = 0x50000200
        0x000031e0:    6211        .b      STR      r1,[r2,#0x20]
        0x000031e2:    4770        pG      BX       lr
    $d
        0x000031e4:    50000200    ...P    DCD    1342177792
    $t
    i.DrvUART_EnableInt
    DrvUART_EnableInt
        0x000031e8:    b5f8        ..      PUSH     {r3-r7,lr}
        0x000031ea:    4606        .F      MOV      r6,r0
        0x000031ec:    460d        .F      MOV      r5,r1
        0x000031ee:    4617        .F      MOV      r7,r2
        0x000031f0:    4838        8H      LDR      r0,[pc,#224] ; [0x32d4] = 0x40050000
        0x000031f2:    1834        4.      ADDS     r4,r6,r0
        0x000031f4:    6860        `h      LDR      r0,[r4,#4]
        0x000031f6:    0840        @.      LSRS     r0,r0,#1
        0x000031f8:    0040        @.      LSLS     r0,r0,#1
        0x000031fa:    07e9        ..      LSLS     r1,r5,#31
        0x000031fc:    0fc9        ..      LSRS     r1,r1,#31
        0x000031fe:    4308        .C      ORRS     r0,r0,r1
        0x00003200:    6060        ``      STR      r0,[r4,#4]
        0x00003202:    6860        `h      LDR      r0,[r4,#4]
        0x00003204:    2102        .!      MOVS     r1,#2
        0x00003206:    4388        .C      BICS     r0,r0,r1
        0x00003208:    4029        )@      ANDS     r1,r1,r5
        0x0000320a:    0849        I.      LSRS     r1,r1,#1
        0x0000320c:    0049        I.      LSLS     r1,r1,#1
        0x0000320e:    2202        ."      MOVS     r2,#2
        0x00003210:    4011        .@      ANDS     r1,r1,r2
        0x00003212:    4308        .C      ORRS     r0,r0,r1
        0x00003214:    6060        ``      STR      r0,[r4,#4]
        0x00003216:    6860        `h      LDR      r0,[r4,#4]
        0x00003218:    2104        .!      MOVS     r1,#4
        0x0000321a:    4388        .C      BICS     r0,r0,r1
        0x0000321c:    4029        )@      ANDS     r1,r1,r5
        0x0000321e:    0889        ..      LSRS     r1,r1,#2
        0x00003220:    0089        ..      LSLS     r1,r1,#2
        0x00003222:    2204        ."      MOVS     r2,#4
        0x00003224:    4011        .@      ANDS     r1,r1,r2
        0x00003226:    4308        .C      ORRS     r0,r0,r1
        0x00003228:    6060        ``      STR      r0,[r4,#4]
        0x0000322a:    6860        `h      LDR      r0,[r4,#4]
        0x0000322c:    2108        .!      MOVS     r1,#8
        0x0000322e:    4388        .C      BICS     r0,r0,r1
        0x00003230:    4029        )@      ANDS     r1,r1,r5
        0x00003232:    08c9        ..      LSRS     r1,r1,#3
        0x00003234:    00c9        ..      LSLS     r1,r1,#3
        0x00003236:    2208        ."      MOVS     r2,#8
        0x00003238:    4011        .@      ANDS     r1,r1,r2
        0x0000323a:    4308        .C      ORRS     r0,r0,r1
        0x0000323c:    6060        ``      STR      r0,[r4,#4]
        0x0000323e:    6860        `h      LDR      r0,[r4,#4]
        0x00003240:    0211        ..      LSLS     r1,r2,#8
        0x00003242:    4388        .C      BICS     r0,r0,r1
        0x00003244:    2110        .!      MOVS     r1,#0x10
        0x00003246:    4029        )@      ANDS     r1,r1,r5
        0x00003248:    0909        ..      LSRS     r1,r1,#4
        0x0000324a:    02c9        ..      LSLS     r1,r1,#11
        0x0000324c:    0212        ..      LSLS     r2,r2,#8
        0x0000324e:    4011        .@      ANDS     r1,r1,r2
        0x00003250:    4308        .C      ORRS     r0,r0,r1
        0x00003252:    6060        ``      STR      r0,[r4,#4]
        0x00003254:    6860        `h      LDR      r0,[r4,#4]
        0x00003256:    2110        .!      MOVS     r1,#0x10
        0x00003258:    4388        .C      BICS     r0,r0,r1
        0x0000325a:    4029        )@      ANDS     r1,r1,r5
        0x0000325c:    0909        ..      LSRS     r1,r1,#4
        0x0000325e:    0109        ..      LSLS     r1,r1,#4
        0x00003260:    2210        ."      MOVS     r2,#0x10
        0x00003262:    4011        .@      ANDS     r1,r1,r2
        0x00003264:    4308        .C      ORRS     r0,r0,r1
        0x00003266:    6060        ``      STR      r0,[r4,#4]
        0x00003268:    6860        `h      LDR      r0,[r4,#4]
        0x0000326a:    2120         !      MOVS     r1,#0x20
        0x0000326c:    4388        .C      BICS     r0,r0,r1
        0x0000326e:    4029        )@      ANDS     r1,r1,r5
        0x00003270:    0949        I.      LSRS     r1,r1,#5
        0x00003272:    0149        I.      LSLS     r1,r1,#5
        0x00003274:    2220         "      MOVS     r2,#0x20
        0x00003276:    4011        .@      ANDS     r1,r1,r2
        0x00003278:    4308        .C      ORRS     r0,r0,r1
        0x0000327a:    6060        ``      STR      r0,[r4,#4]
        0x0000327c:    6860        `h      LDR      r0,[r4,#4]
        0x0000327e:    2140        @!      MOVS     r1,#0x40
        0x00003280:    4388        .C      BICS     r0,r0,r1
        0x00003282:    4029        )@      ANDS     r1,r1,r5
        0x00003284:    0989        ..      LSRS     r1,r1,#6
        0x00003286:    0189        ..      LSLS     r1,r1,#6
        0x00003288:    2240        @"      MOVS     r2,#0x40
        0x0000328a:    4011        .@      ANDS     r1,r1,r2
        0x0000328c:    4308        .C      ORRS     r0,r0,r1
        0x0000328e:    6060        ``      STR      r0,[r4,#4]
        0x00003290:    6860        `h      LDR      r0,[r4,#4]
        0x00003292:    0091        ..      LSLS     r1,r2,#2
        0x00003294:    4388        .C      BICS     r0,r0,r1
        0x00003296:    4029        )@      ANDS     r1,r1,r5
        0x00003298:    0a09        ..      LSRS     r1,r1,#8
        0x0000329a:    0209        ..      LSLS     r1,r1,#8
        0x0000329c:    0092        ..      LSLS     r2,r2,#2
        0x0000329e:    4011        .@      ANDS     r1,r1,r2
        0x000032a0:    4308        .C      ORRS     r0,r0,r1
        0x000032a2:    6060        ``      STR      r0,[r4,#4]
        0x000032a4:    2e00        ..      CMP      r6,#0
        0x000032a6:    d105        ..      BNE      0x32b4 ; DrvUART_EnableInt + 204
        0x000032a8:    480b        .H      LDR      r0,[pc,#44] ; [0x32d8] = 0x2000069c
        0x000032aa:    6007        .`      STR      r7,[r0,#0]
        0x000032ac:    200c        .       MOVS     r0,#0xc
        0x000032ae:    f000fbc3    ....    BL       NVIC_EnableIRQ ; 0x3a38
        0x000032b2:    e00e        ..      B        0x32d2 ; DrvUART_EnableInt + 234
        0x000032b4:    2001        .       MOVS     r0,#1
        0x000032b6:    0500        ..      LSLS     r0,r0,#20
        0x000032b8:    4286        .B      CMP      r6,r0
        0x000032ba:    d105        ..      BNE      0x32c8 ; DrvUART_EnableInt + 224
        0x000032bc:    4807        .H      LDR      r0,[pc,#28] ; [0x32dc] = 0x200006a0
        0x000032be:    6007        .`      STR      r7,[r0,#0]
        0x000032c0:    200d        .       MOVS     r0,#0xd
        0x000032c2:    f000fbb9    ....    BL       NVIC_EnableIRQ ; 0x3a38
        0x000032c6:    e004        ..      B        0x32d2 ; DrvUART_EnableInt + 234
        0x000032c8:    4805        .H      LDR      r0,[pc,#20] ; [0x32e0] = 0x200006a4
        0x000032ca:    6007        .`      STR      r7,[r0,#0]
        0x000032cc:    200c        .       MOVS     r0,#0xc
        0x000032ce:    f000fbb3    ....    BL       NVIC_EnableIRQ ; 0x3a38
        0x000032d2:    bdf8        ..      POP      {r3-r7,pc}
    $d
        0x000032d4:    40050000    ...@    DCD    1074069504
        0x000032d8:    2000069c    ...     DCD    536872604
        0x000032dc:    200006a0    ...     DCD    536872608
        0x000032e0:    200006a4    ...     DCD    536872612
    $t
    i.DrvUART_Open
    DrvUART_Open
        0x000032e4:    b5f8        ..      PUSH     {r3-r7,lr}
        0x000032e6:    4606        .F      MOV      r6,r0
        0x000032e8:    460c        .F      MOV      r4,r1
        0x000032ea:    2e00        ..      CMP      r6,#0
        0x000032ec:    d009        ..      BEQ      0x3302 ; DrvUART_Open + 30
        0x000032ee:    2001        .       MOVS     r0,#1
        0x000032f0:    0500        ..      LSLS     r0,r0,#20
        0x000032f2:    4286        .B      CMP      r6,r0
        0x000032f4:    d005        ..      BEQ      0x3302 ; DrvUART_Open + 30
        0x000032f6:    2041        A       MOVS     r0,#0x41
        0x000032f8:    0380        ..      LSLS     r0,r0,#14
        0x000032fa:    4286        .B      CMP      r6,r0
        0x000032fc:    d001        ..      BEQ      0x3302 ; DrvUART_Open + 30
        0x000032fe:    488f        .H      LDR      r0,[pc,#572] ; [0x353c] = 0xffff9802
        0x00003300:    bdf8        ..      POP      {r3-r7,pc}
        0x00003302:    79a0        .y      LDRB     r0,[r4,#6]
        0x00003304:    2800        .(      CMP      r0,#0
        0x00003306:    d00e        ..      BEQ      0x3326 ; DrvUART_Open + 66
        0x00003308:    79a0        .y      LDRB     r0,[r4,#6]
        0x0000330a:    2803        .(      CMP      r0,#3
        0x0000330c:    d00b        ..      BEQ      0x3326 ; DrvUART_Open + 66
        0x0000330e:    79a0        .y      LDRB     r0,[r4,#6]
        0x00003310:    2801        .(      CMP      r0,#1
        0x00003312:    d008        ..      BEQ      0x3326 ; DrvUART_Open + 66
        0x00003314:    79a0        .y      LDRB     r0,[r4,#6]
        0x00003316:    2805        .(      CMP      r0,#5
        0x00003318:    d005        ..      BEQ      0x3326 ; DrvUART_Open + 66
        0x0000331a:    79a0        .y      LDRB     r0,[r4,#6]
        0x0000331c:    2807        .(      CMP      r0,#7
        0x0000331e:    d002        ..      BEQ      0x3326 ; DrvUART_Open + 66
        0x00003320:    4886        .H      LDR      r0,[pc,#536] ; [0x353c] = 0xffff9802
        0x00003322:    1c40        @.      ADDS     r0,r0,#1
        0x00003324:    e7ec        ..      B        0x3300 ; DrvUART_Open + 28
        0x00003326:    7920         y      LDRB     r0,[r4,#4]
        0x00003328:    2800        .(      CMP      r0,#0
        0x0000332a:    d00b        ..      BEQ      0x3344 ; DrvUART_Open + 96
        0x0000332c:    7920         y      LDRB     r0,[r4,#4]
        0x0000332e:    2801        .(      CMP      r0,#1
        0x00003330:    d008        ..      BEQ      0x3344 ; DrvUART_Open + 96
        0x00003332:    7920         y      LDRB     r0,[r4,#4]
        0x00003334:    2802        .(      CMP      r0,#2
        0x00003336:    d005        ..      BEQ      0x3344 ; DrvUART_Open + 96
        0x00003338:    7920         y      LDRB     r0,[r4,#4]
        0x0000333a:    2803        .(      CMP      r0,#3
        0x0000333c:    d002        ..      BEQ      0x3344 ; DrvUART_Open + 96
        0x0000333e:    487f        .H      LDR      r0,[pc,#508] ; [0x353c] = 0xffff9802
        0x00003340:    1c80        ..      ADDS     r0,r0,#2
        0x00003342:    e7dd        ..      B        0x3300 ; DrvUART_Open + 28
        0x00003344:    7960        `y      LDRB     r0,[r4,#5]
        0x00003346:    2800        .(      CMP      r0,#0
        0x00003348:    d008        ..      BEQ      0x335c ; DrvUART_Open + 120
        0x0000334a:    7960        `y      LDRB     r0,[r4,#5]
        0x0000334c:    2801        .(      CMP      r0,#1
        0x0000334e:    d005        ..      BEQ      0x335c ; DrvUART_Open + 120
        0x00003350:    7960        `y      LDRB     r0,[r4,#5]
        0x00003352:    2801        .(      CMP      r0,#1
        0x00003354:    d002        ..      BEQ      0x335c ; DrvUART_Open + 120
        0x00003356:    4879        yH      LDR      r0,[pc,#484] ; [0x353c] = 0xffff9802
        0x00003358:    1cc0        ..      ADDS     r0,r0,#3
        0x0000335a:    e7d1        ..      B        0x3300 ; DrvUART_Open + 28
        0x0000335c:    79e0        .y      LDRB     r0,[r4,#7]
        0x0000335e:    2800        .(      CMP      r0,#0
        0x00003360:    d014        ..      BEQ      0x338c ; DrvUART_Open + 168
        0x00003362:    79e0        .y      LDRB     r0,[r4,#7]
        0x00003364:    2801        .(      CMP      r0,#1
        0x00003366:    d011        ..      BEQ      0x338c ; DrvUART_Open + 168
        0x00003368:    79e0        .y      LDRB     r0,[r4,#7]
        0x0000336a:    2802        .(      CMP      r0,#2
        0x0000336c:    d00e        ..      BEQ      0x338c ; DrvUART_Open + 168
        0x0000336e:    79e0        .y      LDRB     r0,[r4,#7]
        0x00003370:    2803        .(      CMP      r0,#3
        0x00003372:    d00b        ..      BEQ      0x338c ; DrvUART_Open + 168
        0x00003374:    79e0        .y      LDRB     r0,[r4,#7]
        0x00003376:    2804        .(      CMP      r0,#4
        0x00003378:    d008        ..      BEQ      0x338c ; DrvUART_Open + 168
        0x0000337a:    79e0        .y      LDRB     r0,[r4,#7]
        0x0000337c:    2805        .(      CMP      r0,#5
        0x0000337e:    d005        ..      BEQ      0x338c ; DrvUART_Open + 168
        0x00003380:    79e0        .y      LDRB     r0,[r4,#7]
        0x00003382:    2806        .(      CMP      r0,#6
        0x00003384:    d002        ..      BEQ      0x338c ; DrvUART_Open + 168
        0x00003386:    486d        mH      LDR      r0,[pc,#436] ; [0x353c] = 0xffff9802
        0x00003388:    1d00        ..      ADDS     r0,r0,#4
        0x0000338a:    e7b9        ..      B        0x3300 ; DrvUART_Open + 28
        0x0000338c:    2e00        ..      CMP      r6,#0
        0x0000338e:    d11a        ..      BNE      0x33c6 ; DrvUART_Open + 226
        0x00003390:    2005        .       MOVS     r0,#5
        0x00003392:    0700        ..      LSLS     r0,r0,#28
        0x00003394:    68c0        .h      LDR      r0,[r0,#0xc]
        0x00003396:    2101        .!      MOVS     r1,#1
        0x00003398:    0409        ..      LSLS     r1,r1,#16
        0x0000339a:    4388        .C      BICS     r0,r0,r1
        0x0000339c:    1840        @.      ADDS     r0,r0,r1
        0x0000339e:    2105        .!      MOVS     r1,#5
        0x000033a0:    0709        ..      LSLS     r1,r1,#28
        0x000033a2:    60c8        .`      STR      r0,[r1,#0xc]
        0x000033a4:    4608        .F      MOV      r0,r1
        0x000033a6:    68c0        .h      LDR      r0,[r0,#0xc]
        0x000033a8:    2101        .!      MOVS     r1,#1
        0x000033aa:    0409        ..      LSLS     r1,r1,#16
        0x000033ac:    4388        .C      BICS     r0,r0,r1
        0x000033ae:    2105        .!      MOVS     r1,#5
        0x000033b0:    0709        ..      LSLS     r1,r1,#28
        0x000033b2:    60c8        .`      STR      r0,[r1,#0xc]
        0x000033b4:    4862        bH      LDR      r0,[pc,#392] ; [0x3540] = 0x50000200
        0x000033b6:    6880        .h      LDR      r0,[r0,#8]
        0x000033b8:    2101        .!      MOVS     r1,#1
        0x000033ba:    0409        ..      LSLS     r1,r1,#16
        0x000033bc:    4388        .C      BICS     r0,r0,r1
        0x000033be:    1840        @.      ADDS     r0,r0,r1
        0x000033c0:    495f        _I      LDR      r1,[pc,#380] ; [0x3540] = 0x50000200
        0x000033c2:    6088        .`      STR      r0,[r1,#8]
        0x000033c4:    e035        5.      B        0x3432 ; DrvUART_Open + 334
        0x000033c6:    2001        .       MOVS     r0,#1
        0x000033c8:    0500        ..      LSLS     r0,r0,#20
        0x000033ca:    4286        .B      CMP      r6,r0
        0x000033cc:    d117        ..      BNE      0x33fe ; DrvUART_Open + 282
        0x000033ce:    2005        .       MOVS     r0,#5
        0x000033d0:    0700        ..      LSLS     r0,r0,#28
        0x000033d2:    68c0        .h      LDR      r0,[r0,#0xc]
        0x000033d4:    10f1        ..      ASRS     r1,r6,#3
        0x000033d6:    4388        .C      BICS     r0,r0,r1
        0x000033d8:    1840        @.      ADDS     r0,r0,r1
        0x000033da:    2105        .!      MOVS     r1,#5
        0x000033dc:    0709        ..      LSLS     r1,r1,#28
        0x000033de:    60c8        .`      STR      r0,[r1,#0xc]
        0x000033e0:    4608        .F      MOV      r0,r1
        0x000033e2:    68c0        .h      LDR      r0,[r0,#0xc]
        0x000033e4:    10f1        ..      ASRS     r1,r6,#3
        0x000033e6:    4388        .C      BICS     r0,r0,r1
        0x000033e8:    2105        .!      MOVS     r1,#5
        0x000033ea:    0709        ..      LSLS     r1,r1,#28
        0x000033ec:    60c8        .`      STR      r0,[r1,#0xc]
        0x000033ee:    4854        TH      LDR      r0,[pc,#336] ; [0x3540] = 0x50000200
        0x000033f0:    6880        .h      LDR      r0,[r0,#8]
        0x000033f2:    10f1        ..      ASRS     r1,r6,#3
        0x000033f4:    4388        .C      BICS     r0,r0,r1
        0x000033f6:    1840        @.      ADDS     r0,r0,r1
        0x000033f8:    4951        QI      LDR      r1,[pc,#324] ; [0x3540] = 0x50000200
        0x000033fa:    6088        .`      STR      r0,[r1,#8]
        0x000033fc:    e019        ..      B        0x3432 ; DrvUART_Open + 334
        0x000033fe:    2005        .       MOVS     r0,#5
        0x00003400:    0700        ..      LSLS     r0,r0,#28
        0x00003402:    68c0        .h      LDR      r0,[r0,#0xc]
        0x00003404:    2101        .!      MOVS     r1,#1
        0x00003406:    0489        ..      LSLS     r1,r1,#18
        0x00003408:    4388        .C      BICS     r0,r0,r1
        0x0000340a:    1840        @.      ADDS     r0,r0,r1
        0x0000340c:    2105        .!      MOVS     r1,#5
        0x0000340e:    0709        ..      LSLS     r1,r1,#28
        0x00003410:    60c8        .`      STR      r0,[r1,#0xc]
        0x00003412:    4608        .F      MOV      r0,r1
        0x00003414:    68c0        .h      LDR      r0,[r0,#0xc]
        0x00003416:    2101        .!      MOVS     r1,#1
        0x00003418:    0489        ..      LSLS     r1,r1,#18
        0x0000341a:    4388        .C      BICS     r0,r0,r1
        0x0000341c:    2105        .!      MOVS     r1,#5
        0x0000341e:    0709        ..      LSLS     r1,r1,#28
        0x00003420:    60c8        .`      STR      r0,[r1,#0xc]
        0x00003422:    4847        GH      LDR      r0,[pc,#284] ; [0x3540] = 0x50000200
        0x00003424:    6880        .h      LDR      r0,[r0,#8]
        0x00003426:    2101        .!      MOVS     r1,#1
        0x00003428:    0489        ..      LSLS     r1,r1,#18
        0x0000342a:    4388        .C      BICS     r0,r0,r1
        0x0000342c:    1840        @.      ADDS     r0,r0,r1
        0x0000342e:    4944        DI      LDR      r1,[pc,#272] ; [0x3540] = 0x50000200
        0x00003430:    6088        .`      STR      r0,[r1,#8]
        0x00003432:    4844        DH      LDR      r0,[pc,#272] ; [0x3544] = 0x40050000
        0x00003434:    1835        5.      ADDS     r5,r6,r0
        0x00003436:    68a8        .h      LDR      r0,[r5,#8]
        0x00003438:    2104        .!      MOVS     r1,#4
        0x0000343a:    4388        .C      BICS     r0,r0,r1
        0x0000343c:    1d00        ..      ADDS     r0,r0,#4
        0x0000343e:    60a8        .`      STR      r0,[r5,#8]
        0x00003440:    68a8        .h      LDR      r0,[r5,#8]
        0x00003442:    2102        .!      MOVS     r1,#2
        0x00003444:    4388        .C      BICS     r0,r0,r1
        0x00003446:    1c80        ..      ADDS     r0,r0,#2
        0x00003448:    60a8        .`      STR      r0,[r5,#8]
        0x0000344a:    68a8        .h      LDR      r0,[r5,#8]
        0x0000344c:    21f0        .!      MOVS     r1,#0xf0
        0x0000344e:    4388        .C      BICS     r0,r0,r1
        0x00003450:    79e1        .y      LDRB     r1,[r4,#7]
        0x00003452:    0109        ..      LSLS     r1,r1,#4
        0x00003454:    22f0        ."      MOVS     r2,#0xf0
        0x00003456:    4011        .@      ANDS     r1,r1,r2
        0x00003458:    4308        .C      ORRS     r0,r0,r1
        0x0000345a:    60a8        .`      STR      r0,[r5,#8]
        0x0000345c:    68e8        .h      LDR      r0,[r5,#0xc]
        0x0000345e:    2120         !      MOVS     r1,#0x20
        0x00003460:    4388        .C      BICS     r0,r0,r1
        0x00003462:    79a1        .y      LDRB     r1,[r4,#6]
        0x00003464:    2204        ."      MOVS     r2,#4
        0x00003466:    4011        .@      ANDS     r1,r1,r2
        0x00003468:    0889        ..      LSRS     r1,r1,#2
        0x0000346a:    0149        I.      LSLS     r1,r1,#5
        0x0000346c:    2220         "      MOVS     r2,#0x20
        0x0000346e:    4011        .@      ANDS     r1,r1,r2
        0x00003470:    4308        .C      ORRS     r0,r0,r1
        0x00003472:    60e8        .`      STR      r0,[r5,#0xc]
        0x00003474:    68e8        .h      LDR      r0,[r5,#0xc]
        0x00003476:    2110        .!      MOVS     r1,#0x10
        0x00003478:    4388        .C      BICS     r0,r0,r1
        0x0000347a:    79a1        .y      LDRB     r1,[r4,#6]
        0x0000347c:    2202        ."      MOVS     r2,#2
        0x0000347e:    4011        .@      ANDS     r1,r1,r2
        0x00003480:    0849        I.      LSRS     r1,r1,#1
        0x00003482:    0109        ..      LSLS     r1,r1,#4
        0x00003484:    2210        ."      MOVS     r2,#0x10
        0x00003486:    4011        .@      ANDS     r1,r1,r2
        0x00003488:    4308        .C      ORRS     r0,r0,r1
        0x0000348a:    60e8        .`      STR      r0,[r5,#0xc]
        0x0000348c:    68e8        .h      LDR      r0,[r5,#0xc]
        0x0000348e:    2108        .!      MOVS     r1,#8
        0x00003490:    4388        .C      BICS     r0,r0,r1
        0x00003492:    79a1        .y      LDRB     r1,[r4,#6]
        0x00003494:    00c9        ..      LSLS     r1,r1,#3
        0x00003496:    2208        ."      MOVS     r2,#8
        0x00003498:    4011        .@      ANDS     r1,r1,r2
        0x0000349a:    4308        .C      ORRS     r0,r0,r1
        0x0000349c:    60e8        .`      STR      r0,[r5,#0xc]
        0x0000349e:    68e8        .h      LDR      r0,[r5,#0xc]
        0x000034a0:    0880        ..      LSRS     r0,r0,#2
        0x000034a2:    0080        ..      LSLS     r0,r0,#2
        0x000034a4:    7921        !y      LDRB     r1,[r4,#4]
        0x000034a6:    0789        ..      LSLS     r1,r1,#30
        0x000034a8:    0f89        ..      LSRS     r1,r1,#30
        0x000034aa:    4308        .C      ORRS     r0,r0,r1
        0x000034ac:    60e8        .`      STR      r0,[r5,#0xc]
        0x000034ae:    68e8        .h      LDR      r0,[r5,#0xc]
        0x000034b0:    2104        .!      MOVS     r1,#4
        0x000034b2:    4388        .C      BICS     r0,r0,r1
        0x000034b4:    7961        ay      LDRB     r1,[r4,#5]
        0x000034b6:    0089        ..      LSLS     r1,r1,#2
        0x000034b8:    2204        ."      MOVS     r2,#4
        0x000034ba:    4011        .@      ANDS     r1,r1,r2
        0x000034bc:    4308        .C      ORRS     r0,r0,r1
        0x000034be:    60e8        .`      STR      r0,[r5,#0xc]
        0x000034c0:    6a28        (j      LDR      r0,[r5,#0x20]
        0x000034c2:    0a00        ..      LSRS     r0,r0,#8
        0x000034c4:    0200        ..      LSLS     r0,r0,#8
        0x000034c6:    7a21        !z      LDRB     r1,[r4,#8]
        0x000034c8:    4308        .C      ORRS     r0,r0,r1
        0x000034ca:    6228        (b      STR      r0,[r5,#0x20]
        0x000034cc:    481c        .H      LDR      r0,[pc,#112] ; [0x3540] = 0x50000200
        0x000034ce:    6800        .h      LDR      r0,[r0,#0]
        0x000034d0:    07c0        ..      LSLS     r0,r0,#31
        0x000034d2:    0fc0        ..      LSRS     r0,r0,#31
        0x000034d4:    d007        ..      BEQ      0x34e6 ; DrvUART_Open + 514
        0x000034d6:    481a        .H      LDR      r0,[pc,#104] ; [0x3540] = 0x50000200
        0x000034d8:    6940        @i      LDR      r0,[r0,#0x14]
        0x000034da:    2103        .!      MOVS     r1,#3
        0x000034dc:    0609        ..      LSLS     r1,r1,#24
        0x000034de:    4388        .C      BICS     r0,r0,r1
        0x000034e0:    4917        .I      LDR      r1,[pc,#92] ; [0x3540] = 0x50000200
        0x000034e2:    6148        Ha      STR      r0,[r1,#0x14]
        0x000034e4:    e020         .      B        0x3528 ; DrvUART_Open + 580
        0x000034e6:    4816        .H      LDR      r0,[pc,#88] ; [0x3540] = 0x50000200
        0x000034e8:    6a00        .j      LDR      r0,[r0,#0x20]
        0x000034ea:    03c0        ..      LSLS     r0,r0,#15
        0x000034ec:    0fc0        ..      LSRS     r0,r0,#31
        0x000034ee:    d10a        ..      BNE      0x3506 ; DrvUART_Open + 546
        0x000034f0:    4813        .H      LDR      r0,[pc,#76] ; [0x3540] = 0x50000200
        0x000034f2:    6940        @i      LDR      r0,[r0,#0x14]
        0x000034f4:    2103        .!      MOVS     r1,#3
        0x000034f6:    0609        ..      LSLS     r1,r1,#24
        0x000034f8:    4388        .C      BICS     r0,r0,r1
        0x000034fa:    2101        .!      MOVS     r1,#1
        0x000034fc:    0609        ..      LSLS     r1,r1,#24
        0x000034fe:    1840        @.      ADDS     r0,r0,r1
        0x00003500:    490f        .I      LDR      r1,[pc,#60] ; [0x3540] = 0x50000200
        0x00003502:    6148        Ha      STR      r0,[r1,#0x14]
        0x00003504:    e010        ..      B        0x3528 ; DrvUART_Open + 580
        0x00003506:    480e        .H      LDR      r0,[pc,#56] ; [0x3540] = 0x50000200
        0x00003508:    6800        .h      LDR      r0,[r0,#0]
        0x0000350a:    0740        @.      LSLS     r0,r0,#29
        0x0000350c:    0fc0        ..      LSRS     r0,r0,#31
        0x0000350e:    d008        ..      BEQ      0x3522 ; DrvUART_Open + 574
        0x00003510:    480b        .H      LDR      r0,[pc,#44] ; [0x3540] = 0x50000200
        0x00003512:    6940        @i      LDR      r0,[r0,#0x14]
        0x00003514:    2103        .!      MOVS     r1,#3
        0x00003516:    0609        ..      LSLS     r1,r1,#24
        0x00003518:    4388        .C      BICS     r0,r0,r1
        0x0000351a:    1840        @.      ADDS     r0,r0,r1
        0x0000351c:    4908        .I      LDR      r1,[pc,#32] ; [0x3540] = 0x50000200
        0x0000351e:    6148        Ha      STR      r0,[r1,#0x14]
        0x00003520:    e002        ..      B        0x3528 ; DrvUART_Open + 580
        0x00003522:    4806        .H      LDR      r0,[pc,#24] ; [0x353c] = 0xffff9802
        0x00003524:    1d80        ..      ADDS     r0,r0,#6
        0x00003526:    e6eb        ..      B        0x3300 ; DrvUART_Open + 28
        0x00003528:    f000f8c2    ....    BL       GetUartClk ; 0x36b0
        0x0000352c:    4607        .F      MOV      r7,r0
        0x0000352e:    4632        2F      MOV      r2,r6
        0x00003530:    6821        !h      LDR      r1,[r4,#0]
        0x00003532:    f7feff0d    ....    BL       BaudRateCalculator ; 0x2350
        0x00003536:    2000        .       MOVS     r0,#0
        0x00003538:    e6e2        ..      B        0x3300 ; DrvUART_Open + 28
    $d
        0x0000353a:    0000        ..      DCW    0
        0x0000353c:    ffff9802    ....    DCD    4294940674
        0x00003540:    50000200    ...P    DCD    1342177792
        0x00003544:    40050000    ...@    DCD    1074069504
    $t
    i.DrvUART_Read
    DrvUART_Read
        0x00003548:    b570        p.      PUSH     {r4-r6,lr}
        0x0000354a:    4603        .F      MOV      r3,r0
        0x0000354c:    460c        .F      MOV      r4,r1
        0x0000354e:    480c        .H      LDR      r0,[pc,#48] ; [0x3580] = 0x40050000
        0x00003550:    181d        ..      ADDS     r5,r3,r0
        0x00003552:    2100        .!      MOVS     r1,#0
        0x00003554:    e010        ..      B        0x3578 ; DrvUART_Read + 48
        0x00003556:    2600        .&      MOVS     r6,#0
        0x00003558:    e006        ..      B        0x3568 ; DrvUART_Read + 32
        0x0000355a:    1c76        v.      ADDS     r6,r6,#1
        0x0000355c:    2001        .       MOVS     r0,#1
        0x0000355e:    0780        ..      LSLS     r0,r0,#30
        0x00003560:    4286        .B      CMP      r6,r0
        0x00003562:    d301        ..      BCC      0x3568 ; DrvUART_Read + 32
        0x00003564:    4807        .H      LDR      r0,[pc,#28] ; [0x3584] = 0xffff9801
        0x00003566:    bd70        p.      POP      {r4-r6,pc}
        0x00003568:    69a8        .i      LDR      r0,[r5,#0x18]
        0x0000356a:    0440        @.      LSLS     r0,r0,#17
        0x0000356c:    0fc0        ..      LSRS     r0,r0,#31
        0x0000356e:    2801        .(      CMP      r0,#1
        0x00003570:    d0f3        ..      BEQ      0x355a ; DrvUART_Read + 18
        0x00003572:    6828        (h      LDR      r0,[r5,#0]
        0x00003574:    5460        `T      STRB     r0,[r4,r1]
        0x00003576:    1c49        I.      ADDS     r1,r1,#1
        0x00003578:    4291        .B      CMP      r1,r2
        0x0000357a:    d3ec        ..      BCC      0x3556 ; DrvUART_Read + 14
        0x0000357c:    2000        .       MOVS     r0,#0
        0x0000357e:    e7f2        ..      B        0x3566 ; DrvUART_Read + 30
    $d
        0x00003580:    40050000    ...@    DCD    1074069504
        0x00003584:    ffff9801    ....    DCD    4294940673
    $t
    i.DrvUART_Write
    DrvUART_Write
        0x00003588:    b570        p.      PUSH     {r4-r6,lr}
        0x0000358a:    4603        .F      MOV      r3,r0
        0x0000358c:    460c        .F      MOV      r4,r1
        0x0000358e:    480c        .H      LDR      r0,[pc,#48] ; [0x35c0] = 0x40050000
        0x00003590:    181d        ..      ADDS     r5,r3,r0
        0x00003592:    2100        .!      MOVS     r1,#0
        0x00003594:    e010        ..      B        0x35b8 ; DrvUART_Write + 48
        0x00003596:    2600        .&      MOVS     r6,#0
        0x00003598:    e006        ..      B        0x35a8 ; DrvUART_Write + 32
        0x0000359a:    1c76        v.      ADDS     r6,r6,#1
        0x0000359c:    2001        .       MOVS     r0,#1
        0x0000359e:    0780        ..      LSLS     r0,r0,#30
        0x000035a0:    4286        .B      CMP      r6,r0
        0x000035a2:    d301        ..      BCC      0x35a8 ; DrvUART_Write + 32
        0x000035a4:    4807        .H      LDR      r0,[pc,#28] ; [0x35c4] = 0xffff9801
        0x000035a6:    bd70        p.      POP      {r4-r6,pc}
        0x000035a8:    69a8        .i      LDR      r0,[r5,#0x18]
        0x000035aa:    00c0        ..      LSLS     r0,r0,#3
        0x000035ac:    0fc0        ..      LSRS     r0,r0,#31
        0x000035ae:    2801        .(      CMP      r0,#1
        0x000035b0:    d1f3        ..      BNE      0x359a ; DrvUART_Write + 18
        0x000035b2:    5c60        `\      LDRB     r0,[r4,r1]
        0x000035b4:    6028        (`      STR      r0,[r5,#0]
        0x000035b6:    1c49        I.      ADDS     r1,r1,#1
        0x000035b8:    4291        .B      CMP      r1,r2
        0x000035ba:    d3ec        ..      BCC      0x3596 ; DrvUART_Write + 14
        0x000035bc:    2000        .       MOVS     r0,#0
        0x000035be:    e7f2        ..      B        0x35a6 ; DrvUART_Write + 30
    $d
        0x000035c0:    40050000    ...@    DCD    1074069504
        0x000035c4:    ffff9801    ....    DCD    4294940673
    $t
    i.EINT0_IRQHandler
    EINT0_IRQHandler
        0x000035c8:    b510        ..      PUSH     {r4,lr}
        0x000035ca:    2001        .       MOVS     r0,#1
        0x000035cc:    0380        ..      LSLS     r0,r0,#14
        0x000035ce:    4905        .I      LDR      r1,[pc,#20] ; [0x35e4] = 0x50004040
        0x000035d0:    6208        .b      STR      r0,[r1,#0x20]
        0x000035d2:    4805        .H      LDR      r0,[pc,#20] ; [0x35e8] = 0x2000068c
        0x000035d4:    6800        .h      LDR      r0,[r0,#0]
        0x000035d6:    2800        .(      CMP      r0,#0
        0x000035d8:    d002        ..      BEQ      0x35e0 ; EINT0_IRQHandler + 24
        0x000035da:    4803        .H      LDR      r0,[pc,#12] ; [0x35e8] = 0x2000068c
        0x000035dc:    6800        .h      LDR      r0,[r0,#0]
        0x000035de:    4780        .G      BLX      r0
        0x000035e0:    bd10        ..      POP      {r4,pc}
    $d
        0x000035e2:    0000        ..      DCW    0
        0x000035e4:    50004040    @@.P    DCD    1342193728
        0x000035e8:    2000068c    ...     DCD    536872588
    $t
    i.EINT1_IRQHandler
    EINT1_IRQHandler
        0x000035ec:    b510        ..      PUSH     {r4,lr}
        0x000035ee:    2001        .       MOVS     r0,#1
        0x000035f0:    03c0        ..      LSLS     r0,r0,#15
        0x000035f2:    4905        .I      LDR      r1,[pc,#20] ; [0x3608] = 0x50004040
        0x000035f4:    6208        .b      STR      r0,[r1,#0x20]
        0x000035f6:    4805        .H      LDR      r0,[pc,#20] ; [0x360c] = 0x20000690
        0x000035f8:    6800        .h      LDR      r0,[r0,#0]
        0x000035fa:    2800        .(      CMP      r0,#0
        0x000035fc:    d002        ..      BEQ      0x3604 ; EINT1_IRQHandler + 24
        0x000035fe:    4803        .H      LDR      r0,[pc,#12] ; [0x360c] = 0x20000690
        0x00003600:    6800        .h      LDR      r0,[r0,#0]
        0x00003602:    4780        .G      BLX      r0
        0x00003604:    bd10        ..      POP      {r4,pc}
    $d
        0x00003606:    0000        ..      DCW    0
        0x00003608:    50004040    @@.P    DCD    1342193728
        0x0000360c:    20000690    ...     DCD    536872592
    $t
    i.GPAB_IRQHandler
    GPAB_IRQHandler
        0x00003610:    b570        p.      PUSH     {r4-r6,lr}
        0x00003612:    480c        .H      LDR      r0,[pc,#48] ; [0x3644] = 0x50004000
        0x00003614:    6a05        .j      LDR      r5,[r0,#0x20]
        0x00003616:    480b        .H      LDR      r0,[pc,#44] ; [0x3644] = 0x50004000
        0x00003618:    3040        @0      ADDS     r0,r0,#0x40
        0x0000361a:    6a04        .j      LDR      r4,[r0,#0x20]
        0x0000361c:    2103        .!      MOVS     r1,#3
        0x0000361e:    0389        ..      LSLS     r1,r1,#14
        0x00003620:    4620         F      MOV      r0,r4
        0x00003622:    4388        .C      BICS     r0,r0,r1
        0x00003624:    4604        .F      MOV      r4,r0
        0x00003626:    4807        .H      LDR      r0,[pc,#28] ; [0x3644] = 0x50004000
        0x00003628:    6205        .b      STR      r5,[r0,#0x20]
        0x0000362a:    4806        .H      LDR      r0,[pc,#24] ; [0x3644] = 0x50004000
        0x0000362c:    3040        @0      ADDS     r0,r0,#0x40
        0x0000362e:    6204        .b      STR      r4,[r0,#0x20]
        0x00003630:    4805        .H      LDR      r0,[pc,#20] ; [0x3648] = 0x20000684
        0x00003632:    6800        .h      LDR      r0,[r0,#0]
        0x00003634:    2800        .(      CMP      r0,#0
        0x00003636:    d004        ..      BEQ      0x3642 ; GPAB_IRQHandler + 50
        0x00003638:    4621        !F      MOV      r1,r4
        0x0000363a:    4628        (F      MOV      r0,r5
        0x0000363c:    4a02        .J      LDR      r2,[pc,#8] ; [0x3648] = 0x20000684
        0x0000363e:    6812        .h      LDR      r2,[r2,#0]
        0x00003640:    4790        .G      BLX      r2
        0x00003642:    bd70        p.      POP      {r4-r6,pc}
    $d
        0x00003644:    50004000    .@.P    DCD    1342193664
        0x00003648:    20000684    ...     DCD    536872580
    $t
    i.GPCDE_IRQHandler
    GPCDE_IRQHandler
        0x0000364c:    b570        p.      PUSH     {r4-r6,lr}
        0x0000364e:    480d        .H      LDR      r0,[pc,#52] ; [0x3684] = 0x50004080
        0x00003650:    6a04        .j      LDR      r4,[r0,#0x20]
        0x00003652:    480c        .H      LDR      r0,[pc,#48] ; [0x3684] = 0x50004080
        0x00003654:    3040        @0      ADDS     r0,r0,#0x40
        0x00003656:    6a05        .j      LDR      r5,[r0,#0x20]
        0x00003658:    480a        .H      LDR      r0,[pc,#40] ; [0x3684] = 0x50004080
        0x0000365a:    3080        .0      ADDS     r0,r0,#0x80
        0x0000365c:    6a06        .j      LDR      r6,[r0,#0x20]
        0x0000365e:    4809        .H      LDR      r0,[pc,#36] ; [0x3684] = 0x50004080
        0x00003660:    6204        .b      STR      r4,[r0,#0x20]
        0x00003662:    4808        .H      LDR      r0,[pc,#32] ; [0x3684] = 0x50004080
        0x00003664:    3040        @0      ADDS     r0,r0,#0x40
        0x00003666:    6205        .b      STR      r5,[r0,#0x20]
        0x00003668:    4806        .H      LDR      r0,[pc,#24] ; [0x3684] = 0x50004080
        0x0000366a:    3080        .0      ADDS     r0,r0,#0x80
        0x0000366c:    6206        .b      STR      r6,[r0,#0x20]
        0x0000366e:    4806        .H      LDR      r0,[pc,#24] ; [0x3688] = 0x20000688
        0x00003670:    6800        .h      LDR      r0,[r0,#0]
        0x00003672:    2800        .(      CMP      r0,#0
        0x00003674:    d005        ..      BEQ      0x3682 ; GPCDE_IRQHandler + 54
        0x00003676:    4632        2F      MOV      r2,r6
        0x00003678:    4629        )F      MOV      r1,r5
        0x0000367a:    4620         F      MOV      r0,r4
        0x0000367c:    4b02        .K      LDR      r3,[pc,#8] ; [0x3688] = 0x20000688
        0x0000367e:    681b        .h      LDR      r3,[r3,#0]
        0x00003680:    4798        .G      BLX      r3
        0x00003682:    bd70        p.      POP      {r4-r6,pc}
    $d
        0x00003684:    50004080    .@.P    DCD    1342193792
        0x00003688:    20000688    ...     DCD    536872584
    $t
    i.GetFreeIF
    GetFreeIF
        0x0000368c:    4807        .H      LDR      r0,[pc,#28] ; [0x36ac] = 0x40180000
        0x0000368e:    6a00        .j      LDR      r0,[r0,#0x20]
        0x00003690:    0400        ..      LSLS     r0,r0,#16
        0x00003692:    0fc0        ..      LSRS     r0,r0,#31
        0x00003694:    d100        ..      BNE      0x3698 ; GetFreeIF + 12
        0x00003696:    4770        pG      BX       lr
        0x00003698:    4804        .H      LDR      r0,[pc,#16] ; [0x36ac] = 0x40180000
        0x0000369a:    3020         0      ADDS     r0,r0,#0x20
        0x0000369c:    6e00        .n      LDR      r0,[r0,#0x60]
        0x0000369e:    0400        ..      LSLS     r0,r0,#16
        0x000036a0:    0fc0        ..      LSRS     r0,r0,#31
        0x000036a2:    d101        ..      BNE      0x36a8 ; GetFreeIF + 28
        0x000036a4:    2001        .       MOVS     r0,#1
        0x000036a6:    e7f6        ..      B        0x3696 ; GetFreeIF + 10
        0x000036a8:    2002        .       MOVS     r0,#2
        0x000036aa:    e7f4        ..      B        0x3696 ; GetFreeIF + 10
    $d
        0x000036ac:    40180000    ...@    DCD    1075314688
    $t
    i.GetUartClk
    GetUartClk
        0x000036b0:    b570        p.      PUSH     {r4-r6,lr}
        0x000036b2:    2500        .%      MOVS     r5,#0
        0x000036b4:    480e        .H      LDR      r0,[pc,#56] ; [0x36f0] = 0x50000200
        0x000036b6:    6940        @i      LDR      r0,[r0,#0x14]
        0x000036b8:    0180        ..      LSLS     r0,r0,#6
        0x000036ba:    0f80        ..      LSRS     r0,r0,#30
        0x000036bc:    d103        ..      BNE      0x36c6 ; GetUartClk + 22
        0x000036be:    f7fffbdd    ....    BL       DrvSYS_GetExtClockFreq ; 0x2e7c
        0x000036c2:    4605        .F      MOV      r5,r0
        0x000036c4:    e012        ..      B        0x36ec ; GetUartClk + 60
        0x000036c6:    480a        .H      LDR      r0,[pc,#40] ; [0x36f0] = 0x50000200
        0x000036c8:    6940        @i      LDR      r0,[r0,#0x14]
        0x000036ca:    0180        ..      LSLS     r0,r0,#6
        0x000036cc:    0f80        ..      LSRS     r0,r0,#30
        0x000036ce:    2801        .(      CMP      r0,#1
        0x000036d0:    d10b        ..      BNE      0x36ea ; GetUartClk + 58
        0x000036d2:    4807        .H      LDR      r0,[pc,#28] ; [0x36f0] = 0x50000200
        0x000036d4:    6980        .i      LDR      r0,[r0,#0x18]
        0x000036d6:    0500        ..      LSLS     r0,r0,#20
        0x000036d8:    0f04        ..      LSRS     r4,r0,#28
        0x000036da:    f7fffc09    ....    BL       DrvSYS_GetPLLClockFreq ; 0x2ef0
        0x000036de:    4606        .F      MOV      r6,r0
        0x000036e0:    1c61        a.      ADDS     r1,r4,#1
        0x000036e2:    f7fcfe7f    ....    BL       __aeabi_uidiv ; 0x3e4
        0x000036e6:    4605        .F      MOV      r5,r0
        0x000036e8:    e000        ..      B        0x36ec ; GetUartClk + 60
        0x000036ea:    4d02        .M      LDR      r5,[pc,#8] ; [0x36f4] = 0x1518000
        0x000036ec:    4628        (F      MOV      r0,r5
        0x000036ee:    bd70        p.      POP      {r4-r6,pc}
    $d
        0x000036f0:    50000200    ...P    DCD    1342177792
        0x000036f4:    01518000    ..Q.    DCD    22118400
    $t
    i.I2C0_IRQHandler
    I2C0_IRQHandler
        0x000036f8:    b510        ..      PUSH     {r4,lr}
        0x000036fa:    481b        .H      LDR      r0,[pc,#108] ; [0x3768] = 0x40020000
        0x000036fc:    68c4        .h      LDR      r4,[r0,#0xc]
        0x000036fe:    6940        @i      LDR      r0,[r0,#0x14]
        0x00003700:    07c0        ..      LSLS     r0,r0,#31
        0x00003702:    0fc0        ..      LSRS     r0,r0,#31
        0x00003704:    d00f        ..      BEQ      0x3726 ; I2C0_IRQHandler + 46
        0x00003706:    4818        .H      LDR      r0,[pc,#96] ; [0x3768] = 0x40020000
        0x00003708:    6940        @i      LDR      r0,[r0,#0x14]
        0x0000370a:    0840        @.      LSRS     r0,r0,#1
        0x0000370c:    0040        @.      LSLS     r0,r0,#1
        0x0000370e:    1c40        @.      ADDS     r0,r0,#1
        0x00003710:    4915        .I      LDR      r1,[pc,#84] ; [0x3768] = 0x40020000
        0x00003712:    6148        Ha      STR      r0,[r1,#0x14]
        0x00003714:    4815        .H      LDR      r0,[pc,#84] ; [0x376c] = 0x20000710
        0x00003716:    68c0        .h      LDR      r0,[r0,#0xc]
        0x00003718:    2800        .(      CMP      r0,#0
        0x0000371a:    d024        $.      BEQ      0x3766 ; I2C0_IRQHandler + 110
        0x0000371c:    4813        .H      LDR      r0,[pc,#76] ; [0x376c] = 0x20000710
        0x0000371e:    68c1        .h      LDR      r1,[r0,#0xc]
        0x00003720:    4620         F      MOV      r0,r4
        0x00003722:    4788        .G      BLX      r1
        0x00003724:    e01f        ..      B        0x3766 ; I2C0_IRQHandler + 110
        0x00003726:    2c00        .,      CMP      r4,#0
        0x00003728:    d00a        ..      BEQ      0x3740 ; I2C0_IRQHandler + 72
        0x0000372a:    2c38        8,      CMP      r4,#0x38
        0x0000372c:    d111        ..      BNE      0x3752 ; I2C0_IRQHandler + 90
        0x0000372e:    480f        .H      LDR      r0,[pc,#60] ; [0x376c] = 0x20000710
        0x00003730:    6840        @h      LDR      r0,[r0,#4]
        0x00003732:    2800        .(      CMP      r0,#0
        0x00003734:    d003        ..      BEQ      0x373e ; I2C0_IRQHandler + 70
        0x00003736:    480d        .H      LDR      r0,[pc,#52] ; [0x376c] = 0x20000710
        0x00003738:    6841        Ah      LDR      r1,[r0,#4]
        0x0000373a:    4620         F      MOV      r0,r4
        0x0000373c:    4788        .G      BLX      r1
        0x0000373e:    e011        ..      B        0x3764 ; I2C0_IRQHandler + 108
        0x00003740:    480a        .H      LDR      r0,[pc,#40] ; [0x376c] = 0x20000710
        0x00003742:    6880        .h      LDR      r0,[r0,#8]
        0x00003744:    2800        .(      CMP      r0,#0
        0x00003746:    d003        ..      BEQ      0x3750 ; I2C0_IRQHandler + 88
        0x00003748:    4808        .H      LDR      r0,[pc,#32] ; [0x376c] = 0x20000710
        0x0000374a:    6881        .h      LDR      r1,[r0,#8]
        0x0000374c:    4620         F      MOV      r0,r4
        0x0000374e:    4788        .G      BLX      r1
        0x00003750:    e008        ..      B        0x3764 ; I2C0_IRQHandler + 108
        0x00003752:    4806        .H      LDR      r0,[pc,#24] ; [0x376c] = 0x20000710
        0x00003754:    6800        .h      LDR      r0,[r0,#0]
        0x00003756:    2800        .(      CMP      r0,#0
        0x00003758:    d003        ..      BEQ      0x3762 ; I2C0_IRQHandler + 106
        0x0000375a:    4804        .H      LDR      r0,[pc,#16] ; [0x376c] = 0x20000710
        0x0000375c:    6801        .h      LDR      r1,[r0,#0]
        0x0000375e:    4620         F      MOV      r0,r4
        0x00003760:    4788        .G      BLX      r1
        0x00003762:    bf00        ..      NOP      
        0x00003764:    bf00        ..      NOP      
        0x00003766:    bd10        ..      POP      {r4,pc}
    $d
        0x00003768:    40020000    ...@    DCD    1073872896
        0x0000376c:    20000710    ...     DCD    536872720
    $t
    i.I2C1_IRQHandler
    I2C1_IRQHandler
        0x00003770:    b510        ..      PUSH     {r4,lr}
        0x00003772:    481b        .H      LDR      r0,[pc,#108] ; [0x37e0] = 0x40120000
        0x00003774:    68c4        .h      LDR      r4,[r0,#0xc]
        0x00003776:    6940        @i      LDR      r0,[r0,#0x14]
        0x00003778:    07c0        ..      LSLS     r0,r0,#31
        0x0000377a:    0fc0        ..      LSRS     r0,r0,#31
        0x0000377c:    d00f        ..      BEQ      0x379e ; I2C1_IRQHandler + 46
        0x0000377e:    4818        .H      LDR      r0,[pc,#96] ; [0x37e0] = 0x40120000
        0x00003780:    6940        @i      LDR      r0,[r0,#0x14]
        0x00003782:    0840        @.      LSRS     r0,r0,#1
        0x00003784:    0040        @.      LSLS     r0,r0,#1
        0x00003786:    1c40        @.      ADDS     r0,r0,#1
        0x00003788:    4915        .I      LDR      r1,[pc,#84] ; [0x37e0] = 0x40120000
        0x0000378a:    6148        Ha      STR      r0,[r1,#0x14]
        0x0000378c:    4815        .H      LDR      r0,[pc,#84] ; [0x37e4] = 0x20000720
        0x0000378e:    68c0        .h      LDR      r0,[r0,#0xc]
        0x00003790:    2800        .(      CMP      r0,#0
        0x00003792:    d024        $.      BEQ      0x37de ; I2C1_IRQHandler + 110
        0x00003794:    4813        .H      LDR      r0,[pc,#76] ; [0x37e4] = 0x20000720
        0x00003796:    68c1        .h      LDR      r1,[r0,#0xc]
        0x00003798:    4620         F      MOV      r0,r4
        0x0000379a:    4788        .G      BLX      r1
        0x0000379c:    e01f        ..      B        0x37de ; I2C1_IRQHandler + 110
        0x0000379e:    2c00        .,      CMP      r4,#0
        0x000037a0:    d00a        ..      BEQ      0x37b8 ; I2C1_IRQHandler + 72
        0x000037a2:    2c38        8,      CMP      r4,#0x38
        0x000037a4:    d111        ..      BNE      0x37ca ; I2C1_IRQHandler + 90
        0x000037a6:    480f        .H      LDR      r0,[pc,#60] ; [0x37e4] = 0x20000720
        0x000037a8:    6840        @h      LDR      r0,[r0,#4]
        0x000037aa:    2800        .(      CMP      r0,#0
        0x000037ac:    d003        ..      BEQ      0x37b6 ; I2C1_IRQHandler + 70
        0x000037ae:    480d        .H      LDR      r0,[pc,#52] ; [0x37e4] = 0x20000720
        0x000037b0:    6841        Ah      LDR      r1,[r0,#4]
        0x000037b2:    4620         F      MOV      r0,r4
        0x000037b4:    4788        .G      BLX      r1
        0x000037b6:    e011        ..      B        0x37dc ; I2C1_IRQHandler + 108
        0x000037b8:    480a        .H      LDR      r0,[pc,#40] ; [0x37e4] = 0x20000720
        0x000037ba:    6880        .h      LDR      r0,[r0,#8]
        0x000037bc:    2800        .(      CMP      r0,#0
        0x000037be:    d003        ..      BEQ      0x37c8 ; I2C1_IRQHandler + 88
        0x000037c0:    4808        .H      LDR      r0,[pc,#32] ; [0x37e4] = 0x20000720
        0x000037c2:    6881        .h      LDR      r1,[r0,#8]
        0x000037c4:    4620         F      MOV      r0,r4
        0x000037c6:    4788        .G      BLX      r1
        0x000037c8:    e008        ..      B        0x37dc ; I2C1_IRQHandler + 108
        0x000037ca:    4806        .H      LDR      r0,[pc,#24] ; [0x37e4] = 0x20000720
        0x000037cc:    6800        .h      LDR      r0,[r0,#0]
        0x000037ce:    2800        .(      CMP      r0,#0
        0x000037d0:    d003        ..      BEQ      0x37da ; I2C1_IRQHandler + 106
        0x000037d2:    4804        .H      LDR      r0,[pc,#16] ; [0x37e4] = 0x20000720
        0x000037d4:    6801        .h      LDR      r1,[r0,#0]
        0x000037d6:    4620         F      MOV      r0,r4
        0x000037d8:    4788        .G      BLX      r1
        0x000037da:    bf00        ..      NOP      
        0x000037dc:    bf00        ..      NOP      
        0x000037de:    bd10        ..      POP      {r4,pc}
    $d
        0x000037e0:    40120000    ...@    DCD    1074921472
        0x000037e4:    20000720     ..     DCD    536872736
    $t
    i.InitHCLK12M
    InitHCLK12M
        0x000037e8:    2059        Y       MOVS     r0,#0x59
        0x000037ea:    490b        .I      LDR      r1,[pc,#44] ; [0x3818] = 0x50000100
        0x000037ec:    6008        .`      STR      r0,[r1,#0]
        0x000037ee:    2016        .       MOVS     r0,#0x16
        0x000037f0:    6008        .`      STR      r0,[r1,#0]
        0x000037f2:    2088        .       MOVS     r0,#0x88
        0x000037f4:    6008        .`      STR      r0,[r1,#0]
        0x000037f6:    4809        .H      LDR      r0,[pc,#36] ; [0x381c] = 0x50000200
        0x000037f8:    6800        .h      LDR      r0,[r0,#0]
        0x000037fa:    0840        @.      LSRS     r0,r0,#1
        0x000037fc:    0040        @.      LSLS     r0,r0,#1
        0x000037fe:    1c40        @.      ADDS     r0,r0,#1
        0x00003800:    4906        .I      LDR      r1,[pc,#24] ; [0x381c] = 0x50000200
        0x00003802:    6008        .`      STR      r0,[r1,#0]
        0x00003804:    4608        .F      MOV      r0,r1
        0x00003806:    6900        .i      LDR      r0,[r0,#0x10]
        0x00003808:    08c0        ..      LSRS     r0,r0,#3
        0x0000380a:    00c0        ..      LSLS     r0,r0,#3
        0x0000380c:    6108        .a      STR      r0,[r1,#0x10]
        0x0000380e:    2000        .       MOVS     r0,#0
        0x00003810:    4901        .I      LDR      r1,[pc,#4] ; [0x3818] = 0x50000100
        0x00003812:    6008        .`      STR      r0,[r1,#0]
        0x00003814:    4770        pG      BX       lr
    $d
        0x00003816:    0000        ..      DCW    0
        0x00003818:    50000100    ...P    DCD    1342177536
        0x0000381c:    50000200    ...P    DCD    1342177792
    $t
    i.Initial_pannel
    Initial_pannel
        0x00003820:    4883        .H      LDR      r0,[pc,#524] ; [0x3a30] = 0x50000200
        0x00003822:    6880        .h      LDR      r0,[r0,#8]
        0x00003824:    2101        .!      MOVS     r1,#1
        0x00003826:    03c9        ..      LSLS     r1,r1,#15
        0x00003828:    4388        .C      BICS     r0,r0,r1
        0x0000382a:    1840        @.      ADDS     r0,r0,r1
        0x0000382c:    4980        .I      LDR      r1,[pc,#512] ; [0x3a30] = 0x50000200
        0x0000382e:    6088        .`      STR      r0,[r1,#8]
        0x00003830:    2005        .       MOVS     r0,#5
        0x00003832:    0700        ..      LSLS     r0,r0,#28
        0x00003834:    68c0        .h      LDR      r0,[r0,#0xc]
        0x00003836:    0189        ..      LSLS     r1,r1,#6
        0x00003838:    4388        .C      BICS     r0,r0,r1
        0x0000383a:    1840        @.      ADDS     r0,r0,r1
        0x0000383c:    2105        .!      MOVS     r1,#5
        0x0000383e:    0709        ..      LSLS     r1,r1,#28
        0x00003840:    60c8        .`      STR      r0,[r1,#0xc]
        0x00003842:    4608        .F      MOV      r0,r1
        0x00003844:    68c0        .h      LDR      r0,[r0,#0xc]
        0x00003846:    2101        .!      MOVS     r1,#1
        0x00003848:    03c9        ..      LSLS     r1,r1,#15
        0x0000384a:    4388        .C      BICS     r0,r0,r1
        0x0000384c:    2105        .!      MOVS     r1,#5
        0x0000384e:    0709        ..      LSLS     r1,r1,#28
        0x00003850:    60c8        .`      STR      r0,[r1,#0xc]
        0x00003852:    4608        .F      MOV      r0,r1
        0x00003854:    6bc0        .k      LDR      r0,[r0,#0x3c]
        0x00003856:    21ff        .!      MOVS     r1,#0xff
        0x00003858:    3101        .1      ADDS     r1,#1
        0x0000385a:    4388        .C      BICS     r0,r0,r1
        0x0000385c:    1840        @.      ADDS     r0,r0,r1
        0x0000385e:    2105        .!      MOVS     r1,#5
        0x00003860:    0709        ..      LSLS     r1,r1,#28
        0x00003862:    63c8        .c      STR      r0,[r1,#0x3c]
        0x00003864:    4608        .F      MOV      r0,r1
        0x00003866:    6bc0        .k      LDR      r0,[r0,#0x3c]
        0x00003868:    2101        .!      MOVS     r1,#1
        0x0000386a:    0249        I.      LSLS     r1,r1,#9
        0x0000386c:    4388        .C      BICS     r0,r0,r1
        0x0000386e:    1840        @.      ADDS     r0,r0,r1
        0x00003870:    2105        .!      MOVS     r1,#5
        0x00003872:    0709        ..      LSLS     r1,r1,#28
        0x00003874:    63c8        .c      STR      r0,[r1,#0x3c]
        0x00003876:    4608        .F      MOV      r0,r1
        0x00003878:    6bc0        .k      LDR      r0,[r0,#0x3c]
        0x0000387a:    2101        .!      MOVS     r1,#1
        0x0000387c:    02c9        ..      LSLS     r1,r1,#11
        0x0000387e:    4388        .C      BICS     r0,r0,r1
        0x00003880:    1840        @.      ADDS     r0,r0,r1
        0x00003882:    2105        .!      MOVS     r1,#5
        0x00003884:    0709        ..      LSLS     r1,r1,#28
        0x00003886:    63c8        .c      STR      r0,[r1,#0x3c]
        0x00003888:    486a        jH      LDR      r0,[pc,#424] ; [0x3a34] = 0x20000084
        0x0000388a:    68c0        .h      LDR      r0,[r0,#0xc]
        0x0000388c:    6800        .h      LDR      r0,[r0,#0]
        0x0000388e:    2101        .!      MOVS     r1,#1
        0x00003890:    02c9        ..      LSLS     r1,r1,#11
        0x00003892:    4388        .C      BICS     r0,r0,r1
        0x00003894:    1840        @.      ADDS     r0,r0,r1
        0x00003896:    4967        gI      LDR      r1,[pc,#412] ; [0x3a34] = 0x20000084
        0x00003898:    68c9        .h      LDR      r1,[r1,#0xc]
        0x0000389a:    6008        .`      STR      r0,[r1,#0]
        0x0000389c:    4865        eH      LDR      r0,[pc,#404] ; [0x3a34] = 0x20000084
        0x0000389e:    68c0        .h      LDR      r0,[r0,#0xc]
        0x000038a0:    6800        .h      LDR      r0,[r0,#0]
        0x000038a2:    21f8        .!      MOVS     r1,#0xf8
        0x000038a4:    4388        .C      BICS     r0,r0,r1
        0x000038a6:    3048        H0      ADDS     r0,r0,#0x48
        0x000038a8:    4962        bI      LDR      r1,[pc,#392] ; [0x3a34] = 0x20000084
        0x000038aa:    68c9        .h      LDR      r1,[r1,#0xc]
        0x000038ac:    6008        .`      STR      r0,[r1,#0]
        0x000038ae:    4861        aH      LDR      r0,[pc,#388] ; [0x3a34] = 0x20000084
        0x000038b0:    68c0        .h      LDR      r0,[r0,#0xc]
        0x000038b2:    6800        .h      LDR      r0,[r0,#0]
        0x000038b4:    2104        .!      MOVS     r1,#4
        0x000038b6:    4388        .C      BICS     r0,r0,r1
        0x000038b8:    1d00        ..      ADDS     r0,r0,#4
        0x000038ba:    495e        ^I      LDR      r1,[pc,#376] ; [0x3a34] = 0x20000084
        0x000038bc:    68c9        .h      LDR      r1,[r1,#0xc]
        0x000038be:    6008        .`      STR      r0,[r1,#0]
        0x000038c0:    485c        \H      LDR      r0,[pc,#368] ; [0x3a34] = 0x20000084
        0x000038c2:    68c0        .h      LDR      r0,[r0,#0xc]
        0x000038c4:    6840        @h      LDR      r0,[r0,#4]
        0x000038c6:    0c00        ..      LSRS     r0,r0,#16
        0x000038c8:    0400        ..      LSLS     r0,r0,#16
        0x000038ca:    1cc0        ..      ADDS     r0,r0,#3
        0x000038cc:    4959        YI      LDR      r1,[pc,#356] ; [0x3a34] = 0x20000084
        0x000038ce:    68c9        .h      LDR      r1,[r1,#0xc]
        0x000038d0:    6048        H`      STR      r0,[r1,#4]
        0x000038d2:    4858        XH      LDR      r0,[pc,#352] ; [0x3a34] = 0x20000084
        0x000038d4:    68c0        .h      LDR      r0,[r0,#0xc]
        0x000038d6:    6880        .h      LDR      r0,[r0,#8]
        0x000038d8:    0880        ..      LSRS     r0,r0,#2
        0x000038da:    0080        ..      LSLS     r0,r0,#2
        0x000038dc:    1c40        @.      ADDS     r0,r0,#1
        0x000038de:    4955        UI      LDR      r1,[pc,#340] ; [0x3a34] = 0x20000084
        0x000038e0:    68c9        .h      LDR      r1,[r1,#0xc]
        0x000038e2:    6088        .`      STR      r0,[r1,#8]
        0x000038e4:    20eb        .       MOVS     r0,#0xeb
        0x000038e6:    4953        SI      LDR      r1,[pc,#332] ; [0x3a34] = 0x20000084
        0x000038e8:    68c9        .h      LDR      r1,[r1,#0xc]
        0x000038ea:    6208        .b      STR      r0,[r1,#0x20]
        0x000038ec:    4851        QH      LDR      r0,[pc,#324] ; [0x3a34] = 0x20000084
        0x000038ee:    68c0        .h      LDR      r0,[r0,#0xc]
        0x000038f0:    6800        .h      LDR      r0,[r0,#0]
        0x000038f2:    0840        @.      LSRS     r0,r0,#1
        0x000038f4:    0040        @.      LSLS     r0,r0,#1
        0x000038f6:    1c40        @.      ADDS     r0,r0,#1
        0x000038f8:    494e        NI      LDR      r1,[pc,#312] ; [0x3a34] = 0x20000084
        0x000038fa:    68c9        .h      LDR      r1,[r1,#0xc]
        0x000038fc:    6008        .`      STR      r0,[r1,#0]
        0x000038fe:    bf00        ..      NOP      
        0x00003900:    484c        LH      LDR      r0,[pc,#304] ; [0x3a34] = 0x20000084
        0x00003902:    68c0        .h      LDR      r0,[r0,#0xc]
        0x00003904:    6800        .h      LDR      r0,[r0,#0]
        0x00003906:    07c0        ..      LSLS     r0,r0,#31
        0x00003908:    0fc0        ..      LSRS     r0,r0,#31
        0x0000390a:    2801        .(      CMP      r0,#1
        0x0000390c:    d0f8        ..      BEQ      0x3900 ; Initial_pannel + 224
        0x0000390e:    4849        IH      LDR      r0,[pc,#292] ; [0x3a34] = 0x20000084
        0x00003910:    68c0        .h      LDR      r0,[r0,#0xc]
        0x00003912:    6880        .h      LDR      r0,[r0,#8]
        0x00003914:    0880        ..      LSRS     r0,r0,#2
        0x00003916:    0080        ..      LSLS     r0,r0,#2
        0x00003918:    4946        FI      LDR      r1,[pc,#280] ; [0x3a34] = 0x20000084
        0x0000391a:    68c9        .h      LDR      r1,[r1,#0xc]
        0x0000391c:    6088        .`      STR      r0,[r1,#8]
        0x0000391e:    4845        EH      LDR      r0,[pc,#276] ; [0x3a34] = 0x20000084
        0x00003920:    68c0        .h      LDR      r0,[r0,#0xc]
        0x00003922:    6880        .h      LDR      r0,[r0,#8]
        0x00003924:    0880        ..      LSRS     r0,r0,#2
        0x00003926:    0080        ..      LSLS     r0,r0,#2
        0x00003928:    1c40        @.      ADDS     r0,r0,#1
        0x0000392a:    4942        BI      LDR      r1,[pc,#264] ; [0x3a34] = 0x20000084
        0x0000392c:    68c9        .h      LDR      r1,[r1,#0xc]
        0x0000392e:    6088        .`      STR      r0,[r1,#8]
        0x00003930:    2081        .       MOVS     r0,#0x81
        0x00003932:    4940        @I      LDR      r1,[pc,#256] ; [0x3a34] = 0x20000084
        0x00003934:    68c9        .h      LDR      r1,[r1,#0xc]
        0x00003936:    6208        .b      STR      r0,[r1,#0x20]
        0x00003938:    483e        >H      LDR      r0,[pc,#248] ; [0x3a34] = 0x20000084
        0x0000393a:    68c0        .h      LDR      r0,[r0,#0xc]
        0x0000393c:    6800        .h      LDR      r0,[r0,#0]
        0x0000393e:    0840        @.      LSRS     r0,r0,#1
        0x00003940:    0040        @.      LSLS     r0,r0,#1
        0x00003942:    1c40        @.      ADDS     r0,r0,#1
        0x00003944:    493b        ;I      LDR      r1,[pc,#236] ; [0x3a34] = 0x20000084
        0x00003946:    68c9        .h      LDR      r1,[r1,#0xc]
        0x00003948:    6008        .`      STR      r0,[r1,#0]
        0x0000394a:    bf00        ..      NOP      
        0x0000394c:    4839        9H      LDR      r0,[pc,#228] ; [0x3a34] = 0x20000084
        0x0000394e:    68c0        .h      LDR      r0,[r0,#0xc]
        0x00003950:    6800        .h      LDR      r0,[r0,#0]
        0x00003952:    07c0        ..      LSLS     r0,r0,#31
        0x00003954:    0fc0        ..      LSRS     r0,r0,#31
        0x00003956:    2801        .(      CMP      r0,#1
        0x00003958:    d0f8        ..      BEQ      0x394c ; Initial_pannel + 300
        0x0000395a:    20a0        .       MOVS     r0,#0xa0
        0x0000395c:    4935        5I      LDR      r1,[pc,#212] ; [0x3a34] = 0x20000084
        0x0000395e:    68c9        .h      LDR      r1,[r1,#0xc]
        0x00003960:    6208        .b      STR      r0,[r1,#0x20]
        0x00003962:    4834        4H      LDR      r0,[pc,#208] ; [0x3a34] = 0x20000084
        0x00003964:    68c0        .h      LDR      r0,[r0,#0xc]
        0x00003966:    6800        .h      LDR      r0,[r0,#0]
        0x00003968:    0840        @.      LSRS     r0,r0,#1
        0x0000396a:    0040        @.      LSLS     r0,r0,#1
        0x0000396c:    1c40        @.      ADDS     r0,r0,#1
        0x0000396e:    4931        1I      LDR      r1,[pc,#196] ; [0x3a34] = 0x20000084
        0x00003970:    68c9        .h      LDR      r1,[r1,#0xc]
        0x00003972:    6008        .`      STR      r0,[r1,#0]
        0x00003974:    bf00        ..      NOP      
        0x00003976:    482f        /H      LDR      r0,[pc,#188] ; [0x3a34] = 0x20000084
        0x00003978:    68c0        .h      LDR      r0,[r0,#0xc]
        0x0000397a:    6800        .h      LDR      r0,[r0,#0]
        0x0000397c:    07c0        ..      LSLS     r0,r0,#31
        0x0000397e:    0fc0        ..      LSRS     r0,r0,#31
        0x00003980:    2801        .(      CMP      r0,#1
        0x00003982:    d0f8        ..      BEQ      0x3976 ; Initial_pannel + 342
        0x00003984:    482b        +H      LDR      r0,[pc,#172] ; [0x3a34] = 0x20000084
        0x00003986:    68c0        .h      LDR      r0,[r0,#0xc]
        0x00003988:    6880        .h      LDR      r0,[r0,#8]
        0x0000398a:    0880        ..      LSRS     r0,r0,#2
        0x0000398c:    0080        ..      LSLS     r0,r0,#2
        0x0000398e:    4929        )I      LDR      r1,[pc,#164] ; [0x3a34] = 0x20000084
        0x00003990:    68c9        .h      LDR      r1,[r1,#0xc]
        0x00003992:    6088        .`      STR      r0,[r1,#8]
        0x00003994:    4827        'H      LDR      r0,[pc,#156] ; [0x3a34] = 0x20000084
        0x00003996:    68c0        .h      LDR      r0,[r0,#0xc]
        0x00003998:    6880        .h      LDR      r0,[r0,#8]
        0x0000399a:    0880        ..      LSRS     r0,r0,#2
        0x0000399c:    0080        ..      LSLS     r0,r0,#2
        0x0000399e:    1c40        @.      ADDS     r0,r0,#1
        0x000039a0:    4924        $I      LDR      r1,[pc,#144] ; [0x3a34] = 0x20000084
        0x000039a2:    68c9        .h      LDR      r1,[r1,#0xc]
        0x000039a4:    6088        .`      STR      r0,[r1,#8]
        0x000039a6:    20c0        .       MOVS     r0,#0xc0
        0x000039a8:    4922        "I      LDR      r1,[pc,#136] ; [0x3a34] = 0x20000084
        0x000039aa:    68c9        .h      LDR      r1,[r1,#0xc]
        0x000039ac:    6208        .b      STR      r0,[r1,#0x20]
        0x000039ae:    4821        !H      LDR      r0,[pc,#132] ; [0x3a34] = 0x20000084
        0x000039b0:    68c0        .h      LDR      r0,[r0,#0xc]
        0x000039b2:    6800        .h      LDR      r0,[r0,#0]
        0x000039b4:    0840        @.      LSRS     r0,r0,#1
        0x000039b6:    0040        @.      LSLS     r0,r0,#1
        0x000039b8:    1c40        @.      ADDS     r0,r0,#1
        0x000039ba:    491e        .I      LDR      r1,[pc,#120] ; [0x3a34] = 0x20000084
        0x000039bc:    68c9        .h      LDR      r1,[r1,#0xc]
        0x000039be:    6008        .`      STR      r0,[r1,#0]
        0x000039c0:    bf00        ..      NOP      
        0x000039c2:    481c        .H      LDR      r0,[pc,#112] ; [0x3a34] = 0x20000084
        0x000039c4:    68c0        .h      LDR      r0,[r0,#0xc]
        0x000039c6:    6800        .h      LDR      r0,[r0,#0]
        0x000039c8:    07c0        ..      LSLS     r0,r0,#31
        0x000039ca:    0fc0        ..      LSRS     r0,r0,#31
        0x000039cc:    2801        .(      CMP      r0,#1
        0x000039ce:    d0f8        ..      BEQ      0x39c2 ; Initial_pannel + 418
        0x000039d0:    4818        .H      LDR      r0,[pc,#96] ; [0x3a34] = 0x20000084
        0x000039d2:    68c0        .h      LDR      r0,[r0,#0xc]
        0x000039d4:    6880        .h      LDR      r0,[r0,#8]
        0x000039d6:    0880        ..      LSRS     r0,r0,#2
        0x000039d8:    0080        ..      LSLS     r0,r0,#2
        0x000039da:    4916        .I      LDR      r1,[pc,#88] ; [0x3a34] = 0x20000084
        0x000039dc:    68c9        .h      LDR      r1,[r1,#0xc]
        0x000039de:    6088        .`      STR      r0,[r1,#8]
        0x000039e0:    4814        .H      LDR      r0,[pc,#80] ; [0x3a34] = 0x20000084
        0x000039e2:    68c0        .h      LDR      r0,[r0,#0xc]
        0x000039e4:    6880        .h      LDR      r0,[r0,#8]
        0x000039e6:    0880        ..      LSRS     r0,r0,#2
        0x000039e8:    0080        ..      LSLS     r0,r0,#2
        0x000039ea:    1c40        @.      ADDS     r0,r0,#1
        0x000039ec:    4911        .I      LDR      r1,[pc,#68] ; [0x3a34] = 0x20000084
        0x000039ee:    68c9        .h      LDR      r1,[r1,#0xc]
        0x000039f0:    6088        .`      STR      r0,[r1,#8]
        0x000039f2:    20af        .       MOVS     r0,#0xaf
        0x000039f4:    490f        .I      LDR      r1,[pc,#60] ; [0x3a34] = 0x20000084
        0x000039f6:    68c9        .h      LDR      r1,[r1,#0xc]
        0x000039f8:    6208        .b      STR      r0,[r1,#0x20]
        0x000039fa:    480e        .H      LDR      r0,[pc,#56] ; [0x3a34] = 0x20000084
        0x000039fc:    68c0        .h      LDR      r0,[r0,#0xc]
        0x000039fe:    6800        .h      LDR      r0,[r0,#0]
        0x00003a00:    0840        @.      LSRS     r0,r0,#1
        0x00003a02:    0040        @.      LSLS     r0,r0,#1
        0x00003a04:    1c40        @.      ADDS     r0,r0,#1
        0x00003a06:    490b        .I      LDR      r1,[pc,#44] ; [0x3a34] = 0x20000084
        0x00003a08:    68c9        .h      LDR      r1,[r1,#0xc]
        0x00003a0a:    6008        .`      STR      r0,[r1,#0]
        0x00003a0c:    bf00        ..      NOP      
        0x00003a0e:    4809        .H      LDR      r0,[pc,#36] ; [0x3a34] = 0x20000084
        0x00003a10:    68c0        .h      LDR      r0,[r0,#0xc]
        0x00003a12:    6800        .h      LDR      r0,[r0,#0]
        0x00003a14:    07c0        ..      LSLS     r0,r0,#31
        0x00003a16:    0fc0        ..      LSRS     r0,r0,#31
        0x00003a18:    2801        .(      CMP      r0,#1
        0x00003a1a:    d0f8        ..      BEQ      0x3a0e ; Initial_pannel + 494
        0x00003a1c:    4805        .H      LDR      r0,[pc,#20] ; [0x3a34] = 0x20000084
        0x00003a1e:    68c0        .h      LDR      r0,[r0,#0xc]
        0x00003a20:    6880        .h      LDR      r0,[r0,#8]
        0x00003a22:    0880        ..      LSRS     r0,r0,#2
        0x00003a24:    0080        ..      LSLS     r0,r0,#2
        0x00003a26:    4903        .I      LDR      r1,[pc,#12] ; [0x3a34] = 0x20000084
        0x00003a28:    68c9        .h      LDR      r1,[r1,#0xc]
        0x00003a2a:    6088        .`      STR      r0,[r1,#8]
        0x00003a2c:    4770        pG      BX       lr
    $d
        0x00003a2e:    0000        ..      DCW    0
        0x00003a30:    50000200    ...P    DCD    1342177792
        0x00003a34:    20000084    ...     DCD    536871044
    $t
    i.NVIC_EnableIRQ
    NVIC_EnableIRQ
        0x00003a38:    06c2        ..      LSLS     r2,r0,#27
        0x00003a3a:    0ed2        ..      LSRS     r2,r2,#27
        0x00003a3c:    2101        .!      MOVS     r1,#1
        0x00003a3e:    4091        .@      LSLS     r1,r1,r2
        0x00003a40:    4a01        .J      LDR      r2,[pc,#4] ; [0x3a48] = 0xe000e100
        0x00003a42:    6011        .`      STR      r1,[r2,#0]
        0x00003a44:    4770        pG      BX       lr
    $d
        0x00003a46:    0000        ..      DCW    0
        0x00003a48:    e000e100    ....    DCD    3758153984
    $t
    i.PWRWU_IRQHandler
    PWRWU_IRQHandler
        0x00003a4c:    b510        ..      PUSH     {r4,lr}
        0x00003a4e:    4807        .H      LDR      r0,[pc,#28] ; [0x3a6c] = 0x50000200
        0x00003a50:    6800        .h      LDR      r0,[r0,#0]
        0x00003a52:    2140        @!      MOVS     r1,#0x40
        0x00003a54:    4388        .C      BICS     r0,r0,r1
        0x00003a56:    3040        @0      ADDS     r0,r0,#0x40
        0x00003a58:    4904        .I      LDR      r1,[pc,#16] ; [0x3a6c] = 0x50000200
        0x00003a5a:    6008        .`      STR      r0,[r1,#0]
        0x00003a5c:    4804        .H      LDR      r0,[pc,#16] ; [0x3a70] = 0x20000698
        0x00003a5e:    6800        .h      LDR      r0,[r0,#0]
        0x00003a60:    2800        .(      CMP      r0,#0
        0x00003a62:    d002        ..      BEQ      0x3a6a ; PWRWU_IRQHandler + 30
        0x00003a64:    4802        .H      LDR      r0,[pc,#8] ; [0x3a70] = 0x20000698
        0x00003a66:    6800        .h      LDR      r0,[r0,#0]
        0x00003a68:    4780        .G      BLX      r0
        0x00003a6a:    bd10        ..      POP      {r4,pc}
    $d
        0x00003a6c:    50000200    ...P    DCD    1342177792
        0x00003a70:    20000698    ...     DCD    536872600
    $t
    i.SPI0_IRQHandler
    SPI0_IRQHandler
        0x00003a74:    b510        ..      PUSH     {r4,lr}
        0x00003a76:    4816        .H      LDR      r0,[pc,#88] ; [0x3ad0] = 0x40030000
        0x00003a78:    6800        .h      LDR      r0,[r0,#0]
        0x00003a7a:    03c0        ..      LSLS     r0,r0,#15
        0x00003a7c:    0fc0        ..      LSRS     r0,r0,#31
        0x00003a7e:    2801        .(      CMP      r0,#1
        0x00003a80:    d10f        ..      BNE      0x3aa2 ; SPI0_IRQHandler + 46
        0x00003a82:    4813        .H      LDR      r0,[pc,#76] ; [0x3ad0] = 0x40030000
        0x00003a84:    6800        .h      LDR      r0,[r0,#0]
        0x00003a86:    2101        .!      MOVS     r1,#1
        0x00003a88:    0409        ..      LSLS     r1,r1,#16
        0x00003a8a:    4388        .C      BICS     r0,r0,r1
        0x00003a8c:    1840        @.      ADDS     r0,r0,r1
        0x00003a8e:    4910        .I      LDR      r1,[pc,#64] ; [0x3ad0] = 0x40030000
        0x00003a90:    6008        .`      STR      r0,[r1,#0]
        0x00003a92:    4810        .H      LDR      r0,[pc,#64] ; [0x3ad4] = 0x20000748
        0x00003a94:    6840        @h      LDR      r0,[r0,#4]
        0x00003a96:    2800        .(      CMP      r0,#0
        0x00003a98:    d003        ..      BEQ      0x3aa2 ; SPI0_IRQHandler + 46
        0x00003a9a:    4a0e        .J      LDR      r2,[pc,#56] ; [0x3ad4] = 0x20000748
        0x00003a9c:    6890        .h      LDR      r0,[r2,#8]
        0x00003a9e:    6851        Qh      LDR      r1,[r2,#4]
        0x00003aa0:    4788        .G      BLX      r1
        0x00003aa2:    480b        .H      LDR      r0,[pc,#44] ; [0x3ad0] = 0x40030000
        0x00003aa4:    6bc0        .k      LDR      r0,[r0,#0x3c]
        0x00003aa6:    0500        ..      LSLS     r0,r0,#20
        0x00003aa8:    0fc0        ..      LSRS     r0,r0,#31
        0x00003aaa:    2801        .(      CMP      r0,#1
        0x00003aac:    d10f        ..      BNE      0x3ace ; SPI0_IRQHandler + 90
        0x00003aae:    4808        .H      LDR      r0,[pc,#32] ; [0x3ad0] = 0x40030000
        0x00003ab0:    6bc0        .k      LDR      r0,[r0,#0x3c]
        0x00003ab2:    2101        .!      MOVS     r1,#1
        0x00003ab4:    02c9        ..      LSLS     r1,r1,#11
        0x00003ab6:    4388        .C      BICS     r0,r0,r1
        0x00003ab8:    1840        @.      ADDS     r0,r0,r1
        0x00003aba:    4905        .I      LDR      r1,[pc,#20] ; [0x3ad0] = 0x40030000
        0x00003abc:    63c8        .c      STR      r0,[r1,#0x3c]
        0x00003abe:    4805        .H      LDR      r0,[pc,#20] ; [0x3ad4] = 0x20000748
        0x00003ac0:    68c0        .h      LDR      r0,[r0,#0xc]
        0x00003ac2:    2800        .(      CMP      r0,#0
        0x00003ac4:    d003        ..      BEQ      0x3ace ; SPI0_IRQHandler + 90
        0x00003ac6:    4a03        .J      LDR      r2,[pc,#12] ; [0x3ad4] = 0x20000748
        0x00003ac8:    6910        .i      LDR      r0,[r2,#0x10]
        0x00003aca:    68d1        .h      LDR      r1,[r2,#0xc]
        0x00003acc:    4788        .G      BLX      r1
        0x00003ace:    bd10        ..      POP      {r4,pc}
    $d
        0x00003ad0:    40030000    ...@    DCD    1073938432
        0x00003ad4:    20000748    H..     DCD    536872776
    $t
    i.SPI1_IRQHandler
    SPI1_IRQHandler
        0x00003ad8:    b510        ..      PUSH     {r4,lr}
        0x00003ada:    4816        .H      LDR      r0,[pc,#88] ; [0x3b34] = 0x40034000
        0x00003adc:    6800        .h      LDR      r0,[r0,#0]
        0x00003ade:    03c0        ..      LSLS     r0,r0,#15
        0x00003ae0:    0fc0        ..      LSRS     r0,r0,#31
        0x00003ae2:    2801        .(      CMP      r0,#1
        0x00003ae4:    d10f        ..      BNE      0x3b06 ; SPI1_IRQHandler + 46
        0x00003ae6:    4813        .H      LDR      r0,[pc,#76] ; [0x3b34] = 0x40034000
        0x00003ae8:    6800        .h      LDR      r0,[r0,#0]
        0x00003aea:    2101        .!      MOVS     r1,#1
        0x00003aec:    0409        ..      LSLS     r1,r1,#16
        0x00003aee:    4388        .C      BICS     r0,r0,r1
        0x00003af0:    1840        @.      ADDS     r0,r0,r1
        0x00003af2:    4910        .I      LDR      r1,[pc,#64] ; [0x3b34] = 0x40034000
        0x00003af4:    6008        .`      STR      r0,[r1,#0]
        0x00003af6:    4810        .H      LDR      r0,[pc,#64] ; [0x3b38] = 0x20000748
        0x00003af8:    6980        .i      LDR      r0,[r0,#0x18]
        0x00003afa:    2800        .(      CMP      r0,#0
        0x00003afc:    d003        ..      BEQ      0x3b06 ; SPI1_IRQHandler + 46
        0x00003afe:    4a0e        .J      LDR      r2,[pc,#56] ; [0x3b38] = 0x20000748
        0x00003b00:    69d0        .i      LDR      r0,[r2,#0x1c]
        0x00003b02:    6991        .i      LDR      r1,[r2,#0x18]
        0x00003b04:    4788        .G      BLX      r1
        0x00003b06:    480b        .H      LDR      r0,[pc,#44] ; [0x3b34] = 0x40034000
        0x00003b08:    6bc0        .k      LDR      r0,[r0,#0x3c]
        0x00003b0a:    0500        ..      LSLS     r0,r0,#20
        0x00003b0c:    0fc0        ..      LSRS     r0,r0,#31
        0x00003b0e:    2801        .(      CMP      r0,#1
        0x00003b10:    d10f        ..      BNE      0x3b32 ; SPI1_IRQHandler + 90
        0x00003b12:    4808        .H      LDR      r0,[pc,#32] ; [0x3b34] = 0x40034000
        0x00003b14:    6bc0        .k      LDR      r0,[r0,#0x3c]
        0x00003b16:    2101        .!      MOVS     r1,#1
        0x00003b18:    02c9        ..      LSLS     r1,r1,#11
        0x00003b1a:    4388        .C      BICS     r0,r0,r1
        0x00003b1c:    1840        @.      ADDS     r0,r0,r1
        0x00003b1e:    4905        .I      LDR      r1,[pc,#20] ; [0x3b34] = 0x40034000
        0x00003b20:    63c8        .c      STR      r0,[r1,#0x3c]
        0x00003b22:    4805        .H      LDR      r0,[pc,#20] ; [0x3b38] = 0x20000748
        0x00003b24:    6a00        .j      LDR      r0,[r0,#0x20]
        0x00003b26:    2800        .(      CMP      r0,#0
        0x00003b28:    d003        ..      BEQ      0x3b32 ; SPI1_IRQHandler + 90
        0x00003b2a:    4a03        .J      LDR      r2,[pc,#12] ; [0x3b38] = 0x20000748
        0x00003b2c:    6a50        Pj      LDR      r0,[r2,#0x24]
        0x00003b2e:    6a11        .j      LDR      r1,[r2,#0x20]
        0x00003b30:    4788        .G      BLX      r1
        0x00003b32:    bd10        ..      POP      {r4,pc}
    $d
        0x00003b34:    40034000    .@.@    DCD    1073954816
        0x00003b38:    20000748    H..     DCD    536872776
    $t
    i.SPI2_IRQHandler
    SPI2_IRQHandler
        0x00003b3c:    b510        ..      PUSH     {r4,lr}
        0x00003b3e:    4816        .H      LDR      r0,[pc,#88] ; [0x3b98] = 0x40130000
        0x00003b40:    6800        .h      LDR      r0,[r0,#0]
        0x00003b42:    03c0        ..      LSLS     r0,r0,#15
        0x00003b44:    0fc0        ..      LSRS     r0,r0,#31
        0x00003b46:    2801        .(      CMP      r0,#1
        0x00003b48:    d10f        ..      BNE      0x3b6a ; SPI2_IRQHandler + 46
        0x00003b4a:    4813        .H      LDR      r0,[pc,#76] ; [0x3b98] = 0x40130000
        0x00003b4c:    6800        .h      LDR      r0,[r0,#0]
        0x00003b4e:    2101        .!      MOVS     r1,#1
        0x00003b50:    0409        ..      LSLS     r1,r1,#16
        0x00003b52:    4388        .C      BICS     r0,r0,r1
        0x00003b54:    1840        @.      ADDS     r0,r0,r1
        0x00003b56:    4910        .I      LDR      r1,[pc,#64] ; [0x3b98] = 0x40130000
        0x00003b58:    6008        .`      STR      r0,[r1,#0]
        0x00003b5a:    4810        .H      LDR      r0,[pc,#64] ; [0x3b9c] = 0x20000748
        0x00003b5c:    6ac0        .j      LDR      r0,[r0,#0x2c]
        0x00003b5e:    2800        .(      CMP      r0,#0
        0x00003b60:    d003        ..      BEQ      0x3b6a ; SPI2_IRQHandler + 46
        0x00003b62:    4a0e        .J      LDR      r2,[pc,#56] ; [0x3b9c] = 0x20000748
        0x00003b64:    6b10        .k      LDR      r0,[r2,#0x30]
        0x00003b66:    6ad1        .j      LDR      r1,[r2,#0x2c]
        0x00003b68:    4788        .G      BLX      r1
        0x00003b6a:    480b        .H      LDR      r0,[pc,#44] ; [0x3b98] = 0x40130000
        0x00003b6c:    6bc0        .k      LDR      r0,[r0,#0x3c]
        0x00003b6e:    0500        ..      LSLS     r0,r0,#20
        0x00003b70:    0fc0        ..      LSRS     r0,r0,#31
        0x00003b72:    2801        .(      CMP      r0,#1
        0x00003b74:    d10f        ..      BNE      0x3b96 ; SPI2_IRQHandler + 90
        0x00003b76:    4808        .H      LDR      r0,[pc,#32] ; [0x3b98] = 0x40130000
        0x00003b78:    6bc0        .k      LDR      r0,[r0,#0x3c]
        0x00003b7a:    2101        .!      MOVS     r1,#1
        0x00003b7c:    02c9        ..      LSLS     r1,r1,#11
        0x00003b7e:    4388        .C      BICS     r0,r0,r1
        0x00003b80:    1840        @.      ADDS     r0,r0,r1
        0x00003b82:    4905        .I      LDR      r1,[pc,#20] ; [0x3b98] = 0x40130000
        0x00003b84:    63c8        .c      STR      r0,[r1,#0x3c]
        0x00003b86:    4805        .H      LDR      r0,[pc,#20] ; [0x3b9c] = 0x20000748
        0x00003b88:    6b40        @k      LDR      r0,[r0,#0x34]
        0x00003b8a:    2800        .(      CMP      r0,#0
        0x00003b8c:    d003        ..      BEQ      0x3b96 ; SPI2_IRQHandler + 90
        0x00003b8e:    4a03        .J      LDR      r2,[pc,#12] ; [0x3b9c] = 0x20000748
        0x00003b90:    6b90        .k      LDR      r0,[r2,#0x38]
        0x00003b92:    6b51        Qk      LDR      r1,[r2,#0x34]
        0x00003b94:    4788        .G      BLX      r1
        0x00003b96:    bd10        ..      POP      {r4,pc}
    $d
        0x00003b98:    40130000    ...@    DCD    1074987008
        0x00003b9c:    20000748    H..     DCD    536872776
    $t
    i.SPI3_IRQHandler
    SPI3_IRQHandler
        0x00003ba0:    b510        ..      PUSH     {r4,lr}
        0x00003ba2:    4816        .H      LDR      r0,[pc,#88] ; [0x3bfc] = 0x40134000
        0x00003ba4:    6800        .h      LDR      r0,[r0,#0]
        0x00003ba6:    03c0        ..      LSLS     r0,r0,#15
        0x00003ba8:    0fc0        ..      LSRS     r0,r0,#31
        0x00003baa:    2801        .(      CMP      r0,#1
        0x00003bac:    d10f        ..      BNE      0x3bce ; SPI3_IRQHandler + 46
        0x00003bae:    4813        .H      LDR      r0,[pc,#76] ; [0x3bfc] = 0x40134000
        0x00003bb0:    6800        .h      LDR      r0,[r0,#0]
        0x00003bb2:    2101        .!      MOVS     r1,#1
        0x00003bb4:    0409        ..      LSLS     r1,r1,#16
        0x00003bb6:    4388        .C      BICS     r0,r0,r1
        0x00003bb8:    1840        @.      ADDS     r0,r0,r1
        0x00003bba:    4910        .I      LDR      r1,[pc,#64] ; [0x3bfc] = 0x40134000
        0x00003bbc:    6008        .`      STR      r0,[r1,#0]
        0x00003bbe:    4810        .H      LDR      r0,[pc,#64] ; [0x3c00] = 0x20000748
        0x00003bc0:    6c00        .l      LDR      r0,[r0,#0x40]
        0x00003bc2:    2800        .(      CMP      r0,#0
        0x00003bc4:    d003        ..      BEQ      0x3bce ; SPI3_IRQHandler + 46
        0x00003bc6:    4a0e        .J      LDR      r2,[pc,#56] ; [0x3c00] = 0x20000748
        0x00003bc8:    6c50        Pl      LDR      r0,[r2,#0x44]
        0x00003bca:    6c11        .l      LDR      r1,[r2,#0x40]
        0x00003bcc:    4788        .G      BLX      r1
        0x00003bce:    480b        .H      LDR      r0,[pc,#44] ; [0x3bfc] = 0x40134000
        0x00003bd0:    6bc0        .k      LDR      r0,[r0,#0x3c]
        0x00003bd2:    0500        ..      LSLS     r0,r0,#20
        0x00003bd4:    0fc0        ..      LSRS     r0,r0,#31
        0x00003bd6:    2801        .(      CMP      r0,#1
        0x00003bd8:    d10f        ..      BNE      0x3bfa ; SPI3_IRQHandler + 90
        0x00003bda:    4808        .H      LDR      r0,[pc,#32] ; [0x3bfc] = 0x40134000
        0x00003bdc:    6bc0        .k      LDR      r0,[r0,#0x3c]
        0x00003bde:    2101        .!      MOVS     r1,#1
        0x00003be0:    02c9        ..      LSLS     r1,r1,#11
        0x00003be2:    4388        .C      BICS     r0,r0,r1
        0x00003be4:    1840        @.      ADDS     r0,r0,r1
        0x00003be6:    4905        .I      LDR      r1,[pc,#20] ; [0x3bfc] = 0x40134000
        0x00003be8:    63c8        .c      STR      r0,[r1,#0x3c]
        0x00003bea:    4805        .H      LDR      r0,[pc,#20] ; [0x3c00] = 0x20000748
        0x00003bec:    6c80        .l      LDR      r0,[r0,#0x48]
        0x00003bee:    2800        .(      CMP      r0,#0
        0x00003bf0:    d003        ..      BEQ      0x3bfa ; SPI3_IRQHandler + 90
        0x00003bf2:    4a03        .J      LDR      r2,[pc,#12] ; [0x3c00] = 0x20000748
        0x00003bf4:    6cd0        .l      LDR      r0,[r2,#0x4c]
        0x00003bf6:    6c91        .l      LDR      r1,[r2,#0x48]
        0x00003bf8:    4788        .G      BLX      r1
        0x00003bfa:    bd10        ..      POP      {r4,pc}
    $d
        0x00003bfc:    40134000    .@.@    DCD    1075003392
        0x00003c00:    20000748    H..     DCD    536872776
    $t
    i.SetPACA
    SetPACA
        0x00003c04:    4a3b        ;J      LDR      r2,[pc,#236] ; [0x3cf4] = 0x20000084
        0x00003c06:    68d2        .h      LDR      r2,[r2,#0xc]
        0x00003c08:    6892        .h      LDR      r2,[r2,#8]
        0x00003c0a:    0892        ..      LSRS     r2,r2,#2
        0x00003c0c:    0092        ..      LSLS     r2,r2,#2
        0x00003c0e:    1c52        R.      ADDS     r2,r2,#1
        0x00003c10:    4b38        8K      LDR      r3,[pc,#224] ; [0x3cf4] = 0x20000084
        0x00003c12:    68db        .h      LDR      r3,[r3,#0xc]
        0x00003c14:    609a        .`      STR      r2,[r3,#8]
        0x00003c16:    22b0        ."      MOVS     r2,#0xb0
        0x00003c18:    4302        .C      ORRS     r2,r2,r0
        0x00003c1a:    4b36        6K      LDR      r3,[pc,#216] ; [0x3cf4] = 0x20000084
        0x00003c1c:    68db        .h      LDR      r3,[r3,#0xc]
        0x00003c1e:    621a        .b      STR      r2,[r3,#0x20]
        0x00003c20:    4a34        4J      LDR      r2,[pc,#208] ; [0x3cf4] = 0x20000084
        0x00003c22:    68d2        .h      LDR      r2,[r2,#0xc]
        0x00003c24:    6812        .h      LDR      r2,[r2,#0]
        0x00003c26:    0852        R.      LSRS     r2,r2,#1
        0x00003c28:    0052        R.      LSLS     r2,r2,#1
        0x00003c2a:    1c52        R.      ADDS     r2,r2,#1
        0x00003c2c:    4b31        1K      LDR      r3,[pc,#196] ; [0x3cf4] = 0x20000084
        0x00003c2e:    68db        .h      LDR      r3,[r3,#0xc]
        0x00003c30:    601a        .`      STR      r2,[r3,#0]
        0x00003c32:    bf00        ..      NOP      
        0x00003c34:    4a2f        /J      LDR      r2,[pc,#188] ; [0x3cf4] = 0x20000084
        0x00003c36:    68d2        .h      LDR      r2,[r2,#0xc]
        0x00003c38:    6812        .h      LDR      r2,[r2,#0]
        0x00003c3a:    07d2        ..      LSLS     r2,r2,#31
        0x00003c3c:    0fd2        ..      LSRS     r2,r2,#31
        0x00003c3e:    2a01        .*      CMP      r2,#1
        0x00003c40:    d0f8        ..      BEQ      0x3c34 ; SetPACA + 48
        0x00003c42:    4a2c        ,J      LDR      r2,[pc,#176] ; [0x3cf4] = 0x20000084
        0x00003c44:    68d2        .h      LDR      r2,[r2,#0xc]
        0x00003c46:    6892        .h      LDR      r2,[r2,#8]
        0x00003c48:    0892        ..      LSRS     r2,r2,#2
        0x00003c4a:    0092        ..      LSLS     r2,r2,#2
        0x00003c4c:    4b29        )K      LDR      r3,[pc,#164] ; [0x3cf4] = 0x20000084
        0x00003c4e:    68db        .h      LDR      r3,[r3,#0xc]
        0x00003c50:    609a        .`      STR      r2,[r3,#8]
        0x00003c52:    4a28        (J      LDR      r2,[pc,#160] ; [0x3cf4] = 0x20000084
        0x00003c54:    68d2        .h      LDR      r2,[r2,#0xc]
        0x00003c56:    6892        .h      LDR      r2,[r2,#8]
        0x00003c58:    0892        ..      LSRS     r2,r2,#2
        0x00003c5a:    0092        ..      LSLS     r2,r2,#2
        0x00003c5c:    1c52        R.      ADDS     r2,r2,#1
        0x00003c5e:    4b25        %K      LDR      r3,[pc,#148] ; [0x3cf4] = 0x20000084
        0x00003c60:    68db        .h      LDR      r3,[r3,#0xc]
        0x00003c62:    609a        .`      STR      r2,[r3,#8]
        0x00003c64:    110a        ..      ASRS     r2,r1,#4
        0x00003c66:    2310        .#      MOVS     r3,#0x10
        0x00003c68:    431a        .C      ORRS     r2,r2,r3
        0x00003c6a:    4b22        "K      LDR      r3,[pc,#136] ; [0x3cf4] = 0x20000084
        0x00003c6c:    68db        .h      LDR      r3,[r3,#0xc]
        0x00003c6e:    621a        .b      STR      r2,[r3,#0x20]
        0x00003c70:    4a20         J      LDR      r2,[pc,#128] ; [0x3cf4] = 0x20000084
        0x00003c72:    68d2        .h      LDR      r2,[r2,#0xc]
        0x00003c74:    6812        .h      LDR      r2,[r2,#0]
        0x00003c76:    0852        R.      LSRS     r2,r2,#1
        0x00003c78:    0052        R.      LSLS     r2,r2,#1
        0x00003c7a:    1c52        R.      ADDS     r2,r2,#1
        0x00003c7c:    4b1d        .K      LDR      r3,[pc,#116] ; [0x3cf4] = 0x20000084
        0x00003c7e:    68db        .h      LDR      r3,[r3,#0xc]
        0x00003c80:    601a        .`      STR      r2,[r3,#0]
        0x00003c82:    bf00        ..      NOP      
        0x00003c84:    4a1b        .J      LDR      r2,[pc,#108] ; [0x3cf4] = 0x20000084
        0x00003c86:    68d2        .h      LDR      r2,[r2,#0xc]
        0x00003c88:    6812        .h      LDR      r2,[r2,#0]
        0x00003c8a:    07d2        ..      LSLS     r2,r2,#31
        0x00003c8c:    0fd2        ..      LSRS     r2,r2,#31
        0x00003c8e:    2a01        .*      CMP      r2,#1
        0x00003c90:    d0f8        ..      BEQ      0x3c84 ; SetPACA + 128
        0x00003c92:    4a18        .J      LDR      r2,[pc,#96] ; [0x3cf4] = 0x20000084
        0x00003c94:    68d2        .h      LDR      r2,[r2,#0xc]
        0x00003c96:    6892        .h      LDR      r2,[r2,#8]
        0x00003c98:    0892        ..      LSRS     r2,r2,#2
        0x00003c9a:    0092        ..      LSLS     r2,r2,#2
        0x00003c9c:    4b15        .K      LDR      r3,[pc,#84] ; [0x3cf4] = 0x20000084
        0x00003c9e:    68db        .h      LDR      r3,[r3,#0xc]
        0x00003ca0:    609a        .`      STR      r2,[r3,#8]
        0x00003ca2:    4a14        .J      LDR      r2,[pc,#80] ; [0x3cf4] = 0x20000084
        0x00003ca4:    68d2        .h      LDR      r2,[r2,#0xc]
        0x00003ca6:    6892        .h      LDR      r2,[r2,#8]
        0x00003ca8:    0892        ..      LSRS     r2,r2,#2
        0x00003caa:    0092        ..      LSLS     r2,r2,#2
        0x00003cac:    1c52        R.      ADDS     r2,r2,#1
        0x00003cae:    4b11        .K      LDR      r3,[pc,#68] ; [0x3cf4] = 0x20000084
        0x00003cb0:    68db        .h      LDR      r3,[r3,#0xc]
        0x00003cb2:    609a        .`      STR      r2,[r3,#8]
        0x00003cb4:    070a        ..      LSLS     r2,r1,#28
        0x00003cb6:    0f12        ..      LSRS     r2,r2,#28
        0x00003cb8:    4b0e        .K      LDR      r3,[pc,#56] ; [0x3cf4] = 0x20000084
        0x00003cba:    68db        .h      LDR      r3,[r3,#0xc]
        0x00003cbc:    621a        .b      STR      r2,[r3,#0x20]
        0x00003cbe:    4a0d        .J      LDR      r2,[pc,#52] ; [0x3cf4] = 0x20000084
        0x00003cc0:    68d2        .h      LDR      r2,[r2,#0xc]
        0x00003cc2:    6812        .h      LDR      r2,[r2,#0]
        0x00003cc4:    0852        R.      LSRS     r2,r2,#1
        0x00003cc6:    0052        R.      LSLS     r2,r2,#1
        0x00003cc8:    1c52        R.      ADDS     r2,r2,#1
        0x00003cca:    4b0a        .K      LDR      r3,[pc,#40] ; [0x3cf4] = 0x20000084
        0x00003ccc:    68db        .h      LDR      r3,[r3,#0xc]
        0x00003cce:    601a        .`      STR      r2,[r3,#0]
        0x00003cd0:    bf00        ..      NOP      
        0x00003cd2:    4a08        .J      LDR      r2,[pc,#32] ; [0x3cf4] = 0x20000084
        0x00003cd4:    68d2        .h      LDR      r2,[r2,#0xc]
        0x00003cd6:    6812        .h      LDR      r2,[r2,#0]
        0x00003cd8:    07d2        ..      LSLS     r2,r2,#31
        0x00003cda:    0fd2        ..      LSRS     r2,r2,#31
        0x00003cdc:    2a01        .*      CMP      r2,#1
        0x00003cde:    d0f8        ..      BEQ      0x3cd2 ; SetPACA + 206
        0x00003ce0:    4a04        .J      LDR      r2,[pc,#16] ; [0x3cf4] = 0x20000084
        0x00003ce2:    68d2        .h      LDR      r2,[r2,#0xc]
        0x00003ce4:    6892        .h      LDR      r2,[r2,#8]
        0x00003ce6:    0892        ..      LSRS     r2,r2,#2
        0x00003ce8:    0092        ..      LSLS     r2,r2,#2
        0x00003cea:    4b02        .K      LDR      r3,[pc,#8] ; [0x3cf4] = 0x20000084
        0x00003cec:    68db        .h      LDR      r3,[r3,#0xc]
        0x00003cee:    609a        .`      STR      r2,[r3,#8]
        0x00003cf0:    4770        pG      BX       lr
    $d
        0x00003cf2:    0000        ..      DCW    0
        0x00003cf4:    20000084    ...     DCD    536871044
    $t
    i.Show_Word
    Show_Word
        0x00003cf8:    b5fc        ..      PUSH     {r2-r7,lr}
        0x00003cfa:    4605        .F      MOV      r5,r0
        0x00003cfc:    460e        .F      MOV      r6,r1
        0x00003cfe:    4617        .F      MOV      r7,r2
        0x00003d00:    2400        .$      MOVS     r4,#0
        0x00003d02:    2000        .       MOVS     r0,#0
        0x00003d04:    9001        ..      STR      r0,[sp,#4]
        0x00003d06:    4638        8F      MOV      r0,r7
        0x00003d08:    3820         8      SUBS     r0,r0,#0x20
        0x00003d0a:    0100        ..      LSLS     r0,r0,#4
        0x00003d0c:    9001        ..      STR      r0,[sp,#4]
        0x00003d0e:    bf00        ..      NOP      
        0x00003d10:    e011        ..      B        0x3d36 ; Show_Word + 62
        0x00003d12:    00f2        ..      LSLS     r2,r6,#3
        0x00003d14:    2381        .#      MOVS     r3,#0x81
        0x00003d16:    1a9a        ..      SUBS     r2,r3,r2
        0x00003d18:    1b12        ..      SUBS     r2,r2,r4
        0x00003d1a:    b2d1        ..      UXTB     r1,r2
        0x00003d1c:    066a        j.      LSLS     r2,r5,#25
        0x00003d1e:    0e10        ..      LSRS     r0,r2,#24
        0x00003d20:    f7ffff70    ..p.    BL       SetPACA ; 0x3c04
        0x00003d24:    9801        ..      LDR      r0,[sp,#4]
        0x00003d26:    1900        ..      ADDS     r0,r0,r4
        0x00003d28:    4910        .I      LDR      r1,[pc,#64] ; [0x3d6c] = 0x20000094
        0x00003d2a:    5c08        .\      LDRB     r0,[r1,r0]
        0x00003d2c:    9000        ..      STR      r0,[sp,#0]
        0x00003d2e:    9800        ..      LDR      r0,[sp,#0]
        0x00003d30:    f000f8c2    ....    BL       WriteData ; 0x3eb8
        0x00003d34:    1c64        d.      ADDS     r4,r4,#1
        0x00003d36:    2c08        .,      CMP      r4,#8
        0x00003d38:    dbeb        ..      BLT      0x3d12 ; Show_Word + 26
        0x00003d3a:    2400        .$      MOVS     r4,#0
        0x00003d3c:    e013        ..      B        0x3d66 ; Show_Word + 110
        0x00003d3e:    00f2        ..      LSLS     r2,r6,#3
        0x00003d40:    2381        .#      MOVS     r3,#0x81
        0x00003d42:    1a9a        ..      SUBS     r2,r3,r2
        0x00003d44:    1b12        ..      SUBS     r2,r2,r4
        0x00003d46:    b2d1        ..      UXTB     r1,r2
        0x00003d48:    006a        j.      LSLS     r2,r5,#1
        0x00003d4a:    1c52        R.      ADDS     r2,r2,#1
        0x00003d4c:    b2d0        ..      UXTB     r0,r2
        0x00003d4e:    f7ffff59    ..Y.    BL       SetPACA ; 0x3c04
        0x00003d52:    9801        ..      LDR      r0,[sp,#4]
        0x00003d54:    1900        ..      ADDS     r0,r0,r4
        0x00003d56:    3008        .0      ADDS     r0,r0,#8
        0x00003d58:    4904        .I      LDR      r1,[pc,#16] ; [0x3d6c] = 0x20000094
        0x00003d5a:    5c08        .\      LDRB     r0,[r1,r0]
        0x00003d5c:    9000        ..      STR      r0,[sp,#0]
        0x00003d5e:    9800        ..      LDR      r0,[sp,#0]
        0x00003d60:    f000f8aa    ....    BL       WriteData ; 0x3eb8
        0x00003d64:    1c64        d.      ADDS     r4,r4,#1
        0x00003d66:    2c08        .,      CMP      r4,#8
        0x00003d68:    dbe9        ..      BLT      0x3d3e ; Show_Word + 70
        0x00003d6a:    bdfc        ..      POP      {r2-r7,pc}
    $d
        0x00003d6c:    20000094    ...     DCD    536871060
    $t
    i.SystemCoreClockUpdate
    SystemCoreClockUpdate
        0x00003d70:    b570        p.      PUSH     {r4-r6,lr}
        0x00003d72:    4820         H      LDR      r0,[pc,#128] ; [0x3df4] = 0x50000200
        0x00003d74:    6900        .i      LDR      r0,[r0,#0x10]
        0x00003d76:    0746        F.      LSLS     r6,r0,#29
        0x00003d78:    0f76        v.      LSRS     r6,r6,#29
        0x00003d7a:    2e05        ..      CMP      r6,#5
        0x00003d7c:    d900        ..      BLS      0x3d80 ; SystemCoreClockUpdate + 16
        0x00003d7e:    2604        .&      MOVS     r6,#4
        0x00003d80:    2e02        ..      CMP      r6,#2
        0x00003d82:    d003        ..      BEQ      0x3d8c ; SystemCoreClockUpdate + 28
        0x00003d84:    00b0        ..      LSLS     r0,r6,#2
        0x00003d86:    491c        .I      LDR      r1,[pc,#112] ; [0x3df8] = 0x20000008
        0x00003d88:    580d        .X      LDR      r5,[r1,r0]
        0x00003d8a:    e01e        ..      B        0x3dca ; SystemCoreClockUpdate + 90
        0x00003d8c:    4819        .H      LDR      r0,[pc,#100] ; [0x3df4] = 0x50000200
        0x00003d8e:    6a00        .j      LDR      r0,[r0,#0x20]
        0x00003d90:    0400        ..      LSLS     r0,r0,#16
        0x00003d92:    0f84        ..      LSRS     r4,r0,#30
        0x00003d94:    2c01        .,      CMP      r4,#1
        0x00003d96:    d900        ..      BLS      0x3d9a ; SystemCoreClockUpdate + 42
        0x00003d98:    1e64        d.      SUBS     r4,r4,#1
        0x00003d9a:    4a16        .J      LDR      r2,[pc,#88] ; [0x3df4] = 0x50000200
        0x00003d9c:    6a12        .j      LDR      r2,[r2,#0x20]
        0x00003d9e:    0312        ..      LSLS     r2,r2,#12
        0x00003da0:    0fd2        ..      LSRS     r2,r2,#31
        0x00003da2:    d001        ..      BEQ      0x3da8 ; SystemCoreClockUpdate + 56
        0x00003da4:    4a15        .J      LDR      r2,[pc,#84] ; [0x3dfc] = 0x1518000
        0x00003da6:    e000        ..      B        0x3daa ; SystemCoreClockUpdate + 58
        0x00003da8:    4a15        .J      LDR      r2,[pc,#84] ; [0x3e00] = 0xb71b00
        0x00003daa:    4b12        .K      LDR      r3,[pc,#72] ; [0x3df4] = 0x50000200
        0x00003dac:    6a1b        .j      LDR      r3,[r3,#0x20]
        0x00003dae:    05db        ..      LSLS     r3,r3,#23
        0x00003db0:    0ddb        ..      LSRS     r3,r3,#23
        0x00003db2:    1c9b        ..      ADDS     r3,r3,#2
        0x00003db4:    4610        .F      MOV      r0,r2
        0x00003db6:    4358        XC      MULS     r0,r3,r0
        0x00003db8:    4a0e        .J      LDR      r2,[pc,#56] ; [0x3df4] = 0x50000200
        0x00003dba:    6a12        .j      LDR      r2,[r2,#0x20]
        0x00003dbc:    0492        ..      LSLS     r2,r2,#18
        0x00003dbe:    0ed2        ..      LSRS     r2,r2,#27
        0x00003dc0:    1c91        ..      ADDS     r1,r2,#2
        0x00003dc2:    f7fcfb0f    ....    BL       __aeabi_uidiv ; 0x3e4
        0x00003dc6:    40e0        .@      LSRS     r0,r0,r4
        0x00003dc8:    4605        .F      MOV      r5,r0
        0x00003dca:    480a        .H      LDR      r0,[pc,#40] ; [0x3df4] = 0x50000200
        0x00003dcc:    6980        .i      LDR      r0,[r0,#0x18]
        0x00003dce:    0700        ..      LSLS     r0,r0,#28
        0x00003dd0:    0f00        ..      LSRS     r0,r0,#28
        0x00003dd2:    1c41        A.      ADDS     r1,r0,#1
        0x00003dd4:    4628        (F      MOV      r0,r5
        0x00003dd6:    f7fcfb05    ....    BL       __aeabi_uidiv ; 0x3e4
        0x00003dda:    490a        .I      LDR      r1,[pc,#40] ; [0x3e04] = 0x20000000
        0x00003ddc:    6008        .`      STR      r0,[r1,#0]
        0x00003dde:    490a        .I      LDR      r1,[pc,#40] ; [0x3e08] = 0xf4240
        0x00003de0:    4808        .H      LDR      r0,[pc,#32] ; [0x3e04] = 0x20000000
        0x00003de2:    6800        .h      LDR      r0,[r0,#0]
        0x00003de4:    104a        J.      ASRS     r2,r1,#1
        0x00003de6:    1880        ..      ADDS     r0,r0,r2
        0x00003de8:    f7fcfafc    ....    BL       __aeabi_uidiv ; 0x3e4
        0x00003dec:    4907        .I      LDR      r1,[pc,#28] ; [0x3e0c] = 0x20000004
        0x00003dee:    6008        .`      STR      r0,[r1,#0]
        0x00003df0:    bd70        p.      POP      {r4-r6,pc}
    $d
        0x00003df2:    0000        ..      DCW    0
        0x00003df4:    50000200    ...P    DCD    1342177792
        0x00003df8:    20000008    ...     DCD    536870920
        0x00003dfc:    01518000    ..Q.    DCD    22118400
        0x00003e00:    00b71b00    ....    DCD    12000000
        0x00003e04:    20000000    ...     DCD    536870912
        0x00003e08:    000f4240    @B..    DCD    1000000
        0x00003e0c:    20000004    ...     DCD    536870916
    $t
    i.SystemInit
    SystemInit
        0x00003e10:    4770        pG      BX       lr
        0x00003e12:    0000        ..      MOVS     r0,r0
    i.UART02_IRQHandler
    UART02_IRQHandler
        0x00003e14:    b570        p.      PUSH     {r4-r6,lr}
        0x00003e16:    480a        .H      LDR      r0,[pc,#40] ; [0x3e40] = 0x40050000
        0x00003e18:    69c4        .i      LDR      r4,[r0,#0x1c]
        0x00003e1a:    480a        .H      LDR      r0,[pc,#40] ; [0x3e44] = 0x40154000
        0x00003e1c:    69c5        .i      LDR      r5,[r0,#0x1c]
        0x00003e1e:    480a        .H      LDR      r0,[pc,#40] ; [0x3e48] = 0x2000069c
        0x00003e20:    6800        .h      LDR      r0,[r0,#0]
        0x00003e22:    2800        .(      CMP      r0,#0
        0x00003e24:    d003        ..      BEQ      0x3e2e ; UART02_IRQHandler + 26
        0x00003e26:    4620         F      MOV      r0,r4
        0x00003e28:    4907        .I      LDR      r1,[pc,#28] ; [0x3e48] = 0x2000069c
        0x00003e2a:    6809        .h      LDR      r1,[r1,#0]
        0x00003e2c:    4788        .G      BLX      r1
        0x00003e2e:    4807        .H      LDR      r0,[pc,#28] ; [0x3e4c] = 0x200006a4
        0x00003e30:    6800        .h      LDR      r0,[r0,#0]
        0x00003e32:    2800        .(      CMP      r0,#0
        0x00003e34:    d003        ..      BEQ      0x3e3e ; UART02_IRQHandler + 42
        0x00003e36:    4628        (F      MOV      r0,r5
        0x00003e38:    4904        .I      LDR      r1,[pc,#16] ; [0x3e4c] = 0x200006a4
        0x00003e3a:    6809        .h      LDR      r1,[r1,#0]
        0x00003e3c:    4788        .G      BLX      r1
        0x00003e3e:    bd70        p.      POP      {r4-r6,pc}
    $d
        0x00003e40:    40050000    ...@    DCD    1074069504
        0x00003e44:    40154000    .@.@    DCD    1075134464
        0x00003e48:    2000069c    ...     DCD    536872604
        0x00003e4c:    200006a4    ...     DCD    536872612
    $t
    i.UART1_IRQHandler
    UART1_IRQHandler
        0x00003e50:    b510        ..      PUSH     {r4,lr}
        0x00003e52:    4805        .H      LDR      r0,[pc,#20] ; [0x3e68] = 0x40150000
        0x00003e54:    69c4        .i      LDR      r4,[r0,#0x1c]
        0x00003e56:    4805        .H      LDR      r0,[pc,#20] ; [0x3e6c] = 0x200006a0
        0x00003e58:    6800        .h      LDR      r0,[r0,#0]
        0x00003e5a:    2800        .(      CMP      r0,#0
        0x00003e5c:    d003        ..      BEQ      0x3e66 ; UART1_IRQHandler + 22
        0x00003e5e:    4620         F      MOV      r0,r4
        0x00003e60:    4902        .I      LDR      r1,[pc,#8] ; [0x3e6c] = 0x200006a0
        0x00003e62:    6809        .h      LDR      r1,[r1,#0]
        0x00003e64:    4788        .G      BLX      r1
        0x00003e66:    bd10        ..      POP      {r4,pc}
    $d
        0x00003e68:    40150000    ...@    DCD    1075118080
        0x00003e6c:    200006a0    ...     DCD    536872608
    $t
    i.UART_INT_HANDLE
    UART_INT_HANDLE
        0x00003e70:    b538        8.      PUSH     {r3-r5,lr}
        0x00003e72:    a00e        ..      ADR      r0,{pc}+0x3a ; 0x3eac
        0x00003e74:    6800        .h      LDR      r0,[r0,#0]
        0x00003e76:    9000        ..      STR      r0,[sp,#0]
        0x00003e78:    e011        ..      B        0x3e9e ; UART_INT_HANDLE + 46
        0x00003e7a:    2201        ."      MOVS     r2,#1
        0x00003e7c:    4669        iF      MOV      r1,sp
        0x00003e7e:    2000        .       MOVS     r0,#0
        0x00003e80:    f7fffb62    ..b.    BL       DrvUART_Read ; 0x3548
        0x00003e84:    4668        hF      MOV      r0,sp
        0x00003e86:    7800        .x      LDRB     r0,[r0,#0]
        0x00003e88:    2861        a(      CMP      r0,#0x61
        0x00003e8a:    d108        ..      BNE      0x3e9e ; UART_INT_HANDLE + 46
        0x00003e8c:    4808        .H      LDR      r0,[pc,#32] ; [0x3eb0] = 0x200006f0
        0x00003e8e:    f7fcfa87    ....    BL       strlen ; 0x3a0
        0x00003e92:    4604        .F      MOV      r4,r0
        0x00003e94:    4602        .F      MOV      r2,r0
        0x00003e96:    4906        .I      LDR      r1,[pc,#24] ; [0x3eb0] = 0x200006f0
        0x00003e98:    2000        .       MOVS     r0,#0
        0x00003e9a:    f7fffb75    ..u.    BL       DrvUART_Write ; 0x3588
        0x00003e9e:    4805        .H      LDR      r0,[pc,#20] ; [0x3eb4] = 0x40050000
        0x00003ea0:    69c0        .i      LDR      r0,[r0,#0x1c]
        0x00003ea2:    07c0        ..      LSLS     r0,r0,#31
        0x00003ea4:    0fc0        ..      LSRS     r0,r0,#31
        0x00003ea6:    2801        .(      CMP      r0,#1
        0x00003ea8:    d0e7        ..      BEQ      0x3e7a ; UART_INT_HANDLE + 10
        0x00003eaa:    bd38        8.      POP      {r3-r5,pc}
    $d
        0x00003eac:    000000ff    ....    DCD    255
        0x00003eb0:    200006f0    ...     DCD    536872688
        0x00003eb4:    40050000    ...@    DCD    1074069504
    $t
    i.WriteData
    WriteData
        0x00003eb8:    4914        .I      LDR      r1,[pc,#80] ; [0x3f0c] = 0x20000084
        0x00003eba:    68c9        .h      LDR      r1,[r1,#0xc]
        0x00003ebc:    6889        .h      LDR      r1,[r1,#8]
        0x00003ebe:    0889        ..      LSRS     r1,r1,#2
        0x00003ec0:    0089        ..      LSLS     r1,r1,#2
        0x00003ec2:    1c49        I.      ADDS     r1,r1,#1
        0x00003ec4:    4a11        .J      LDR      r2,[pc,#68] ; [0x3f0c] = 0x20000084
        0x00003ec6:    68d2        .h      LDR      r2,[r2,#0xc]
        0x00003ec8:    6091        .`      STR      r1,[r2,#8]
        0x00003eca:    21ff        .!      MOVS     r1,#0xff
        0x00003ecc:    3101        .1      ADDS     r1,#1
        0x00003ece:    4301        .C      ORRS     r1,r1,r0
        0x00003ed0:    4a0e        .J      LDR      r2,[pc,#56] ; [0x3f0c] = 0x20000084
        0x00003ed2:    68d2        .h      LDR      r2,[r2,#0xc]
        0x00003ed4:    6211        .b      STR      r1,[r2,#0x20]
        0x00003ed6:    490d        .I      LDR      r1,[pc,#52] ; [0x3f0c] = 0x20000084
        0x00003ed8:    68c9        .h      LDR      r1,[r1,#0xc]
        0x00003eda:    6809        .h      LDR      r1,[r1,#0]
        0x00003edc:    0849        I.      LSRS     r1,r1,#1
        0x00003ede:    0049        I.      LSLS     r1,r1,#1
        0x00003ee0:    1c49        I.      ADDS     r1,r1,#1
        0x00003ee2:    4a0a        .J      LDR      r2,[pc,#40] ; [0x3f0c] = 0x20000084
        0x00003ee4:    68d2        .h      LDR      r2,[r2,#0xc]
        0x00003ee6:    6011        .`      STR      r1,[r2,#0]
        0x00003ee8:    bf00        ..      NOP      
        0x00003eea:    4908        .I      LDR      r1,[pc,#32] ; [0x3f0c] = 0x20000084
        0x00003eec:    68c9        .h      LDR      r1,[r1,#0xc]
        0x00003eee:    6809        .h      LDR      r1,[r1,#0]
        0x00003ef0:    07c9        ..      LSLS     r1,r1,#31
        0x00003ef2:    0fc9        ..      LSRS     r1,r1,#31
        0x00003ef4:    2901        .)      CMP      r1,#1
        0x00003ef6:    d0f8        ..      BEQ      0x3eea ; WriteData + 50
        0x00003ef8:    4904        .I      LDR      r1,[pc,#16] ; [0x3f0c] = 0x20000084
        0x00003efa:    68c9        .h      LDR      r1,[r1,#0xc]
        0x00003efc:    6889        .h      LDR      r1,[r1,#8]
        0x00003efe:    0889        ..      LSRS     r1,r1,#2
        0x00003f00:    0089        ..      LSLS     r1,r1,#2
        0x00003f02:    4a02        .J      LDR      r2,[pc,#8] ; [0x3f0c] = 0x20000084
        0x00003f04:    68d2        .h      LDR      r2,[r2,#0xc]
        0x00003f06:    6091        .`      STR      r1,[r2,#8]
        0x00003f08:    4770        pG      BX       lr
    $d
        0x00003f0a:    0000        ..      DCW    0
        0x00003f0c:    20000084    ...     DCD    536871044
    $t
    i.__ARM_common_ll_muluu
    __ARM_common_ll_muluu
        0x00003f10:    b5f8        ..      PUSH     {r3-r7,lr}
        0x00003f12:    0c04        ..      LSRS     r4,r0,#16
        0x00003f14:    b28b        ..      UXTH     r3,r1
        0x00003f16:    4626        &F      MOV      r6,r4
        0x00003f18:    b282        ..      UXTH     r2,r0
        0x00003f1a:    435e        ^C      MULS     r6,r3,r6
        0x00003f1c:    4610        .F      MOV      r0,r2
        0x00003f1e:    4358        XC      MULS     r0,r3,r0
        0x00003f20:    0c0d        ..      LSRS     r5,r1,#16
        0x00003f22:    0c37        7.      LSRS     r7,r6,#16
        0x00003f24:    0436        6.      LSLS     r6,r6,#16
        0x00003f26:    2100        .!      MOVS     r1,#0
        0x00003f28:    1980        ..      ADDS     r0,r0,r6
        0x00003f2a:    4616        .F      MOV      r6,r2
        0x00003f2c:    4179        yA      ADCS     r1,r1,r7
        0x00003f2e:    436e        nC      MULS     r6,r5,r6
        0x00003f30:    0c37        7.      LSRS     r7,r6,#16
        0x00003f32:    0436        6.      LSLS     r6,r6,#16
        0x00003f34:    1980        ..      ADDS     r0,r0,r6
        0x00003f36:    4626        &F      MOV      r6,r4
        0x00003f38:    4179        yA      ADCS     r1,r1,r7
        0x00003f3a:    436e        nC      MULS     r6,r5,r6
        0x00003f3c:    1989        ..      ADDS     r1,r1,r6
        0x00003f3e:    bdf8        ..      POP      {r3-r7,pc}
    i.__ARM_common_switch8
    __ARM_common_switch8
        0x00003f40:    b430        0.      PUSH     {r4,r5}
        0x00003f42:    4674        tF      MOV      r4,lr
        0x00003f44:    1e64        d.      SUBS     r4,r4,#1
        0x00003f46:    7825        %x      LDRB     r5,[r4,#0]
        0x00003f48:    1c64        d.      ADDS     r4,r4,#1
        0x00003f4a:    42ab        .B      CMP      r3,r5
        0x00003f4c:    d200        ..      BCS      0x3f50 ; __ARM_common_switch8 + 16
        0x00003f4e:    461d        .F      MOV      r5,r3
        0x00003f50:    5d63        c]      LDRB     r3,[r4,r5]
        0x00003f52:    005b        [.      LSLS     r3,r3,#1
        0x00003f54:    18e3        ..      ADDS     r3,r4,r3
        0x00003f56:    bc30        0.      POP      {r4,r5}
        0x00003f58:    4718        .G      BX       r3
        0x00003f5a:    0000        ..      MOVS     r0,r0
    i.__ARM_fpclassify
    __ARM_fpclassify
        0x00003f5c:    0049        I.      LSLS     r1,r1,#1
        0x00003f5e:    02ca        ..      LSLS     r2,r1,#11
        0x00003f60:    4310        .C      ORRS     r0,r0,r2
        0x00003f62:    d000        ..      BEQ      0x3f66 ; __ARM_fpclassify + 10
        0x00003f64:    2004        .       MOVS     r0,#4
        0x00003f66:    0d4a        J.      LSRS     r2,r1,#21
        0x00003f68:    d001        ..      BEQ      0x3f6e ; __ARM_fpclassify + 18
        0x00003f6a:    2201        ."      MOVS     r2,#1
        0x00003f6c:    4310        .C      ORRS     r0,r0,r2
        0x00003f6e:    4a05        .J      LDR      r2,[pc,#20] ; [0x3f84] = 0x7ff
        0x00003f70:    0d49        I.      LSRS     r1,r1,#21
        0x00003f72:    4291        .B      CMP      r1,r2
        0x00003f74:    d101        ..      BNE      0x3f7a ; __ARM_fpclassify + 30
        0x00003f76:    2102        .!      MOVS     r1,#2
        0x00003f78:    4308        .C      ORRS     r0,r0,r1
        0x00003f7a:    2801        .(      CMP      r0,#1
        0x00003f7c:    d100        ..      BNE      0x3f80 ; __ARM_fpclassify + 36
        0x00003f7e:    2005        .       MOVS     r0,#5
        0x00003f80:    4770        pG      BX       lr
    $d
        0x00003f82:    0000        ..      DCW    0
        0x00003f84:    000007ff    ....    DCD    2047
    $t
    i.__ieee754_rem_pio2
    __ieee754_rem_pio2
        0x00003f88:    b5f7        ..      PUSH     {r0-r2,r4-r7,lr}
        0x00003f8a:    b096        ..      SUB      sp,sp,#0x58
        0x00003f8c:    9918        ..      LDR      r1,[sp,#0x60]
        0x00003f8e:    2200        ."      MOVS     r2,#0
        0x00003f90:    608a        .`      STR      r2,[r1,#8]
        0x00003f92:    60ca        .`      STR      r2,[r1,#0xc]
        0x00003f94:    9917        ..      LDR      r1,[sp,#0x5c]
        0x00003f96:    9108        ..      STR      r1,[sp,#0x20]
        0x00003f98:    004c        L.      LSLS     r4,r1,#1
        0x00003f9a:    49cd        .I      LDR      r1,[pc,#820] ; [0x42d0] = 0x3fe921fb
        0x00003f9c:    0864        d.      LSRS     r4,r4,#1
        0x00003f9e:    428c        .B      CMP      r4,r1
        0x00003fa0:    dc06        ..      BGT      0x3fb0 ; __ieee754_rem_pio2 + 40
        0x00003fa2:    9a18        ..      LDR      r2,[sp,#0x60]
        0x00003fa4:    9917        ..      LDR      r1,[sp,#0x5c]
        0x00003fa6:    6051        Q`      STR      r1,[r2,#4]
        0x00003fa8:    6010        .`      STR      r0,[r2,#0]
        0x00003faa:    2000        .       MOVS     r0,#0
        0x00003fac:    b019        ..      ADD      sp,sp,#0x64
        0x00003fae:    bdf0        ..      POP      {r4-r7,pc}
        0x00003fb0:    49c8        .I      LDR      r1,[pc,#800] ; [0x42d4] = 0x4002d97c
        0x00003fb2:    2700        .'      MOVS     r7,#0
        0x00003fb4:    4dc8        .M      LDR      r5,[pc,#800] ; [0x42d8] = 0x3ff921fb
        0x00003fb6:    43ff        .C      MVNS     r7,r7
        0x00003fb8:    428c        .B      CMP      r4,r1
        0x00003fba:    da3b        ;.      BGE      0x4034 ; __ieee754_rem_pio2 + 172
        0x00003fbc:    26d3        .&      MOVS     r6,#0xd3
        0x00003fbe:    9908        ..      LDR      r1,[sp,#0x20]
        0x00003fc0:    0576        v.      LSLS     r6,r6,#21
        0x00003fc2:    2900        .)      CMP      r1,#0
        0x00003fc4:    4ac5        .J      LDR      r2,[pc,#788] ; [0x42dc] = 0x54400000
        0x00003fc6:    9917        ..      LDR      r1,[sp,#0x5c]
        0x00003fc8:    462b        +F      MOV      r3,r5
        0x00003fca:    dd19        ..      BLE      0x4000 ; __ieee754_rem_pio2 + 120
        0x00003fcc:    f7fcfc7a    ..z.    BL       __aeabi_dsub ; 0x8c4
        0x00003fd0:    42ac        .B      CMP      r4,r5
        0x00003fd2:    d007        ..      BEQ      0x3fe4 ; __ieee754_rem_pio2 + 92
        0x00003fd4:    4ac2        .J      LDR      r2,[pc,#776] ; [0x42e0] = 0x1a626331
        0x00003fd6:    4bc3        .K      LDR      r3,[pc,#780] ; [0x42e4] = 0x3dd0b461
        0x00003fd8:    f7fcfc74    ..t.    BL       __aeabi_dsub ; 0x8c4
        0x00003fdc:    9a18        ..      LDR      r2,[sp,#0x60]
        0x00003fde:    6051        Q`      STR      r1,[r2,#4]
        0x00003fe0:    6010        .`      STR      r0,[r2,#0]
        0x00003fe2:    e00a        ..      B        0x3ffa ; __ieee754_rem_pio2 + 114
        0x00003fe4:    4632        2F      MOV      r2,r6
        0x00003fe6:    4bbf        .K      LDR      r3,[pc,#764] ; [0x42e4] = 0x3dd0b461
        0x00003fe8:    f7fcfc6c    ..l.    BL       __aeabi_dsub ; 0x8c4
        0x00003fec:    4abe        .J      LDR      r2,[pc,#760] ; [0x42e8] = 0x2e037073
        0x00003fee:    4bbf        .K      LDR      r3,[pc,#764] ; [0x42ec] = 0x3ba3198a
        0x00003ff0:    f7fcfc68    ..h.    BL       __aeabi_dsub ; 0x8c4
        0x00003ff4:    9a18        ..      LDR      r2,[sp,#0x60]
        0x00003ff6:    6051        Q`      STR      r1,[r2,#4]
        0x00003ff8:    6010        .`      STR      r0,[r2,#0]
        0x00003ffa:    2001        .       MOVS     r0,#1
        0x00003ffc:    b019        ..      ADD      sp,sp,#0x64
        0x00003ffe:    bdf0        ..      POP      {r4-r7,pc}
        0x00004000:    f7fcfc55    ..U.    BL       __aeabi_dadd ; 0x8ae
        0x00004004:    42ac        .B      CMP      r4,r5
        0x00004006:    d007        ..      BEQ      0x4018 ; __ieee754_rem_pio2 + 144
        0x00004008:    4ab5        .J      LDR      r2,[pc,#724] ; [0x42e0] = 0x1a626331
        0x0000400a:    4bb6        .K      LDR      r3,[pc,#728] ; [0x42e4] = 0x3dd0b461
        0x0000400c:    f7fcfc4f    ..O.    BL       __aeabi_dadd ; 0x8ae
        0x00004010:    9a18        ..      LDR      r2,[sp,#0x60]
        0x00004012:    6051        Q`      STR      r1,[r2,#4]
        0x00004014:    6010        .`      STR      r0,[r2,#0]
        0x00004016:    e00a        ..      B        0x402e ; __ieee754_rem_pio2 + 166
        0x00004018:    4632        2F      MOV      r2,r6
        0x0000401a:    4bb2        .K      LDR      r3,[pc,#712] ; [0x42e4] = 0x3dd0b461
        0x0000401c:    f7fcfc47    ..G.    BL       __aeabi_dadd ; 0x8ae
        0x00004020:    4ab1        .J      LDR      r2,[pc,#708] ; [0x42e8] = 0x2e037073
        0x00004022:    4bb2        .K      LDR      r3,[pc,#712] ; [0x42ec] = 0x3ba3198a
        0x00004024:    f7fcfc43    ..C.    BL       __aeabi_dadd ; 0x8ae
        0x00004028:    9a18        ..      LDR      r2,[sp,#0x60]
        0x0000402a:    6051        Q`      STR      r1,[r2,#4]
        0x0000402c:    6010        .`      STR      r0,[r2,#0]
        0x0000402e:    4638        8F      MOV      r0,r7
        0x00004030:    b019        ..      ADD      sp,sp,#0x64
        0x00004032:    bdf0        ..      POP      {r4-r7,pc}
        0x00004034:    49ae        .I      LDR      r1,[pc,#696] ; [0x42f0] = 0x413921fb
        0x00004036:    428c        .B      CMP      r4,r1
        0x00004038:    9917        ..      LDR      r1,[sp,#0x5c]
        0x0000403a:    dc7c        |.      BGT      0x4136 ; __ieee754_rem_pio2 + 430
        0x0000403c:    0049        I.      LSLS     r1,r1,#1
        0x0000403e:    0849        I.      LSRS     r1,r1,#1
        0x00004040:    4607        .F      MOV      r7,r0
        0x00004042:    4aac        .J      LDR      r2,[pc,#688] ; [0x42f4] = 0x6dc9c883
        0x00004044:    4bac        .K      LDR      r3,[pc,#688] ; [0x42f8] = 0x3fe45f30
        0x00004046:    9107        ..      STR      r1,[sp,#0x1c]
        0x00004048:    f7fcfe90    ....    BL       __aeabi_dmul ; 0xd6c
        0x0000404c:    2200        ."      MOVS     r2,#0
        0x0000404e:    4bab        .K      LDR      r3,[pc,#684] ; [0x42fc] = 0x3fe00000
        0x00004050:    f7fcfc2d    ..-.    BL       __aeabi_dadd ; 0x8ae
        0x00004054:    f7fdffdc    ....    BL       __aeabi_d2iz ; 0x2010
        0x00004058:    9009        ..      STR      r0,[sp,#0x24]
        0x0000405a:    f7fcfe7c    ..|.    BL       __aeabi_i2d ; 0xd56
        0x0000405e:    4606        .F      MOV      r6,r0
        0x00004060:    4a9e        .J      LDR      r2,[pc,#632] ; [0x42dc] = 0x54400000
        0x00004062:    462b        +F      MOV      r3,r5
        0x00004064:    9101        ..      STR      r1,[sp,#4]
        0x00004066:    f7fcfe81    ....    BL       __aeabi_dmul ; 0xd6c
        0x0000406a:    463a        :F      MOV      r2,r7
        0x0000406c:    9b07        ..      LDR      r3,[sp,#0x1c]
        0x0000406e:    f7fcfc34    ..4.    BL       __aeabi_drsub ; 0x8da
        0x00004072:    4605        .F      MOV      r5,r0
        0x00004074:    460f        .F      MOV      r7,r1
        0x00004076:    4a9a        .J      LDR      r2,[pc,#616] ; [0x42e0] = 0x1a626331
        0x00004078:    4b9a        .K      LDR      r3,[pc,#616] ; [0x42e4] = 0x3dd0b461
        0x0000407a:    4630        0F      MOV      r0,r6
        0x0000407c:    9901        ..      LDR      r1,[sp,#4]
        0x0000407e:    f7fcfe75    ..u.    BL       __aeabi_dmul ; 0xd6c
        0x00004082:    0d22        ".      LSRS     r2,r4,#20
        0x00004084:    2401        .$      MOVS     r4,#1
        0x00004086:    920b        ..      STR      r2,[sp,#0x2c]
        0x00004088:    462a        *F      MOV      r2,r5
        0x0000408a:    463b        ;F      MOV      r3,r7
        0x0000408c:    f7fcfc25    ..%.    BL       __aeabi_drsub ; 0x8da
        0x00004090:    9a18        ..      LDR      r2,[sp,#0x60]
        0x00004092:    2c03        .,      CMP      r4,#3
        0x00004094:    6051        Q`      STR      r1,[r2,#4]
        0x00004096:    6010        .`      STR      r0,[r2,#0]
        0x00004098:    d039        9.      BEQ      0x410e ; __ieee754_rem_pio2 + 390
        0x0000409a:    9818        ..      LDR      r0,[sp,#0x60]
        0x0000409c:    6841        Ah      LDR      r1,[r0,#4]
        0x0000409e:    980b        ..      LDR      r0,[sp,#0x2c]
        0x000040a0:    0049        I.      LSLS     r1,r1,#1
        0x000040a2:    0d49        I.      LSRS     r1,r1,#21
        0x000040a4:    1a41        A.      SUBS     r1,r0,r1
        0x000040a6:    0160        `.      LSLS     r0,r4,#5
        0x000040a8:    1820         .      ADDS     r0,r4,r0
        0x000040aa:    3811        .8      SUBS     r0,r0,#0x11
        0x000040ac:    4288        .B      CMP      r0,r1
        0x000040ae:    da2e        ..      BGE      0x410e ; __ieee754_rem_pio2 + 390
        0x000040b0:    4993        .I      LDR      r1,[pc,#588] ; [0x4300] = 0x2160
        0x000040b2:    0120         .      LSLS     r0,r4,#4
        0x000040b4:    4479        yD      ADD      r1,r1,pc
        0x000040b6:    9707        ..      STR      r7,[sp,#0x1c]
        0x000040b8:    9502        ..      STR      r5,[sp,#8]
        0x000040ba:    900c        ..      STR      r0,[sp,#0x30]
        0x000040bc:    1808        ..      ADDS     r0,r1,r0
        0x000040be:    6843        Ch      LDR      r3,[r0,#4]
        0x000040c0:    6802        .h      LDR      r2,[r0,#0]
        0x000040c2:    4630        0F      MOV      r0,r6
        0x000040c4:    9901        ..      LDR      r1,[sp,#4]
        0x000040c6:    f7fcfe51    ..Q.    BL       __aeabi_dmul ; 0xd6c
        0x000040ca:    9105        ..      STR      r1,[sp,#0x14]
        0x000040cc:    9004        ..      STR      r0,[sp,#0x10]
        0x000040ce:    9b07        ..      LDR      r3,[sp,#0x1c]
        0x000040d0:    9a02        ..      LDR      r2,[sp,#8]
        0x000040d2:    f7fcfc02    ....    BL       __aeabi_drsub ; 0x8da
        0x000040d6:    4605        .F      MOV      r5,r0
        0x000040d8:    460f        .F      MOV      r7,r1
        0x000040da:    9b07        ..      LDR      r3,[sp,#0x1c]
        0x000040dc:    9a02        ..      LDR      r2,[sp,#8]
        0x000040de:    f7fcfbfc    ....    BL       __aeabi_drsub ; 0x8da
        0x000040e2:    9b05        ..      LDR      r3,[sp,#0x14]
        0x000040e4:    9a04        ..      LDR      r2,[sp,#0x10]
        0x000040e6:    f7fcfbed    ....    BL       __aeabi_dsub ; 0x8c4
        0x000040ea:    9105        ..      STR      r1,[sp,#0x14]
        0x000040ec:    4985        .I      LDR      r1,[pc,#532] ; [0x4304] = 0x2124
        0x000040ee:    9004        ..      STR      r0,[sp,#0x10]
        0x000040f0:    4479        yD      ADD      r1,r1,pc
        0x000040f2:    980c        ..      LDR      r0,[sp,#0x30]
        0x000040f4:    1840        @.      ADDS     r0,r0,r1
        0x000040f6:    68c3        .h      LDR      r3,[r0,#0xc]
        0x000040f8:    6882        .h      LDR      r2,[r0,#8]
        0x000040fa:    4630        0F      MOV      r0,r6
        0x000040fc:    9901        ..      LDR      r1,[sp,#4]
        0x000040fe:    f7fcfe35    ..5.    BL       __aeabi_dmul ; 0xd6c
        0x00004102:    9b05        ..      LDR      r3,[sp,#0x14]
        0x00004104:    9a04        ..      LDR      r2,[sp,#0x10]
        0x00004106:    f7fcfbdd    ....    BL       __aeabi_dsub ; 0x8c4
        0x0000410a:    1c64        d.      ADDS     r4,r4,#1
        0x0000410c:    e7bc        ..      B        0x4088 ; __ieee754_rem_pio2 + 256
        0x0000410e:    9808        ..      LDR      r0,[sp,#0x20]
        0x00004110:    2800        .(      CMP      r0,#0
        0x00004112:    da0d        ..      BGE      0x4130 ; __ieee754_rem_pio2 + 424
        0x00004114:    9918        ..      LDR      r1,[sp,#0x60]
        0x00004116:    2201        ."      MOVS     r2,#1
        0x00004118:    6808        .h      LDR      r0,[r1,#0]
        0x0000411a:    6849        Ih      LDR      r1,[r1,#4]
        0x0000411c:    07d2        ..      LSLS     r2,r2,#31
        0x0000411e:    4051        Q@      EORS     r1,r1,r2
        0x00004120:    9a18        ..      LDR      r2,[sp,#0x60]
        0x00004122:    6051        Q`      STR      r1,[r2,#4]
        0x00004124:    6010        .`      STR      r0,[r2,#0]
        0x00004126:    9809        ..      LDR      r0,[sp,#0x24]
        0x00004128:    b019        ..      ADD      sp,sp,#0x64
        0x0000412a:    4240        @B      RSBS     r0,r0,#0
        0x0000412c:    bdf0        ..      POP      {r4-r7,pc}
        0x0000412e:    e002        ..      B        0x4136 ; __ieee754_rem_pio2 + 430
        0x00004130:    9809        ..      LDR      r0,[sp,#0x24]
        0x00004132:    b019        ..      ADD      sp,sp,#0x64
        0x00004134:    bdf0        ..      POP      {r4-r7,pc}
        0x00004136:    0309        ..      LSLS     r1,r1,#12
        0x00004138:    2201        ."      MOVS     r2,#1
        0x0000413a:    0b09        ..      LSRS     r1,r1,#12
        0x0000413c:    0512        ..      LSLS     r2,r2,#20
        0x0000413e:    9010        ..      STR      r0,[sp,#0x40]
        0x00004140:    1889        ..      ADDS     r1,r1,r2
        0x00004142:    9817        ..      LDR      r0,[sp,#0x5c]
        0x00004144:    910f        ..      STR      r1,[sp,#0x3c]
        0x00004146:    0040        @.      LSLS     r0,r0,#1
        0x00004148:    496f        oI      LDR      r1,[pc,#444] ; [0x4308] = 0xfffffc0b
        0x0000414a:    0d40        @.      LSRS     r0,r0,#21
        0x0000414c:    1841        A.      ADDS     r1,r0,r1
        0x0000414e:    1148        H.      ASRS     r0,r1,#5
        0x00004150:    06c9        ..      LSLS     r1,r1,#27
        0x00004152:    0ec9        ..      LSRS     r1,r1,#27
        0x00004154:    2220         "      MOVS     r2,#0x20
        0x00004156:    9112        ..      STR      r1,[sp,#0x48]
        0x00004158:    1a51        Q.      SUBS     r1,r2,r1
        0x0000415a:    9113        ..      STR      r1,[sp,#0x4c]
        0x0000415c:    2100        .!      MOVS     r1,#0
        0x0000415e:    9106        ..      STR      r1,[sp,#0x18]
        0x00004160:    9107        ..      STR      r1,[sp,#0x1c]
        0x00004162:    496a        jI      LDR      r1,[pc,#424] ; [0x430c] = 0x20de
        0x00004164:    0080        ..      LSLS     r0,r0,#2
        0x00004166:    4479        yD      ADD      r1,r1,pc
        0x00004168:    1845        E.      ADDS     r5,r0,r1
        0x0000416a:    3514        .5      ADDS     r5,r5,#0x14
        0x0000416c:    2006        .       MOVS     r0,#6
        0x0000416e:    ac07        ..      ADD      r4,sp,#0x1c
        0x00004170:    9015        ..      STR      r0,[sp,#0x54]
        0x00004172:    682f        /h      LDR      r7,[r5,#0]
        0x00004174:    9812        ..      LDR      r0,[sp,#0x48]
        0x00004176:    9913        ..      LDR      r1,[sp,#0x4c]
        0x00004178:    4087        .@      LSLS     r7,r7,r0
        0x0000417a:    6868        hh      LDR      r0,[r5,#4]
        0x0000417c:    40c8        .@      LSRS     r0,r0,r1
        0x0000417e:    4307        .C      ORRS     r7,r7,r0
        0x00004180:    4638        8F      MOV      r0,r7
        0x00004182:    990f        ..      LDR      r1,[sp,#0x3c]
        0x00004184:    f7fffec4    ....    BL       __ARM_common_ll_muluu ; 0x3f10
        0x00004188:    4606        .F      MOV      r6,r0
        0x0000418a:    9111        ..      STR      r1,[sp,#0x44]
        0x0000418c:    4638        8F      MOV      r0,r7
        0x0000418e:    9910        ..      LDR      r1,[sp,#0x40]
        0x00004190:    f7fffebe    ....    BL       __ARM_common_ll_muluu ; 0x3f10
        0x00004194:    6823        #h      LDR      r3,[r4,#0]
        0x00004196:    198a        ..      ADDS     r2,r1,r6
        0x00004198:    181b        ..      ADDS     r3,r3,r0
        0x0000419a:    2701        .'      MOVS     r7,#1
        0x0000419c:    469c        .F      MOV      r12,r3
        0x0000419e:    4283        .B      CMP      r3,r0
        0x000041a0:    d300        ..      BCC      0x41a4 ; __ieee754_rem_pio2 + 540
        0x000041a2:    2700        .'      MOVS     r7,#0
        0x000041a4:    4620         F      MOV      r0,r4
        0x000041a6:    3840        @8      SUBS     r0,r0,#0x40
        0x000041a8:    6bc3        .k      LDR      r3,[r0,#0x3c]
        0x000041aa:    19d6        ..      ADDS     r6,r2,r7
        0x000041ac:    199b        ..      ADDS     r3,r3,r6
        0x000041ae:    2601        .&      MOVS     r6,#1
        0x000041b0:    428a        .B      CMP      r2,r1
        0x000041b2:    d300        ..      BCC      0x41b6 ; __ieee754_rem_pio2 + 558
        0x000041b4:    2600        .&      MOVS     r6,#0
        0x000041b6:    9911        ..      LDR      r1,[sp,#0x44]
        0x000041b8:    1876        v.      ADDS     r6,r6,r1
        0x000041ba:    2f00        ./      CMP      r7,#0
        0x000041bc:    d003        ..      BEQ      0x41c6 ; __ieee754_rem_pio2 + 574
        0x000041be:    2101        .!      MOVS     r1,#1
        0x000041c0:    4293        .B      CMP      r3,r2
        0x000041c2:    d904        ..      BLS      0x41ce ; __ieee754_rem_pio2 + 582
        0x000041c4:    e002        ..      B        0x41cc ; __ieee754_rem_pio2 + 580
        0x000041c6:    2101        .!      MOVS     r1,#1
        0x000041c8:    4293        .B      CMP      r3,r2
        0x000041ca:    d300        ..      BCC      0x41ce ; __ieee754_rem_pio2 + 582
        0x000041cc:    2100        .!      MOVS     r1,#0
        0x000041ce:    4662        bF      MOV      r2,r12
        0x000041d0:    6022        "`      STR      r2,[r4,#0]
        0x000041d2:    1871        q.      ADDS     r1,r6,r1
        0x000041d4:    63c3        .c      STR      r3,[r0,#0x3c]
        0x000041d6:    6381        .c      STR      r1,[r0,#0x38]
        0x000041d8:    9815        ..      LDR      r0,[sp,#0x54]
        0x000041da:    1f2d        -.      SUBS     r5,r5,#4
        0x000041dc:    1f24        $.      SUBS     r4,r4,#4
        0x000041de:    1e40        @.      SUBS     r0,r0,#1
        0x000041e0:    9015        ..      STR      r0,[sp,#0x54]
        0x000041e2:    d1c6        ..      BNE      0x4172 ; __ieee754_rem_pio2 + 490
        0x000041e4:    2101        .!      MOVS     r1,#1
        0x000041e6:    9802        ..      LDR      r0,[sp,#8]
        0x000041e8:    0749        I.      LSLS     r1,r1,#29
        0x000041ea:    1840        @.      ADDS     r0,r0,r1
        0x000041ec:    0f80        ..      LSRS     r0,r0,#30
        0x000041ee:    9011        ..      STR      r0,[sp,#0x44]
        0x000041f0:    9802        ..      LDR      r0,[sp,#8]
        0x000041f2:    9905        ..      LDR      r1,[sp,#0x14]
        0x000041f4:    0080        ..      LSLS     r0,r0,#2
        0x000041f6:    9f03        ..      LDR      r7,[sp,#0xc]
        0x000041f8:    9c04        ..      LDR      r4,[sp,#0x10]
        0x000041fa:    910b        ..      STR      r1,[sp,#0x2c]
        0x000041fc:    f7fcfdab    ....    BL       __aeabi_i2d ; 0xd56
        0x00004200:    4605        .F      MOV      r5,r0
        0x00004202:    460e        .F      MOV      r6,r1
        0x00004204:    4638        8F      MOV      r0,r7
        0x00004206:    f7fcfdae    ....    BL       __aeabi_ui2d ; 0xd66
        0x0000420a:    221d        ."      MOVS     r2,#0x1d
        0x0000420c:    43d2        .C      MVNS     r2,r2
        0x0000420e:    f7fdfab5    ....    BL       __ARM_scalbn ; 0x177c
        0x00004212:    9109        ..      STR      r1,[sp,#0x24]
        0x00004214:    900e        ..      STR      r0,[sp,#0x38]
        0x00004216:    4620         F      MOV      r0,r4
        0x00004218:    f7fcfda5    ....    BL       __aeabi_ui2d ; 0xd66
        0x0000421c:    223d        ="      MOVS     r2,#0x3d
        0x0000421e:    43d2        .C      MVNS     r2,r2
        0x00004220:    f7fdfaac    ....    BL       __ARM_scalbn ; 0x177c
        0x00004224:    910d        ..      STR      r1,[sp,#0x34]
        0x00004226:    9012        ..      STR      r0,[sp,#0x48]
        0x00004228:    980b        ..      LDR      r0,[sp,#0x2c]
        0x0000422a:    f7fcfd9c    ....    BL       __aeabi_ui2d ; 0xd66
        0x0000422e:    225d        ]"      MOVS     r2,#0x5d
        0x00004230:    43d2        .C      MVNS     r2,r2
        0x00004232:    f7fdfaa3    ....    BL       __ARM_scalbn ; 0x177c
        0x00004236:    910b        ..      STR      r1,[sp,#0x2c]
        0x00004238:    9010        ..      STR      r0,[sp,#0x40]
        0x0000423a:    9b0d        ..      LDR      r3,[sp,#0x34]
        0x0000423c:    9a12        ..      LDR      r2,[sp,#0x48]
        0x0000423e:    f7fcfb36    ..6.    BL       __aeabi_dadd ; 0x8ae
        0x00004242:    9b09        ..      LDR      r3,[sp,#0x24]
        0x00004244:    9a0e        ..      LDR      r2,[sp,#0x38]
        0x00004246:    f7fcfb32    ..2.    BL       __aeabi_dadd ; 0x8ae
        0x0000424a:    462a        *F      MOV      r2,r5
        0x0000424c:    4633        3F      MOV      r3,r6
        0x0000424e:    f7fcfb2e    ....    BL       __aeabi_dadd ; 0x8ae
        0x00004252:    2000        .       MOVS     r0,#0
        0x00004254:    460c        .F      MOV      r4,r1
        0x00004256:    4607        .F      MOV      r7,r0
        0x00004258:    462a        *F      MOV      r2,r5
        0x0000425a:    4633        3F      MOV      r3,r6
        0x0000425c:    f7fcfb32    ..2.    BL       __aeabi_dsub ; 0x8c4
        0x00004260:    9b09        ..      LDR      r3,[sp,#0x24]
        0x00004262:    9a0e        ..      LDR      r2,[sp,#0x38]
        0x00004264:    f7fcfb2e    ....    BL       __aeabi_dsub ; 0x8c4
        0x00004268:    9b0d        ..      LDR      r3,[sp,#0x34]
        0x0000426a:    9a12        ..      LDR      r2,[sp,#0x48]
        0x0000426c:    f7fcfb2a    ..*.    BL       __aeabi_dsub ; 0x8c4
        0x00004270:    9b0b        ..      LDR      r3,[sp,#0x2c]
        0x00004272:    9a10        ..      LDR      r2,[sp,#0x40]
        0x00004274:    f7fcfb31    ..1.    BL       __aeabi_drsub ; 0x8da
        0x00004278:    4a25        %J      LDR      r2,[pc,#148] ; [0x4310] = 0x54442d18
        0x0000427a:    4b26        &K      LDR      r3,[pc,#152] ; [0x4314] = 0x3df921fb
        0x0000427c:    f7fcfd76    ..v.    BL       __aeabi_dmul ; 0xd6c
        0x00004280:    4605        .F      MOV      r5,r0
        0x00004282:    460e        .F      MOV      r6,r1
        0x00004284:    4a24        $J      LDR      r2,[pc,#144] ; [0x4318] = 0x11a62633
        0x00004286:    4b25        %K      LDR      r3,[pc,#148] ; [0x431c] = 0x3c110b46
        0x00004288:    4638        8F      MOV      r0,r7
        0x0000428a:    4621        !F      MOV      r1,r4
        0x0000428c:    f7fcfd6e    ..n.    BL       __aeabi_dmul ; 0xd6c
        0x00004290:    462a        *F      MOV      r2,r5
        0x00004292:    4633        3F      MOV      r3,r6
        0x00004294:    f7fcfb0b    ....    BL       __aeabi_dadd ; 0x8ae
        0x00004298:    4605        .F      MOV      r5,r0
        0x0000429a:    460e        .F      MOV      r6,r1
        0x0000429c:    2215        ."      MOVS     r2,#0x15
        0x0000429e:    0692        ..      LSLS     r2,r2,#26
        0x000042a0:    4b1c        .K      LDR      r3,[pc,#112] ; [0x4314] = 0x3df921fb
        0x000042a2:    4638        8F      MOV      r0,r7
        0x000042a4:    4621        !F      MOV      r1,r4
        0x000042a6:    f7fcfd61    ..a.    BL       __aeabi_dmul ; 0xd6c
        0x000042aa:    462a        *F      MOV      r2,r5
        0x000042ac:    4633        3F      MOV      r3,r6
        0x000042ae:    f7fcfafe    ....    BL       __aeabi_dadd ; 0x8ae
        0x000042b2:    9a17        ..      LDR      r2,[sp,#0x5c]
        0x000042b4:    2a00        .*      CMP      r2,#0
        0x000042b6:    da05        ..      BGE      0x42c4 ; __ieee754_rem_pio2 + 828
        0x000042b8:    9a11        ..      LDR      r2,[sp,#0x44]
        0x000042ba:    4252        RB      RSBS     r2,r2,#0
        0x000042bc:    9211        ..      STR      r2,[sp,#0x44]
        0x000042be:    2201        ."      MOVS     r2,#1
        0x000042c0:    07d2        ..      LSLS     r2,r2,#31
        0x000042c2:    4051        Q@      EORS     r1,r1,r2
        0x000042c4:    9a18        ..      LDR      r2,[sp,#0x60]
        0x000042c6:    6051        Q`      STR      r1,[r2,#4]
        0x000042c8:    6010        .`      STR      r0,[r2,#0]
        0x000042ca:    9811        ..      LDR      r0,[sp,#0x44]
        0x000042cc:    b019        ..      ADD      sp,sp,#0x64
        0x000042ce:    bdf0        ..      POP      {r4-r7,pc}
    $d
        0x000042d0:    3fe921fb    .!.?    DCD    1072243195
        0x000042d4:    4002d97c    |..@    DCD    1073928572
        0x000042d8:    3ff921fb    .!.?    DCD    1073291771
        0x000042dc:    54400000    ..@T    DCD    1413480448
        0x000042e0:    1a626331    1cb.    DCD    442655537
        0x000042e4:    3dd0b461    a..=    DCD    1037087841
        0x000042e8:    2e037073    sp..    DCD    771977331
        0x000042ec:    3ba3198a    ...;    DCD    1000544650
        0x000042f0:    413921fb    .!9A    DCD    1094263291
        0x000042f4:    6dc9c883    ...m    DCD    1841940611
        0x000042f8:    3fe45f30    0_.?    DCD    1071931184
        0x000042fc:    3fe00000    ...?    DCD    1071644672
        0x00004300:    00002160    `!..    DCD    8544
        0x00004304:    00002124    $!..    DCD    8484
        0x00004308:    fffffc0b    ....    DCD    4294966283
        0x0000430c:    000020de    . ..    DCD    8414
        0x00004310:    54442d18    .-DT    DCD    1413754136
        0x00004314:    3df921fb    .!.=    DCD    1039737339
        0x00004318:    11a62633    3&..    DCD    296101427
        0x0000431c:    3c110b46    F..<    DCD    1007749958
    $t
    i.__kernel_cos
    __kernel_cos
        0x00004320:    b5f0        ..      PUSH     {r4-r7,lr}
        0x00004322:    b41f        ..      PUSH     {r0-r4}
        0x00004324:    004e        N.      LSLS     r6,r1,#1
        0x00004326:    20f9        .       MOVS     r0,#0xf9
        0x00004328:    0876        v.      LSRS     r6,r6,#1
        0x0000432a:    0580        ..      LSLS     r0,r0,#22
        0x0000432c:    b084        ..      SUB      sp,sp,#0x10
        0x0000432e:    460f        .F      MOV      r7,r1
        0x00004330:    4286        .B      CMP      r6,r0
        0x00004332:    da04        ..      BGE      0x433e ; __kernel_cos + 30
        0x00004334:    9804        ..      LDR      r0,[sp,#0x10]
        0x00004336:    f7fdfe6b    ..k.    BL       __aeabi_d2iz ; 0x2010
        0x0000433a:    2800        .(      CMP      r0,#0
        0x0000433c:    d038        8.      BEQ      0x43b0 ; __kernel_cos + 144
        0x0000433e:    9a04        ..      LDR      r2,[sp,#0x10]
        0x00004340:    463b        ;F      MOV      r3,r7
        0x00004342:    4610        .F      MOV      r0,r2
        0x00004344:    4639        9F      MOV      r1,r7
        0x00004346:    f7fcfd11    ....    BL       __aeabi_dmul ; 0xd6c
        0x0000434a:    4604        .F      MOV      r4,r0
        0x0000434c:    4602        .F      MOV      r2,r0
        0x0000434e:    482c        ,H      LDR      r0,[pc,#176] ; [0x4400] = 0x1e86
        0x00004350:    460d        .F      MOV      r5,r1
        0x00004352:    460b        .F      MOV      r3,r1
        0x00004354:    2106        .!      MOVS     r1,#6
        0x00004356:    4478        xD      ADD      r0,r0,pc
        0x00004358:    f000f85c    ..\.    BL       __kernel_poly ; 0x4414
        0x0000435c:    4622        "F      MOV      r2,r4
        0x0000435e:    462b        +F      MOV      r3,r5
        0x00004360:    f7fcfd04    ....    BL       __aeabi_dmul ; 0xd6c
        0x00004364:    9101        ..      STR      r1,[sp,#4]
        0x00004366:    9000        ..      STR      r0,[sp,#0]
        0x00004368:    4639        9F      MOV      r1,r7
        0x0000436a:    9b07        ..      LDR      r3,[sp,#0x1c]
        0x0000436c:    9a06        ..      LDR      r2,[sp,#0x18]
        0x0000436e:    9804        ..      LDR      r0,[sp,#0x10]
        0x00004370:    f7fcfcfc    ....    BL       __aeabi_dmul ; 0xd6c
        0x00004374:    4607        .F      MOV      r7,r0
        0x00004376:    9102        ..      STR      r1,[sp,#8]
        0x00004378:    4620         F      MOV      r0,r4
        0x0000437a:    4629        )F      MOV      r1,r5
        0x0000437c:    9b01        ..      LDR      r3,[sp,#4]
        0x0000437e:    9a00        ..      LDR      r2,[sp,#0]
        0x00004380:    f7fcfcf4    ....    BL       __aeabi_dmul ; 0xd6c
        0x00004384:    463a        :F      MOV      r2,r7
        0x00004386:    9b02        ..      LDR      r3,[sp,#8]
        0x00004388:    f7fcfa9c    ....    BL       __aeabi_dsub ; 0x8c4
        0x0000438c:    4607        .F      MOV      r7,r0
        0x0000438e:    2200        ."      MOVS     r2,#0
        0x00004390:    9100        ..      STR      r1,[sp,#0]
        0x00004392:    43d2        .C      MVNS     r2,r2
        0x00004394:    4620         F      MOV      r0,r4
        0x00004396:    4629        )F      MOV      r1,r5
        0x00004398:    f7fdf9f0    ....    BL       __ARM_scalbn ; 0x177c
        0x0000439c:    4a19        .J      LDR      r2,[pc,#100] ; [0x4404] = 0x3fd33333
        0x0000439e:    4296        .B      CMP      r6,r2
        0x000043a0:    da0a        ..      BGE      0x43b8 ; __kernel_cos + 152
        0x000043a2:    463a        :F      MOV      r2,r7
        0x000043a4:    9b00        ..      LDR      r3,[sp,#0]
        0x000043a6:    f7fcfa8d    ....    BL       __aeabi_dsub ; 0x8c4
        0x000043aa:    2200        ."      MOVS     r2,#0
        0x000043ac:    4b16        .K      LDR      r3,[pc,#88] ; [0x4408] = 0x3ff00000
        0x000043ae:    e023        #.      B        0x43f8 ; __kernel_cos + 216
        0x000043b0:    2000        .       MOVS     r0,#0
        0x000043b2:    4915        .I      LDR      r1,[pc,#84] ; [0x4408] = 0x3ff00000
        0x000043b4:    b009        ..      ADD      sp,sp,#0x24
        0x000043b6:    bdf0        ..      POP      {r4-r7,pc}
        0x000043b8:    4a14        .J      LDR      r2,[pc,#80] ; [0x440c] = 0x3fe90000
        0x000043ba:    4296        .B      CMP      r6,r2
        0x000043bc:    dd02        ..      BLE      0x43c4 ; __kernel_cos + 164
        0x000043be:    2400        .$      MOVS     r4,#0
        0x000043c0:    4d13        .M      LDR      r5,[pc,#76] ; [0x4410] = 0x3fd20000
        0x000043c2:    e003        ..      B        0x43cc ; __kernel_cos + 172
        0x000043c4:    2201        ."      MOVS     r2,#1
        0x000043c6:    0552        R.      LSLS     r2,r2,#21
        0x000043c8:    1ab5        ..      SUBS     r5,r6,r2
        0x000043ca:    2400        .$      MOVS     r4,#0
        0x000043cc:    4622        "F      MOV      r2,r4
        0x000043ce:    462b        +F      MOV      r3,r5
        0x000043d0:    f7fcfa78    ..x.    BL       __aeabi_dsub ; 0x8c4
        0x000043d4:    4606        .F      MOV      r6,r0
        0x000043d6:    9101        ..      STR      r1,[sp,#4]
        0x000043d8:    4622        "F      MOV      r2,r4
        0x000043da:    462b        +F      MOV      r3,r5
        0x000043dc:    2000        .       MOVS     r0,#0
        0x000043de:    490a        .I      LDR      r1,[pc,#40] ; [0x4408] = 0x3ff00000
        0x000043e0:    f7fcfa70    ..p.    BL       __aeabi_dsub ; 0x8c4
        0x000043e4:    460d        .F      MOV      r5,r1
        0x000043e6:    4604        .F      MOV      r4,r0
        0x000043e8:    463a        :F      MOV      r2,r7
        0x000043ea:    4630        0F      MOV      r0,r6
        0x000043ec:    9b00        ..      LDR      r3,[sp,#0]
        0x000043ee:    9901        ..      LDR      r1,[sp,#4]
        0x000043f0:    f7fcfa68    ..h.    BL       __aeabi_dsub ; 0x8c4
        0x000043f4:    4622        "F      MOV      r2,r4
        0x000043f6:    462b        +F      MOV      r3,r5
        0x000043f8:    f7fcfa6f    ..o.    BL       __aeabi_drsub ; 0x8da
        0x000043fc:    b009        ..      ADD      sp,sp,#0x24
        0x000043fe:    bdf0        ..      POP      {r4-r7,pc}
    $d
        0x00004400:    00001e86    ....    DCD    7814
        0x00004404:    3fd33333    33.?    DCD    1070805811
        0x00004408:    3ff00000    ...?    DCD    1072693248
        0x0000440c:    3fe90000    ...?    DCD    1072234496
        0x00004410:    3fd20000    ...?    DCD    1070727168
    $t
    i.__kernel_poly
    __kernel_poly
        0x00004414:    b5f8        ..      PUSH     {r3-r7,lr}
        0x00004416:    4604        .F      MOV      r4,r0
        0x00004418:    1e4f        O.      SUBS     r7,r1,#1
        0x0000441a:    00c8        ..      LSLS     r0,r1,#3
        0x0000441c:    3808        .8      SUBS     r0,r0,#8
        0x0000441e:    1821        !.      ADDS     r1,r4,r0
        0x00004420:    4615        .F      MOV      r5,r2
        0x00004422:    461e        .F      MOV      r6,r3
        0x00004424:    6808        .h      LDR      r0,[r1,#0]
        0x00004426:    6849        Ih      LDR      r1,[r1,#4]
        0x00004428:    2206        ."      MOVS     r2,#6
        0x0000442a:    463b        ;F      MOV      r3,r7
        0x0000442c:    4393        .C      BICS     r3,r3,r2
        0x0000442e:    d010        ..      BEQ      0x4452 ; __kernel_poly + 62
        0x00004430:    462a        *F      MOV      r2,r5
        0x00004432:    4633        3F      MOV      r3,r6
        0x00004434:    f7fcfc9a    ....    BL       __aeabi_dmul ; 0xd6c
        0x00004438:    463a        :F      MOV      r2,r7
        0x0000443a:    00d2        ..      LSLS     r2,r2,#3
        0x0000443c:    3a08        .:      SUBS     r2,r2,#8
        0x0000443e:    18a3        ..      ADDS     r3,r4,r2
        0x00004440:    681a        .h      LDR      r2,[r3,#0]
        0x00004442:    1e7f        ..      SUBS     r7,r7,#1
        0x00004444:    685b        [h      LDR      r3,[r3,#4]
        0x00004446:    f7fcfa32    ..2.    BL       __aeabi_dadd ; 0x8ae
        0x0000444a:    2206        ."      MOVS     r2,#6
        0x0000444c:    463b        ;F      MOV      r3,r7
        0x0000444e:    4393        .C      BICS     r3,r3,r2
        0x00004450:    d1ee        ..      BNE      0x4430 ; __kernel_poly + 28
        0x00004452:    2f02        ./      CMP      r7,#2
        0x00004454:    d023        #.      BEQ      0x449e ; __kernel_poly + 138
        0x00004456:    2f04        ./      CMP      r7,#4
        0x00004458:    d011        ..      BEQ      0x447e ; __kernel_poly + 106
        0x0000445a:    2f06        ./      CMP      r7,#6
        0x0000445c:    d12f        /.      BNE      0x44be ; __kernel_poly + 170
        0x0000445e:    462a        *F      MOV      r2,r5
        0x00004460:    4633        3F      MOV      r3,r6
        0x00004462:    f7fcfc83    ....    BL       __aeabi_dmul ; 0xd6c
        0x00004466:    6ae3        .j      LDR      r3,[r4,#0x2c]
        0x00004468:    6aa2        .j      LDR      r2,[r4,#0x28]
        0x0000446a:    f7fcfa20    .. .    BL       __aeabi_dadd ; 0x8ae
        0x0000446e:    462a        *F      MOV      r2,r5
        0x00004470:    4633        3F      MOV      r3,r6
        0x00004472:    f7fcfc7b    ..{.    BL       __aeabi_dmul ; 0xd6c
        0x00004476:    6a63        cj      LDR      r3,[r4,#0x24]
        0x00004478:    6a22        "j      LDR      r2,[r4,#0x20]
        0x0000447a:    f7fcfa18    ....    BL       __aeabi_dadd ; 0x8ae
        0x0000447e:    462a        *F      MOV      r2,r5
        0x00004480:    4633        3F      MOV      r3,r6
        0x00004482:    f7fcfc73    ..s.    BL       __aeabi_dmul ; 0xd6c
        0x00004486:    69e3        .i      LDR      r3,[r4,#0x1c]
        0x00004488:    69a2        .i      LDR      r2,[r4,#0x18]
        0x0000448a:    f7fcfa10    ....    BL       __aeabi_dadd ; 0x8ae
        0x0000448e:    462a        *F      MOV      r2,r5
        0x00004490:    4633        3F      MOV      r3,r6
        0x00004492:    f7fcfc6b    ..k.    BL       __aeabi_dmul ; 0xd6c
        0x00004496:    6963        ci      LDR      r3,[r4,#0x14]
        0x00004498:    6922        "i      LDR      r2,[r4,#0x10]
        0x0000449a:    f7fcfa08    ....    BL       __aeabi_dadd ; 0x8ae
        0x0000449e:    462a        *F      MOV      r2,r5
        0x000044a0:    4633        3F      MOV      r3,r6
        0x000044a2:    f7fcfc63    ..c.    BL       __aeabi_dmul ; 0xd6c
        0x000044a6:    68e3        .h      LDR      r3,[r4,#0xc]
        0x000044a8:    68a2        .h      LDR      r2,[r4,#8]
        0x000044aa:    f7fcfa00    ....    BL       __aeabi_dadd ; 0x8ae
        0x000044ae:    462a        *F      MOV      r2,r5
        0x000044b0:    4633        3F      MOV      r3,r6
        0x000044b2:    f7fcfc5b    ..[.    BL       __aeabi_dmul ; 0xd6c
        0x000044b6:    6863        ch      LDR      r3,[r4,#4]
        0x000044b8:    6822        "h      LDR      r2,[r4,#0]
        0x000044ba:    f7fcf9f8    ....    BL       __aeabi_dadd ; 0x8ae
        0x000044be:    bdf8        ..      POP      {r3-r7,pc}
    i.__kernel_sin
    __kernel_sin
        0x000044c0:    b5f0        ..      PUSH     {r4-r7,lr}
        0x000044c2:    b41f        ..      PUSH     {r0-r4}
        0x000044c4:    4605        .F      MOV      r5,r0
        0x000044c6:    0048        H.      LSLS     r0,r1,#1
        0x000044c8:    460c        .F      MOV      r4,r1
        0x000044ca:    21f9        .!      MOVS     r1,#0xf9
        0x000044cc:    0840        @.      LSRS     r0,r0,#1
        0x000044ce:    0589        ..      LSLS     r1,r1,#22
        0x000044d0:    b086        ..      SUB      sp,sp,#0x18
        0x000044d2:    4288        .B      CMP      r0,r1
        0x000044d4:    da0b        ..      BGE      0x44ee ; __kernel_sin + 46
        0x000044d6:    4628        (F      MOV      r0,r5
        0x000044d8:    4621        !F      MOV      r1,r4
        0x000044da:    f7fffd3f    ..?.    BL       __ARM_fpclassify ; 0x3f5c
        0x000044de:    2804        .(      CMP      r0,#4
        0x000044e0:    d101        ..      BNE      0x44e6 ; __kernel_sin + 38
        0x000044e2:    f000f863    ..c.    BL       __mathlib_dbl_underflow ; 0x45ac
        0x000044e6:    4628        (F      MOV      r0,r5
        0x000044e8:    4621        !F      MOV      r1,r4
        0x000044ea:    b00b        ..      ADD      sp,sp,#0x2c
        0x000044ec:    bdf0        ..      POP      {r4-r7,pc}
        0x000044ee:    462a        *F      MOV      r2,r5
        0x000044f0:    4623        #F      MOV      r3,r4
        0x000044f2:    4628        (F      MOV      r0,r5
        0x000044f4:    4621        !F      MOV      r1,r4
        0x000044f6:    f7fcfc39    ..9.    BL       __aeabi_dmul ; 0xd6c
        0x000044fa:    4606        .F      MOV      r6,r0
        0x000044fc:    460f        .F      MOV      r7,r1
        0x000044fe:    462a        *F      MOV      r2,r5
        0x00004500:    4623        #F      MOV      r3,r4
        0x00004502:    f7fcfc33    ..3.    BL       __aeabi_dmul ; 0xd6c
        0x00004506:    9000        ..      STR      r0,[sp,#0]
        0x00004508:    4825        %H      LDR      r0,[pc,#148] ; [0x45a0] = 0x1dca
        0x0000450a:    9101        ..      STR      r1,[sp,#4]
        0x0000450c:    4632        2F      MOV      r2,r6
        0x0000450e:    463b        ;F      MOV      r3,r7
        0x00004510:    2105        .!      MOVS     r1,#5
        0x00004512:    4478        xD      ADD      r0,r0,pc
        0x00004514:    f7ffff7e    ..~.    BL       __kernel_poly ; 0x4414
        0x00004518:    9002        ..      STR      r0,[sp,#8]
        0x0000451a:    9810        ..      LDR      r0,[sp,#0x40]
        0x0000451c:    9103        ..      STR      r1,[sp,#0xc]
        0x0000451e:    2800        .(      CMP      r0,#0
        0x00004520:    d029        ).      BEQ      0x4576 ; __kernel_sin + 182
        0x00004522:    4a20         J      LDR      r2,[pc,#128] ; [0x45a4] = 0x55555549
        0x00004524:    4b20         K      LDR      r3,[pc,#128] ; [0x45a8] = 0xbfc55555
        0x00004526:    9901        ..      LDR      r1,[sp,#4]
        0x00004528:    9800        ..      LDR      r0,[sp,#0]
        0x0000452a:    f7fcfc1f    ....    BL       __aeabi_dmul ; 0xd6c
        0x0000452e:    9004        ..      STR      r0,[sp,#0x10]
        0x00004530:    9105        ..      STR      r1,[sp,#0x14]
        0x00004532:    4668        hF      MOV      r0,sp
        0x00004534:    c80f        ..      LDM      r0,{r0-r3}
        0x00004536:    f7fcfc19    ....    BL       __aeabi_dmul ; 0xd6c
        0x0000453a:    2200        ."      MOVS     r2,#0
        0x0000453c:    9101        ..      STR      r1,[sp,#4]
        0x0000453e:    9000        ..      STR      r0,[sp,#0]
        0x00004540:    43d2        .C      MVNS     r2,r2
        0x00004542:    9909        ..      LDR      r1,[sp,#0x24]
        0x00004544:    9808        ..      LDR      r0,[sp,#0x20]
        0x00004546:    f7fdf919    ....    BL       __ARM_scalbn ; 0x177c
        0x0000454a:    9b01        ..      LDR      r3,[sp,#4]
        0x0000454c:    9a00        ..      LDR      r2,[sp,#0]
        0x0000454e:    f7fcf9b9    ....    BL       __aeabi_dsub ; 0x8c4
        0x00004552:    4632        2F      MOV      r2,r6
        0x00004554:    463b        ;F      MOV      r3,r7
        0x00004556:    f7fcfc09    ....    BL       __aeabi_dmul ; 0xd6c
        0x0000455a:    9b09        ..      LDR      r3,[sp,#0x24]
        0x0000455c:    9a08        ..      LDR      r2,[sp,#0x20]
        0x0000455e:    f7fcf9b1    ....    BL       __aeabi_dsub ; 0x8c4
        0x00004562:    9b05        ..      LDR      r3,[sp,#0x14]
        0x00004564:    9a04        ..      LDR      r2,[sp,#0x10]
        0x00004566:    f7fcf9ad    ....    BL       __aeabi_dsub ; 0x8c4
        0x0000456a:    462a        *F      MOV      r2,r5
        0x0000456c:    4623        #F      MOV      r3,r4
        0x0000456e:    f7fcf9b4    ....    BL       __aeabi_drsub ; 0x8da
        0x00004572:    b00b        ..      ADD      sp,sp,#0x2c
        0x00004574:    bdf0        ..      POP      {r4-r7,pc}
        0x00004576:    460b        .F      MOV      r3,r1
        0x00004578:    4630        0F      MOV      r0,r6
        0x0000457a:    4639        9F      MOV      r1,r7
        0x0000457c:    9a02        ..      LDR      r2,[sp,#8]
        0x0000457e:    f7fcfbf5    ....    BL       __aeabi_dmul ; 0xd6c
        0x00004582:    4a08        .J      LDR      r2,[pc,#32] ; [0x45a4] = 0x55555549
        0x00004584:    4b08        .K      LDR      r3,[pc,#32] ; [0x45a8] = 0xbfc55555
        0x00004586:    f7fcf992    ....    BL       __aeabi_dadd ; 0x8ae
        0x0000458a:    9b01        ..      LDR      r3,[sp,#4]
        0x0000458c:    9a00        ..      LDR      r2,[sp,#0]
        0x0000458e:    f7fcfbed    ....    BL       __aeabi_dmul ; 0xd6c
        0x00004592:    462a        *F      MOV      r2,r5
        0x00004594:    4623        #F      MOV      r3,r4
        0x00004596:    f7fcf98a    ....    BL       __aeabi_dadd ; 0x8ae
        0x0000459a:    b00b        ..      ADD      sp,sp,#0x2c
        0x0000459c:    bdf0        ..      POP      {r4-r7,pc}
    $d
        0x0000459e:    0000        ..      DCW    0
        0x000045a0:    00001dca    ....    DCD    7626
        0x000045a4:    55555549    IUUU    DCD    1431655753
        0x000045a8:    bfc55555    UU..    DCD    3217380693
    $t
    i.__mathlib_dbl_underflow
    __mathlib_dbl_underflow
        0x000045ac:    4a03        .J      LDR      r2,[pc,#12] ; [0x45bc] = 0xfffffd01
        0x000045ae:    b510        ..      PUSH     {r4,lr}
        0x000045b0:    2000        .       MOVS     r0,#0
        0x000045b2:    0711        ..      LSLS     r1,r2,#28
        0x000045b4:    f7fdf8e2    ....    BL       __ARM_scalbn ; 0x177c
        0x000045b8:    bd10        ..      POP      {r4,pc}
    $d
        0x000045ba:    0000        ..      DCW    0
        0x000045bc:    fffffd01    ....    DCD    4294966529
    $t
    i.atan
    atan
        0x000045c0:    b5f0        ..      PUSH     {r4-r7,lr}
        0x000045c2:    b089        ..      SUB      sp,sp,#0x24
        0x000045c4:    4604        .F      MOV      r4,r0
        0x000045c6:    460d        .F      MOV      r5,r1
        0x000045c8:    0048        H.      LSLS     r0,r1,#1
        0x000045ca:    9107        ..      STR      r1,[sp,#0x1c]
        0x000045cc:    4973        sI      LDR      r1,[pc,#460] ; [0x479c] = 0x44100000
        0x000045ce:    0840        @.      LSRS     r0,r0,#1
        0x000045d0:    4288        .B      CMP      r0,r1
        0x000045d2:    db16        ..      BLT      0x4602 ; atan + 66
        0x000045d4:    4972        rI      LDR      r1,[pc,#456] ; [0x47a0] = 0x7ff00000
        0x000045d6:    4288        .B      CMP      r0,r1
        0x000045d8:    dc03        ..      BGT      0x45e2 ; atan + 34
        0x000045da:    4288        .B      CMP      r0,r1
        0x000045dc:    d108        ..      BNE      0x45f0 ; atan + 48
        0x000045de:    2c00        .,      CMP      r4,#0
        0x000045e0:    d006        ..      BEQ      0x45f0 ; atan + 48
        0x000045e2:    2201        ."      MOVS     r2,#1
        0x000045e4:    4620         F      MOV      r0,r4
        0x000045e6:    4629        )F      MOV      r1,r5
        0x000045e8:    f7fdf8c8    ....    BL       __ARM_scalbn ; 0x177c
        0x000045ec:    b009        ..      ADD      sp,sp,#0x24
        0x000045ee:    bdf0        ..      POP      {r4-r7,pc}
        0x000045f0:    486c        lH      LDR      r0,[pc,#432] ; [0x47a4] = 0x54442d18
        0x000045f2:    2d00        .-      CMP      r5,#0
        0x000045f4:    dd02        ..      BLE      0x45fc ; atan + 60
        0x000045f6:    496c        lI      LDR      r1,[pc,#432] ; [0x47a8] = 0x3ff921fb
        0x000045f8:    b009        ..      ADD      sp,sp,#0x24
        0x000045fa:    bdf0        ..      POP      {r4-r7,pc}
        0x000045fc:    496b        kI      LDR      r1,[pc,#428] ; [0x47ac] = 0xbff921fb
        0x000045fe:    b009        ..      ADD      sp,sp,#0x24
        0x00004600:    bdf0        ..      POP      {r4-r7,pc}
        0x00004602:    496b        kI      LDR      r1,[pc,#428] ; [0x47b0] = 0x3fdc0000
        0x00004604:    4288        .B      CMP      r0,r1
        0x00004606:    da11        ..      BGE      0x462c ; atan + 108
        0x00004608:    496a        jI      LDR      r1,[pc,#424] ; [0x47b4] = 0x3e200000
        0x0000460a:    4288        .B      CMP      r0,r1
        0x0000460c:    da0b        ..      BGE      0x4626 ; atan + 102
        0x0000460e:    4620         F      MOV      r0,r4
        0x00004610:    4629        )F      MOV      r1,r5
        0x00004612:    f7fffca3    ....    BL       __ARM_fpclassify ; 0x3f5c
        0x00004616:    2804        .(      CMP      r0,#4
        0x00004618:    d101        ..      BNE      0x461e ; atan + 94
        0x0000461a:    f7ffffc7    ....    BL       __mathlib_dbl_underflow ; 0x45ac
        0x0000461e:    4620         F      MOV      r0,r4
        0x00004620:    4629        )F      MOV      r1,r5
        0x00004622:    b009        ..      ADD      sp,sp,#0x24
        0x00004624:    bdf0        ..      POP      {r4-r7,pc}
        0x00004626:    2600        .&      MOVS     r6,#0
        0x00004628:    43f6        .C      MVNS     r6,r6
        0x0000462a:    e05d        ].      B        0x46e8 ; atan + 296
        0x0000462c:    006d        m.      LSLS     r5,r5,#1
        0x0000462e:    4962        bI      LDR      r1,[pc,#392] ; [0x47b8] = 0x3ff30000
        0x00004630:    086d        m.      LSRS     r5,r5,#1
        0x00004632:    4288        .B      CMP      r0,r1
        0x00004634:    da32        2.      BGE      0x469c ; atan + 220
        0x00004636:    4961        aI      LDR      r1,[pc,#388] ; [0x47bc] = 0x3fe60000
        0x00004638:    4288        .B      CMP      r0,r1
        0x0000463a:    da19        ..      BGE      0x4670 ; atan + 176
        0x0000463c:    2600        .&      MOVS     r6,#0
        0x0000463e:    2301        .#      MOVS     r3,#1
        0x00004640:    4632        2F      MOV      r2,r6
        0x00004642:    079b        ..      LSLS     r3,r3,#30
        0x00004644:    4620         F      MOV      r0,r4
        0x00004646:    4629        )F      MOV      r1,r5
        0x00004648:    f7fcf931    ..1.    BL       __aeabi_dadd ; 0x8ae
        0x0000464c:    4607        .F      MOV      r7,r0
        0x0000464e:    9100        ..      STR      r1,[sp,#0]
        0x00004650:    2201        ."      MOVS     r2,#1
        0x00004652:    4620         F      MOV      r0,r4
        0x00004654:    4629        )F      MOV      r1,r5
        0x00004656:    f7fdf891    ....    BL       __ARM_scalbn ; 0x177c
        0x0000465a:    2200        ."      MOVS     r2,#0
        0x0000465c:    4b58        XK      LDR      r3,[pc,#352] ; [0x47c0] = 0x3ff00000
        0x0000465e:    f7fcf931    ..1.    BL       __aeabi_dsub ; 0x8c4
        0x00004662:    463a        :F      MOV      r2,r7
        0x00004664:    9b00        ..      LDR      r3,[sp,#0]
        0x00004666:    f7fcf94f    ..O.    BL       __aeabi_ddiv ; 0x908
        0x0000466a:    4604        .F      MOV      r4,r0
        0x0000466c:    460d        .F      MOV      r5,r1
        0x0000466e:    e03b        ;.      B        0x46e8 ; atan + 296
        0x00004670:    2601        .&      MOVS     r6,#1
        0x00004672:    2200        ."      MOVS     r2,#0
        0x00004674:    4b52        RK      LDR      r3,[pc,#328] ; [0x47c0] = 0x3ff00000
        0x00004676:    4620         F      MOV      r0,r4
        0x00004678:    4629        )F      MOV      r1,r5
        0x0000467a:    f7fcf918    ....    BL       __aeabi_dadd ; 0x8ae
        0x0000467e:    4607        .F      MOV      r7,r0
        0x00004680:    9103        ..      STR      r1,[sp,#0xc]
        0x00004682:    2200        ."      MOVS     r2,#0
        0x00004684:    4b4e        NK      LDR      r3,[pc,#312] ; [0x47c0] = 0x3ff00000
        0x00004686:    4620         F      MOV      r0,r4
        0x00004688:    4629        )F      MOV      r1,r5
        0x0000468a:    f7fcf91b    ....    BL       __aeabi_dsub ; 0x8c4
        0x0000468e:    463a        :F      MOV      r2,r7
        0x00004690:    9b03        ..      LDR      r3,[sp,#0xc]
        0x00004692:    f7fcf939    ..9.    BL       __aeabi_ddiv ; 0x908
        0x00004696:    4604        .F      MOV      r4,r0
        0x00004698:    460d        .F      MOV      r5,r1
        0x0000469a:    e025        %.      B        0x46e8 ; atan + 296
        0x0000469c:    4949        II      LDR      r1,[pc,#292] ; [0x47c4] = 0x40038000
        0x0000469e:    4288        .B      CMP      r0,r1
        0x000046a0:    da19        ..      BGE      0x46d6 ; atan + 278
        0x000046a2:    2602        .&      MOVS     r6,#2
        0x000046a4:    2200        ."      MOVS     r2,#0
        0x000046a6:    4b48        HK      LDR      r3,[pc,#288] ; [0x47c8] = 0x3ff80000
        0x000046a8:    4620         F      MOV      r0,r4
        0x000046aa:    4629        )F      MOV      r1,r5
        0x000046ac:    f7fcfb5e    ..^.    BL       __aeabi_dmul ; 0xd6c
        0x000046b0:    2200        ."      MOVS     r2,#0
        0x000046b2:    4b43        CK      LDR      r3,[pc,#268] ; [0x47c0] = 0x3ff00000
        0x000046b4:    f7fcf8fb    ....    BL       __aeabi_dadd ; 0x8ae
        0x000046b8:    4607        .F      MOV      r7,r0
        0x000046ba:    9103        ..      STR      r1,[sp,#0xc]
        0x000046bc:    2200        ."      MOVS     r2,#0
        0x000046be:    4b42        BK      LDR      r3,[pc,#264] ; [0x47c8] = 0x3ff80000
        0x000046c0:    4620         F      MOV      r0,r4
        0x000046c2:    4629        )F      MOV      r1,r5
        0x000046c4:    f7fcf8fe    ....    BL       __aeabi_dsub ; 0x8c4
        0x000046c8:    463a        :F      MOV      r2,r7
        0x000046ca:    9b03        ..      LDR      r3,[sp,#0xc]
        0x000046cc:    f7fcf91c    ....    BL       __aeabi_ddiv ; 0x908
        0x000046d0:    4604        .F      MOV      r4,r0
        0x000046d2:    460d        .F      MOV      r5,r1
        0x000046d4:    e008        ..      B        0x46e8 ; atan + 296
        0x000046d6:    2603        .&      MOVS     r6,#3
        0x000046d8:    4622        "F      MOV      r2,r4
        0x000046da:    462b        +F      MOV      r3,r5
        0x000046dc:    2000        .       MOVS     r0,#0
        0x000046de:    493b        ;I      LDR      r1,[pc,#236] ; [0x47cc] = 0xbff00000
        0x000046e0:    f7fcf912    ....    BL       __aeabi_ddiv ; 0x908
        0x000046e4:    4604        .F      MOV      r4,r0
        0x000046e6:    460d        .F      MOV      r5,r1
        0x000046e8:    4622        "F      MOV      r2,r4
        0x000046ea:    462b        +F      MOV      r3,r5
        0x000046ec:    4620         F      MOV      r0,r4
        0x000046ee:    4629        )F      MOV      r1,r5
        0x000046f0:    f7fcfb3c    ..<.    BL       __aeabi_dmul ; 0xd6c
        0x000046f4:    4602        .F      MOV      r2,r0
        0x000046f6:    460b        .F      MOV      r3,r1
        0x000046f8:    9103        ..      STR      r1,[sp,#0xc]
        0x000046fa:    9002        ..      STR      r0,[sp,#8]
        0x000046fc:    f7fcfb36    ..6.    BL       __aeabi_dmul ; 0xd6c
        0x00004700:    4602        .F      MOV      r2,r0
        0x00004702:    9000        ..      STR      r0,[sp,#0]
        0x00004704:    4832        2H      LDR      r0,[pc,#200] ; [0x47d0] = 0x1aa0
        0x00004706:    460f        .F      MOV      r7,r1
        0x00004708:    460b        .F      MOV      r3,r1
        0x0000470a:    2106        .!      MOVS     r1,#6
        0x0000470c:    4478        xD      ADD      r0,r0,pc
        0x0000470e:    f7fffe81    ....    BL       __kernel_poly ; 0x4414
        0x00004712:    9b03        ..      LDR      r3,[sp,#0xc]
        0x00004714:    9a02        ..      LDR      r2,[sp,#8]
        0x00004716:    f7fcfb29    ..).    BL       __aeabi_dmul ; 0xd6c
        0x0000471a:    9004        ..      STR      r0,[sp,#0x10]
        0x0000471c:    482d        -H      LDR      r0,[pc,#180] ; [0x47d4] = 0x1a60
        0x0000471e:    9102        ..      STR      r1,[sp,#8]
        0x00004720:    463b        ;F      MOV      r3,r7
        0x00004722:    2105        .!      MOVS     r1,#5
        0x00004724:    4478        xD      ADD      r0,r0,pc
        0x00004726:    9a00        ..      LDR      r2,[sp,#0]
        0x00004728:    f7fffe74    ..t.    BL       __kernel_poly ; 0x4414
        0x0000472c:    463b        ;F      MOV      r3,r7
        0x0000472e:    9a00        ..      LDR      r2,[sp,#0]
        0x00004730:    f7fcfb1c    ....    BL       __aeabi_dmul ; 0xd6c
        0x00004734:    4602        .F      MOV      r2,r0
        0x00004736:    460b        .F      MOV      r3,r1
        0x00004738:    9902        ..      LDR      r1,[sp,#8]
        0x0000473a:    9804        ..      LDR      r0,[sp,#0x10]
        0x0000473c:    2e00        ..      CMP      r6,#0
        0x0000473e:    da0b        ..      BGE      0x4758 ; atan + 408
        0x00004740:    f7fcf8b5    ....    BL       __aeabi_dadd ; 0x8ae
        0x00004744:    4622        "F      MOV      r2,r4
        0x00004746:    462b        +F      MOV      r3,r5
        0x00004748:    f7fcfb10    ....    BL       __aeabi_dmul ; 0xd6c
        0x0000474c:    4622        "F      MOV      r2,r4
        0x0000474e:    462b        +F      MOV      r3,r5
        0x00004750:    f7fcf8c3    ....    BL       __aeabi_drsub ; 0x8da
        0x00004754:    b009        ..      ADD      sp,sp,#0x24
        0x00004756:    bdf0        ..      POP      {r4-r7,pc}
        0x00004758:    f7fcf8a9    ....    BL       __aeabi_dadd ; 0x8ae
        0x0000475c:    4622        "F      MOV      r2,r4
        0x0000475e:    462b        +F      MOV      r3,r5
        0x00004760:    f7fcfb04    ....    BL       __aeabi_dmul ; 0xd6c
        0x00004764:    4a1c        .J      LDR      r2,[pc,#112] ; [0x47d8] = 0x19fc
        0x00004766:    00f6        ..      LSLS     r6,r6,#3
        0x00004768:    447a        zD      ADD      r2,r2,pc
        0x0000476a:    1993        ..      ADDS     r3,r2,r6
        0x0000476c:    681a        .h      LDR      r2,[r3,#0]
        0x0000476e:    685b        [h      LDR      r3,[r3,#4]
        0x00004770:    f7fcf8a8    ....    BL       __aeabi_dsub ; 0x8c4
        0x00004774:    4622        "F      MOV      r2,r4
        0x00004776:    462b        +F      MOV      r3,r5
        0x00004778:    f7fcf8a4    ....    BL       __aeabi_dsub ; 0x8c4
        0x0000477c:    4a17        .J      LDR      r2,[pc,#92] ; [0x47dc] = 0x19c6
        0x0000477e:    447a        zD      ADD      r2,r2,pc
        0x00004780:    1993        ..      ADDS     r3,r2,r6
        0x00004782:    681a        .h      LDR      r2,[r3,#0]
        0x00004784:    685b        [h      LDR      r3,[r3,#4]
        0x00004786:    f7fcf8a8    ....    BL       __aeabi_drsub ; 0x8da
        0x0000478a:    9a07        ..      LDR      r2,[sp,#0x1c]
        0x0000478c:    2a00        .*      CMP      r2,#0
        0x0000478e:    dae1        ..      BGE      0x4754 ; atan + 404
        0x00004790:    2201        ."      MOVS     r2,#1
        0x00004792:    07d2        ..      LSLS     r2,r2,#31
        0x00004794:    4051        Q@      EORS     r1,r1,r2
        0x00004796:    b009        ..      ADD      sp,sp,#0x24
        0x00004798:    bdf0        ..      POP      {r4-r7,pc}
    $d
        0x0000479a:    0000        ..      DCW    0
        0x0000479c:    44100000    ...D    DCD    1141899264
        0x000047a0:    7ff00000    ....    DCD    2146435072
        0x000047a4:    54442d18    .-DT    DCD    1413754136
        0x000047a8:    3ff921fb    .!.?    DCD    1073291771
        0x000047ac:    bff921fb    .!..    DCD    3220775419
        0x000047b0:    3fdc0000    ...?    DCD    1071382528
        0x000047b4:    3e200000    .. >    DCD    1042284544
        0x000047b8:    3ff30000    ...?    DCD    1072889856
        0x000047bc:    3fe60000    ...?    DCD    1072037888
        0x000047c0:    3ff00000    ...?    DCD    1072693248
        0x000047c4:    40038000    ...@    DCD    1073971200
        0x000047c8:    3ff80000    ...?    DCD    1073217536
        0x000047cc:    bff00000    ....    DCD    3220176896
        0x000047d0:    00001aa0    ....    DCD    6816
        0x000047d4:    00001a60    `...    DCD    6752
        0x000047d8:    000019fc    ....    DCD    6652
        0x000047dc:    000019c6    ....    DCD    6598
    $t
    i.atan2
    atan2
        0x000047e0:    b5f0        ..      PUSH     {r4-r7,lr}
        0x000047e2:    b41f        ..      PUSH     {r0-r4}
        0x000047e4:    9b03        ..      LDR      r3,[sp,#0xc]
        0x000047e6:    4254        TB      RSBS     r4,r2,#0
        0x000047e8:    005d        ].      LSLS     r5,r3,#1
        0x000047ea:    4616        .F      MOV      r6,r2
        0x000047ec:    4326        &C      ORRS     r6,r6,r4
        0x000047ee:    469c        .F      MOV      r12,r3
        0x000047f0:    0ff4        ..      LSRS     r4,r6,#31
        0x000047f2:    086d        m.      LSRS     r5,r5,#1
        0x000047f4:    004b        K.      LSLS     r3,r1,#1
        0x000047f6:    4e4e        NN      LDR      r6,[pc,#312] ; [0x4930] = 0x7ff00000
        0x000047f8:    085b        [.      LSRS     r3,r3,#1
        0x000047fa:    432c        ,C      ORRS     r4,r4,r5
        0x000047fc:    468e        .F      MOV      lr,r1
        0x000047fe:    42b4        .B      CMP      r4,r6
        0x00004800:    d805        ..      BHI      0x480e ; atan2 + 46
        0x00004802:    4247        GB      RSBS     r7,r0,#0
        0x00004804:    4307        .C      ORRS     r7,r7,r0
        0x00004806:    0ffc        ..      LSRS     r4,r7,#31
        0x00004808:    431c        .C      ORRS     r4,r4,r3
        0x0000480a:    42b4        .B      CMP      r4,r6
        0x0000480c:    d904        ..      BLS      0x4818 ; atan2 + 56
        0x0000480e:    4663        cF      MOV      r3,r12
        0x00004810:    f7fcf84d    ..M.    BL       __aeabi_dadd ; 0x8ae
        0x00004814:    b005        ..      ADD      sp,sp,#0x14
        0x00004816:    bdf0        ..      POP      {r4-r7,pc}
        0x00004818:    4e46        FN      LDR      r6,[pc,#280] ; [0x4934] = 0xc0100000
        0x0000481a:    4466        fD      ADD      r6,r6,r12
        0x0000481c:    4316        .C      ORRS     r6,r6,r2
        0x0000481e:    d009        ..      BEQ      0x4834 ; atan2 + 84
        0x00004820:    0fcc        ..      LSRS     r4,r1,#31
        0x00004822:    4666        fF      MOV      r6,r12
        0x00004824:    17b6        ..      ASRS     r6,r6,#30
        0x00004826:    2702        .'      MOVS     r7,#2
        0x00004828:    403e        >@      ANDS     r6,r6,r7
        0x0000482a:    4326        &C      ORRS     r6,r6,r4
        0x0000482c:    4604        .F      MOV      r4,r0
        0x0000482e:    431c        .C      ORRS     r4,r4,r3
        0x00004830:    d004        ..      BEQ      0x483c ; atan2 + 92
        0x00004832:    e00b        ..      B        0x484c ; atan2 + 108
        0x00004834:    f7fffec4    ....    BL       atan ; 0x45c0
        0x00004838:    b005        ..      ADD      sp,sp,#0x14
        0x0000483a:    bdf0        ..      POP      {r4-r7,pc}
        0x0000483c:    2e00        ..      CMP      r6,#0
        0x0000483e:    d0fb        ..      BEQ      0x4838 ; atan2 + 88
        0x00004840:    2e01        ..      CMP      r6,#1
        0x00004842:    d0f9        ..      BEQ      0x4838 ; atan2 + 88
        0x00004844:    2e02        ..      CMP      r6,#2
        0x00004846:    d036        6.      BEQ      0x48b6 ; atan2 + 214
        0x00004848:    2e03        ..      CMP      r6,#3
        0x0000484a:    d038        8.      BEQ      0x48be ; atan2 + 222
        0x0000484c:    4614        .F      MOV      r4,r2
        0x0000484e:    432c        ,C      ORRS     r4,r4,r5
        0x00004850:    d00b        ..      BEQ      0x486a ; atan2 + 138
        0x00004852:    4c37        7L      LDR      r4,[pc,#220] ; [0x4930] = 0x7ff00000
        0x00004854:    42a5        .B      CMP      r5,r4
        0x00004856:    d118        ..      BNE      0x488a ; atan2 + 170
        0x00004858:    42a3        .B      CMP      r3,r4
        0x0000485a:    d10c        ..      BNE      0x4876 ; atan2 + 150
        0x0000485c:    2101        .!      MOVS     r1,#1
        0x0000485e:    0789        ..      LSLS     r1,r1,#30
        0x00004860:    438d        .C      BICS     r5,r5,r1
        0x00004862:    438b        .C      BICS     r3,r3,r1
        0x00004864:    4619        .F      MOV      r1,r3
        0x00004866:    9503        ..      STR      r5,[sp,#0xc]
        0x00004868:    e00f        ..      B        0x488a ; atan2 + 170
        0x0000486a:    4833        3H      LDR      r0,[pc,#204] ; [0x4938] = 0x54442d18
        0x0000486c:    4933        3I      LDR      r1,[pc,#204] ; [0x493c] = 0xbff921fb
        0x0000486e:    4672        rF      MOV      r2,lr
        0x00004870:    2a00        .*      CMP      r2,#0
        0x00004872:    dbe1        ..      BLT      0x4838 ; atan2 + 88
        0x00004874:    e010        ..      B        0x4898 ; atan2 + 184
        0x00004876:    4f32        2O      LDR      r7,[pc,#200] ; [0x4940] = 0x1994
        0x00004878:    447f        .D      ADD      r7,r7,pc
        0x0000487a:    2e00        ..      CMP      r6,#0
        0x0000487c:    d010        ..      BEQ      0x48a0 ; atan2 + 192
        0x0000487e:    2e01        ..      CMP      r6,#1
        0x00004880:    d012        ..      BEQ      0x48a8 ; atan2 + 200
        0x00004882:    2e02        ..      CMP      r6,#2
        0x00004884:    d017        ..      BEQ      0x48b6 ; atan2 + 214
        0x00004886:    2e03        ..      CMP      r6,#3
        0x00004888:    d019        ..      BEQ      0x48be ; atan2 + 222
        0x0000488a:    42a3        .B      CMP      r3,r4
        0x0000488c:    d11b        ..      BNE      0x48c6 ; atan2 + 230
        0x0000488e:    482a        *H      LDR      r0,[pc,#168] ; [0x4938] = 0x54442d18
        0x00004890:    492a        *I      LDR      r1,[pc,#168] ; [0x493c] = 0xbff921fb
        0x00004892:    4672        rF      MOV      r2,lr
        0x00004894:    2a00        .*      CMP      r2,#0
        0x00004896:    dbcf        ..      BLT      0x4838 ; atan2 + 88
        0x00004898:    4827        'H      LDR      r0,[pc,#156] ; [0x4938] = 0x54442d18
        0x0000489a:    492a        *I      LDR      r1,[pc,#168] ; [0x4944] = 0x3ff921fb
        0x0000489c:    b005        ..      ADD      sp,sp,#0x14
        0x0000489e:    bdf0        ..      POP      {r4-r7,pc}
        0x000048a0:    6879        yh      LDR      r1,[r7,#4]
        0x000048a2:    6838        8h      LDR      r0,[r7,#0]
        0x000048a4:    b005        ..      ADD      sp,sp,#0x14
        0x000048a6:    bdf0        ..      POP      {r4-r7,pc}
        0x000048a8:    2201        ."      MOVS     r2,#1
        0x000048aa:    6879        yh      LDR      r1,[r7,#4]
        0x000048ac:    07d2        ..      LSLS     r2,r2,#31
        0x000048ae:    6838        8h      LDR      r0,[r7,#0]
        0x000048b0:    4051        Q@      EORS     r1,r1,r2
        0x000048b2:    b005        ..      ADD      sp,sp,#0x14
        0x000048b4:    bdf0        ..      POP      {r4-r7,pc}
        0x000048b6:    4820         H      LDR      r0,[pc,#128] ; [0x4938] = 0x54442d18
        0x000048b8:    4923        #I      LDR      r1,[pc,#140] ; [0x4948] = 0x400921fb
        0x000048ba:    b005        ..      ADD      sp,sp,#0x14
        0x000048bc:    bdf0        ..      POP      {r4-r7,pc}
        0x000048be:    481e        .H      LDR      r0,[pc,#120] ; [0x4938] = 0x54442d18
        0x000048c0:    4922        "I      LDR      r1,[pc,#136] ; [0x494c] = 0xc00921fb
        0x000048c2:    b005        ..      ADD      sp,sp,#0x14
        0x000048c4:    bdf0        ..      POP      {r4-r7,pc}
        0x000048c6:    1b5b        [.      SUBS     r3,r3,r5
        0x000048c8:    151b        ..      ASRS     r3,r3,#20
        0x000048ca:    2b3c        <+      CMP      r3,#0x3c
        0x000048cc:    dd02        ..      BLE      0x48d4 ; atan2 + 244
        0x000048ce:    481a        .H      LDR      r0,[pc,#104] ; [0x4938] = 0x54442d18
        0x000048d0:    491c        .I      LDR      r1,[pc,#112] ; [0x4944] = 0x3ff921fb
        0x000048d2:    e010        ..      B        0x48f6 ; atan2 + 278
        0x000048d4:    4664        dF      MOV      r4,r12
        0x000048d6:    2c00        .,      CMP      r4,#0
        0x000048d8:    da06        ..      BGE      0x48e8 ; atan2 + 264
        0x000048da:    243b        ;$      MOVS     r4,#0x3b
        0x000048dc:    43e4        .C      MVNS     r4,r4
        0x000048de:    42a3        .B      CMP      r3,r4
        0x000048e0:    da02        ..      BGE      0x48e8 ; atan2 + 264
        0x000048e2:    2000        .       MOVS     r0,#0
        0x000048e4:    4601        .F      MOV      r1,r0
        0x000048e6:    e006        ..      B        0x48f6 ; atan2 + 278
        0x000048e8:    9b03        ..      LDR      r3,[sp,#0xc]
        0x000048ea:    f7fcf80d    ....    BL       __aeabi_ddiv ; 0x908
        0x000048ee:    0049        I.      LSLS     r1,r1,#1
        0x000048f0:    0849        I.      LSRS     r1,r1,#1
        0x000048f2:    f7fffe65    ..e.    BL       atan ; 0x45c0
        0x000048f6:    2e00        ..      CMP      r6,#0
        0x000048f8:    d0e3        ..      BEQ      0x48c2 ; atan2 + 226
        0x000048fa:    2e01        ..      CMP      r6,#1
        0x000048fc:    d00b        ..      BEQ      0x4916 ; atan2 + 310
        0x000048fe:    4a14        .J      LDR      r2,[pc,#80] ; [0x4950] = 0x33145c07
        0x00004900:    4b14        .K      LDR      r3,[pc,#80] ; [0x4954] = 0x3ca1a626
        0x00004902:    2e02        ..      CMP      r6,#2
        0x00004904:    d00c        ..      BEQ      0x4920 ; atan2 + 320
        0x00004906:    f7fbffdd    ....    BL       __aeabi_dsub ; 0x8c4
        0x0000490a:    4a0b        .J      LDR      r2,[pc,#44] ; [0x4938] = 0x54442d18
        0x0000490c:    4b0e        .K      LDR      r3,[pc,#56] ; [0x4948] = 0x400921fb
        0x0000490e:    f7fbffd9    ....    BL       __aeabi_dsub ; 0x8c4
        0x00004912:    b005        ..      ADD      sp,sp,#0x14
        0x00004914:    bdf0        ..      POP      {r4-r7,pc}
        0x00004916:    2201        ."      MOVS     r2,#1
        0x00004918:    07d2        ..      LSLS     r2,r2,#31
        0x0000491a:    4051        Q@      EORS     r1,r1,r2
        0x0000491c:    b005        ..      ADD      sp,sp,#0x14
        0x0000491e:    bdf0        ..      POP      {r4-r7,pc}
        0x00004920:    f7fbffd0    ....    BL       __aeabi_dsub ; 0x8c4
        0x00004924:    4a04        .J      LDR      r2,[pc,#16] ; [0x4938] = 0x54442d18
        0x00004926:    4b08        .K      LDR      r3,[pc,#32] ; [0x4948] = 0x400921fb
        0x00004928:    f7fbffd7    ....    BL       __aeabi_drsub ; 0x8da
        0x0000492c:    b005        ..      ADD      sp,sp,#0x14
        0x0000492e:    bdf0        ..      POP      {r4-r7,pc}
    $d
        0x00004930:    7ff00000    ....    DCD    2146435072
        0x00004934:    c0100000    ....    DCD    3222274048
        0x00004938:    54442d18    .-DT    DCD    1413754136
        0x0000493c:    bff921fb    .!..    DCD    3220775419
        0x00004940:    00001994    ....    DCD    6548
        0x00004944:    3ff921fb    .!.?    DCD    1073291771
        0x00004948:    400921fb    .!.@    DCD    1074340347
        0x0000494c:    c00921fb    .!..    DCD    3221823995
        0x00004950:    33145c07    .\.3    DCD    856972295
        0x00004954:    3ca1a626    &..<    DCD    1017226790
    $t
    i.calibrateMPU9250
    calibrateMPU9250
        0x00004958:    b5f0        ..      PUSH     {r4-r7,lr}
        0x0000495a:    b095        ..      SUB      sp,sp,#0x54
        0x0000495c:    4605        .F      MOV      r5,r0
        0x0000495e:    460e        .F      MOV      r6,r1
        0x00004960:    2000        .       MOVS     r0,#0
        0x00004962:    900d        ..      STR      r0,[sp,#0x34]
        0x00004964:    900e        ..      STR      r0,[sp,#0x38]
        0x00004966:    900f        ..      STR      r0,[sp,#0x3c]
        0x00004968:    900a        ..      STR      r0,[sp,#0x28]
        0x0000496a:    900b        ..      STR      r0,[sp,#0x2c]
        0x0000496c:    900c        ..      STR      r0,[sp,#0x30]
        0x0000496e:    2001        .       MOVS     r0,#1
        0x00004970:    9009        ..      STR      r0,[sp,#0x24]
        0x00004972:    2000        .       MOVS     r0,#0
        0x00004974:    9008        ..      STR      r0,[sp,#0x20]
        0x00004976:    2083        .       MOVS     r0,#0x83
        0x00004978:    9007        ..      STR      r0,[sp,#0x1c]
        0x0000497a:    2701        .'      MOVS     r7,#1
        0x0000497c:    03bf        ..      LSLS     r7,r7,#14
        0x0000497e:    2000        .       MOVS     r0,#0
        0x00004980:    9004        ..      STR      r0,[sp,#0x10]
        0x00004982:    9005        ..      STR      r0,[sp,#0x14]
        0x00004984:    9006        ..      STR      r0,[sp,#0x18]
        0x00004986:    2280        ."      MOVS     r2,#0x80
        0x00004988:    216b        k!      MOVS     r1,#0x6b
        0x0000498a:    2068        h       MOVS     r0,#0x68
        0x0000498c:    f001f982    ....    BL       writeByte ; 0x5c94
        0x00004990:    48ff        .H      LDR      r0,[pc,#1020] ; [0x4d90] = 0x186a0
        0x00004992:    f7fefa5d    ..].    BL       DrvSYS_Delay ; 0x2e50
        0x00004996:    2201        ."      MOVS     r2,#1
        0x00004998:    216b        k!      MOVS     r1,#0x6b
        0x0000499a:    2068        h       MOVS     r0,#0x68
        0x0000499c:    f001f97a    ..z.    BL       writeByte ; 0x5c94
        0x000049a0:    2200        ."      MOVS     r2,#0
        0x000049a2:    216c        l!      MOVS     r1,#0x6c
        0x000049a4:    2068        h       MOVS     r0,#0x68
        0x000049a6:    f001f975    ..u.    BL       writeByte ; 0x5c94
        0x000049aa:    48fa        .H      LDR      r0,[pc,#1000] ; [0x4d94] = 0x30d40
        0x000049ac:    f7fefa50    ..P.    BL       DrvSYS_Delay ; 0x2e50
        0x000049b0:    2200        ."      MOVS     r2,#0
        0x000049b2:    2138        8!      MOVS     r1,#0x38
        0x000049b4:    2068        h       MOVS     r0,#0x68
        0x000049b6:    f001f96d    ..m.    BL       writeByte ; 0x5c94
        0x000049ba:    2200        ."      MOVS     r2,#0
        0x000049bc:    2123        #!      MOVS     r1,#0x23
        0x000049be:    2068        h       MOVS     r0,#0x68
        0x000049c0:    f001f968    ..h.    BL       writeByte ; 0x5c94
        0x000049c4:    2200        ."      MOVS     r2,#0
        0x000049c6:    216b        k!      MOVS     r1,#0x6b
        0x000049c8:    2068        h       MOVS     r0,#0x68
        0x000049ca:    f001f963    ..c.    BL       writeByte ; 0x5c94
        0x000049ce:    2200        ."      MOVS     r2,#0
        0x000049d0:    2124        $!      MOVS     r1,#0x24
        0x000049d2:    2068        h       MOVS     r0,#0x68
        0x000049d4:    f001f95e    ..^.    BL       writeByte ; 0x5c94
        0x000049d8:    2200        ."      MOVS     r2,#0
        0x000049da:    216a        j!      MOVS     r1,#0x6a
        0x000049dc:    2068        h       MOVS     r0,#0x68
        0x000049de:    f001f959    ..Y.    BL       writeByte ; 0x5c94
        0x000049e2:    220c        ."      MOVS     r2,#0xc
        0x000049e4:    216a        j!      MOVS     r1,#0x6a
        0x000049e6:    2068        h       MOVS     r0,#0x68
        0x000049e8:    f001f954    ..T.    BL       writeByte ; 0x5c94
        0x000049ec:    48ea        .H      LDR      r0,[pc,#936] ; [0x4d98] = 0x2710
        0x000049ee:    f7fefa2f    ../.    BL       DrvSYS_Delay ; 0x2e50
        0x000049f2:    2201        ."      MOVS     r2,#1
        0x000049f4:    211a        .!      MOVS     r1,#0x1a
        0x000049f6:    2068        h       MOVS     r0,#0x68
        0x000049f8:    f001f94c    ..L.    BL       writeByte ; 0x5c94
        0x000049fc:    2200        ."      MOVS     r2,#0
        0x000049fe:    2119        .!      MOVS     r1,#0x19
        0x00004a00:    2068        h       MOVS     r0,#0x68
        0x00004a02:    f001f947    ..G.    BL       writeByte ; 0x5c94
        0x00004a06:    2200        ."      MOVS     r2,#0
        0x00004a08:    211b        .!      MOVS     r1,#0x1b
        0x00004a0a:    2068        h       MOVS     r0,#0x68
        0x00004a0c:    f001f942    ..B.    BL       writeByte ; 0x5c94
        0x00004a10:    2200        ."      MOVS     r2,#0
        0x00004a12:    211c        .!      MOVS     r1,#0x1c
        0x00004a14:    2068        h       MOVS     r0,#0x68
        0x00004a16:    f001f93d    ..=.    BL       writeByte ; 0x5c94
        0x00004a1a:    2240        @"      MOVS     r2,#0x40
        0x00004a1c:    216a        j!      MOVS     r1,#0x6a
        0x00004a1e:    2068        h       MOVS     r0,#0x68
        0x00004a20:    f001f938    ..8.    BL       writeByte ; 0x5c94
        0x00004a24:    2278        x"      MOVS     r2,#0x78
        0x00004a26:    2123        #!      MOVS     r1,#0x23
        0x00004a28:    2068        h       MOVS     r0,#0x68
        0x00004a2a:    f001f933    ..3.    BL       writeByte ; 0x5c94
        0x00004a2e:    48db        .H      LDR      r0,[pc,#876] ; [0x4d9c] = 0x9c40
        0x00004a30:    f7fefa0e    ....    BL       DrvSYS_Delay ; 0x2e50
        0x00004a34:    2200        ."      MOVS     r2,#0
        0x00004a36:    2123        #!      MOVS     r1,#0x23
        0x00004a38:    2068        h       MOVS     r0,#0x68
        0x00004a3a:    f001f92b    ..+.    BL       writeByte ; 0x5c94
        0x00004a3e:    2172        r!      MOVS     r1,#0x72
        0x00004a40:    2068        h       MOVS     r0,#0x68
        0x00004a42:    f000ff6d    ..m.    BL       readByte ; 0x5920
        0x00004a46:    a910        ..      ADD      r1,sp,#0x40
        0x00004a48:    7208        .r      STRB     r0,[r1,#8]
        0x00004a4a:    2173        s!      MOVS     r1,#0x73
        0x00004a4c:    2068        h       MOVS     r0,#0x68
        0x00004a4e:    f000ff67    ..g.    BL       readByte ; 0x5920
        0x00004a52:    4601        .F      MOV      r1,r0
        0x00004a54:    a810        ..      ADD      r0,sp,#0x40
        0x00004a56:    7241        Ar      STRB     r1,[r0,#9]
        0x00004a58:    7a00        .z      LDRB     r0,[r0,#8]
        0x00004a5a:    0200        ..      LSLS     r0,r0,#8
        0x00004a5c:    a910        ..      ADD      r1,sp,#0x40
        0x00004a5e:    7a49        Iz      LDRB     r1,[r1,#9]
        0x00004a60:    4308        .C      ORRS     r0,r0,r1
        0x00004a62:    9010        ..      STR      r0,[sp,#0x40]
        0x00004a64:    210c        .!      MOVS     r1,#0xc
        0x00004a66:    9810        ..      LDR      r0,[sp,#0x40]
        0x00004a68:    f7fbfcc6    ....    BL       __aeabi_idiv ; 0x3f8
        0x00004a6c:    b280        ..      UXTH     r0,r0
        0x00004a6e:    9011        ..      STR      r0,[sp,#0x44]
        0x00004a70:    2400        .$      MOVS     r4,#0
        0x00004a72:    e0b1        ..      B        0x4bd8 ; calibrateMPU9250 + 640
        0x00004a74:    2000        .       MOVS     r0,#0
        0x00004a76:    9002        ..      STR      r0,[sp,#8]
        0x00004a78:    9003        ..      STR      r0,[sp,#0xc]
        0x00004a7a:    9000        ..      STR      r0,[sp,#0]
        0x00004a7c:    9001        ..      STR      r0,[sp,#4]
        0x00004a7e:    213b        ;!      MOVS     r1,#0x3b
        0x00004a80:    2068        h       MOVS     r0,#0x68
        0x00004a82:    f000ff4d    ..M.    BL       readByte ; 0x5920
        0x00004a86:    a910        ..      ADD      r1,sp,#0x40
        0x00004a88:    7208        .r      STRB     r0,[r1,#8]
        0x00004a8a:    213c        <!      MOVS     r1,#0x3c
        0x00004a8c:    2068        h       MOVS     r0,#0x68
        0x00004a8e:    f000ff47    ..G.    BL       readByte ; 0x5920
        0x00004a92:    4601        .F      MOV      r1,r0
        0x00004a94:    a810        ..      ADD      r0,sp,#0x40
        0x00004a96:    7241        Ar      STRB     r1,[r0,#9]
        0x00004a98:    213d        =!      MOVS     r1,#0x3d
        0x00004a9a:    2068        h       MOVS     r0,#0x68
        0x00004a9c:    f000ff40    ..@.    BL       readByte ; 0x5920
        0x00004aa0:    4601        .F      MOV      r1,r0
        0x00004aa2:    a810        ..      ADD      r0,sp,#0x40
        0x00004aa4:    7281        .r      STRB     r1,[r0,#0xa]
        0x00004aa6:    213e        >!      MOVS     r1,#0x3e
        0x00004aa8:    2068        h       MOVS     r0,#0x68
        0x00004aaa:    f000ff39    ..9.    BL       readByte ; 0x5920
        0x00004aae:    4601        .F      MOV      r1,r0
        0x00004ab0:    a810        ..      ADD      r0,sp,#0x40
        0x00004ab2:    72c1        .r      STRB     r1,[r0,#0xb]
        0x00004ab4:    213f        ?!      MOVS     r1,#0x3f
        0x00004ab6:    2068        h       MOVS     r0,#0x68
        0x00004ab8:    f000ff32    ..2.    BL       readByte ; 0x5920
        0x00004abc:    4601        .F      MOV      r1,r0
        0x00004abe:    a810        ..      ADD      r0,sp,#0x40
        0x00004ac0:    7301        .s      STRB     r1,[r0,#0xc]
        0x00004ac2:    2140        @!      MOVS     r1,#0x40
        0x00004ac4:    2068        h       MOVS     r0,#0x68
        0x00004ac6:    f000ff2b    ..+.    BL       readByte ; 0x5920
        0x00004aca:    4601        .F      MOV      r1,r0
        0x00004acc:    a810        ..      ADD      r0,sp,#0x40
        0x00004ace:    7341        As      STRB     r1,[r0,#0xd]
        0x00004ad0:    2143        C!      MOVS     r1,#0x43
        0x00004ad2:    2068        h       MOVS     r0,#0x68
        0x00004ad4:    f000ff24    ..$.    BL       readByte ; 0x5920
        0x00004ad8:    4601        .F      MOV      r1,r0
        0x00004ada:    a810        ..      ADD      r0,sp,#0x40
        0x00004adc:    7381        .s      STRB     r1,[r0,#0xe]
        0x00004ade:    2144        D!      MOVS     r1,#0x44
        0x00004ae0:    2068        h       MOVS     r0,#0x68
        0x00004ae2:    f000ff1d    ....    BL       readByte ; 0x5920
        0x00004ae6:    4601        .F      MOV      r1,r0
        0x00004ae8:    a810        ..      ADD      r0,sp,#0x40
        0x00004aea:    73c1        .s      STRB     r1,[r0,#0xf]
        0x00004aec:    2145        E!      MOVS     r1,#0x45
        0x00004aee:    2068        h       MOVS     r0,#0x68
        0x00004af0:    f000ff16    ....    BL       readByte ; 0x5920
        0x00004af4:    4601        .F      MOV      r1,r0
        0x00004af6:    a810        ..      ADD      r0,sp,#0x40
        0x00004af8:    7401        .t      STRB     r1,[r0,#0x10]
        0x00004afa:    2146        F!      MOVS     r1,#0x46
        0x00004afc:    2068        h       MOVS     r0,#0x68
        0x00004afe:    f000ff0f    ....    BL       readByte ; 0x5920
        0x00004b02:    4601        .F      MOV      r1,r0
        0x00004b04:    a810        ..      ADD      r0,sp,#0x40
        0x00004b06:    7441        At      STRB     r1,[r0,#0x11]
        0x00004b08:    2147        G!      MOVS     r1,#0x47
        0x00004b0a:    2068        h       MOVS     r0,#0x68
        0x00004b0c:    f000ff08    ....    BL       readByte ; 0x5920
        0x00004b10:    4601        .F      MOV      r1,r0
        0x00004b12:    a810        ..      ADD      r0,sp,#0x40
        0x00004b14:    7481        .t      STRB     r1,[r0,#0x12]
        0x00004b16:    2148        H!      MOVS     r1,#0x48
        0x00004b18:    2068        h       MOVS     r0,#0x68
        0x00004b1a:    f000ff01    ....    BL       readByte ; 0x5920
        0x00004b1e:    4601        .F      MOV      r1,r0
        0x00004b20:    a810        ..      ADD      r0,sp,#0x40
        0x00004b22:    74c1        .t      STRB     r1,[r0,#0x13]
        0x00004b24:    7a00        .z      LDRB     r0,[r0,#8]
        0x00004b26:    0201        ..      LSLS     r1,r0,#8
        0x00004b28:    a810        ..      ADD      r0,sp,#0x40
        0x00004b2a:    7a40        @z      LDRB     r0,[r0,#9]
        0x00004b2c:    4301        .C      ORRS     r1,r1,r0
        0x00004b2e:    b209        ..      SXTH     r1,r1
        0x00004b30:    4668        hF      MOV      r0,sp
        0x00004b32:    8101        ..      STRH     r1,[r0,#8]
        0x00004b34:    a810        ..      ADD      r0,sp,#0x40
        0x00004b36:    7a80        .z      LDRB     r0,[r0,#0xa]
        0x00004b38:    0201        ..      LSLS     r1,r0,#8
        0x00004b3a:    a810        ..      ADD      r0,sp,#0x40
        0x00004b3c:    7ac0        .z      LDRB     r0,[r0,#0xb]
        0x00004b3e:    4301        .C      ORRS     r1,r1,r0
        0x00004b40:    b209        ..      SXTH     r1,r1
        0x00004b42:    4668        hF      MOV      r0,sp
        0x00004b44:    8141        A.      STRH     r1,[r0,#0xa]
        0x00004b46:    a810        ..      ADD      r0,sp,#0x40
        0x00004b48:    7b00        .{      LDRB     r0,[r0,#0xc]
        0x00004b4a:    0201        ..      LSLS     r1,r0,#8
        0x00004b4c:    a810        ..      ADD      r0,sp,#0x40
        0x00004b4e:    7b40        @{      LDRB     r0,[r0,#0xd]
        0x00004b50:    4301        .C      ORRS     r1,r1,r0
        0x00004b52:    b209        ..      SXTH     r1,r1
        0x00004b54:    4668        hF      MOV      r0,sp
        0x00004b56:    8181        ..      STRH     r1,[r0,#0xc]
        0x00004b58:    a810        ..      ADD      r0,sp,#0x40
        0x00004b5a:    7b80        .{      LDRB     r0,[r0,#0xe]
        0x00004b5c:    0201        ..      LSLS     r1,r0,#8
        0x00004b5e:    a810        ..      ADD      r0,sp,#0x40
        0x00004b60:    7bc0        .{      LDRB     r0,[r0,#0xf]
        0x00004b62:    4301        .C      ORRS     r1,r1,r0
        0x00004b64:    b209        ..      SXTH     r1,r1
        0x00004b66:    4668        hF      MOV      r0,sp
        0x00004b68:    8001        ..      STRH     r1,[r0,#0]
        0x00004b6a:    a810        ..      ADD      r0,sp,#0x40
        0x00004b6c:    7c00        .|      LDRB     r0,[r0,#0x10]
        0x00004b6e:    0201        ..      LSLS     r1,r0,#8
        0x00004b70:    a810        ..      ADD      r0,sp,#0x40
        0x00004b72:    7c40        @|      LDRB     r0,[r0,#0x11]
        0x00004b74:    4301        .C      ORRS     r1,r1,r0
        0x00004b76:    b209        ..      SXTH     r1,r1
        0x00004b78:    4668        hF      MOV      r0,sp
        0x00004b7a:    8041        A.      STRH     r1,[r0,#2]
        0x00004b7c:    a810        ..      ADD      r0,sp,#0x40
        0x00004b7e:    7c80        .|      LDRB     r0,[r0,#0x12]
        0x00004b80:    0201        ..      LSLS     r1,r0,#8
        0x00004b82:    a810        ..      ADD      r0,sp,#0x40
        0x00004b84:    7cc0        .|      LDRB     r0,[r0,#0x13]
        0x00004b86:    4301        .C      ORRS     r1,r1,r0
        0x00004b88:    b209        ..      SXTH     r1,r1
        0x00004b8a:    4668        hF      MOV      r0,sp
        0x00004b8c:    8081        ..      STRH     r1,[r0,#4]
        0x00004b8e:    2208        ."      MOVS     r2,#8
        0x00004b90:    5e82        .^      LDRSH    r2,[r0,r2]
        0x00004b92:    990a        ..      LDR      r1,[sp,#0x28]
        0x00004b94:    1888        ..      ADDS     r0,r1,r2
        0x00004b96:    900a        ..      STR      r0,[sp,#0x28]
        0x00004b98:    4668        hF      MOV      r0,sp
        0x00004b9a:    220a        ."      MOVS     r2,#0xa
        0x00004b9c:    5e82        .^      LDRSH    r2,[r0,r2]
        0x00004b9e:    990b        ..      LDR      r1,[sp,#0x2c]
        0x00004ba0:    1888        ..      ADDS     r0,r1,r2
        0x00004ba2:    900b        ..      STR      r0,[sp,#0x2c]
        0x00004ba4:    4668        hF      MOV      r0,sp
        0x00004ba6:    220c        ."      MOVS     r2,#0xc
        0x00004ba8:    5e82        .^      LDRSH    r2,[r0,r2]
        0x00004baa:    990c        ..      LDR      r1,[sp,#0x30]
        0x00004bac:    1888        ..      ADDS     r0,r1,r2
        0x00004bae:    900c        ..      STR      r0,[sp,#0x30]
        0x00004bb0:    4668        hF      MOV      r0,sp
        0x00004bb2:    2200        ."      MOVS     r2,#0
        0x00004bb4:    5e82        .^      LDRSH    r2,[r0,r2]
        0x00004bb6:    990d        ..      LDR      r1,[sp,#0x34]
        0x00004bb8:    1888        ..      ADDS     r0,r1,r2
        0x00004bba:    900d        ..      STR      r0,[sp,#0x34]
        0x00004bbc:    4668        hF      MOV      r0,sp
        0x00004bbe:    2202        ."      MOVS     r2,#2
        0x00004bc0:    5e82        .^      LDRSH    r2,[r0,r2]
        0x00004bc2:    990e        ..      LDR      r1,[sp,#0x38]
        0x00004bc4:    1888        ..      ADDS     r0,r1,r2
        0x00004bc6:    900e        ..      STR      r0,[sp,#0x38]
        0x00004bc8:    4668        hF      MOV      r0,sp
        0x00004bca:    2204        ."      MOVS     r2,#4
        0x00004bcc:    5e82        .^      LDRSH    r2,[r0,r2]
        0x00004bce:    990f        ..      LDR      r1,[sp,#0x3c]
        0x00004bd0:    1888        ..      ADDS     r0,r1,r2
        0x00004bd2:    900f        ..      STR      r0,[sp,#0x3c]
        0x00004bd4:    1c60        `.      ADDS     r0,r4,#1
        0x00004bd6:    b284        ..      UXTH     r4,r0
        0x00004bd8:    9811        ..      LDR      r0,[sp,#0x44]
        0x00004bda:    4284        .B      CMP      r4,r0
        0x00004bdc:    da00        ..      BGE      0x4be0 ; calibrateMPU9250 + 648
        0x00004bde:    e749        I.      B        0x4a74 ; calibrateMPU9250 + 284
        0x00004be0:    9911        ..      LDR      r1,[sp,#0x44]
        0x00004be2:    980a        ..      LDR      r0,[sp,#0x28]
        0x00004be4:    f7fbfc08    ....    BL       __aeabi_idiv ; 0x3f8
        0x00004be8:    900a        ..      STR      r0,[sp,#0x28]
        0x00004bea:    9911        ..      LDR      r1,[sp,#0x44]
        0x00004bec:    980b        ..      LDR      r0,[sp,#0x2c]
        0x00004bee:    f7fbfc03    ....    BL       __aeabi_idiv ; 0x3f8
        0x00004bf2:    900b        ..      STR      r0,[sp,#0x2c]
        0x00004bf4:    9911        ..      LDR      r1,[sp,#0x44]
        0x00004bf6:    980c        ..      LDR      r0,[sp,#0x30]
        0x00004bf8:    f7fbfbfe    ....    BL       __aeabi_idiv ; 0x3f8
        0x00004bfc:    900c        ..      STR      r0,[sp,#0x30]
        0x00004bfe:    9911        ..      LDR      r1,[sp,#0x44]
        0x00004c00:    980d        ..      LDR      r0,[sp,#0x34]
        0x00004c02:    f7fbfbf9    ....    BL       __aeabi_idiv ; 0x3f8
        0x00004c06:    900d        ..      STR      r0,[sp,#0x34]
        0x00004c08:    9911        ..      LDR      r1,[sp,#0x44]
        0x00004c0a:    980e        ..      LDR      r0,[sp,#0x38]
        0x00004c0c:    f7fbfbf4    ....    BL       __aeabi_idiv ; 0x3f8
        0x00004c10:    900e        ..      STR      r0,[sp,#0x38]
        0x00004c12:    9911        ..      LDR      r1,[sp,#0x44]
        0x00004c14:    980f        ..      LDR      r0,[sp,#0x3c]
        0x00004c16:    f7fbfbef    ....    BL       __aeabi_idiv ; 0x3f8
        0x00004c1a:    900f        ..      STR      r0,[sp,#0x3c]
        0x00004c1c:    980c        ..      LDR      r0,[sp,#0x30]
        0x00004c1e:    2800        .(      CMP      r0,#0
        0x00004c20:    dd03        ..      BLE      0x4c2a ; calibrateMPU9250 + 722
        0x00004c22:    980c        ..      LDR      r0,[sp,#0x30]
        0x00004c24:    1bc0        ..      SUBS     r0,r0,r7
        0x00004c26:    900c        ..      STR      r0,[sp,#0x30]
        0x00004c28:    e002        ..      B        0x4c30 ; calibrateMPU9250 + 728
        0x00004c2a:    980c        ..      LDR      r0,[sp,#0x30]
        0x00004c2c:    19c0        ..      ADDS     r0,r0,r7
        0x00004c2e:    900c        ..      STR      r0,[sp,#0x30]
        0x00004c30:    990d        ..      LDR      r1,[sp,#0x34]
        0x00004c32:    4248        HB      RSBS     r0,r1,#0
        0x00004c34:    17c1        ..      ASRS     r1,r0,#31
        0x00004c36:    0f89        ..      LSRS     r1,r1,#30
        0x00004c38:    1809        ..      ADDS     r1,r1,r0
        0x00004c3a:    0389        ..      LSLS     r1,r1,#14
        0x00004c3c:    0e0a        ..      LSRS     r2,r1,#24
        0x00004c3e:    a910        ..      ADD      r1,sp,#0x40
        0x00004c40:    720a        .r      STRB     r2,[r1,#8]
        0x00004c42:    990d        ..      LDR      r1,[sp,#0x34]
        0x00004c44:    4248        HB      RSBS     r0,r1,#0
        0x00004c46:    17c1        ..      ASRS     r1,r0,#31
        0x00004c48:    0f89        ..      LSRS     r1,r1,#30
        0x00004c4a:    1809        ..      ADDS     r1,r1,r0
        0x00004c4c:    0589        ..      LSLS     r1,r1,#22
        0x00004c4e:    0e0a        ..      LSRS     r2,r1,#24
        0x00004c50:    a910        ..      ADD      r1,sp,#0x40
        0x00004c52:    724a        Jr      STRB     r2,[r1,#9]
        0x00004c54:    990e        ..      LDR      r1,[sp,#0x38]
        0x00004c56:    4248        HB      RSBS     r0,r1,#0
        0x00004c58:    17c1        ..      ASRS     r1,r0,#31
        0x00004c5a:    0f89        ..      LSRS     r1,r1,#30
        0x00004c5c:    1809        ..      ADDS     r1,r1,r0
        0x00004c5e:    0389        ..      LSLS     r1,r1,#14
        0x00004c60:    0e0a        ..      LSRS     r2,r1,#24
        0x00004c62:    a910        ..      ADD      r1,sp,#0x40
        0x00004c64:    728a        .r      STRB     r2,[r1,#0xa]
        0x00004c66:    990e        ..      LDR      r1,[sp,#0x38]
        0x00004c68:    4248        HB      RSBS     r0,r1,#0
        0x00004c6a:    17c1        ..      ASRS     r1,r0,#31
        0x00004c6c:    0f89        ..      LSRS     r1,r1,#30
        0x00004c6e:    1809        ..      ADDS     r1,r1,r0
        0x00004c70:    0589        ..      LSLS     r1,r1,#22
        0x00004c72:    0e0a        ..      LSRS     r2,r1,#24
        0x00004c74:    a910        ..      ADD      r1,sp,#0x40
        0x00004c76:    72ca        .r      STRB     r2,[r1,#0xb]
        0x00004c78:    990f        ..      LDR      r1,[sp,#0x3c]
        0x00004c7a:    4248        HB      RSBS     r0,r1,#0
        0x00004c7c:    17c1        ..      ASRS     r1,r0,#31
        0x00004c7e:    0f89        ..      LSRS     r1,r1,#30
        0x00004c80:    1809        ..      ADDS     r1,r1,r0
        0x00004c82:    0389        ..      LSLS     r1,r1,#14
        0x00004c84:    0e0a        ..      LSRS     r2,r1,#24
        0x00004c86:    a910        ..      ADD      r1,sp,#0x40
        0x00004c88:    730a        .s      STRB     r2,[r1,#0xc]
        0x00004c8a:    990f        ..      LDR      r1,[sp,#0x3c]
        0x00004c8c:    4248        HB      RSBS     r0,r1,#0
        0x00004c8e:    17c1        ..      ASRS     r1,r0,#31
        0x00004c90:    0f89        ..      LSRS     r1,r1,#30
        0x00004c92:    1809        ..      ADDS     r1,r1,r0
        0x00004c94:    0589        ..      LSLS     r1,r1,#22
        0x00004c96:    0e0a        ..      LSRS     r2,r1,#24
        0x00004c98:    a910        ..      ADD      r1,sp,#0x40
        0x00004c9a:    734a        Js      STRB     r2,[r1,#0xd]
        0x00004c9c:    9807        ..      LDR      r0,[sp,#0x1c]
        0x00004c9e:    f7fcfad5    ....    BL       __aeabi_ui2f ; 0x124c
        0x00004ca2:    9003        ..      STR      r0,[sp,#0xc]
        0x00004ca4:    980d        ..      LDR      r0,[sp,#0x34]
        0x00004ca6:    f7fcfac9    ....    BL       __aeabi_i2f ; 0x123c
        0x00004caa:    9002        ..      STR      r0,[sp,#8]
        0x00004cac:    9903        ..      LDR      r1,[sp,#0xc]
        0x00004cae:    f7fcf9cb    ....    BL       __aeabi_fdiv ; 0x1048
        0x00004cb2:    6028        (`      STR      r0,[r5,#0]
        0x00004cb4:    9807        ..      LDR      r0,[sp,#0x1c]
        0x00004cb6:    f7fcfac9    ....    BL       __aeabi_ui2f ; 0x124c
        0x00004cba:    9003        ..      STR      r0,[sp,#0xc]
        0x00004cbc:    980e        ..      LDR      r0,[sp,#0x38]
        0x00004cbe:    f7fcfabd    ....    BL       __aeabi_i2f ; 0x123c
        0x00004cc2:    9002        ..      STR      r0,[sp,#8]
        0x00004cc4:    9903        ..      LDR      r1,[sp,#0xc]
        0x00004cc6:    f7fcf9bf    ....    BL       __aeabi_fdiv ; 0x1048
        0x00004cca:    6068        h`      STR      r0,[r5,#4]
        0x00004ccc:    9807        ..      LDR      r0,[sp,#0x1c]
        0x00004cce:    f7fcfabd    ....    BL       __aeabi_ui2f ; 0x124c
        0x00004cd2:    9003        ..      STR      r0,[sp,#0xc]
        0x00004cd4:    980f        ..      LDR      r0,[sp,#0x3c]
        0x00004cd6:    f7fcfab1    ....    BL       __aeabi_i2f ; 0x123c
        0x00004cda:    9002        ..      STR      r0,[sp,#8]
        0x00004cdc:    9903        ..      LDR      r1,[sp,#0xc]
        0x00004cde:    f7fcf9b3    ....    BL       __aeabi_fdiv ; 0x1048
        0x00004ce2:    60a8        .`      STR      r0,[r5,#8]
        0x00004ce4:    2177        w!      MOVS     r1,#0x77
        0x00004ce6:    2068        h       MOVS     r0,#0x68
        0x00004ce8:    f000fe1a    ....    BL       readByte ; 0x5920
        0x00004cec:    4601        .F      MOV      r1,r0
        0x00004cee:    a810        ..      ADD      r0,sp,#0x40
        0x00004cf0:    7201        .r      STRB     r1,[r0,#8]
        0x00004cf2:    2178        x!      MOVS     r1,#0x78
        0x00004cf4:    2068        h       MOVS     r0,#0x68
        0x00004cf6:    f000fe13    ....    BL       readByte ; 0x5920
        0x00004cfa:    4601        .F      MOV      r1,r0
        0x00004cfc:    a810        ..      ADD      r0,sp,#0x40
        0x00004cfe:    7241        Ar      STRB     r1,[r0,#9]
        0x00004d00:    7a00        .z      LDRB     r0,[r0,#8]
        0x00004d02:    0200        ..      LSLS     r0,r0,#8
        0x00004d04:    b201        ..      SXTH     r1,r0
        0x00004d06:    a810        ..      ADD      r0,sp,#0x40
        0x00004d08:    7a40        @z      LDRB     r0,[r0,#9]
        0x00004d0a:    4301        .C      ORRS     r1,r1,r0
        0x00004d0c:    9104        ..      STR      r1,[sp,#0x10]
        0x00004d0e:    217a        z!      MOVS     r1,#0x7a
        0x00004d10:    2068        h       MOVS     r0,#0x68
        0x00004d12:    f000fe05    ....    BL       readByte ; 0x5920
        0x00004d16:    4601        .F      MOV      r1,r0
        0x00004d18:    a810        ..      ADD      r0,sp,#0x40
        0x00004d1a:    7201        .r      STRB     r1,[r0,#8]
        0x00004d1c:    217b        {!      MOVS     r1,#0x7b
        0x00004d1e:    2068        h       MOVS     r0,#0x68
        0x00004d20:    f000fdfe    ....    BL       readByte ; 0x5920
        0x00004d24:    4601        .F      MOV      r1,r0
        0x00004d26:    a810        ..      ADD      r0,sp,#0x40
        0x00004d28:    7241        Ar      STRB     r1,[r0,#9]
        0x00004d2a:    7a00        .z      LDRB     r0,[r0,#8]
        0x00004d2c:    0200        ..      LSLS     r0,r0,#8
        0x00004d2e:    b201        ..      SXTH     r1,r0
        0x00004d30:    a810        ..      ADD      r0,sp,#0x40
        0x00004d32:    7a40        @z      LDRB     r0,[r0,#9]
        0x00004d34:    4301        .C      ORRS     r1,r1,r0
        0x00004d36:    9105        ..      STR      r1,[sp,#0x14]
        0x00004d38:    217d        }!      MOVS     r1,#0x7d
        0x00004d3a:    2068        h       MOVS     r0,#0x68
        0x00004d3c:    f000fdf0    ....    BL       readByte ; 0x5920
        0x00004d40:    4601        .F      MOV      r1,r0
        0x00004d42:    a810        ..      ADD      r0,sp,#0x40
        0x00004d44:    7201        .r      STRB     r1,[r0,#8]
        0x00004d46:    217e        ~!      MOVS     r1,#0x7e
        0x00004d48:    2068        h       MOVS     r0,#0x68
        0x00004d4a:    f000fde9    ....    BL       readByte ; 0x5920
        0x00004d4e:    4601        .F      MOV      r1,r0
        0x00004d50:    a810        ..      ADD      r0,sp,#0x40
        0x00004d52:    7241        Ar      STRB     r1,[r0,#9]
        0x00004d54:    7a00        .z      LDRB     r0,[r0,#8]
        0x00004d56:    0200        ..      LSLS     r0,r0,#8
        0x00004d58:    b200        ..      SXTH     r0,r0
        0x00004d5a:    a910        ..      ADD      r1,sp,#0x40
        0x00004d5c:    7a49        Iz      LDRB     r1,[r1,#9]
        0x00004d5e:    4308        .C      ORRS     r0,r0,r1
        0x00004d60:    9006        ..      STR      r0,[sp,#0x18]
        0x00004d62:    2400        .$      MOVS     r4,#0
        0x00004d64:    e00a        ..      B        0x4d7c ; calibrateMPU9250 + 1060
        0x00004d66:    00a0        ..      LSLS     r0,r4,#2
        0x00004d68:    a904        ..      ADD      r1,sp,#0x10
        0x00004d6a:    5808        .X      LDR      r0,[r1,r0]
        0x00004d6c:    9909        ..      LDR      r1,[sp,#0x24]
        0x00004d6e:    4208        .B      TST      r0,r1
        0x00004d70:    d002        ..      BEQ      0x4d78 ; calibrateMPU9250 + 1056
        0x00004d72:    2001        .       MOVS     r0,#1
        0x00004d74:    a908        ..      ADD      r1,sp,#0x20
        0x00004d76:    5508        .U      STRB     r0,[r1,r4]
        0x00004d78:    1c60        `.      ADDS     r0,r4,#1
        0x00004d7a:    b284        ..      UXTH     r4,r0
        0x00004d7c:    2c03        .,      CMP      r4,#3
        0x00004d7e:    dbf2        ..      BLT      0x4d66 ; calibrateMPU9250 + 1038
        0x00004d80:    980a        ..      LDR      r0,[sp,#0x28]
        0x00004d82:    17c1        ..      ASRS     r1,r0,#31
        0x00004d84:    0f49        I.      LSRS     r1,r1,#29
        0x00004d86:    1809        ..      ADDS     r1,r1,r0
        0x00004d88:    10c9        ..      ASRS     r1,r1,#3
        0x00004d8a:    9a04        ..      LDR      r2,[sp,#0x10]
        0x00004d8c:    1a51        Q.      SUBS     r1,r2,r1
        0x00004d8e:    e007        ..      B        0x4da0 ; calibrateMPU9250 + 1096
    $d
        0x00004d90:    000186a0    ....    DCD    100000
        0x00004d94:    00030d40    @...    DCD    200000
        0x00004d98:    00002710    .'..    DCD    10000
        0x00004d9c:    00009c40    @...    DCD    40000
    $t
        0x00004da0:    9104        ..      STR      r1,[sp,#0x10]
        0x00004da2:    980b        ..      LDR      r0,[sp,#0x2c]
        0x00004da4:    17c1        ..      ASRS     r1,r0,#31
        0x00004da6:    0f49        I.      LSRS     r1,r1,#29
        0x00004da8:    1809        ..      ADDS     r1,r1,r0
        0x00004daa:    10c9        ..      ASRS     r1,r1,#3
        0x00004dac:    9a05        ..      LDR      r2,[sp,#0x14]
        0x00004dae:    1a51        Q.      SUBS     r1,r2,r1
        0x00004db0:    9105        ..      STR      r1,[sp,#0x14]
        0x00004db2:    980c        ..      LDR      r0,[sp,#0x30]
        0x00004db4:    17c1        ..      ASRS     r1,r0,#31
        0x00004db6:    0f49        I.      LSRS     r1,r1,#29
        0x00004db8:    1809        ..      ADDS     r1,r1,r0
        0x00004dba:    10c9        ..      ASRS     r1,r1,#3
        0x00004dbc:    9a06        ..      LDR      r2,[sp,#0x18]
        0x00004dbe:    1a51        Q.      SUBS     r1,r2,r1
        0x00004dc0:    9106        ..      STR      r1,[sp,#0x18]
        0x00004dc2:    9804        ..      LDR      r0,[sp,#0x10]
        0x00004dc4:    0400        ..      LSLS     r0,r0,#16
        0x00004dc6:    0e01        ..      LSRS     r1,r0,#24
        0x00004dc8:    a810        ..      ADD      r0,sp,#0x40
        0x00004dca:    7201        .r      STRB     r1,[r0,#8]
        0x00004dcc:    9804        ..      LDR      r0,[sp,#0x10]
        0x00004dce:    b2c1        ..      UXTB     r1,r0
        0x00004dd0:    a810        ..      ADD      r0,sp,#0x40
        0x00004dd2:    7241        Ar      STRB     r1,[r0,#9]
        0x00004dd4:    7a41        Az      LDRB     r1,[r0,#9]
        0x00004dd6:    a808        ..      ADD      r0,sp,#0x20
        0x00004dd8:    7800        .x      LDRB     r0,[r0,#0]
        0x00004dda:    4301        .C      ORRS     r1,r1,r0
        0x00004ddc:    a810        ..      ADD      r0,sp,#0x40
        0x00004dde:    7241        Ar      STRB     r1,[r0,#9]
        0x00004de0:    9805        ..      LDR      r0,[sp,#0x14]
        0x00004de2:    0400        ..      LSLS     r0,r0,#16
        0x00004de4:    0e01        ..      LSRS     r1,r0,#24
        0x00004de6:    a810        ..      ADD      r0,sp,#0x40
        0x00004de8:    7281        .r      STRB     r1,[r0,#0xa]
        0x00004dea:    9805        ..      LDR      r0,[sp,#0x14]
        0x00004dec:    b2c1        ..      UXTB     r1,r0
        0x00004dee:    a810        ..      ADD      r0,sp,#0x40
        0x00004df0:    72c1        .r      STRB     r1,[r0,#0xb]
        0x00004df2:    7ac1        .z      LDRB     r1,[r0,#0xb]
        0x00004df4:    a808        ..      ADD      r0,sp,#0x20
        0x00004df6:    7840        @x      LDRB     r0,[r0,#1]
        0x00004df8:    4301        .C      ORRS     r1,r1,r0
        0x00004dfa:    a810        ..      ADD      r0,sp,#0x40
        0x00004dfc:    72c1        .r      STRB     r1,[r0,#0xb]
        0x00004dfe:    9806        ..      LDR      r0,[sp,#0x18]
        0x00004e00:    0400        ..      LSLS     r0,r0,#16
        0x00004e02:    0e01        ..      LSRS     r1,r0,#24
        0x00004e04:    a810        ..      ADD      r0,sp,#0x40
        0x00004e06:    7301        .s      STRB     r1,[r0,#0xc]
        0x00004e08:    9806        ..      LDR      r0,[sp,#0x18]
        0x00004e0a:    b2c1        ..      UXTB     r1,r0
        0x00004e0c:    a810        ..      ADD      r0,sp,#0x40
        0x00004e0e:    7341        As      STRB     r1,[r0,#0xd]
        0x00004e10:    7b41        A{      LDRB     r1,[r0,#0xd]
        0x00004e12:    a808        ..      ADD      r0,sp,#0x20
        0x00004e14:    7880        .x      LDRB     r0,[r0,#2]
        0x00004e16:    4308        .C      ORRS     r0,r0,r1
        0x00004e18:    a910        ..      ADD      r1,sp,#0x40
        0x00004e1a:    7348        Hs      STRB     r0,[r1,#0xd]
        0x00004e1c:    4638        8F      MOV      r0,r7
        0x00004e1e:    f7fcfa15    ....    BL       __aeabi_ui2f ; 0x124c
        0x00004e22:    9003        ..      STR      r0,[sp,#0xc]
        0x00004e24:    980a        ..      LDR      r0,[sp,#0x28]
        0x00004e26:    f7fcfa09    ....    BL       __aeabi_i2f ; 0x123c
        0x00004e2a:    9002        ..      STR      r0,[sp,#8]
        0x00004e2c:    9903        ..      LDR      r1,[sp,#0xc]
        0x00004e2e:    f7fcf90b    ....    BL       __aeabi_fdiv ; 0x1048
        0x00004e32:    6030        0`      STR      r0,[r6,#0]
        0x00004e34:    4638        8F      MOV      r0,r7
        0x00004e36:    f7fcfa09    ....    BL       __aeabi_ui2f ; 0x124c
        0x00004e3a:    9003        ..      STR      r0,[sp,#0xc]
        0x00004e3c:    980b        ..      LDR      r0,[sp,#0x2c]
        0x00004e3e:    f7fcf9fd    ....    BL       __aeabi_i2f ; 0x123c
        0x00004e42:    9002        ..      STR      r0,[sp,#8]
        0x00004e44:    9903        ..      LDR      r1,[sp,#0xc]
        0x00004e46:    f7fcf8ff    ....    BL       __aeabi_fdiv ; 0x1048
        0x00004e4a:    6070        p`      STR      r0,[r6,#4]
        0x00004e4c:    4638        8F      MOV      r0,r7
        0x00004e4e:    f7fcf9fd    ....    BL       __aeabi_ui2f ; 0x124c
        0x00004e52:    9003        ..      STR      r0,[sp,#0xc]
        0x00004e54:    980c        ..      LDR      r0,[sp,#0x30]
        0x00004e56:    f7fcf9f1    ....    BL       __aeabi_i2f ; 0x123c
        0x00004e5a:    9002        ..      STR      r0,[sp,#8]
        0x00004e5c:    9903        ..      LDR      r1,[sp,#0xc]
        0x00004e5e:    f7fcf8f3    ....    BL       __aeabi_fdiv ; 0x1048
        0x00004e62:    60b0        .`      STR      r0,[r6,#8]
        0x00004e64:    b015        ..      ADD      sp,sp,#0x54
        0x00004e66:    bdf0        ..      POP      {r4-r7,pc}
    i.clr_all_pannal
    clr_all_pannal
        0x00004e68:    b510        ..      PUSH     {r4,lr}
        0x00004e6a:    2400        .$      MOVS     r4,#0
        0x00004e6c:    2100        .!      MOVS     r1,#0
        0x00004e6e:    4608        .F      MOV      r0,r1
        0x00004e70:    f7fefec8    ....    BL       SetPACA ; 0x3c04
        0x00004e74:    bf00        ..      NOP      
        0x00004e76:    e003        ..      B        0x4e80 ; clr_all_pannal + 24
        0x00004e78:    2000        .       MOVS     r0,#0
        0x00004e7a:    f7fff81d    ....    BL       WriteData ; 0x3eb8
        0x00004e7e:    1c64        d.      ADDS     r4,r4,#1
        0x00004e80:    2021        !       MOVS     r0,#0x21
        0x00004e82:    0140        @.      LSLS     r0,r0,#5
        0x00004e84:    4284        .B      CMP      r4,r0
        0x00004e86:    dbf7        ..      BLT      0x4e78 ; clr_all_pannal + 16
        0x00004e88:    200f        .       MOVS     r0,#0xf
        0x00004e8a:    f7fff815    ....    BL       WriteData ; 0x3eb8
        0x00004e8e:    bd10        ..      POP      {r4,pc}
    i.cos
    cos
        0x00004e90:    b500        ..      PUSH     {lr}
        0x00004e92:    004a        J.      LSLS     r2,r1,#1
        0x00004e94:    4b25        %K      LDR      r3,[pc,#148] ; [0x4f2c] = 0x3fe921fb
        0x00004e96:    0852        R.      LSRS     r2,r2,#1
        0x00004e98:    b087        ..      SUB      sp,sp,#0x1c
        0x00004e9a:    429a        .B      CMP      r2,r3
        0x00004e9c:    dc02        ..      BGT      0x4ea4 ; cos + 20
        0x00004e9e:    2200        ."      MOVS     r2,#0
        0x00004ea0:    4613        .F      MOV      r3,r2
        0x00004ea2:    e02a        *.      B        0x4efa ; cos + 106
        0x00004ea4:    4b22        "K      LDR      r3,[pc,#136] ; [0x4f30] = 0x7ff00000
        0x00004ea6:    429a        .B      CMP      r2,r3
        0x00004ea8:    d10c        ..      BNE      0x4ec4 ; cos + 52
        0x00004eaa:    2800        .(      CMP      r0,#0
        0x00004eac:    d10c        ..      BNE      0x4ec8 ; cos + 56
        0x00004eae:    2001        .       MOVS     r0,#1
        0x00004eb0:    f7fcf9d4    ....    BL       __set_errno ; 0x125c
        0x00004eb4:    2200        ."      MOVS     r2,#0
        0x00004eb6:    4613        .F      MOV      r3,r2
        0x00004eb8:    4610        .F      MOV      r0,r2
        0x00004eba:    4611        .F      MOV      r1,r2
        0x00004ebc:    f7fbfd24    ..$.    BL       __aeabi_ddiv ; 0x908
        0x00004ec0:    b007        ..      ADD      sp,sp,#0x1c
        0x00004ec2:    bd00        ..      POP      {pc}
        0x00004ec4:    429a        .B      CMP      r2,r3
        0x00004ec6:    db04        ..      BLT      0x4ed2 ; cos + 66
        0x00004ec8:    2201        ."      MOVS     r2,#1
        0x00004eca:    f7fcfc57    ..W.    BL       __ARM_scalbn ; 0x177c
        0x00004ece:    b007        ..      ADD      sp,sp,#0x1c
        0x00004ed0:    bd00        ..      POP      {pc}
        0x00004ed2:    aa02        ..      ADD      r2,sp,#8
        0x00004ed4:    f7fff858    ..X.    BL       __ieee754_rem_pio2 ; 0x3f88
        0x00004ed8:    0780        ..      LSLS     r0,r0,#30
        0x00004eda:    0f80        ..      LSRS     r0,r0,#30
        0x00004edc:    d00b        ..      BEQ      0x4ef6 ; cos + 102
        0x00004ede:    2801        .(      CMP      r0,#1
        0x00004ee0:    d00f        ..      BEQ      0x4f02 ; cos + 114
        0x00004ee2:    2802        .(      CMP      r0,#2
        0x00004ee4:    d018        ..      BEQ      0x4f18 ; cos + 136
        0x00004ee6:    2301        .#      MOVS     r3,#1
        0x00004ee8:    9300        ..      STR      r3,[sp,#0]
        0x00004eea:    a802        ..      ADD      r0,sp,#8
        0x00004eec:    c80f        ..      LDM      r0,{r0-r3}
        0x00004eee:    f7fffae7    ....    BL       __kernel_sin ; 0x44c0
        0x00004ef2:    b007        ..      ADD      sp,sp,#0x1c
        0x00004ef4:    bd00        ..      POP      {pc}
        0x00004ef6:    a802        ..      ADD      r0,sp,#8
        0x00004ef8:    c80f        ..      LDM      r0,{r0-r3}
        0x00004efa:    f7fffa11    ....    BL       __kernel_cos ; 0x4320
        0x00004efe:    b007        ..      ADD      sp,sp,#0x1c
        0x00004f00:    bd00        ..      POP      {pc}
        0x00004f02:    2301        .#      MOVS     r3,#1
        0x00004f04:    9300        ..      STR      r3,[sp,#0]
        0x00004f06:    a802        ..      ADD      r0,sp,#8
        0x00004f08:    c80f        ..      LDM      r0,{r0-r3}
        0x00004f0a:    f7fffad9    ....    BL       __kernel_sin ; 0x44c0
        0x00004f0e:    2201        ."      MOVS     r2,#1
        0x00004f10:    07d2        ..      LSLS     r2,r2,#31
        0x00004f12:    4051        Q@      EORS     r1,r1,r2
        0x00004f14:    b007        ..      ADD      sp,sp,#0x1c
        0x00004f16:    bd00        ..      POP      {pc}
        0x00004f18:    a802        ..      ADD      r0,sp,#8
        0x00004f1a:    c80f        ..      LDM      r0,{r0-r3}
        0x00004f1c:    f7fffa00    ....    BL       __kernel_cos ; 0x4320
        0x00004f20:    2201        ."      MOVS     r2,#1
        0x00004f22:    07d2        ..      LSLS     r2,r2,#31
        0x00004f24:    4051        Q@      EORS     r1,r1,r2
        0x00004f26:    b007        ..      ADD      sp,sp,#0x1c
        0x00004f28:    bd00        ..      POP      {pc}
    $d
        0x00004f2a:    0000        ..      DCW    0
        0x00004f2c:    3fe921fb    .!.?    DCD    1072243195
        0x00004f30:    7ff00000    ....    DCD    2146435072
    $t
    i.initAK8963
    initAK8963
        0x00004f34:    b5f8        ..      PUSH     {r3-r7,lr}
        0x00004f36:    4604        .F      MOV      r4,r0
        0x00004f38:    2200        ."      MOVS     r2,#0
        0x00004f3a:    210a        .!      MOVS     r1,#0xa
        0x00004f3c:    200c        .       MOVS     r0,#0xc
        0x00004f3e:    f000fea9    ....    BL       writeByte ; 0x5c94
        0x00004f42:    4831        1H      LDR      r0,[pc,#196] ; [0x5008] = 0x2710
        0x00004f44:    f7fdff84    ....    BL       DrvSYS_Delay ; 0x2e50
        0x00004f48:    220f        ."      MOVS     r2,#0xf
        0x00004f4a:    210a        .!      MOVS     r1,#0xa
        0x00004f4c:    200c        .       MOVS     r0,#0xc
        0x00004f4e:    f000fea1    ....    BL       writeByte ; 0x5c94
        0x00004f52:    482d        -H      LDR      r0,[pc,#180] ; [0x5008] = 0x2710
        0x00004f54:    f7fdff7c    ..|.    BL       DrvSYS_Delay ; 0x2e50
        0x00004f58:    2110        .!      MOVS     r1,#0x10
        0x00004f5a:    200c        .       MOVS     r0,#0xc
        0x00004f5c:    f000fce0    ....    BL       readByte ; 0x5920
        0x00004f60:    4669        iF      MOV      r1,sp
        0x00004f62:    7008        .p      STRB     r0,[r1,#0]
        0x00004f64:    2111        .!      MOVS     r1,#0x11
        0x00004f66:    200c        .       MOVS     r0,#0xc
        0x00004f68:    f000fcda    ....    BL       readByte ; 0x5920
        0x00004f6c:    4601        .F      MOV      r1,r0
        0x00004f6e:    4668        hF      MOV      r0,sp
        0x00004f70:    7041        Ap      STRB     r1,[r0,#1]
        0x00004f72:    2112        .!      MOVS     r1,#0x12
        0x00004f74:    200c        .       MOVS     r0,#0xc
        0x00004f76:    f000fcd3    ....    BL       readByte ; 0x5920
        0x00004f7a:    4601        .F      MOV      r1,r0
        0x00004f7c:    4668        hF      MOV      r0,sp
        0x00004f7e:    7081        .p      STRB     r1,[r0,#2]
        0x00004f80:    4669        iF      MOV      r1,sp
        0x00004f82:    7809        .x      LDRB     r1,[r1,#0]
        0x00004f84:    4608        .F      MOV      r0,r1
        0x00004f86:    3880        .8      SUBS     r0,r0,#0x80
        0x00004f88:    f7fcf958    ..X.    BL       __aeabi_i2f ; 0x123c
        0x00004f8c:    4606        .F      MOV      r6,r0
        0x00004f8e:    2187        .!      MOVS     r1,#0x87
        0x00004f90:    05c9        ..      LSLS     r1,r1,#23
        0x00004f92:    f7fcf859    ..Y.    BL       __aeabi_fdiv ; 0x1048
        0x00004f96:    4605        .F      MOV      r5,r0
        0x00004f98:    217f        .!      MOVS     r1,#0x7f
        0x00004f9a:    05c9        ..      LSLS     r1,r1,#23
        0x00004f9c:    f000fefe    ....    BL       __aeabi_fadd ; 0x5d9c
        0x00004fa0:    6020         `      STR      r0,[r4,#0]
        0x00004fa2:    4669        iF      MOV      r1,sp
        0x00004fa4:    7849        Ix      LDRB     r1,[r1,#1]
        0x00004fa6:    4608        .F      MOV      r0,r1
        0x00004fa8:    3880        .8      SUBS     r0,r0,#0x80
        0x00004faa:    f7fcf947    ..G.    BL       __aeabi_i2f ; 0x123c
        0x00004fae:    4606        .F      MOV      r6,r0
        0x00004fb0:    2187        .!      MOVS     r1,#0x87
        0x00004fb2:    05c9        ..      LSLS     r1,r1,#23
        0x00004fb4:    f7fcf848    ..H.    BL       __aeabi_fdiv ; 0x1048
        0x00004fb8:    4605        .F      MOV      r5,r0
        0x00004fba:    217f        .!      MOVS     r1,#0x7f
        0x00004fbc:    05c9        ..      LSLS     r1,r1,#23
        0x00004fbe:    f000feed    ....    BL       __aeabi_fadd ; 0x5d9c
        0x00004fc2:    6060        ``      STR      r0,[r4,#4]
        0x00004fc4:    4669        iF      MOV      r1,sp
        0x00004fc6:    7889        .x      LDRB     r1,[r1,#2]
        0x00004fc8:    4608        .F      MOV      r0,r1
        0x00004fca:    3880        .8      SUBS     r0,r0,#0x80
        0x00004fcc:    f7fcf936    ..6.    BL       __aeabi_i2f ; 0x123c
        0x00004fd0:    4606        .F      MOV      r6,r0
        0x00004fd2:    2187        .!      MOVS     r1,#0x87
        0x00004fd4:    05c9        ..      LSLS     r1,r1,#23
        0x00004fd6:    f7fcf837    ..7.    BL       __aeabi_fdiv ; 0x1048
        0x00004fda:    4605        .F      MOV      r5,r0
        0x00004fdc:    217f        .!      MOVS     r1,#0x7f
        0x00004fde:    05c9        ..      LSLS     r1,r1,#23
        0x00004fe0:    f000fedc    ....    BL       __aeabi_fadd ; 0x5d9c
        0x00004fe4:    60a0        .`      STR      r0,[r4,#8]
        0x00004fe6:    2200        ."      MOVS     r2,#0
        0x00004fe8:    210a        .!      MOVS     r1,#0xa
        0x00004fea:    200c        .       MOVS     r0,#0xc
        0x00004fec:    f000fe52    ..R.    BL       writeByte ; 0x5c94
        0x00004ff0:    4805        .H      LDR      r0,[pc,#20] ; [0x5008] = 0x2710
        0x00004ff2:    f7fdff2d    ..-.    BL       DrvSYS_Delay ; 0x2e50
        0x00004ff6:    2212        ."      MOVS     r2,#0x12
        0x00004ff8:    210a        .!      MOVS     r1,#0xa
        0x00004ffa:    200c        .       MOVS     r0,#0xc
        0x00004ffc:    f000fe4a    ..J.    BL       writeByte ; 0x5c94
        0x00005000:    4801        .H      LDR      r0,[pc,#4] ; [0x5008] = 0x2710
        0x00005002:    f7fdff25    ..%.    BL       DrvSYS_Delay ; 0x2e50
        0x00005006:    bdf8        ..      POP      {r3-r7,pc}
    $d
        0x00005008:    00002710    .'..    DCD    10000
    $t
    i.initMPU9250
    initMPU9250
        0x0000500c:    b510        ..      PUSH     {r4,lr}
        0x0000500e:    2200        ."      MOVS     r2,#0
        0x00005010:    216b        k!      MOVS     r1,#0x6b
        0x00005012:    2068        h       MOVS     r0,#0x68
        0x00005014:    f000fe3e    ..>.    BL       writeByte ; 0x5c94
        0x00005018:    4826        &H      LDR      r0,[pc,#152] ; [0x50b4] = 0x186a0
        0x0000501a:    f7fdff19    ....    BL       DrvSYS_Delay ; 0x2e50
        0x0000501e:    2201        ."      MOVS     r2,#1
        0x00005020:    216b        k!      MOVS     r1,#0x6b
        0x00005022:    2068        h       MOVS     r0,#0x68
        0x00005024:    f000fe36    ..6.    BL       writeByte ; 0x5c94
        0x00005028:    2203        ."      MOVS     r2,#3
        0x0000502a:    211a        .!      MOVS     r1,#0x1a
        0x0000502c:    2068        h       MOVS     r0,#0x68
        0x0000502e:    f000fe31    ..1.    BL       writeByte ; 0x5c94
        0x00005032:    2204        ."      MOVS     r2,#4
        0x00005034:    2119        .!      MOVS     r1,#0x19
        0x00005036:    2068        h       MOVS     r0,#0x68
        0x00005038:    f000fe2c    ..,.    BL       writeByte ; 0x5c94
        0x0000503c:    211b        .!      MOVS     r1,#0x1b
        0x0000503e:    2068        h       MOVS     r0,#0x68
        0x00005040:    f000fc6e    ..n.    BL       readByte ; 0x5920
        0x00005044:    4604        .F      MOV      r4,r0
        0x00005046:    4620         F      MOV      r0,r4
        0x00005048:    2102        .!      MOVS     r1,#2
        0x0000504a:    4388        .C      BICS     r0,r0,r1
        0x0000504c:    4604        .F      MOV      r4,r0
        0x0000504e:    4620         F      MOV      r0,r4
        0x00005050:    2118        .!      MOVS     r1,#0x18
        0x00005052:    4388        .C      BICS     r0,r0,r1
        0x00005054:    4604        .F      MOV      r4,r0
        0x00005056:    4622        "F      MOV      r2,r4
        0x00005058:    211b        .!      MOVS     r1,#0x1b
        0x0000505a:    2068        h       MOVS     r0,#0x68
        0x0000505c:    f000fe1a    ....    BL       writeByte ; 0x5c94
        0x00005060:    211c        .!      MOVS     r1,#0x1c
        0x00005062:    2068        h       MOVS     r0,#0x68
        0x00005064:    f000fc5c    ..\.    BL       readByte ; 0x5920
        0x00005068:    4604        .F      MOV      r4,r0
        0x0000506a:    4620         F      MOV      r0,r4
        0x0000506c:    2118        .!      MOVS     r1,#0x18
        0x0000506e:    4388        .C      BICS     r0,r0,r1
        0x00005070:    4604        .F      MOV      r4,r0
        0x00005072:    4622        "F      MOV      r2,r4
        0x00005074:    211c        .!      MOVS     r1,#0x1c
        0x00005076:    2068        h       MOVS     r0,#0x68
        0x00005078:    f000fe0c    ....    BL       writeByte ; 0x5c94
        0x0000507c:    211d        .!      MOVS     r1,#0x1d
        0x0000507e:    2068        h       MOVS     r0,#0x68
        0x00005080:    f000fc4e    ..N.    BL       readByte ; 0x5920
        0x00005084:    4604        .F      MOV      r4,r0
        0x00005086:    0924        $.      LSRS     r4,r4,#4
        0x00005088:    0124        $.      LSLS     r4,r4,#4
        0x0000508a:    4620         F      MOV      r0,r4
        0x0000508c:    2103        .!      MOVS     r1,#3
        0x0000508e:    4308        .C      ORRS     r0,r0,r1
        0x00005090:    4604        .F      MOV      r4,r0
        0x00005092:    4622        "F      MOV      r2,r4
        0x00005094:    211d        .!      MOVS     r1,#0x1d
        0x00005096:    2068        h       MOVS     r0,#0x68
        0x00005098:    f000fdfc    ....    BL       writeByte ; 0x5c94
        0x0000509c:    2222        ""      MOVS     r2,#0x22
        0x0000509e:    2137        7!      MOVS     r1,#0x37
        0x000050a0:    2068        h       MOVS     r0,#0x68
        0x000050a2:    f000fdf7    ....    BL       writeByte ; 0x5c94
        0x000050a6:    2201        ."      MOVS     r2,#1
        0x000050a8:    2138        8!      MOVS     r1,#0x38
        0x000050aa:    2068        h       MOVS     r0,#0x68
        0x000050ac:    f000fdf2    ....    BL       writeByte ; 0x5c94
        0x000050b0:    bd10        ..      POP      {r4,pc}
    $d
        0x000050b2:    0000        ..      DCW    0
        0x000050b4:    000186a0    ....    DCD    100000
    $t
    i.main
    main
        0x000050b8:    b0ac        ..      SUB      sp,sp,#0xb0
        0x000050ba:    4bff        .K      LDR      r3,[pc,#1020] ; [0x54b8] = 0x6064
        0x000050bc:    cb0f        ..      LDM      r3,{r0-r3}
        0x000050be:    9328        (.      STR      r3,[sp,#0xa0]
        0x000050c0:    ab25        %.      ADD      r3,sp,#0x94
        0x000050c2:    c307        ..      STM      r3!,{r0-r2}
        0x000050c4:    2000        .       MOVS     r0,#0
        0x000050c6:    9018        ..      STR      r0,[sp,#0x60]
        0x000050c8:    9015        ..      STR      r0,[sp,#0x54]
        0x000050ca:    9014        ..      STR      r0,[sp,#0x50]
        0x000050cc:    bf00        ..      NOP      
        0x000050ce:    bf00        ..      NOP      
        0x000050d0:    bf00        ..      NOP      
        0x000050d2:    bf00        ..      NOP      
        0x000050d4:    bf00        ..      NOP      
        0x000050d6:    bf00        ..      NOP      
        0x000050d8:    f7fefb86    ....    BL       InitHCLK12M ; 0x37e8
        0x000050dc:    f7fefba0    ....    BL       Initial_pannel ; 0x3820
        0x000050e0:    f7fffec2    ....    BL       clr_all_pannal ; 0x4e68
        0x000050e4:    f7fdf8c2    ....    BL       ADC_initialize ; 0x226c
        0x000050e8:    a925        %.      ADD      r1,sp,#0x94
        0x000050ea:    2000        .       MOVS     r0,#0
        0x000050ec:    f000fbc0    ....    BL       print_lcd ; 0x5870
        0x000050f0:    2059        Y       MOVS     r0,#0x59
        0x000050f2:    49f2        .I      LDR      r1,[pc,#968] ; [0x54bc] = 0x50000100
        0x000050f4:    6008        .`      STR      r0,[r1,#0]
        0x000050f6:    2016        .       MOVS     r0,#0x16
        0x000050f8:    6008        .`      STR      r0,[r1,#0]
        0x000050fa:    2088        .       MOVS     r0,#0x88
        0x000050fc:    6008        .`      STR      r0,[r1,#0]
        0x000050fe:    48f0        .H      LDR      r0,[pc,#960] ; [0x54c0] = 0x2dc6c00
        0x00005100:    f7fdff9a    ....    BL       DrvSYS_Open ; 0x3038
        0x00005104:    2101        .!      MOVS     r1,#1
        0x00005106:    2000        .       MOVS     r0,#0
        0x00005108:    f7fef808    ....    BL       DrvSYS_SetOscCtrl ; 0x311c
        0x0000510c:    48ed        .H      LDR      r0,[pc,#948] ; [0x54c4] = 0x4e20
        0x0000510e:    f7fdfe9f    ....    BL       DrvSYS_Delay ; 0x2e50
        0x00005112:    bf00        ..      NOP      
        0x00005114:    48ec        .H      LDR      r0,[pc,#944] ; [0x54c8] = 0x50000200
        0x00005116:    68c0        .h      LDR      r0,[r0,#0xc]
        0x00005118:    07c0        ..      LSLS     r0,r0,#31
        0x0000511a:    0fc0        ..      LSRS     r0,r0,#31
        0x0000511c:    d0fa        ..      BEQ      0x5114 ; main + 92
        0x0000511e:    2000        .       MOVS     r0,#0
        0x00005120:    f7fdffe0    ....    BL       DrvSYS_SelectHCLKSource ; 0x30e4
        0x00005124:    2000        .       MOVS     r0,#0
        0x00005126:    49e5        .I      LDR      r1,[pc,#916] ; [0x54bc] = 0x50000100
        0x00005128:    6008        .`      STR      r0,[r1,#0]
        0x0000512a:    f7fefb79    ..y.    BL       Initial_pannel ; 0x3820
        0x0000512e:    f7fffe9b    ....    BL       clr_all_pannal ; 0x4e68
        0x00005132:    a1e6        ..      ADR      r1,{pc}+0x39a ; 0x54cc
        0x00005134:    2000        .       MOVS     r0,#0
        0x00005136:    f000fb9b    ....    BL       print_lcd ; 0x5870
        0x0000513a:    2003        .       MOVS     r0,#3
        0x0000513c:    f7fdfa06    ....    BL       DrvGPIO_InitFunction ; 0x254c
        0x00005140:    2029        )       MOVS     r0,#0x29
        0x00005142:    f7fdfa03    ....    BL       DrvGPIO_InitFunction ; 0x254c
        0x00005146:    204b        K       MOVS     r0,#0x4b
        0x00005148:    01c0        ..      LSLS     r0,r0,#7
        0x0000514a:    9029        ).      STR      r0,[sp,#0xa4]
        0x0000514c:    2103        .!      MOVS     r1,#3
        0x0000514e:    a828        (.      ADD      r0,sp,#0xa0
        0x00005150:    7201        .r      STRB     r1,[r0,#8]
        0x00005152:    2100        .!      MOVS     r1,#0
        0x00005154:    7241        Ar      STRB     r1,[r0,#9]
        0x00005156:    7281        .r      STRB     r1,[r0,#0xa]
        0x00005158:    72c1        .r      STRB     r1,[r0,#0xb]
        0x0000515a:    a929        ).      ADD      r1,sp,#0xa4
        0x0000515c:    2000        .       MOVS     r0,#0
        0x0000515e:    f7fef8c1    ....    BL       DrvUART_Open ; 0x32e4
        0x00005162:    4adf        .J      LDR      r2,[pc,#892] ; [0x54e0] = 0x3e71
        0x00005164:    2101        .!      MOVS     r1,#1
        0x00005166:    2000        .       MOVS     r0,#0
        0x00005168:    f7fef83e    ..>.    BL       DrvUART_EnableInt ; 0x31e8
        0x0000516c:    f7fefb58    ..X.    BL       Initial_pannel ; 0x3820
        0x00005170:    f7fffe7a    ..z.    BL       clr_all_pannal ; 0x4e68
        0x00005174:    f000fd12    ....    BL       resetMPU9250 ; 0x5b9c
        0x00005178:    49da        .I      LDR      r1,[pc,#872] ; [0x54e4] = 0x200006d8
        0x0000517a:    48db        .H      LDR      r0,[pc,#876] ; [0x54e8] = 0x200006cc
        0x0000517c:    f7fffbec    ....    BL       calibrateMPU9250 ; 0x4958
        0x00005180:    f7ffff44    ..D.    BL       initMPU9250 ; 0x500c
        0x00005184:    48d9        .H      LDR      r0,[pc,#868] ; [0x54ec] = 0x200006b4
        0x00005186:    f7fffed5    ....    BL       initAK8963 ; 0x4f34
        0x0000518a:    48d9        .H      LDR      r0,[pc,#868] ; [0x54f0] = 0x493e0
        0x0000518c:    f7fdfe60    ..`.    BL       DrvSYS_Delay ; 0x2e50
        0x00005190:    e34c        L.      B        0x582c ; main + 1908
        0x00005192:    2202        ."      MOVS     r2,#2
        0x00005194:    2137        7!      MOVS     r1,#0x37
        0x00005196:    2068        h       MOVS     r0,#0x68
        0x00005198:    f000fd7c    ..|.    BL       writeByte ; 0x5c94
        0x0000519c:    2201        ."      MOVS     r2,#1
        0x0000519e:    216a        j!      MOVS     r1,#0x6a
        0x000051a0:    2068        h       MOVS     r0,#0x68
        0x000051a2:    f000fd77    ..w.    BL       writeByte ; 0x5c94
        0x000051a6:    2201        ."      MOVS     r2,#1
        0x000051a8:    210b        .!      MOVS     r1,#0xb
        0x000051aa:    200c        .       MOVS     r0,#0xc
        0x000051ac:    f000fd72    ..r.    BL       writeByte ; 0x5c94
        0x000051b0:    2200        ."      MOVS     r2,#0
        0x000051b2:    210b        .!      MOVS     r1,#0xb
        0x000051b4:    200c        .       MOVS     r0,#0xc
        0x000051b6:    f000fd6d    ..m.    BL       writeByte ; 0x5c94
        0x000051ba:    2202        ."      MOVS     r2,#2
        0x000051bc:    210a        .!      MOVS     r1,#0xa
        0x000051be:    200c        .       MOVS     r0,#0xc
        0x000051c0:    f000fd68    ..h.    BL       writeByte ; 0x5c94
        0x000051c4:    f7fefb2c    ..,.    BL       Initial_pannel ; 0x3820
        0x000051c8:    f7fffe4e    ..N.    BL       clr_all_pannal ; 0x4e68
        0x000051cc:    2175        u!      MOVS     r1,#0x75
        0x000051ce:    2068        h       MOVS     r0,#0x68
        0x000051d0:    f000fba6    ....    BL       readByte ; 0x5920
        0x000051d4:    2100        .!      MOVS     r1,#0
        0x000051d6:    200c        .       MOVS     r0,#0xc
        0x000051d8:    f000fba2    ....    BL       readByte ; 0x5920
        0x000051dc:    48c5        .H      LDR      r0,[pc,#788] ; [0x54f4] = 0x20000066
        0x000051de:    f000fb5b    ..[.    BL       readAccelData ; 0x5898
        0x000051e2:    48c5        .H      LDR      r0,[pc,#788] ; [0x54f8] = 0x2000006c
        0x000051e4:    f000fc2c    ..,.    BL       readGyroData ; 0x5a40
        0x000051e8:    48c4        .H      LDR      r0,[pc,#784] ; [0x54fc] = 0x20000072
        0x000051ea:    f000fc6c    ..l.    BL       readMagData ; 0x5ac6
        0x000051ee:    f000fcc0    ....    BL       readTempData ; 0x5b72
        0x000051f2:    9011        ..      STR      r0,[sp,#0x44]
        0x000051f4:    f7fcf822    ..".    BL       __aeabi_i2f ; 0x123c
        0x000051f8:    49c1        .I      LDR      r1,[pc,#772] ; [0x5500] = 0x43a6ef5c
        0x000051fa:    9012        ..      STR      r0,[sp,#0x48]
        0x000051fc:    f7fbff24    ..$.    BL       __aeabi_fdiv ; 0x1048
        0x00005200:    9013        ..      STR      r0,[sp,#0x4c]
        0x00005202:    48b8        .H      LDR      r0,[pc,#736] ; [0x54e4] = 0x200006d8
        0x00005204:    6800        .h      LDR      r0,[r0,#0]
        0x00005206:    900d        ..      STR      r0,[sp,#0x34]
        0x00005208:    f7fbfef6    ....    BL       __aeabi_f2d ; 0xff8
        0x0000520c:    9111        ..      STR      r1,[sp,#0x44]
        0x0000520e:    9010        ..      STR      r0,[sp,#0x40]
        0x00005210:    49b8        .I      LDR      r1,[pc,#736] ; [0x54f4] = 0x20000066
        0x00005212:    2000        .       MOVS     r0,#0
        0x00005214:    5e08        .^      LDRSH    r0,[r1,r0]
        0x00005216:    9009        ..      STR      r0,[sp,#0x24]
        0x00005218:    f7fbfd9d    ....    BL       __aeabi_i2d ; 0xd56
        0x0000521c:    2200        ."      MOVS     r2,#0
        0x0000521e:    2301        .#      MOVS     r3,#1
        0x00005220:    079b        ..      LSLS     r3,r3,#30
        0x00005222:    910b        ..      STR      r1,[sp,#0x2c]
        0x00005224:    900a        ..      STR      r0,[sp,#0x28]
        0x00005226:    f7fbfda1    ....    BL       __aeabi_dmul ; 0xd6c
        0x0000522a:    2200        ."      MOVS     r2,#0
        0x0000522c:    4bb5        .K      LDR      r3,[pc,#724] ; [0x5504] = 0x40e00000
        0x0000522e:    910d        ..      STR      r1,[sp,#0x34]
        0x00005230:    900c        ..      STR      r0,[sp,#0x30]
        0x00005232:    f7fbfb69    ..i.    BL       __aeabi_ddiv ; 0x908
        0x00005236:    910f        ..      STR      r1,[sp,#0x3c]
        0x00005238:    900e        ..      STR      r0,[sp,#0x38]
        0x0000523a:    9b11        ..      LDR      r3,[sp,#0x44]
        0x0000523c:    9a10        ..      LDR      r2,[sp,#0x40]
        0x0000523e:    f7fbfb41    ..A.    BL       __aeabi_dsub ; 0x8c4
        0x00005242:    9113        ..      STR      r1,[sp,#0x4c]
        0x00005244:    9012        ..      STR      r0,[sp,#0x48]
        0x00005246:    f7fbf97d    ..}.    BL       __aeabi_d2f ; 0x544
        0x0000524a:    9024        $.      STR      r0,[sp,#0x90]
        0x0000524c:    48a5        .H      LDR      r0,[pc,#660] ; [0x54e4] = 0x200006d8
        0x0000524e:    6840        @h      LDR      r0,[r0,#4]
        0x00005250:    900d        ..      STR      r0,[sp,#0x34]
        0x00005252:    f7fbfed1    ....    BL       __aeabi_f2d ; 0xff8
        0x00005256:    9111        ..      STR      r1,[sp,#0x44]
        0x00005258:    9010        ..      STR      r0,[sp,#0x40]
        0x0000525a:    49a6        .I      LDR      r1,[pc,#664] ; [0x54f4] = 0x20000066
        0x0000525c:    2002        .       MOVS     r0,#2
        0x0000525e:    5e08        .^      LDRSH    r0,[r1,r0]
        0x00005260:    9009        ..      STR      r0,[sp,#0x24]
        0x00005262:    f7fbfd78    ..x.    BL       __aeabi_i2d ; 0xd56
        0x00005266:    2200        ."      MOVS     r2,#0
        0x00005268:    2301        .#      MOVS     r3,#1
        0x0000526a:    079b        ..      LSLS     r3,r3,#30
        0x0000526c:    910b        ..      STR      r1,[sp,#0x2c]
        0x0000526e:    900a        ..      STR      r0,[sp,#0x28]
        0x00005270:    f7fbfd7c    ..|.    BL       __aeabi_dmul ; 0xd6c
        0x00005274:    2200        ."      MOVS     r2,#0
        0x00005276:    4ba3        .K      LDR      r3,[pc,#652] ; [0x5504] = 0x40e00000
        0x00005278:    910d        ..      STR      r1,[sp,#0x34]
        0x0000527a:    900c        ..      STR      r0,[sp,#0x30]
        0x0000527c:    f7fbfb44    ..D.    BL       __aeabi_ddiv ; 0x908
        0x00005280:    910f        ..      STR      r1,[sp,#0x3c]
        0x00005282:    900e        ..      STR      r0,[sp,#0x38]
        0x00005284:    9b11        ..      LDR      r3,[sp,#0x44]
        0x00005286:    9a10        ..      LDR      r2,[sp,#0x40]
        0x00005288:    f7fbfb1c    ....    BL       __aeabi_dsub ; 0x8c4
        0x0000528c:    9113        ..      STR      r1,[sp,#0x4c]
        0x0000528e:    9012        ..      STR      r0,[sp,#0x48]
        0x00005290:    f7fbf958    ..X.    BL       __aeabi_d2f ; 0x544
        0x00005294:    9023        #.      STR      r0,[sp,#0x8c]
        0x00005296:    4893        .H      LDR      r0,[pc,#588] ; [0x54e4] = 0x200006d8
        0x00005298:    6880        .h      LDR      r0,[r0,#8]
        0x0000529a:    900d        ..      STR      r0,[sp,#0x34]
        0x0000529c:    f7fbfeac    ....    BL       __aeabi_f2d ; 0xff8
        0x000052a0:    9111        ..      STR      r1,[sp,#0x44]
        0x000052a2:    9010        ..      STR      r0,[sp,#0x40]
        0x000052a4:    4993        .I      LDR      r1,[pc,#588] ; [0x54f4] = 0x20000066
        0x000052a6:    2004        .       MOVS     r0,#4
        0x000052a8:    5e08        .^      LDRSH    r0,[r1,r0]
        0x000052aa:    9009        ..      STR      r0,[sp,#0x24]
        0x000052ac:    f7fbfd53    ..S.    BL       __aeabi_i2d ; 0xd56
        0x000052b0:    2200        ."      MOVS     r2,#0
        0x000052b2:    2301        .#      MOVS     r3,#1
        0x000052b4:    079b        ..      LSLS     r3,r3,#30
        0x000052b6:    910b        ..      STR      r1,[sp,#0x2c]
        0x000052b8:    900a        ..      STR      r0,[sp,#0x28]
        0x000052ba:    f7fbfd57    ..W.    BL       __aeabi_dmul ; 0xd6c
        0x000052be:    2200        ."      MOVS     r2,#0
        0x000052c0:    4b90        .K      LDR      r3,[pc,#576] ; [0x5504] = 0x40e00000
        0x000052c2:    910d        ..      STR      r1,[sp,#0x34]
        0x000052c4:    900c        ..      STR      r0,[sp,#0x30]
        0x000052c6:    f7fbfb1f    ....    BL       __aeabi_ddiv ; 0x908
        0x000052ca:    910f        ..      STR      r1,[sp,#0x3c]
        0x000052cc:    900e        ..      STR      r0,[sp,#0x38]
        0x000052ce:    9b11        ..      LDR      r3,[sp,#0x44]
        0x000052d0:    9a10        ..      LDR      r2,[sp,#0x40]
        0x000052d2:    f7fbfaf7    ....    BL       __aeabi_dsub ; 0x8c4
        0x000052d6:    9113        ..      STR      r1,[sp,#0x4c]
        0x000052d8:    9012        ..      STR      r0,[sp,#0x48]
        0x000052da:    f7fbf933    ..3.    BL       __aeabi_d2f ; 0x544
        0x000052de:    9022        ".      STR      r0,[sp,#0x88]
        0x000052e0:    4881        .H      LDR      r0,[pc,#516] ; [0x54e8] = 0x200006cc
        0x000052e2:    6800        .h      LDR      r0,[r0,#0]
        0x000052e4:    4984        .I      LDR      r1,[pc,#528] ; [0x54f8] = 0x2000006c
        0x000052e6:    9013        ..      STR      r0,[sp,#0x4c]
        0x000052e8:    2000        .       MOVS     r0,#0
        0x000052ea:    5e08        .^      LDRSH    r0,[r1,r0]
        0x000052ec:    9013        ..      STR      r0,[sp,#0x4c]
        0x000052ee:    487e        ~H      LDR      r0,[pc,#504] ; [0x54e8] = 0x200006cc
        0x000052f0:    6840        @h      LDR      r0,[r0,#4]
        0x000052f2:    9013        ..      STR      r0,[sp,#0x4c]
        0x000052f4:    2002        .       MOVS     r0,#2
        0x000052f6:    5e08        .^      LDRSH    r0,[r1,r0]
        0x000052f8:    9013        ..      STR      r0,[sp,#0x4c]
        0x000052fa:    487b        {H      LDR      r0,[pc,#492] ; [0x54e8] = 0x200006cc
        0x000052fc:    6880        .h      LDR      r0,[r0,#8]
        0x000052fe:    9013        ..      STR      r0,[sp,#0x4c]
        0x00005300:    2004        .       MOVS     r0,#4
        0x00005302:    5e08        .^      LDRSH    r0,[r1,r0]
        0x00005304:    9013        ..      STR      r0,[sp,#0x4c]
        0x00005306:    4879        yH      LDR      r0,[pc,#484] ; [0x54ec] = 0x200006b4
        0x00005308:    6800        .h      LDR      r0,[r0,#0]
        0x0000530a:    900b        ..      STR      r0,[sp,#0x2c]
        0x0000530c:    f7fbfe74    ..t.    BL       __aeabi_f2d ; 0xff8
        0x00005310:    910f        ..      STR      r1,[sp,#0x3c]
        0x00005312:    900e        ..      STR      r0,[sp,#0x38]
        0x00005314:    4979        yI      LDR      r1,[pc,#484] ; [0x54fc] = 0x20000072
        0x00005316:    2000        .       MOVS     r0,#0
        0x00005318:    5e08        .^      LDRSH    r0,[r1,r0]
        0x0000531a:    9008        ..      STR      r0,[sp,#0x20]
        0x0000531c:    f7fbff8e    ....    BL       __aeabi_i2f ; 0x123c
        0x00005320:    9009        ..      STR      r0,[sp,#0x24]
        0x00005322:    f7fbfe69    ..i.    BL       __aeabi_f2d ; 0xff8
        0x00005326:    4a78        xJ      LDR      r2,[pc,#480] ; [0x5508] = 0x5e5f30e8
        0x00005328:    4b78        xK      LDR      r3,[pc,#480] ; [0x550c] = 0x3ff7fd80
        0x0000532a:    910b        ..      STR      r1,[sp,#0x2c]
        0x0000532c:    900a        ..      STR      r0,[sp,#0x28]
        0x0000532e:    f7fbfd1d    ....    BL       __aeabi_dmul ; 0xd6c
        0x00005332:    910d        ..      STR      r1,[sp,#0x34]
        0x00005334:    900c        ..      STR      r0,[sp,#0x30]
        0x00005336:    9b0f        ..      LDR      r3,[sp,#0x3c]
        0x00005338:    9a0e        ..      LDR      r2,[sp,#0x38]
        0x0000533a:    f7fbfd17    ....    BL       __aeabi_dmul ; 0xd6c
        0x0000533e:    2200        ."      MOVS     r2,#0
        0x00005340:    4b73        sK      LDR      r3,[pc,#460] ; [0x5510] = 0x40490000
        0x00005342:    9111        ..      STR      r1,[sp,#0x44]
        0x00005344:    9010        ..      STR      r0,[sp,#0x40]
        0x00005346:    f7fbfabd    ....    BL       __aeabi_dsub ; 0x8c4
        0x0000534a:    9113        ..      STR      r1,[sp,#0x4c]
        0x0000534c:    9012        ..      STR      r0,[sp,#0x48]
        0x0000534e:    f7fbf8f9    ....    BL       __aeabi_d2f ; 0x544
        0x00005352:    9021        !.      STR      r0,[sp,#0x84]
        0x00005354:    4865        eH      LDR      r0,[pc,#404] ; [0x54ec] = 0x200006b4
        0x00005356:    6840        @h      LDR      r0,[r0,#4]
        0x00005358:    900b        ..      STR      r0,[sp,#0x2c]
        0x0000535a:    f7fbfe4d    ..M.    BL       __aeabi_f2d ; 0xff8
        0x0000535e:    910f        ..      STR      r1,[sp,#0x3c]
        0x00005360:    900e        ..      STR      r0,[sp,#0x38]
        0x00005362:    4966        fI      LDR      r1,[pc,#408] ; [0x54fc] = 0x20000072
        0x00005364:    2002        .       MOVS     r0,#2
        0x00005366:    5e08        .^      LDRSH    r0,[r1,r0]
        0x00005368:    9008        ..      STR      r0,[sp,#0x20]
        0x0000536a:    f7fbff67    ..g.    BL       __aeabi_i2f ; 0x123c
        0x0000536e:    9009        ..      STR      r0,[sp,#0x24]
        0x00005370:    f7fbfe42    ..B.    BL       __aeabi_f2d ; 0xff8
        0x00005374:    4a64        dJ      LDR      r2,[pc,#400] ; [0x5508] = 0x5e5f30e8
        0x00005376:    4b65        eK      LDR      r3,[pc,#404] ; [0x550c] = 0x3ff7fd80
        0x00005378:    910b        ..      STR      r1,[sp,#0x2c]
        0x0000537a:    900a        ..      STR      r0,[sp,#0x28]
        0x0000537c:    f7fbfcf6    ....    BL       __aeabi_dmul ; 0xd6c
        0x00005380:    910d        ..      STR      r1,[sp,#0x34]
        0x00005382:    900c        ..      STR      r0,[sp,#0x30]
        0x00005384:    9b0f        ..      LDR      r3,[sp,#0x3c]
        0x00005386:    9a0e        ..      LDR      r2,[sp,#0x38]
        0x00005388:    f7fbfcf0    ....    BL       __aeabi_dmul ; 0xd6c
        0x0000538c:    2200        ."      MOVS     r2,#0
        0x0000538e:    4b61        aK      LDR      r3,[pc,#388] ; [0x5514] = 0x405a4000
        0x00005390:    9111        ..      STR      r1,[sp,#0x44]
        0x00005392:    9010        ..      STR      r0,[sp,#0x40]
        0x00005394:    f7fbfa96    ....    BL       __aeabi_dsub ; 0x8c4
        0x00005398:    9113        ..      STR      r1,[sp,#0x4c]
        0x0000539a:    9012        ..      STR      r0,[sp,#0x48]
        0x0000539c:    f7fbf8d2    ....    BL       __aeabi_d2f ; 0x544
        0x000053a0:    9020         .      STR      r0,[sp,#0x80]
        0x000053a2:    4852        RH      LDR      r0,[pc,#328] ; [0x54ec] = 0x200006b4
        0x000053a4:    6880        .h      LDR      r0,[r0,#8]
        0x000053a6:    900b        ..      STR      r0,[sp,#0x2c]
        0x000053a8:    f7fbfe26    ..&.    BL       __aeabi_f2d ; 0xff8
        0x000053ac:    910f        ..      STR      r1,[sp,#0x3c]
        0x000053ae:    900e        ..      STR      r0,[sp,#0x38]
        0x000053b0:    4952        RI      LDR      r1,[pc,#328] ; [0x54fc] = 0x20000072
        0x000053b2:    2004        .       MOVS     r0,#4
        0x000053b4:    5e08        .^      LDRSH    r0,[r1,r0]
        0x000053b6:    9008        ..      STR      r0,[sp,#0x20]
        0x000053b8:    f7fbff40    ..@.    BL       __aeabi_i2f ; 0x123c
        0x000053bc:    9009        ..      STR      r0,[sp,#0x24]
        0x000053be:    f7fbfe1b    ....    BL       __aeabi_f2d ; 0xff8
        0x000053c2:    4a51        QJ      LDR      r2,[pc,#324] ; [0x5508] = 0x5e5f30e8
        0x000053c4:    4b51        QK      LDR      r3,[pc,#324] ; [0x550c] = 0x3ff7fd80
        0x000053c6:    910b        ..      STR      r1,[sp,#0x2c]
        0x000053c8:    900a        ..      STR      r0,[sp,#0x28]
        0x000053ca:    f7fbfccf    ....    BL       __aeabi_dmul ; 0xd6c
        0x000053ce:    910d        ..      STR      r1,[sp,#0x34]
        0x000053d0:    900c        ..      STR      r0,[sp,#0x30]
        0x000053d2:    9b0f        ..      LDR      r3,[sp,#0x3c]
        0x000053d4:    9a0e        ..      LDR      r2,[sp,#0x38]
        0x000053d6:    f7fbfcc9    ....    BL       __aeabi_dmul ; 0xd6c
        0x000053da:    2200        ."      MOVS     r2,#0
        0x000053dc:    4b4e        NK      LDR      r3,[pc,#312] ; [0x5518] = 0x40398000
        0x000053de:    9111        ..      STR      r1,[sp,#0x44]
        0x000053e0:    9010        ..      STR      r0,[sp,#0x40]
        0x000053e2:    f7fbfa6f    ..o.    BL       __aeabi_dsub ; 0x8c4
        0x000053e6:    9113        ..      STR      r1,[sp,#0x4c]
        0x000053e8:    9012        ..      STR      r0,[sp,#0x48]
        0x000053ea:    f7fbf8ab    ....    BL       __aeabi_d2f ; 0x544
        0x000053ee:    901f        ..      STR      r0,[sp,#0x7c]
        0x000053f0:    9823        #.      LDR      r0,[sp,#0x8c]
        0x000053f2:    f7fbfe01    ....    BL       __aeabi_f2d ; 0xff8
        0x000053f6:    9107        ..      STR      r1,[sp,#0x1c]
        0x000053f8:    9006        ..      STR      r0,[sp,#0x18]
        0x000053fa:    9823        #.      LDR      r0,[sp,#0x8c]
        0x000053fc:    f7fbfdfc    ....    BL       __aeabi_f2d ; 0xff8
        0x00005400:    4a46        FJ      LDR      r2,[pc,#280] ; [0x551c] = 0x9999999a
        0x00005402:    4b47        GK      LDR      r3,[pc,#284] ; [0x5520] = 0x3fb99999
        0x00005404:    9103        ..      STR      r1,[sp,#0xc]
        0x00005406:    9002        ..      STR      r0,[sp,#8]
        0x00005408:    f7fbfcb0    ....    BL       __aeabi_dmul ; 0xd6c
        0x0000540c:    9105        ..      STR      r1,[sp,#0x14]
        0x0000540e:    9004        ..      STR      r0,[sp,#0x10]
        0x00005410:    9b07        ..      LDR      r3,[sp,#0x1c]
        0x00005412:    9a06        ..      LDR      r2,[sp,#0x18]
        0x00005414:    f7fbfcaa    ....    BL       __aeabi_dmul ; 0xd6c
        0x00005418:    910b        ..      STR      r1,[sp,#0x2c]
        0x0000541a:    900a        ..      STR      r0,[sp,#0x28]
        0x0000541c:    9922        ".      LDR      r1,[sp,#0x88]
        0x0000541e:    4608        .F      MOV      r0,r1
        0x00005420:    f000fd2c    ..,.    BL       __aeabi_fmul ; 0x5e7c
        0x00005424:    9007        ..      STR      r0,[sp,#0x1c]
        0x00005426:    f7fbfde7    ....    BL       __aeabi_f2d ; 0xff8
        0x0000542a:    9109        ..      STR      r1,[sp,#0x24]
        0x0000542c:    9008        ..      STR      r0,[sp,#0x20]
        0x0000542e:    9b0b        ..      LDR      r3,[sp,#0x2c]
        0x00005430:    9a0a        ..      LDR      r2,[sp,#0x28]
        0x00005432:    f7fbfa3c    ..<.    BL       __aeabi_dadd ; 0x8ae
        0x00005436:    910d        ..      STR      r1,[sp,#0x34]
        0x00005438:    900c        ..      STR      r0,[sp,#0x30]
        0x0000543a:    f000fc09    ....    BL       sqrt ; 0x5c50
        0x0000543e:    9111        ..      STR      r1,[sp,#0x44]
        0x00005440:    9010        ..      STR      r0,[sp,#0x40]
        0x00005442:    2101        .!      MOVS     r1,#1
        0x00005444:    07c9        ..      LSLS     r1,r1,#31
        0x00005446:    9824        $.      LDR      r0,[sp,#0x90]
        0x00005448:    4048        H@      EORS     r0,r0,r1
        0x0000544a:    900d        ..      STR      r0,[sp,#0x34]
        0x0000544c:    f7fbfdd4    ....    BL       __aeabi_f2d ; 0xff8
        0x00005450:    910f        ..      STR      r1,[sp,#0x3c]
        0x00005452:    900e        ..      STR      r0,[sp,#0x38]
        0x00005454:    9b11        ..      LDR      r3,[sp,#0x44]
        0x00005456:    9a10        ..      LDR      r2,[sp,#0x40]
        0x00005458:    f7fff9c2    ....    BL       atan2 ; 0x47e0
        0x0000545c:    9113        ..      STR      r1,[sp,#0x4c]
        0x0000545e:    9012        ..      STR      r0,[sp,#0x48]
        0x00005460:    f7fbf870    ..p.    BL       __aeabi_d2f ; 0x544
        0x00005464:    492f        /I      LDR      r1,[pc,#188] ; [0x5524] = 0x20000080
        0x00005466:    6008        .`      STR      r0,[r1,#0]
        0x00005468:    9922        ".      LDR      r1,[sp,#0x88]
        0x0000546a:    4608        .F      MOV      r0,r1
        0x0000546c:    f000fd06    ....    BL       __aeabi_fmul ; 0x5e7c
        0x00005470:    900a        ..      STR      r0,[sp,#0x28]
        0x00005472:    9924        $.      LDR      r1,[sp,#0x90]
        0x00005474:    4608        .F      MOV      r0,r1
        0x00005476:    f000fd01    ....    BL       __aeabi_fmul ; 0x5e7c
        0x0000547a:    9009        ..      STR      r0,[sp,#0x24]
        0x0000547c:    990a        ..      LDR      r1,[sp,#0x28]
        0x0000547e:    f000fc8d    ....    BL       __aeabi_fadd ; 0x5d9c
        0x00005482:    900b        ..      STR      r0,[sp,#0x2c]
        0x00005484:    f7fbfdb8    ....    BL       __aeabi_f2d ; 0xff8
        0x00005488:    910d        ..      STR      r1,[sp,#0x34]
        0x0000548a:    900c        ..      STR      r0,[sp,#0x30]
        0x0000548c:    f000fbe0    ....    BL       sqrt ; 0x5c50
        0x00005490:    9111        ..      STR      r1,[sp,#0x44]
        0x00005492:    9010        ..      STR      r0,[sp,#0x40]
        0x00005494:    9823        #.      LDR      r0,[sp,#0x8c]
        0x00005496:    f7fbfdaf    ....    BL       __aeabi_f2d ; 0xff8
        0x0000549a:    910f        ..      STR      r1,[sp,#0x3c]
        0x0000549c:    900e        ..      STR      r0,[sp,#0x38]
        0x0000549e:    9b11        ..      LDR      r3,[sp,#0x44]
        0x000054a0:    9a10        ..      LDR      r2,[sp,#0x40]
        0x000054a2:    f7fff99d    ....    BL       atan2 ; 0x47e0
        0x000054a6:    9113        ..      STR      r1,[sp,#0x4c]
        0x000054a8:    9012        ..      STR      r0,[sp,#0x48]
        0x000054aa:    f7fbf84b    ..K.    BL       __aeabi_d2f ; 0x544
        0x000054ae:    491e        .I      LDR      r1,[pc,#120] ; [0x5528] = 0x20000078
        0x000054b0:    6008        .`      STR      r0,[r1,#0]
        0x000054b2:    4608        .F      MOV      r0,r1
        0x000054b4:    6800        .h      LDR      r0,[r0,#0]
        0x000054b6:    e039        9.      B        0x552c ; main + 1140
    $d
        0x000054b8:    00006064    d`..    DCD    24676
        0x000054bc:    50000100    ...P    DCD    1342177536
        0x000054c0:    02dc6c00    .l..    DCD    48000000
        0x000054c4:    00004e20     N..    DCD    20000
        0x000054c8:    50000200    ...P    DCD    1342177792
        0x000054cc:    6c706d53    Smpl    DCD    1819307347
        0x000054d0:    5241555f    _UAR    DCD    1380013407
        0x000054d4:    34203054    T0 4    DCD    874524756
        0x000054d8:    20203635    56      DCD    538981941
        0x000054dc:    00000020     ...    DCD    32
        0x000054e0:    00003e71    q>..    DCD    15985
        0x000054e4:    200006d8    ...     DCD    536872664
        0x000054e8:    200006cc    ...     DCD    536872652
        0x000054ec:    200006b4    ...     DCD    536872628
        0x000054f0:    000493e0    ....    DCD    300000
        0x000054f4:    20000066    f..     DCD    536871014
        0x000054f8:    2000006c    l..     DCD    536871020
        0x000054fc:    20000072    r..     DCD    536871026
        0x00005500:    43a6ef5c    \..C    DCD    1135013724
        0x00005504:    40e00000    ...@    DCD    1088421888
        0x00005508:    5e5f30e8    .0_^    DCD    1583296744
        0x0000550c:    3ff7fd80    ...?    DCD    1073216896
        0x00005510:    40490000    ..I@    DCD    1078525952
        0x00005514:    405a4000    .@Z@    DCD    1079656448
        0x00005518:    40398000    ..9@    DCD    1077510144
        0x0000551c:    9999999a    ....    DCD    2576980378
        0x00005520:    3fb99999    ...?    DCD    1069128089
        0x00005524:    20000080    ...     DCD    536871040
        0x00005528:    20000078    x..     DCD    536871032
    $t
        0x0000552c:    f7fbfd64    ..d.    BL       __aeabi_f2d ; 0xff8
        0x00005530:    9109        ..      STR      r1,[sp,#0x24]
        0x00005532:    9008        ..      STR      r0,[sp,#0x20]
        0x00005534:    f000fb3a    ..:.    BL       sin ; 0x5bac
        0x00005538:    910d        ..      STR      r1,[sp,#0x34]
        0x0000553a:    900c        ..      STR      r0,[sp,#0x30]
        0x0000553c:    48bc        .H      LDR      r0,[pc,#752] ; [0x5830] = 0x20000080
        0x0000553e:    6800        .h      LDR      r0,[r0,#0]
        0x00005540:    f7fbfd5a    ..Z.    BL       __aeabi_f2d ; 0xff8
        0x00005544:    9105        ..      STR      r1,[sp,#0x14]
        0x00005546:    9004        ..      STR      r0,[sp,#0x10]
        0x00005548:    f7fffca2    ....    BL       cos ; 0x4e90
        0x0000554c:    9109        ..      STR      r1,[sp,#0x24]
        0x0000554e:    9008        ..      STR      r0,[sp,#0x20]
        0x00005550:    981f        ..      LDR      r0,[sp,#0x7c]
        0x00005552:    f7fbfd51    ..Q.    BL       __aeabi_f2d ; 0xff8
        0x00005556:    9107        ..      STR      r1,[sp,#0x1c]
        0x00005558:    9006        ..      STR      r0,[sp,#0x18]
        0x0000555a:    9b09        ..      LDR      r3,[sp,#0x24]
        0x0000555c:    9a08        ..      LDR      r2,[sp,#0x20]
        0x0000555e:    f7fbfc05    ....    BL       __aeabi_dmul ; 0xd6c
        0x00005562:    910b        ..      STR      r1,[sp,#0x2c]
        0x00005564:    900a        ..      STR      r0,[sp,#0x28]
        0x00005566:    9b0d        ..      LDR      r3,[sp,#0x34]
        0x00005568:    9a0c        ..      LDR      r2,[sp,#0x30]
        0x0000556a:    f7fbfbff    ....    BL       __aeabi_dmul ; 0xd6c
        0x0000556e:    9111        ..      STR      r1,[sp,#0x44]
        0x00005570:    9010        ..      STR      r0,[sp,#0x40]
        0x00005572:    48b0        .H      LDR      r0,[pc,#704] ; [0x5834] = 0x20000078
        0x00005574:    6800        .h      LDR      r0,[r0,#0]
        0x00005576:    f7fbfd3f    ..?.    BL       __aeabi_f2d ; 0xff8
        0x0000557a:    9105        ..      STR      r1,[sp,#0x14]
        0x0000557c:    9004        ..      STR      r0,[sp,#0x10]
        0x0000557e:    f000fb15    ....    BL       sin ; 0x5bac
        0x00005582:    9109        ..      STR      r1,[sp,#0x24]
        0x00005584:    9008        ..      STR      r0,[sp,#0x20]
        0x00005586:    48aa        .H      LDR      r0,[pc,#680] ; [0x5830] = 0x20000080
        0x00005588:    6800        .h      LDR      r0,[r0,#0]
        0x0000558a:    f7fbfd35    ..5.    BL       __aeabi_f2d ; 0xff8
        0x0000558e:    9101        ..      STR      r1,[sp,#4]
        0x00005590:    9000        ..      STR      r0,[sp,#0]
        0x00005592:    f000fb0b    ....    BL       sin ; 0x5bac
        0x00005596:    9105        ..      STR      r1,[sp,#0x14]
        0x00005598:    9004        ..      STR      r0,[sp,#0x10]
        0x0000559a:    9820         .      LDR      r0,[sp,#0x80]
        0x0000559c:    f7fbfd2c    ..,.    BL       __aeabi_f2d ; 0xff8
        0x000055a0:    9103        ..      STR      r1,[sp,#0xc]
        0x000055a2:    9002        ..      STR      r0,[sp,#8]
        0x000055a4:    9b05        ..      LDR      r3,[sp,#0x14]
        0x000055a6:    9a04        ..      LDR      r2,[sp,#0x10]
        0x000055a8:    f7fbfbe0    ....    BL       __aeabi_dmul ; 0xd6c
        0x000055ac:    9107        ..      STR      r1,[sp,#0x1c]
        0x000055ae:    9006        ..      STR      r0,[sp,#0x18]
        0x000055b0:    9b09        ..      LDR      r3,[sp,#0x24]
        0x000055b2:    9a08        ..      LDR      r2,[sp,#0x20]
        0x000055b4:    f7fbfbda    ....    BL       __aeabi_dmul ; 0xd6c
        0x000055b8:    910d        ..      STR      r1,[sp,#0x34]
        0x000055ba:    900c        ..      STR      r0,[sp,#0x30]
        0x000055bc:    489d        .H      LDR      r0,[pc,#628] ; [0x5834] = 0x20000078
        0x000055be:    6800        .h      LDR      r0,[r0,#0]
        0x000055c0:    f7fbfd1a    ....    BL       __aeabi_f2d ; 0xff8
        0x000055c4:    9105        ..      STR      r1,[sp,#0x14]
        0x000055c6:    9004        ..      STR      r0,[sp,#0x10]
        0x000055c8:    f7fffc62    ..b.    BL       cos ; 0x4e90
        0x000055cc:    9109        ..      STR      r1,[sp,#0x24]
        0x000055ce:    9008        ..      STR      r0,[sp,#0x20]
        0x000055d0:    9821        !.      LDR      r0,[sp,#0x84]
        0x000055d2:    f7fbfd11    ....    BL       __aeabi_f2d ; 0xff8
        0x000055d6:    9107        ..      STR      r1,[sp,#0x1c]
        0x000055d8:    9006        ..      STR      r0,[sp,#0x18]
        0x000055da:    9b09        ..      LDR      r3,[sp,#0x24]
        0x000055dc:    9a08        ..      LDR      r2,[sp,#0x20]
        0x000055de:    f7fbfbc5    ....    BL       __aeabi_dmul ; 0xd6c
        0x000055e2:    910b        ..      STR      r1,[sp,#0x2c]
        0x000055e4:    900a        ..      STR      r0,[sp,#0x28]
        0x000055e6:    9b0d        ..      LDR      r3,[sp,#0x34]
        0x000055e8:    9a0c        ..      LDR      r2,[sp,#0x30]
        0x000055ea:    f7fbf960    ..`.    BL       __aeabi_dadd ; 0x8ae
        0x000055ee:    910f        ..      STR      r1,[sp,#0x3c]
        0x000055f0:    900e        ..      STR      r0,[sp,#0x38]
        0x000055f2:    9b11        ..      LDR      r3,[sp,#0x44]
        0x000055f4:    9a10        ..      LDR      r2,[sp,#0x40]
        0x000055f6:    f7fbf965    ..e.    BL       __aeabi_dsub ; 0x8c4
        0x000055fa:    9113        ..      STR      r1,[sp,#0x4c]
        0x000055fc:    9012        ..      STR      r0,[sp,#0x48]
        0x000055fe:    f7faffa1    ....    BL       __aeabi_d2f ; 0x544
        0x00005602:    9017        ..      STR      r0,[sp,#0x5c]
        0x00005604:    488a        .H      LDR      r0,[pc,#552] ; [0x5830] = 0x20000080
        0x00005606:    6800        .h      LDR      r0,[r0,#0]
        0x00005608:    f7fbfcf6    ....    BL       __aeabi_f2d ; 0xff8
        0x0000560c:    9109        ..      STR      r1,[sp,#0x24]
        0x0000560e:    9008        ..      STR      r0,[sp,#0x20]
        0x00005610:    f000facc    ....    BL       sin ; 0x5bac
        0x00005614:    910d        ..      STR      r1,[sp,#0x34]
        0x00005616:    900c        ..      STR      r0,[sp,#0x30]
        0x00005618:    981f        ..      LDR      r0,[sp,#0x7c]
        0x0000561a:    f7fbfced    ....    BL       __aeabi_f2d ; 0xff8
        0x0000561e:    910b        ..      STR      r1,[sp,#0x2c]
        0x00005620:    900a        ..      STR      r0,[sp,#0x28]
        0x00005622:    9b0d        ..      LDR      r3,[sp,#0x34]
        0x00005624:    9a0c        ..      LDR      r2,[sp,#0x30]
        0x00005626:    f7fbfba1    ....    BL       __aeabi_dmul ; 0xd6c
        0x0000562a:    9111        ..      STR      r1,[sp,#0x44]
        0x0000562c:    9010        ..      STR      r0,[sp,#0x40]
        0x0000562e:    4880        .H      LDR      r0,[pc,#512] ; [0x5830] = 0x20000080
        0x00005630:    6800        .h      LDR      r0,[r0,#0]
        0x00005632:    f7fbfce1    ....    BL       __aeabi_f2d ; 0xff8
        0x00005636:    9109        ..      STR      r1,[sp,#0x24]
        0x00005638:    9008        ..      STR      r0,[sp,#0x20]
        0x0000563a:    f7fffc29    ..).    BL       cos ; 0x4e90
        0x0000563e:    910d        ..      STR      r1,[sp,#0x34]
        0x00005640:    900c        ..      STR      r0,[sp,#0x30]
        0x00005642:    9820         .      LDR      r0,[sp,#0x80]
        0x00005644:    f7fbfcd8    ....    BL       __aeabi_f2d ; 0xff8
        0x00005648:    910b        ..      STR      r1,[sp,#0x2c]
        0x0000564a:    900a        ..      STR      r0,[sp,#0x28]
        0x0000564c:    9b0d        ..      LDR      r3,[sp,#0x34]
        0x0000564e:    9a0c        ..      LDR      r2,[sp,#0x30]
        0x00005650:    f7fbfb8c    ....    BL       __aeabi_dmul ; 0xd6c
        0x00005654:    910f        ..      STR      r1,[sp,#0x3c]
        0x00005656:    900e        ..      STR      r0,[sp,#0x38]
        0x00005658:    9b11        ..      LDR      r3,[sp,#0x44]
        0x0000565a:    9a10        ..      LDR      r2,[sp,#0x40]
        0x0000565c:    f7fbf927    ..'.    BL       __aeabi_dadd ; 0x8ae
        0x00005660:    9113        ..      STR      r1,[sp,#0x4c]
        0x00005662:    9012        ..      STR      r0,[sp,#0x48]
        0x00005664:    f7faff6e    ..n.    BL       __aeabi_d2f ; 0x544
        0x00005668:    9016        ..      STR      r0,[sp,#0x58]
        0x0000566a:    9817        ..      LDR      r0,[sp,#0x5c]
        0x0000566c:    f7fbfcc4    ....    BL       __aeabi_f2d ; 0xff8
        0x00005670:    910f        ..      STR      r1,[sp,#0x3c]
        0x00005672:    900e        ..      STR      r0,[sp,#0x38]
        0x00005674:    9816        ..      LDR      r0,[sp,#0x58]
        0x00005676:    f7fbfcbf    ....    BL       __aeabi_f2d ; 0xff8
        0x0000567a:    910d        ..      STR      r1,[sp,#0x34]
        0x0000567c:    900c        ..      STR      r0,[sp,#0x30]
        0x0000567e:    9b0f        ..      LDR      r3,[sp,#0x3c]
        0x00005680:    9a0e        ..      LDR      r2,[sp,#0x38]
        0x00005682:    f7fff8ad    ....    BL       atan2 ; 0x47e0
        0x00005686:    2200        ."      MOVS     r2,#0
        0x00005688:    2301        .#      MOVS     r3,#1
        0x0000568a:    079b        ..      LSLS     r3,r3,#30
        0x0000568c:    9111        ..      STR      r1,[sp,#0x44]
        0x0000568e:    9010        ..      STR      r0,[sp,#0x40]
        0x00005690:    f7fbf93a    ..:.    BL       __aeabi_ddiv ; 0x908
        0x00005694:    9113        ..      STR      r1,[sp,#0x4c]
        0x00005696:    9012        ..      STR      r0,[sp,#0x48]
        0x00005698:    f7faff54    ..T.    BL       __aeabi_d2f ; 0x544
        0x0000569c:    4966        fI      LDR      r1,[pc,#408] ; [0x5838] = 0x2000007c
        0x0000569e:    6008        .`      STR      r0,[r1,#0]
        0x000056a0:    4966        fI      LDR      r1,[pc,#408] ; [0x583c] = 0x41200000
        0x000056a2:    9824        $.      LDR      r0,[sp,#0x90]
        0x000056a4:    f000fbea    ....    BL       __aeabi_fmul ; 0x5e7c
        0x000056a8:    9012        ..      STR      r0,[sp,#0x48]
        0x000056aa:    f7fbfd7d    ..}.    BL       __aeabi_f2iz ; 0x11a8
        0x000056ae:    4602        .F      MOV      r2,r0
        0x000056b0:    a163        c.      ADR      r1,{pc}+0x190 ; 0x5840
        0x000056b2:    9013        ..      STR      r0,[sp,#0x4c]
        0x000056b4:    4864        dH      LDR      r0,[pc,#400] ; [0x5848] = 0x20000056
        0x000056b6:    f7fafd9d    ....    BL       __2sprintf ; 0x1f4
        0x000056ba:    981f        ..      LDR      r0,[sp,#0x7c]
        0x000056bc:    f7fbfc9c    ....    BL       __aeabi_f2d ; 0xff8
        0x000056c0:    9113        ..      STR      r1,[sp,#0x4c]
        0x000056c2:    9012        ..      STR      r0,[sp,#0x48]
        0x000056c4:    9820         .      LDR      r0,[sp,#0x80]
        0x000056c6:    f7fbfc97    ....    BL       __aeabi_f2d ; 0xff8
        0x000056ca:    9111        ..      STR      r1,[sp,#0x44]
        0x000056cc:    9010        ..      STR      r0,[sp,#0x40]
        0x000056ce:    9913        ..      LDR      r1,[sp,#0x4c]
        0x000056d0:    9812        ..      LDR      r0,[sp,#0x48]
        0x000056d2:    9101        ..      STR      r1,[sp,#4]
        0x000056d4:    9000        ..      STR      r0,[sp,#0]
        0x000056d6:    a15d        ].      ADR      r1,{pc}+0x176 ; 0x584c
        0x000056d8:    485b        [H      LDR      r0,[pc,#364] ; [0x5848] = 0x20000056
        0x000056da:    9b11        ..      LDR      r3,[sp,#0x44]
        0x000056dc:    9a10        ..      LDR      r2,[sp,#0x40]
        0x000056de:    f7fafd89    ....    BL       __2sprintf ; 0x1f4
        0x000056e2:    4855        UH      LDR      r0,[pc,#340] ; [0x5838] = 0x2000007c
        0x000056e4:    9915        ..      LDR      r1,[sp,#0x54]
        0x000056e6:    6800        .h      LDR      r0,[r0,#0]
        0x000056e8:    f000fc20    .. .    BL       __aeabi_cfrcmple ; 0x5f2c
        0x000056ec:    d202        ..      BCS      0x56f4 ; main + 1596
        0x000056ee:    4852        RH      LDR      r0,[pc,#328] ; [0x5838] = 0x2000007c
        0x000056f0:    6800        .h      LDR      r0,[r0,#0]
        0x000056f2:    9015        ..      STR      r0,[sp,#0x54]
        0x000056f4:    4850        PH      LDR      r0,[pc,#320] ; [0x5838] = 0x2000007c
        0x000056f6:    9914        ..      LDR      r1,[sp,#0x50]
        0x000056f8:    6800        .h      LDR      r0,[r0,#0]
        0x000056fa:    f000fb95    ....    BL       __aeabi_cfcmple ; 0x5e28
        0x000056fe:    d202        ..      BCS      0x5706 ; main + 1614
        0x00005700:    484d        MH      LDR      r0,[pc,#308] ; [0x5838] = 0x2000007c
        0x00005702:    6800        .h      LDR      r0,[r0,#0]
        0x00005704:    9014        ..      STR      r0,[sp,#0x50]
        0x00005706:    9818        ..      LDR      r0,[sp,#0x60]
        0x00005708:    2800        .(      CMP      r0,#0
        0x0000570a:    d105        ..      BNE      0x5718 ; main + 1632
        0x0000570c:    9820         .      LDR      r0,[sp,#0x80]
        0x0000570e:    901a        ..      STR      r0,[sp,#0x68]
        0x00005710:    981f        ..      LDR      r0,[sp,#0x7c]
        0x00005712:    9019        ..      STR      r0,[sp,#0x64]
        0x00005714:    2001        .       MOVS     r0,#1
        0x00005716:    9018        ..      STR      r0,[sp,#0x60]
        0x00005718:    2100        .!      MOVS     r1,#0
        0x0000571a:    9824        $.      LDR      r0,[sp,#0x90]
        0x0000571c:    f000fc06    ....    BL       __aeabi_cfrcmple ; 0x5f2c
        0x00005720:    d205        ..      BCS      0x572e ; main + 1654
        0x00005722:    9924        $.      LDR      r1,[sp,#0x90]
        0x00005724:    981e        ..      LDR      r0,[sp,#0x78]
        0x00005726:    f000fb39    ..9.    BL       __aeabi_fadd ; 0x5d9c
        0x0000572a:    901e        ..      STR      r0,[sp,#0x78]
        0x0000572c:    e004        ..      B        0x5738 ; main + 1664
        0x0000572e:    9924        $.      LDR      r1,[sp,#0x90]
        0x00005730:    981c        ..      LDR      r0,[sp,#0x70]
        0x00005732:    f000fc27    ..'.    BL       __aeabi_fsub ; 0x5f84
        0x00005736:    901c        ..      STR      r0,[sp,#0x70]
        0x00005738:    2100        .!      MOVS     r1,#0
        0x0000573a:    9823        #.      LDR      r0,[sp,#0x8c]
        0x0000573c:    f000fbf6    ....    BL       __aeabi_cfrcmple ; 0x5f2c
        0x00005740:    d205        ..      BCS      0x574e ; main + 1686
        0x00005742:    9923        #.      LDR      r1,[sp,#0x8c]
        0x00005744:    981d        ..      LDR      r0,[sp,#0x74]
        0x00005746:    f000fb29    ..).    BL       __aeabi_fadd ; 0x5d9c
        0x0000574a:    901d        ..      STR      r0,[sp,#0x74]
        0x0000574c:    e004        ..      B        0x5758 ; main + 1696
        0x0000574e:    9923        #.      LDR      r1,[sp,#0x8c]
        0x00005750:    981b        ..      LDR      r0,[sp,#0x6c]
        0x00005752:    f000fc17    ....    BL       __aeabi_fsub ; 0x5f84
        0x00005756:    901b        ..      STR      r0,[sp,#0x6c]
        0x00005758:    9820         .      LDR      r0,[sp,#0x80]
        0x0000575a:    f7fbfc4d    ..M.    BL       __aeabi_f2d ; 0xff8
        0x0000575e:    4602        .F      MOV      r2,r0
        0x00005760:    460b        .F      MOV      r3,r1
        0x00005762:    9113        ..      STR      r1,[sp,#0x4c]
        0x00005764:    9012        ..      STR      r0,[sp,#0x48]
        0x00005766:    a13b        ;.      ADR      r1,{pc}+0xee ; 0x5854
        0x00005768:    4837        7H      LDR      r0,[pc,#220] ; [0x5848] = 0x20000056
        0x0000576a:    f7fafd43    ..C.    BL       __2sprintf ; 0x1f4
        0x0000576e:    4936        6I      LDR      r1,[pc,#216] ; [0x5848] = 0x20000056
        0x00005770:    2000        .       MOVS     r0,#0
        0x00005772:    f000f87d    ..}.    BL       print_lcd ; 0x5870
        0x00005776:    9919        ..      LDR      r1,[sp,#0x64]
        0x00005778:    981f        ..      LDR      r0,[sp,#0x7c]
        0x0000577a:    f000fc03    ....    BL       __aeabi_fsub ; 0x5f84
        0x0000577e:    2101        .!      MOVS     r1,#1
        0x00005780:    0789        ..      LSLS     r1,r1,#30
        0x00005782:    9010        ..      STR      r0,[sp,#0x40]
        0x00005784:    f7fbfc60    ..`.    BL       __aeabi_fdiv ; 0x1048
        0x00005788:    9011        ..      STR      r0,[sp,#0x44]
        0x0000578a:    f7fbfd0d    ....    BL       __aeabi_f2iz ; 0x11a8
        0x0000578e:    9013        ..      STR      r0,[sp,#0x4c]
        0x00005790:    991a        ..      LDR      r1,[sp,#0x68]
        0x00005792:    9820         .      LDR      r0,[sp,#0x80]
        0x00005794:    f000fbf6    ....    BL       __aeabi_fsub ; 0x5f84
        0x00005798:    2101        .!      MOVS     r1,#1
        0x0000579a:    0789        ..      LSLS     r1,r1,#30
        0x0000579c:    9010        ..      STR      r0,[sp,#0x40]
        0x0000579e:    f7fbfc53    ..S.    BL       __aeabi_fdiv ; 0x1048
        0x000057a2:    9011        ..      STR      r0,[sp,#0x44]
        0x000057a4:    f7fbfd00    ....    BL       __aeabi_f2iz ; 0x11a8
        0x000057a8:    9012        ..      STR      r0,[sp,#0x48]
        0x000057aa:    4602        .F      MOV      r2,r0
        0x000057ac:    a12a        *.      ADR      r1,{pc}+0xac ; 0x5858
        0x000057ae:    4826        &H      LDR      r0,[pc,#152] ; [0x5848] = 0x20000056
        0x000057b0:    9b13        ..      LDR      r3,[sp,#0x4c]
        0x000057b2:    f7fafd1f    ....    BL       __2sprintf ; 0x1f4
        0x000057b6:    4824        $H      LDR      r0,[pc,#144] ; [0x5848] = 0x20000056
        0x000057b8:    f7fafdf2    ....    BL       strlen ; 0x3a0
        0x000057bc:    4602        .F      MOV      r2,r0
        0x000057be:    4922        "I      LDR      r1,[pc,#136] ; [0x5848] = 0x20000056
        0x000057c0:    9013        ..      STR      r0,[sp,#0x4c]
        0x000057c2:    2000        .       MOVS     r0,#0
        0x000057c4:    f7fdfee0    ....    BL       DrvUART_Write ; 0x3588
        0x000057c8:    491f        .I      LDR      r1,[pc,#124] ; [0x5848] = 0x20000056
        0x000057ca:    2001        .       MOVS     r0,#1
        0x000057cc:    f000f850    ..P.    BL       print_lcd ; 0x5870
        0x000057d0:    981f        ..      LDR      r0,[sp,#0x7c]
        0x000057d2:    f7fbfc11    ....    BL       __aeabi_f2d ; 0xff8
        0x000057d6:    4602        .F      MOV      r2,r0
        0x000057d8:    460b        .F      MOV      r3,r1
        0x000057da:    9113        ..      STR      r1,[sp,#0x4c]
        0x000057dc:    9012        ..      STR      r0,[sp,#0x48]
        0x000057de:    a120         .      ADR      r1,{pc}+0x82 ; 0x5860
        0x000057e0:    4819        .H      LDR      r0,[pc,#100] ; [0x5848] = 0x20000056
        0x000057e2:    f7fafd07    ....    BL       __2sprintf ; 0x1f4
        0x000057e6:    4918        .I      LDR      r1,[pc,#96] ; [0x5848] = 0x20000056
        0x000057e8:    2002        .       MOVS     r0,#2
        0x000057ea:    f000f841    ..A.    BL       print_lcd ; 0x5870
        0x000057ee:    981b        ..      LDR      r0,[sp,#0x6c]
        0x000057f0:    f7fbfc02    ....    BL       __aeabi_f2d ; 0xff8
        0x000057f4:    4602        .F      MOV      r2,r0
        0x000057f6:    460b        .F      MOV      r3,r1
        0x000057f8:    9113        ..      STR      r1,[sp,#0x4c]
        0x000057fa:    9012        ..      STR      r0,[sp,#0x48]
        0x000057fc:    a119        ..      ADR      r1,{pc}+0x68 ; 0x5864
        0x000057fe:    4812        .H      LDR      r0,[pc,#72] ; [0x5848] = 0x20000056
        0x00005800:    f7fafcf8    ....    BL       __2sprintf ; 0x1f4
        0x00005804:    4910        .I      LDR      r1,[pc,#64] ; [0x5848] = 0x20000056
        0x00005806:    2003        .       MOVS     r0,#3
        0x00005808:    f000f832    ..2.    BL       print_lcd ; 0x5870
        0x0000580c:    2000        .       MOVS     r0,#0
        0x0000580e:    901c        ..      STR      r0,[sp,#0x70]
        0x00005810:    901e        ..      STR      r0,[sp,#0x78]
        0x00005812:    901b        ..      STR      r0,[sp,#0x6c]
        0x00005814:    901d        ..      STR      r0,[sp,#0x74]
        0x00005816:    4814        .H      LDR      r0,[pc,#80] ; [0x5868] = 0x4e20
        0x00005818:    f7fdfb1a    ....    BL       DrvSYS_Delay ; 0x2e50
        0x0000581c:    4813        .H      LDR      r0,[pc,#76] ; [0x586c] = 0x400e0000
        0x0000581e:    6a00        .j      LDR      r0,[r0,#0x20]
        0x00005820:    2101        .!      MOVS     r1,#1
        0x00005822:    02c9        ..      LSLS     r1,r1,#11
        0x00005824:    4388        .C      BICS     r0,r0,r1
        0x00005826:    1840        @.      ADDS     r0,r0,r1
        0x00005828:    4910        .I      LDR      r1,[pc,#64] ; [0x586c] = 0x400e0000
        0x0000582a:    6208        .b      STR      r0,[r1,#0x20]
        0x0000582c:    e4b1        ..      B        0x5192 ; main + 218
    $d
        0x0000582e:    0000        ..      DCW    0
        0x00005830:    20000080    ...     DCD    536871040
        0x00005834:    20000078    x..     DCD    536871032
        0x00005838:    2000007c    |..     DCD    536871036
        0x0000583c:    41200000    .. A    DCD    1092616192
        0x00005840:    20642573    s%d     DCD    543434099
        0x00005844:    00000000    ....    DCD    0
        0x00005848:    20000056    V..     DCD    536870998
        0x0000584c:    66256625    %f%f    DCD    1713727013
        0x00005850:    00000020     ...    DCD    32
        0x00005854:    00206625    %f .    DCD    2123301
        0x00005858:    74642573    s%dt    DCD    1952720243
        0x0000585c:    00786425    %dx.    DCD    7889957
        0x00005860:    00662574    t%f.    DCD    6694260
        0x00005864:    00006625    %f..    DCD    26149
        0x00005868:    00004e20     N..    DCD    20000
        0x0000586c:    400e0000    ...@    DCD    1074659328
    $t
    i.print_lcd
    print_lcd
        0x00005870:    b570        p.      PUSH     {r4-r6,lr}
        0x00005872:    4606        .F      MOV      r6,r0
        0x00005874:    460c        .F      MOV      r4,r1
        0x00005876:    2500        .%      MOVS     r5,#0
        0x00005878:    bf00        ..      NOP      
        0x0000587a:    7822        "x      LDRB     r2,[r4,#0]
        0x0000587c:    1c64        d.      ADDS     r4,r4,#1
        0x0000587e:    b2e9        ..      UXTB     r1,r5
        0x00005880:    4630        0F      MOV      r0,r6
        0x00005882:    f7fefa39    ..9.    BL       Show_Word ; 0x3cf8
        0x00005886:    1c6d        m.      ADDS     r5,r5,#1
        0x00005888:    2d0f        .-      CMP      r5,#0xf
        0x0000588a:    dd00        ..      BLE      0x588e ; print_lcd + 30
        0x0000588c:    e002        ..      B        0x5894 ; print_lcd + 36
        0x0000588e:    7820         x      LDRB     r0,[r4,#0]
        0x00005890:    2800        .(      CMP      r0,#0
        0x00005892:    d1f2        ..      BNE      0x587a ; print_lcd + 10
        0x00005894:    bf00        ..      NOP      
        0x00005896:    bd70        p.      POP      {r4-r6,pc}
    i.readAccelData
    readAccelData
        0x00005898:    b51c        ..      PUSH     {r2-r4,lr}
        0x0000589a:    4604        .F      MOV      r4,r0
        0x0000589c:    213b        ;!      MOVS     r1,#0x3b
        0x0000589e:    2068        h       MOVS     r0,#0x68
        0x000058a0:    f000f83e    ..>.    BL       readByte ; 0x5920
        0x000058a4:    4669        iF      MOV      r1,sp
        0x000058a6:    7008        .p      STRB     r0,[r1,#0]
        0x000058a8:    213c        <!      MOVS     r1,#0x3c
        0x000058aa:    2068        h       MOVS     r0,#0x68
        0x000058ac:    f000f838    ..8.    BL       readByte ; 0x5920
        0x000058b0:    4601        .F      MOV      r1,r0
        0x000058b2:    4668        hF      MOV      r0,sp
        0x000058b4:    7041        Ap      STRB     r1,[r0,#1]
        0x000058b6:    213d        =!      MOVS     r1,#0x3d
        0x000058b8:    2068        h       MOVS     r0,#0x68
        0x000058ba:    f000f831    ..1.    BL       readByte ; 0x5920
        0x000058be:    4601        .F      MOV      r1,r0
        0x000058c0:    4668        hF      MOV      r0,sp
        0x000058c2:    7081        .p      STRB     r1,[r0,#2]
        0x000058c4:    213e        >!      MOVS     r1,#0x3e
        0x000058c6:    2068        h       MOVS     r0,#0x68
        0x000058c8:    f000f82a    ..*.    BL       readByte ; 0x5920
        0x000058cc:    4601        .F      MOV      r1,r0
        0x000058ce:    4668        hF      MOV      r0,sp
        0x000058d0:    70c1        .p      STRB     r1,[r0,#3]
        0x000058d2:    213f        ?!      MOVS     r1,#0x3f
        0x000058d4:    2068        h       MOVS     r0,#0x68
        0x000058d6:    f000f823    ..#.    BL       readByte ; 0x5920
        0x000058da:    4601        .F      MOV      r1,r0
        0x000058dc:    4668        hF      MOV      r0,sp
        0x000058de:    7101        .q      STRB     r1,[r0,#4]
        0x000058e0:    2140        @!      MOVS     r1,#0x40
        0x000058e2:    2068        h       MOVS     r0,#0x68
        0x000058e4:    f000f81c    ....    BL       readByte ; 0x5920
        0x000058e8:    4601        .F      MOV      r1,r0
        0x000058ea:    4668        hF      MOV      r0,sp
        0x000058ec:    7141        Aq      STRB     r1,[r0,#5]
        0x000058ee:    7800        .x      LDRB     r0,[r0,#0]
        0x000058f0:    0201        ..      LSLS     r1,r0,#8
        0x000058f2:    4668        hF      MOV      r0,sp
        0x000058f4:    7840        @x      LDRB     r0,[r0,#1]
        0x000058f6:    1808        ..      ADDS     r0,r1,r0
        0x000058f8:    b200        ..      SXTH     r0,r0
        0x000058fa:    8020         .      STRH     r0,[r4,#0]
        0x000058fc:    4668        hF      MOV      r0,sp
        0x000058fe:    7880        .x      LDRB     r0,[r0,#2]
        0x00005900:    0201        ..      LSLS     r1,r0,#8
        0x00005902:    4668        hF      MOV      r0,sp
        0x00005904:    78c0        .x      LDRB     r0,[r0,#3]
        0x00005906:    1808        ..      ADDS     r0,r1,r0
        0x00005908:    b200        ..      SXTH     r0,r0
        0x0000590a:    8060        `.      STRH     r0,[r4,#2]
        0x0000590c:    4668        hF      MOV      r0,sp
        0x0000590e:    7900        .y      LDRB     r0,[r0,#4]
        0x00005910:    0201        ..      LSLS     r1,r0,#8
        0x00005912:    4668        hF      MOV      r0,sp
        0x00005914:    7940        @y      LDRB     r0,[r0,#5]
        0x00005916:    1808        ..      ADDS     r0,r1,r0
        0x00005918:    b200        ..      SXTH     r0,r0
        0x0000591a:    80a0        ..      STRH     r0,[r4,#4]
        0x0000591c:    bd1c        ..      POP      {r2-r4,pc}
        0x0000591e:    0000        ..      MOVS     r0,r0
    i.readByte
    readByte
        0x00005920:    b5fe        ..      PUSH     {r1-r7,lr}
        0x00005922:    4604        .F      MOV      r4,r0
        0x00005924:    460f        .F      MOV      r7,r1
        0x00005926:    2600        .&      MOVS     r6,#0
        0x00005928:    f7fdfaac    ....    BL       DrvSYS_GetHCLKFreq ; 0x2e84
        0x0000592c:    4941        AI      LDR      r1,[pc,#260] ; [0x5a34] = 0x20000000
        0x0000592e:    6008        .`      STR      r0,[r1,#0]
        0x00005930:    4941        AI      LDR      r1,[pc,#260] ; [0x5a38] = 0xc350
        0x00005932:    2001        .       MOVS     r0,#1
        0x00005934:    f7fdfa28    ..(.    BL       DrvI2C_Open ; 0x2d88
        0x00005938:    2301        .#      MOVS     r3,#1
        0x0000593a:    2200        ."      MOVS     r2,#0
        0x0000593c:    4619        .F      MOV      r1,r3
        0x0000593e:    4618        .F      MOV      r0,r3
        0x00005940:    9300        ..      STR      r3,[sp,#0]
        0x00005942:    f7fdf9f7    ....    BL       DrvI2C_Ctrl ; 0x2d34
        0x00005946:    bf00        ..      NOP      
        0x00005948:    483c        <H      LDR      r0,[pc,#240] ; [0x5a3c] = 0x40120000
        0x0000594a:    6800        .h      LDR      r0,[r0,#0]
        0x0000594c:    0700        ..      LSLS     r0,r0,#28
        0x0000594e:    0fc0        ..      LSRS     r0,r0,#31
        0x00005950:    d0fa        ..      BEQ      0x5948 ; readByte + 40
        0x00005952:    0060        `.      LSLS     r0,r4,#1
        0x00005954:    4939        9I      LDR      r1,[pc,#228] ; [0x5a3c] = 0x40120000
        0x00005956:    6088        .`      STR      r0,[r1,#8]
        0x00005958:    2301        .#      MOVS     r3,#1
        0x0000595a:    2200        ."      MOVS     r2,#0
        0x0000595c:    4611        .F      MOV      r1,r2
        0x0000595e:    4618        .F      MOV      r0,r3
        0x00005960:    9300        ..      STR      r3,[sp,#0]
        0x00005962:    f7fdf9e7    ....    BL       DrvI2C_Ctrl ; 0x2d34
        0x00005966:    bf00        ..      NOP      
        0x00005968:    4834        4H      LDR      r0,[pc,#208] ; [0x5a3c] = 0x40120000
        0x0000596a:    6800        .h      LDR      r0,[r0,#0]
        0x0000596c:    0700        ..      LSLS     r0,r0,#28
        0x0000596e:    0fc0        ..      LSRS     r0,r0,#31
        0x00005970:    d0fa        ..      BEQ      0x5968 ; readByte + 72
        0x00005972:    4832        2H      LDR      r0,[pc,#200] ; [0x5a3c] = 0x40120000
        0x00005974:    6087        .`      STR      r7,[r0,#8]
        0x00005976:    2301        .#      MOVS     r3,#1
        0x00005978:    2200        ."      MOVS     r2,#0
        0x0000597a:    4611        .F      MOV      r1,r2
        0x0000597c:    4618        .F      MOV      r0,r3
        0x0000597e:    9300        ..      STR      r3,[sp,#0]
        0x00005980:    f7fdf9d8    ....    BL       DrvI2C_Ctrl ; 0x2d34
        0x00005984:    bf00        ..      NOP      
        0x00005986:    482d        -H      LDR      r0,[pc,#180] ; [0x5a3c] = 0x40120000
        0x00005988:    6800        .h      LDR      r0,[r0,#0]
        0x0000598a:    0700        ..      LSLS     r0,r0,#28
        0x0000598c:    0fc0        ..      LSRS     r0,r0,#31
        0x0000598e:    d0fa        ..      BEQ      0x5986 ; readByte + 102
        0x00005990:    2301        .#      MOVS     r3,#1
        0x00005992:    2200        ."      MOVS     r2,#0
        0x00005994:    4619        .F      MOV      r1,r3
        0x00005996:    4618        .F      MOV      r0,r3
        0x00005998:    9300        ..      STR      r3,[sp,#0]
        0x0000599a:    f7fdf9cb    ....    BL       DrvI2C_Ctrl ; 0x2d34
        0x0000599e:    bf00        ..      NOP      
        0x000059a0:    4826        &H      LDR      r0,[pc,#152] ; [0x5a3c] = 0x40120000
        0x000059a2:    6800        .h      LDR      r0,[r0,#0]
        0x000059a4:    0700        ..      LSLS     r0,r0,#28
        0x000059a6:    0fc0        ..      LSRS     r0,r0,#31
        0x000059a8:    d0fa        ..      BEQ      0x59a0 ; readByte + 128
        0x000059aa:    0060        `.      LSLS     r0,r4,#1
        0x000059ac:    1c40        @.      ADDS     r0,r0,#1
        0x000059ae:    4923        #I      LDR      r1,[pc,#140] ; [0x5a3c] = 0x40120000
        0x000059b0:    6088        .`      STR      r0,[r1,#8]
        0x000059b2:    2301        .#      MOVS     r3,#1
        0x000059b4:    2200        ."      MOVS     r2,#0
        0x000059b6:    4611        .F      MOV      r1,r2
        0x000059b8:    4618        .F      MOV      r0,r3
        0x000059ba:    9300        ..      STR      r3,[sp,#0]
        0x000059bc:    f7fdf9ba    ....    BL       DrvI2C_Ctrl ; 0x2d34
        0x000059c0:    bf00        ..      NOP      
        0x000059c2:    481e        .H      LDR      r0,[pc,#120] ; [0x5a3c] = 0x40120000
        0x000059c4:    6800        .h      LDR      r0,[r0,#0]
        0x000059c6:    0700        ..      LSLS     r0,r0,#28
        0x000059c8:    0fc0        ..      LSRS     r0,r0,#31
        0x000059ca:    d0fa        ..      BEQ      0x59c2 ; readByte + 162
        0x000059cc:    20ff        .       MOVS     r0,#0xff
        0x000059ce:    491b        .I      LDR      r1,[pc,#108] ; [0x5a3c] = 0x40120000
        0x000059d0:    6088        .`      STR      r0,[r1,#8]
        0x000059d2:    2301        .#      MOVS     r3,#1
        0x000059d4:    2200        ."      MOVS     r2,#0
        0x000059d6:    4611        .F      MOV      r1,r2
        0x000059d8:    4618        .F      MOV      r0,r3
        0x000059da:    9300        ..      STR      r3,[sp,#0]
        0x000059dc:    f7fdf9aa    ....    BL       DrvI2C_Ctrl ; 0x2d34
        0x000059e0:    bf00        ..      NOP      
        0x000059e2:    4816        .H      LDR      r0,[pc,#88] ; [0x5a3c] = 0x40120000
        0x000059e4:    6800        .h      LDR      r0,[r0,#0]
        0x000059e6:    0700        ..      LSLS     r0,r0,#28
        0x000059e8:    0fc0        ..      LSRS     r0,r0,#31
        0x000059ea:    d0fa        ..      BEQ      0x59e2 ; readByte + 194
        0x000059ec:    4813        .H      LDR      r0,[pc,#76] ; [0x5a3c] = 0x40120000
        0x000059ee:    6880        .h      LDR      r0,[r0,#8]
        0x000059f0:    b2c0        ..      UXTB     r0,r0
        0x000059f2:    9001        ..      STR      r0,[sp,#4]
        0x000059f4:    2300        .#      MOVS     r3,#0
        0x000059f6:    9300        ..      STR      r3,[sp,#0]
        0x000059f8:    2301        .#      MOVS     r3,#1
        0x000059fa:    461a        .F      MOV      r2,r3
        0x000059fc:    2100        .!      MOVS     r1,#0
        0x000059fe:    4618        .F      MOV      r0,r3
        0x00005a00:    f7fdf998    ....    BL       DrvI2C_Ctrl ; 0x2d34
        0x00005a04:    e005        ..      B        0x5a12 ; readByte + 242
        0x00005a06:    1c76        v.      ADDS     r6,r6,#1
        0x00005a08:    207d        }       MOVS     r0,#0x7d
        0x00005a0a:    00c0        ..      LSLS     r0,r0,#3
        0x00005a0c:    4286        .B      CMP      r6,r0
        0x00005a0e:    dd00        ..      BLE      0x5a12 ; readByte + 242
        0x00005a10:    e004        ..      B        0x5a1c ; readByte + 252
        0x00005a12:    480a        .H      LDR      r0,[pc,#40] ; [0x5a3c] = 0x40120000
        0x00005a14:    6800        .h      LDR      r0,[r0,#0]
        0x00005a16:    06c0        ..      LSLS     r0,r0,#27
        0x00005a18:    0fc0        ..      LSRS     r0,r0,#31
        0x00005a1a:    d1f4        ..      BNE      0x5a06 ; readByte + 230
        0x00005a1c:    bf00        ..      NOP      
        0x00005a1e:    2500        .%      MOVS     r5,#0
        0x00005a20:    e000        ..      B        0x5a24 ; readByte + 260
        0x00005a22:    1c6d        m.      ADDS     r5,r5,#1
        0x00005a24:    2d3c        <-      CMP      r5,#0x3c
        0x00005a26:    d3fc        ..      BCC      0x5a22 ; readByte + 258
        0x00005a28:    2001        .       MOVS     r0,#1
        0x00005a2a:    f7fdf93b    ..;.    BL       DrvI2C_Close ; 0x2ca4
        0x00005a2e:    9801        ..      LDR      r0,[sp,#4]
        0x00005a30:    bdfe        ..      POP      {r1-r7,pc}
    $d
        0x00005a32:    0000        ..      DCW    0
        0x00005a34:    20000000    ...     DCD    536870912
        0x00005a38:    0000c350    P...    DCD    50000
        0x00005a3c:    40120000    ...@    DCD    1074921472
    $t
    i.readGyroData
    readGyroData
        0x00005a40:    b51c        ..      PUSH     {r2-r4,lr}
        0x00005a42:    4604        .F      MOV      r4,r0
        0x00005a44:    2143        C!      MOVS     r1,#0x43
        0x00005a46:    2068        h       MOVS     r0,#0x68
        0x00005a48:    f7ffff6a    ..j.    BL       readByte ; 0x5920
        0x00005a4c:    4669        iF      MOV      r1,sp
        0x00005a4e:    7008        .p      STRB     r0,[r1,#0]
        0x00005a50:    2144        D!      MOVS     r1,#0x44
        0x00005a52:    2068        h       MOVS     r0,#0x68
        0x00005a54:    f7ffff64    ..d.    BL       readByte ; 0x5920
        0x00005a58:    4601        .F      MOV      r1,r0
        0x00005a5a:    4668        hF      MOV      r0,sp
        0x00005a5c:    7041        Ap      STRB     r1,[r0,#1]
        0x00005a5e:    2145        E!      MOVS     r1,#0x45
        0x00005a60:    2068        h       MOVS     r0,#0x68
        0x00005a62:    f7ffff5d    ..].    BL       readByte ; 0x5920
        0x00005a66:    4601        .F      MOV      r1,r0
        0x00005a68:    4668        hF      MOV      r0,sp
        0x00005a6a:    7081        .p      STRB     r1,[r0,#2]
        0x00005a6c:    2146        F!      MOVS     r1,#0x46
        0x00005a6e:    2068        h       MOVS     r0,#0x68
        0x00005a70:    f7ffff56    ..V.    BL       readByte ; 0x5920
        0x00005a74:    4601        .F      MOV      r1,r0
        0x00005a76:    4668        hF      MOV      r0,sp
        0x00005a78:    70c1        .p      STRB     r1,[r0,#3]
        0x00005a7a:    2147        G!      MOVS     r1,#0x47
        0x00005a7c:    2068        h       MOVS     r0,#0x68
        0x00005a7e:    f7ffff4f    ..O.    BL       readByte ; 0x5920
        0x00005a82:    4601        .F      MOV      r1,r0
        0x00005a84:    4668        hF      MOV      r0,sp
        0x00005a86:    7101        .q      STRB     r1,[r0,#4]
        0x00005a88:    2148        H!      MOVS     r1,#0x48
        0x00005a8a:    2068        h       MOVS     r0,#0x68
        0x00005a8c:    f7ffff48    ..H.    BL       readByte ; 0x5920
        0x00005a90:    4601        .F      MOV      r1,r0
        0x00005a92:    4668        hF      MOV      r0,sp
        0x00005a94:    7141        Aq      STRB     r1,[r0,#5]
        0x00005a96:    7800        .x      LDRB     r0,[r0,#0]
        0x00005a98:    0201        ..      LSLS     r1,r0,#8
        0x00005a9a:    4668        hF      MOV      r0,sp
        0x00005a9c:    7840        @x      LDRB     r0,[r0,#1]
        0x00005a9e:    4301        .C      ORRS     r1,r1,r0
        0x00005aa0:    b208        ..      SXTH     r0,r1
        0x00005aa2:    8020         .      STRH     r0,[r4,#0]
        0x00005aa4:    4668        hF      MOV      r0,sp
        0x00005aa6:    7880        .x      LDRB     r0,[r0,#2]
        0x00005aa8:    0201        ..      LSLS     r1,r0,#8
        0x00005aaa:    4668        hF      MOV      r0,sp
        0x00005aac:    78c0        .x      LDRB     r0,[r0,#3]
        0x00005aae:    4301        .C      ORRS     r1,r1,r0
        0x00005ab0:    b208        ..      SXTH     r0,r1
        0x00005ab2:    8060        `.      STRH     r0,[r4,#2]
        0x00005ab4:    4668        hF      MOV      r0,sp
        0x00005ab6:    7900        .y      LDRB     r0,[r0,#4]
        0x00005ab8:    0200        ..      LSLS     r0,r0,#8
        0x00005aba:    4669        iF      MOV      r1,sp
        0x00005abc:    7949        Iy      LDRB     r1,[r1,#5]
        0x00005abe:    4308        .C      ORRS     r0,r0,r1
        0x00005ac0:    b200        ..      SXTH     r0,r0
        0x00005ac2:    80a0        ..      STRH     r0,[r4,#4]
        0x00005ac4:    bd1c        ..      POP      {r2-r4,pc}
    i.readMagData
    readMagData
        0x00005ac6:    b57c        |.      PUSH     {r2-r6,lr}
        0x00005ac8:    4604        .F      MOV      r4,r0
        0x00005aca:    2102        .!      MOVS     r1,#2
        0x00005acc:    200c        .       MOVS     r0,#0xc
        0x00005ace:    f7ffff27    ..'.    BL       readByte ; 0x5920
        0x00005ad2:    07c0        ..      LSLS     r0,r0,#31
        0x00005ad4:    0fc0        ..      LSRS     r0,r0,#31
        0x00005ad6:    d04b        K.      BEQ      0x5b70 ; readMagData + 170
        0x00005ad8:    2103        .!      MOVS     r1,#3
        0x00005ada:    200c        .       MOVS     r0,#0xc
        0x00005adc:    f7ffff20    .. .    BL       readByte ; 0x5920
        0x00005ae0:    4669        iF      MOV      r1,sp
        0x00005ae2:    7008        .p      STRB     r0,[r1,#0]
        0x00005ae4:    2104        .!      MOVS     r1,#4
        0x00005ae6:    200c        .       MOVS     r0,#0xc
        0x00005ae8:    f7ffff1a    ....    BL       readByte ; 0x5920
        0x00005aec:    4601        .F      MOV      r1,r0
        0x00005aee:    4668        hF      MOV      r0,sp
        0x00005af0:    7041        Ap      STRB     r1,[r0,#1]
        0x00005af2:    2105        .!      MOVS     r1,#5
        0x00005af4:    200c        .       MOVS     r0,#0xc
        0x00005af6:    f7ffff13    ....    BL       readByte ; 0x5920
        0x00005afa:    4601        .F      MOV      r1,r0
        0x00005afc:    4668        hF      MOV      r0,sp
        0x00005afe:    7081        .p      STRB     r1,[r0,#2]
        0x00005b00:    2106        .!      MOVS     r1,#6
        0x00005b02:    200c        .       MOVS     r0,#0xc
        0x00005b04:    f7ffff0c    ....    BL       readByte ; 0x5920
        0x00005b08:    4601        .F      MOV      r1,r0
        0x00005b0a:    4668        hF      MOV      r0,sp
        0x00005b0c:    70c1        .p      STRB     r1,[r0,#3]
        0x00005b0e:    2107        .!      MOVS     r1,#7
        0x00005b10:    200c        .       MOVS     r0,#0xc
        0x00005b12:    f7ffff05    ....    BL       readByte ; 0x5920
        0x00005b16:    4601        .F      MOV      r1,r0
        0x00005b18:    4668        hF      MOV      r0,sp
        0x00005b1a:    7101        .q      STRB     r1,[r0,#4]
        0x00005b1c:    2108        .!      MOVS     r1,#8
        0x00005b1e:    200c        .       MOVS     r0,#0xc
        0x00005b20:    f7fffefe    ....    BL       readByte ; 0x5920
        0x00005b24:    4601        .F      MOV      r1,r0
        0x00005b26:    4668        hF      MOV      r0,sp
        0x00005b28:    7141        Aq      STRB     r1,[r0,#5]
        0x00005b2a:    2109        .!      MOVS     r1,#9
        0x00005b2c:    200c        .       MOVS     r0,#0xc
        0x00005b2e:    f7fffef7    ....    BL       readByte ; 0x5920
        0x00005b32:    4601        .F      MOV      r1,r0
        0x00005b34:    4668        hF      MOV      r0,sp
        0x00005b36:    7181        .q      STRB     r1,[r0,#6]
        0x00005b38:    7985        .y      LDRB     r5,[r0,#6]
        0x00005b3a:    2008        .       MOVS     r0,#8
        0x00005b3c:    4205        .B      TST      r5,r0
        0x00005b3e:    d117        ..      BNE      0x5b70 ; readMagData + 170
        0x00005b40:    4668        hF      MOV      r0,sp
        0x00005b42:    7840        @x      LDRB     r0,[r0,#1]
        0x00005b44:    0201        ..      LSLS     r1,r0,#8
        0x00005b46:    4668        hF      MOV      r0,sp
        0x00005b48:    7800        .x      LDRB     r0,[r0,#0]
        0x00005b4a:    4301        .C      ORRS     r1,r1,r0
        0x00005b4c:    b208        ..      SXTH     r0,r1
        0x00005b4e:    8020         .      STRH     r0,[r4,#0]
        0x00005b50:    4668        hF      MOV      r0,sp
        0x00005b52:    78c0        .x      LDRB     r0,[r0,#3]
        0x00005b54:    0201        ..      LSLS     r1,r0,#8
        0x00005b56:    4668        hF      MOV      r0,sp
        0x00005b58:    7880        .x      LDRB     r0,[r0,#2]
        0x00005b5a:    4301        .C      ORRS     r1,r1,r0
        0x00005b5c:    b208        ..      SXTH     r0,r1
        0x00005b5e:    8060        `.      STRH     r0,[r4,#2]
        0x00005b60:    4668        hF      MOV      r0,sp
        0x00005b62:    7940        @y      LDRB     r0,[r0,#5]
        0x00005b64:    0200        ..      LSLS     r0,r0,#8
        0x00005b66:    4669        iF      MOV      r1,sp
        0x00005b68:    7909        .y      LDRB     r1,[r1,#4]
        0x00005b6a:    4308        .C      ORRS     r0,r0,r1
        0x00005b6c:    b200        ..      SXTH     r0,r0
        0x00005b6e:    80a0        ..      STRH     r0,[r4,#4]
        0x00005b70:    bd7c        |.      POP      {r2-r6,pc}
    i.readTempData
    readTempData
        0x00005b72:    b508        ..      PUSH     {r3,lr}
        0x00005b74:    2141        A!      MOVS     r1,#0x41
        0x00005b76:    2068        h       MOVS     r0,#0x68
        0x00005b78:    f7fffed2    ....    BL       readByte ; 0x5920
        0x00005b7c:    4669        iF      MOV      r1,sp
        0x00005b7e:    7008        .p      STRB     r0,[r1,#0]
        0x00005b80:    2142        B!      MOVS     r1,#0x42
        0x00005b82:    2068        h       MOVS     r0,#0x68
        0x00005b84:    f7fffecc    ....    BL       readByte ; 0x5920
        0x00005b88:    4601        .F      MOV      r1,r0
        0x00005b8a:    4668        hF      MOV      r0,sp
        0x00005b8c:    7041        Ap      STRB     r1,[r0,#1]
        0x00005b8e:    7800        .x      LDRB     r0,[r0,#0]
        0x00005b90:    0201        ..      LSLS     r1,r0,#8
        0x00005b92:    4668        hF      MOV      r0,sp
        0x00005b94:    7840        @x      LDRB     r0,[r0,#1]
        0x00005b96:    1808        ..      ADDS     r0,r1,r0
        0x00005b98:    b200        ..      SXTH     r0,r0
        0x00005b9a:    bd08        ..      POP      {r3,pc}
    i.resetMPU9250
    resetMPU9250
        0x00005b9c:    b510        ..      PUSH     {r4,lr}
        0x00005b9e:    2280        ."      MOVS     r2,#0x80
        0x00005ba0:    216b        k!      MOVS     r1,#0x6b
        0x00005ba2:    2068        h       MOVS     r0,#0x68
        0x00005ba4:    f000f876    ..v.    BL       writeByte ; 0x5c94
        0x00005ba8:    bd10        ..      POP      {r4,pc}
        0x00005baa:    0000        ..      MOVS     r0,r0
    i.sin
    sin
        0x00005bac:    b500        ..      PUSH     {lr}
        0x00005bae:    004a        J.      LSLS     r2,r1,#1
        0x00005bb0:    4b25        %K      LDR      r3,[pc,#148] ; [0x5c48] = 0x3fe921fb
        0x00005bb2:    0852        R.      LSRS     r2,r2,#1
        0x00005bb4:    b087        ..      SUB      sp,sp,#0x1c
        0x00005bb6:    429a        .B      CMP      r2,r3
        0x00005bb8:    dc03        ..      BGT      0x5bc2 ; sin + 22
        0x00005bba:    2300        .#      MOVS     r3,#0
        0x00005bbc:    461a        .F      MOV      r2,r3
        0x00005bbe:    9300        ..      STR      r3,[sp,#0]
        0x00005bc0:    e02d        -.      B        0x5c1e ; sin + 114
        0x00005bc2:    4b22        "K      LDR      r3,[pc,#136] ; [0x5c4c] = 0x7ff00000
        0x00005bc4:    429a        .B      CMP      r2,r3
        0x00005bc6:    d10c        ..      BNE      0x5be2 ; sin + 54
        0x00005bc8:    2800        .(      CMP      r0,#0
        0x00005bca:    d10c        ..      BNE      0x5be6 ; sin + 58
        0x00005bcc:    2001        .       MOVS     r0,#1
        0x00005bce:    f7fbfb45    ..E.    BL       __set_errno ; 0x125c
        0x00005bd2:    2200        ."      MOVS     r2,#0
        0x00005bd4:    4613        .F      MOV      r3,r2
        0x00005bd6:    4610        .F      MOV      r0,r2
        0x00005bd8:    4611        .F      MOV      r1,r2
        0x00005bda:    f7fafe95    ....    BL       __aeabi_ddiv ; 0x908
        0x00005bde:    b007        ..      ADD      sp,sp,#0x1c
        0x00005be0:    bd00        ..      POP      {pc}
        0x00005be2:    429a        .B      CMP      r2,r3
        0x00005be4:    db04        ..      BLT      0x5bf0 ; sin + 68
        0x00005be6:    2201        ."      MOVS     r2,#1
        0x00005be8:    f7fbfdc8    ....    BL       __ARM_scalbn ; 0x177c
        0x00005bec:    b007        ..      ADD      sp,sp,#0x1c
        0x00005bee:    bd00        ..      POP      {pc}
        0x00005bf0:    aa02        ..      ADD      r2,sp,#8
        0x00005bf2:    f7fef9c9    ....    BL       __ieee754_rem_pio2 ; 0x3f88
        0x00005bf6:    0780        ..      LSLS     r0,r0,#30
        0x00005bf8:    0f80        ..      LSRS     r0,r0,#30
        0x00005bfa:    d00c        ..      BEQ      0x5c16 ; sin + 106
        0x00005bfc:    2801        .(      CMP      r0,#1
        0x00005bfe:    d012        ..      BEQ      0x5c26 ; sin + 122
        0x00005c00:    2802        .(      CMP      r0,#2
        0x00005c02:    d016        ..      BEQ      0x5c32 ; sin + 134
        0x00005c04:    a802        ..      ADD      r0,sp,#8
        0x00005c06:    c80f        ..      LDM      r0,{r0-r3}
        0x00005c08:    f7fefb8a    ....    BL       __kernel_cos ; 0x4320
        0x00005c0c:    2201        ."      MOVS     r2,#1
        0x00005c0e:    07d2        ..      LSLS     r2,r2,#31
        0x00005c10:    4051        Q@      EORS     r1,r1,r2
        0x00005c12:    b007        ..      ADD      sp,sp,#0x1c
        0x00005c14:    bd00        ..      POP      {pc}
        0x00005c16:    2301        .#      MOVS     r3,#1
        0x00005c18:    9300        ..      STR      r3,[sp,#0]
        0x00005c1a:    a802        ..      ADD      r0,sp,#8
        0x00005c1c:    c80f        ..      LDM      r0,{r0-r3}
        0x00005c1e:    f7fefc4f    ..O.    BL       __kernel_sin ; 0x44c0
        0x00005c22:    b007        ..      ADD      sp,sp,#0x1c
        0x00005c24:    bd00        ..      POP      {pc}
        0x00005c26:    a802        ..      ADD      r0,sp,#8
        0x00005c28:    c80f        ..      LDM      r0,{r0-r3}
        0x00005c2a:    f7fefb79    ..y.    BL       __kernel_cos ; 0x4320
        0x00005c2e:    b007        ..      ADD      sp,sp,#0x1c
        0x00005c30:    bd00        ..      POP      {pc}
        0x00005c32:    2301        .#      MOVS     r3,#1
        0x00005c34:    9300        ..      STR      r3,[sp,#0]
        0x00005c36:    a802        ..      ADD      r0,sp,#8
        0x00005c38:    c80f        ..      LDM      r0,{r0-r3}
        0x00005c3a:    f7fefc41    ..A.    BL       __kernel_sin ; 0x44c0
        0x00005c3e:    2201        ."      MOVS     r2,#1
        0x00005c40:    07d2        ..      LSLS     r2,r2,#31
        0x00005c42:    4051        Q@      EORS     r1,r1,r2
        0x00005c44:    b007        ..      ADD      sp,sp,#0x1c
        0x00005c46:    bd00        ..      POP      {pc}
    $d
        0x00005c48:    3fe921fb    .!.?    DCD    1072243195
        0x00005c4c:    7ff00000    ....    DCD    2146435072
    $t
    i.sqrt
    sqrt
        0x00005c50:    b5f8        ..      PUSH     {r3-r7,lr}
        0x00005c52:    4606        .F      MOV      r6,r0
        0x00005c54:    460c        .F      MOV      r4,r1
        0x00005c56:    f7fbfdc3    ....    BL       _dsqrt ; 0x17e0
        0x00005c5a:    0005        ..      MOVS     r5,r0
        0x00005c5c:    460f        .F      MOV      r7,r1
        0x00005c5e:    d000        ..      BEQ      0x5c62 ; sqrt + 18
        0x00005c60:    2001        .       MOVS     r0,#1
        0x00005c62:    4301        .C      ORRS     r1,r1,r0
        0x00005c64:    0049        I.      LSLS     r1,r1,#1
        0x00005c66:    480a        .H      LDR      r0,[pc,#40] ; [0x5c90] = 0x7ff00000
        0x00005c68:    0849        I.      LSRS     r1,r1,#1
        0x00005c6a:    1a41        A.      SUBS     r1,r0,r1
        0x00005c6c:    d50c        ..      BPL      0x5c88 ; sqrt + 56
        0x00005c6e:    2e00        ..      CMP      r6,#0
        0x00005c70:    d001        ..      BEQ      0x5c76 ; sqrt + 38
        0x00005c72:    2101        .!      MOVS     r1,#1
        0x00005c74:    e000        ..      B        0x5c78 ; sqrt + 40
        0x00005c76:    2100        .!      MOVS     r1,#0
        0x00005c78:    430c        .C      ORRS     r4,r4,r1
        0x00005c7a:    0061        a.      LSLS     r1,r4,#1
        0x00005c7c:    0849        I.      LSRS     r1,r1,#1
        0x00005c7e:    1a40        @.      SUBS     r0,r0,r1
        0x00005c80:    d402        ..      BMI      0x5c88 ; sqrt + 56
        0x00005c82:    2001        .       MOVS     r0,#1
        0x00005c84:    f7fbfaea    ....    BL       __set_errno ; 0x125c
        0x00005c88:    4628        (F      MOV      r0,r5
        0x00005c8a:    4639        9F      MOV      r1,r7
        0x00005c8c:    bdf8        ..      POP      {r3-r7,pc}
    $d
        0x00005c8e:    0000        ..      DCW    0
        0x00005c90:    7ff00000    ....    DCD    2146435072
    $t
    i.writeByte
    writeByte
        0x00005c94:    b5f7        ..      PUSH     {r0-r2,r4-r7,lr}
        0x00005c96:    b082        ..      SUB      sp,sp,#8
        0x00005c98:    4605        .F      MOV      r5,r0
        0x00005c9a:    460f        .F      MOV      r7,r1
        0x00005c9c:    2600        .&      MOVS     r6,#0
        0x00005c9e:    f7fdf8f1    ....    BL       DrvSYS_GetHCLKFreq ; 0x2e84
        0x00005ca2:    4930        0I      LDR      r1,[pc,#192] ; [0x5d64] = 0x20000000
        0x00005ca4:    6008        .`      STR      r0,[r1,#0]
        0x00005ca6:    4930        0I      LDR      r1,[pc,#192] ; [0x5d68] = 0xc350
        0x00005ca8:    2001        .       MOVS     r0,#1
        0x00005caa:    f7fdf86d    ..m.    BL       DrvI2C_Open ; 0x2d88
        0x00005cae:    2301        .#      MOVS     r3,#1
        0x00005cb0:    2200        ."      MOVS     r2,#0
        0x00005cb2:    4619        .F      MOV      r1,r3
        0x00005cb4:    4618        .F      MOV      r0,r3
        0x00005cb6:    9300        ..      STR      r3,[sp,#0]
        0x00005cb8:    f7fdf83c    ..<.    BL       DrvI2C_Ctrl ; 0x2d34
        0x00005cbc:    bf00        ..      NOP      
        0x00005cbe:    482b        +H      LDR      r0,[pc,#172] ; [0x5d6c] = 0x40120000
        0x00005cc0:    6800        .h      LDR      r0,[r0,#0]
        0x00005cc2:    0700        ..      LSLS     r0,r0,#28
        0x00005cc4:    0fc0        ..      LSRS     r0,r0,#31
        0x00005cc6:    d0fa        ..      BEQ      0x5cbe ; writeByte + 42
        0x00005cc8:    0068        h.      LSLS     r0,r5,#1
        0x00005cca:    4928        (I      LDR      r1,[pc,#160] ; [0x5d6c] = 0x40120000
        0x00005ccc:    6088        .`      STR      r0,[r1,#8]
        0x00005cce:    2301        .#      MOVS     r3,#1
        0x00005cd0:    2200        ."      MOVS     r2,#0
        0x00005cd2:    4611        .F      MOV      r1,r2
        0x00005cd4:    4618        .F      MOV      r0,r3
        0x00005cd6:    9300        ..      STR      r3,[sp,#0]
        0x00005cd8:    f7fdf82c    ..,.    BL       DrvI2C_Ctrl ; 0x2d34
        0x00005cdc:    bf00        ..      NOP      
        0x00005cde:    4823        #H      LDR      r0,[pc,#140] ; [0x5d6c] = 0x40120000
        0x00005ce0:    6800        .h      LDR      r0,[r0,#0]
        0x00005ce2:    0700        ..      LSLS     r0,r0,#28
        0x00005ce4:    0fc0        ..      LSRS     r0,r0,#31
        0x00005ce6:    d0fa        ..      BEQ      0x5cde ; writeByte + 74
        0x00005ce8:    4820         H      LDR      r0,[pc,#128] ; [0x5d6c] = 0x40120000
        0x00005cea:    6087        .`      STR      r7,[r0,#8]
        0x00005cec:    2301        .#      MOVS     r3,#1
        0x00005cee:    2200        ."      MOVS     r2,#0
        0x00005cf0:    4611        .F      MOV      r1,r2
        0x00005cf2:    4618        .F      MOV      r0,r3
        0x00005cf4:    9300        ..      STR      r3,[sp,#0]
        0x00005cf6:    f7fdf81d    ....    BL       DrvI2C_Ctrl ; 0x2d34
        0x00005cfa:    bf00        ..      NOP      
        0x00005cfc:    481b        .H      LDR      r0,[pc,#108] ; [0x5d6c] = 0x40120000
        0x00005cfe:    6800        .h      LDR      r0,[r0,#0]
        0x00005d00:    0700        ..      LSLS     r0,r0,#28
        0x00005d02:    0fc0        ..      LSRS     r0,r0,#31
        0x00005d04:    d0fa        ..      BEQ      0x5cfc ; writeByte + 104
        0x00005d06:    4919        .I      LDR      r1,[pc,#100] ; [0x5d6c] = 0x40120000
        0x00005d08:    9804        ..      LDR      r0,[sp,#0x10]
        0x00005d0a:    6088        .`      STR      r0,[r1,#8]
        0x00005d0c:    2301        .#      MOVS     r3,#1
        0x00005d0e:    2200        ."      MOVS     r2,#0
        0x00005d10:    4611        .F      MOV      r1,r2
        0x00005d12:    4618        .F      MOV      r0,r3
        0x00005d14:    9300        ..      STR      r3,[sp,#0]
        0x00005d16:    f7fdf80d    ....    BL       DrvI2C_Ctrl ; 0x2d34
        0x00005d1a:    bf00        ..      NOP      
        0x00005d1c:    4813        .H      LDR      r0,[pc,#76] ; [0x5d6c] = 0x40120000
        0x00005d1e:    6800        .h      LDR      r0,[r0,#0]
        0x00005d20:    0700        ..      LSLS     r0,r0,#28
        0x00005d22:    0fc0        ..      LSRS     r0,r0,#31
        0x00005d24:    d0fa        ..      BEQ      0x5d1c ; writeByte + 136
        0x00005d26:    2300        .#      MOVS     r3,#0
        0x00005d28:    9300        ..      STR      r3,[sp,#0]
        0x00005d2a:    2301        .#      MOVS     r3,#1
        0x00005d2c:    461a        .F      MOV      r2,r3
        0x00005d2e:    2100        .!      MOVS     r1,#0
        0x00005d30:    4618        .F      MOV      r0,r3
        0x00005d32:    f7fcffff    ....    BL       DrvI2C_Ctrl ; 0x2d34
        0x00005d36:    e005        ..      B        0x5d44 ; writeByte + 176
        0x00005d38:    1c76        v.      ADDS     r6,r6,#1
        0x00005d3a:    207d        }       MOVS     r0,#0x7d
        0x00005d3c:    00c0        ..      LSLS     r0,r0,#3
        0x00005d3e:    4286        .B      CMP      r6,r0
        0x00005d40:    dd00        ..      BLE      0x5d44 ; writeByte + 176
        0x00005d42:    e004        ..      B        0x5d4e ; writeByte + 186
        0x00005d44:    4809        .H      LDR      r0,[pc,#36] ; [0x5d6c] = 0x40120000
        0x00005d46:    6800        .h      LDR      r0,[r0,#0]
        0x00005d48:    06c0        ..      LSLS     r0,r0,#27
        0x00005d4a:    0fc0        ..      LSRS     r0,r0,#31
        0x00005d4c:    d1f4        ..      BNE      0x5d38 ; writeByte + 164
        0x00005d4e:    bf00        ..      NOP      
        0x00005d50:    2400        .$      MOVS     r4,#0
        0x00005d52:    e000        ..      B        0x5d56 ; writeByte + 194
        0x00005d54:    1c64        d.      ADDS     r4,r4,#1
        0x00005d56:    2c3c        <,      CMP      r4,#0x3c
        0x00005d58:    d3fc        ..      BCC      0x5d54 ; writeByte + 192
        0x00005d5a:    2001        .       MOVS     r0,#1
        0x00005d5c:    f7fcffa2    ....    BL       DrvI2C_Close ; 0x2ca4
        0x00005d60:    b005        ..      ADD      sp,sp,#0x14
        0x00005d62:    bdf0        ..      POP      {r4-r7,pc}
    $d
        0x00005d64:    20000000    ...     DCD    536870912
        0x00005d68:    0000c350    P...    DCD    50000
        0x00005d6c:    40120000    ...@    DCD    1074921472
    $t
    locale$$code
    _get_lc_numeric
        0x00005d70:    b510        ..      PUSH     {r4,lr}
        0x00005d72:    2900        .)      CMP      r1,#0
        0x00005d74:    d00a        ..      BEQ      0x5d8c ; _get_lc_numeric + 28
        0x00005d76:    7808        .x      LDRB     r0,[r1,#0]
        0x00005d78:    2800        .(      CMP      r0,#0
        0x00005d7a:    d007        ..      BEQ      0x5d8c ; _get_lc_numeric + 28
        0x00005d7c:    4805        .H      LDR      r0,[pc,#20] ; [0x5d94] = 0x63e
        0x00005d7e:    4478        xD      ADD      r0,r0,pc
        0x00005d80:    f7fcf9ae    ....    BL       strcmp ; 0x20e0
        0x00005d84:    2800        .(      CMP      r0,#0
        0x00005d86:    d001        ..      BEQ      0x5d8c ; _get_lc_numeric + 28
        0x00005d88:    2000        .       MOVS     r0,#0
        0x00005d8a:    bd10        ..      POP      {r4,pc}
        0x00005d8c:    4802        .H      LDR      r0,[pc,#8] ; [0x5d98] = 0x636
        0x00005d8e:    4478        xD      ADD      r0,r0,pc
        0x00005d90:    bd10        ..      POP      {r4,pc}
    $d
        0x00005d92:    0000        ..      DCW    0
        0x00005d94:    0000063e    >...    DCD    1598
        0x00005d98:    00000636    6...    DCD    1590
    $t
    x$fpl$fadd
    __aeabi_fadd
    _fadd
        0x00005d9c:    b570        p.      PUSH     {r4-r6,lr}
        0x00005d9e:    2501        .%      MOVS     r5,#1
        0x00005da0:    0004        ..      MOVS     r4,r0
        0x00005da2:    07ed        ..      LSLS     r5,r5,#31
        0x00005da4:    404c        L@      EORS     r4,r4,r1
        0x00005da6:    d420         .      BMI      0x5dea ; _fadd1 + 66
    _fadd1
        0x00005da8:    1a44        D.      SUBS     r4,r0,r1
        0x00005daa:    d201        ..      BCS      0x5db0 ; _fadd1 + 8
        0x00005dac:    1b00        ..      SUBS     r0,r0,r4
        0x00005dae:    1909        ..      ADDS     r1,r1,r4
        0x00005db0:    0dc6        ..      LSRS     r6,r0,#23
        0x00005db2:    004b        K.      LSLS     r3,r1,#1
        0x00005db4:    b2f2        ..      UXTB     r2,r6
        0x00005db6:    2aff        .*      CMP      r2,#0xff
        0x00005db8:    d029        ).      BEQ      0x5e0e ; _fadd1 + 102
        0x00005dba:    0e1b        ..      LSRS     r3,r3,#24
        0x00005dbc:    d02c        ,.      BEQ      0x5e18 ; _fadd1 + 112
        0x00005dbe:    0200        ..      LSLS     r0,r0,#8
        0x00005dc0:    020c        ..      LSLS     r4,r1,#8
        0x00005dc2:    1ad3        ..      SUBS     r3,r2,r3
        0x00005dc4:    432c        ,C      ORRS     r4,r4,r5
        0x00005dc6:    40dc        .@      LSRS     r4,r4,r3
        0x00005dc8:    4328        (C      ORRS     r0,r0,r5
        0x00005dca:    1905        ..      ADDS     r5,r0,r4
        0x00005dcc:    d210        ..      BCS      0x5df0 ; _fadd1 + 72
        0x00005dce:    0a28        (.      LSRS     r0,r5,#8
        0x00005dd0:    d302        ..      BCC      0x5dd8 ; _fadd1 + 48
        0x00005dd2:    1c40        @.      ADDS     r0,r0,#1
        0x00005dd4:    066d        m.      LSLS     r5,r5,#25
        0x00005dd6:    d011        ..      BEQ      0x5dfc ; _fadd1 + 84
        0x00005dd8:    1e76        v.      SUBS     r6,r6,#1
        0x00005dda:    05f6        ..      LSLS     r6,r6,#23
        0x00005ddc:    1980        ..      ADDS     r0,r0,r6
        0x00005dde:    2aff        .*      CMP      r2,#0xff
        0x00005de0:    da00        ..      BGE      0x5de4 ; _fadd1 + 60
        0x00005de2:    bd70        p.      POP      {r4-r6,pc}
        0x00005de4:    0dc0        ..      LSRS     r0,r0,#23
        0x00005de6:    05c0        ..      LSLS     r0,r0,#23
        0x00005de8:    bd70        p.      POP      {r4-r6,pc}
        0x00005dea:    4069        i@      EORS     r1,r1,r5
        0x00005dec:    f000f8d0    ....    BL       _fsub1 ; 0x5f90
        0x00005df0:    2001        .       MOVS     r0,#1
        0x00005df2:    4305        .C      ORRS     r5,r5,r0
        0x00005df4:    41c5        .A      RORS     r5,r5,r0
        0x00005df6:    1c52        R.      ADDS     r2,r2,#1
        0x00005df8:    1c76        v.      ADDS     r6,r6,#1
        0x00005dfa:    e7e8        ..      B        0x5dce ; _fadd1 + 38
        0x00005dfc:    0864        d.      LSRS     r4,r4,#1
        0x00005dfe:    409c        .@      LSLS     r4,r4,r3
        0x00005e00:    01c9        ..      LSLS     r1,r1,#7
        0x00005e02:    4061        a@      EORS     r1,r1,r4
        0x00005e04:    0089        ..      LSLS     r1,r1,#2
        0x00005e06:    d1e7        ..      BNE      0x5dd8 ; _fadd1 + 48
        0x00005e08:    2401        .$      MOVS     r4,#1
        0x00005e0a:    43a0        .C      BICS     r0,r0,r4
        0x00005e0c:    e7e4        ..      B        0x5dd8 ; _fadd1 + 48
        0x00005e0e:    0e1b        ..      LSRS     r3,r3,#24
        0x00005e10:    0244        D.      LSLS     r4,r0,#9
        0x00005e12:    d000        ..      BEQ      0x5e16 ; _fadd1 + 110
        0x00005e14:    4803        .H      LDR      r0,[pc,#12] ; [0x5e24] = 0x7fc00000
        0x00005e16:    bd70        p.      POP      {r4-r6,pc}
        0x00005e18:    2a00        .*      CMP      r2,#0
        0x00005e1a:    d1fc        ..      BNE      0x5e16 ; _fadd1 + 110
        0x00005e1c:    0fc0        ..      LSRS     r0,r0,#31
        0x00005e1e:    07c0        ..      LSLS     r0,r0,#31
        0x00005e20:    bd70        p.      POP      {r4-r6,pc}
        0x00005e22:    bf00        ..      NOP      
    $d
        0x00005e24:    7fc00000    ....    DCD    2143289344
    $t
    x$fpl$fleqf
    __aeabi_cfcmple
    _fcmple
        0x00005e28:    2301        .#      MOVS     r3,#1
        0x00005e2a:    0002        ..      MOVS     r2,r0
        0x00005e2c:    05db        ..      LSLS     r3,r3,#23
        0x00005e2e:    430a        .C      ORRS     r2,r2,r1
        0x00005e30:    d40d        ..      BMI      0x5e4e ; __aeabi_cfcmple + 38
        0x00005e32:    42da        .B      CMN      r2,r3
        0x00005e34:    d403        ..      BMI      0x5e3e ; __aeabi_cfcmple + 22
        0x00005e36:    429a        .B      CMP      r2,r3
        0x00005e38:    d407        ..      BMI      0x5e4a ; __aeabi_cfcmple + 34
        0x00005e3a:    4288        .B      CMP      r0,r1
        0x00005e3c:    4770        pG      BX       lr
        0x00005e3e:    42d8        .B      CMN      r0,r3
        0x00005e40:    d414        ..      BMI      0x5e6c ; __aeabi_cfcmple + 68
        0x00005e42:    42d9        .B      CMN      r1,r3
        0x00005e44:    d412        ..      BMI      0x5e6c ; __aeabi_cfcmple + 68
        0x00005e46:    4288        .B      CMP      r0,r1
        0x00005e48:    4770        pG      BX       lr
        0x00005e4a:    4280        .B      CMP      r0,r0
        0x00005e4c:    4770        pG      BX       lr
        0x00005e4e:    42da        .B      CMN      r2,r3
        0x00005e50:    d503        ..      BPL      0x5e5a ; __aeabi_cfcmple + 50
        0x00005e52:    429a        .B      CMP      r2,r3
        0x00005e54:    d5f9        ..      BPL      0x5e4a ; __aeabi_cfcmple + 34
        0x00005e56:    4281        .B      CMP      r1,r0
        0x00005e58:    4770        pG      BX       lr
        0x00005e5a:    005b        [.      LSLS     r3,r3,#1
        0x00005e5c:    0042        B.      LSLS     r2,r0,#1
        0x00005e5e:    42da        .B      CMN      r2,r3
        0x00005e60:    d204        ..      BCS      0x5e6c ; __aeabi_cfcmple + 68
        0x00005e62:    004a        J.      LSLS     r2,r1,#1
        0x00005e64:    42da        .B      CMN      r2,r3
        0x00005e66:    d201        ..      BCS      0x5e6c ; __aeabi_cfcmple + 68
        0x00005e68:    4281        .B      CMP      r1,r0
        0x00005e6a:    4770        pG      BX       lr
        0x00005e6c:    b510        ..      PUSH     {r4,lr}
        0x00005e6e:    4a02        .J      LDR      r2,[pc,#8] ; [0x5e78] = 0x4160009
        0x00005e70:    f7fbfd34    ..4.    BL       __fpl_fcmp_InfNaN ; 0x18dc
        0x00005e74:    bd10        ..      POP      {r4,pc}
        0x00005e76:    bf00        ..      NOP      
    $d
        0x00005e78:    04160009    ....    DCD    68550665
    $t
    x$fpl$fmul
    __aeabi_fmul
    _fmul
        0x00005e7c:    b570        p.      PUSH     {r4-r6,lr}
        0x00005e7e:    0042        B.      LSLS     r2,r0,#1
        0x00005e80:    4164        dA      ADCS     r4,r4,r4
        0x00005e82:    004b        K.      LSLS     r3,r1,#1
        0x00005e84:    415c        \A      ADCS     r4,r4,r3
        0x00005e86:    0e12        ..      LSRS     r2,r2,#24
        0x00005e88:    d039        9.      BEQ      0x5efe ; __aeabi_fmul + 130
        0x00005e8a:    0e1b        ..      LSRS     r3,r3,#24
        0x00005e8c:    d038        8.      BEQ      0x5f00 ; __aeabi_fmul + 132
        0x00005e8e:    2aff        .*      CMP      r2,#0xff
        0x00005e90:    d03c        <.      BEQ      0x5f0c ; __aeabi_fmul + 144
        0x00005e92:    2bff        .+      CMP      r3,#0xff
        0x00005e94:    d03a        :.      BEQ      0x5f0c ; __aeabi_fmul + 144
        0x00005e96:    0240        @.      LSLS     r0,r0,#9
        0x00005e98:    0249        I.      LSLS     r1,r1,#9
        0x00005e9a:    0a40        @.      LSRS     r0,r0,#9
        0x00005e9c:    0a49        I.      LSRS     r1,r1,#9
        0x00005e9e:    0006        ..      MOVS     r6,r0
        0x00005ea0:    1845        E.      ADDS     r5,r0,r1
        0x00005ea2:    434e        NC      MULS     r6,r1,r6
        0x00005ea4:    0a00        ..      LSRS     r0,r0,#8
        0x00005ea6:    0a09        ..      LSRS     r1,r1,#8
        0x00005ea8:    18d2        ..      ADDS     r2,r2,r3
        0x00005eaa:    4348        HC      MULS     r0,r1,r0
        0x00005eac:    01ed        ..      LSLS     r5,r5,#7
        0x00005eae:    3a7f        .:      SUBS     r2,r2,#0x7f
        0x00005eb0:    0401        ..      LSLS     r1,r0,#16
        0x00005eb2:    1a76        v.      SUBS     r6,r6,r1
        0x00005eb4:    1940        @.      ADDS     r0,r0,r5
        0x00005eb6:    0c31        1.      LSRS     r1,r6,#16
        0x00005eb8:    1843        C.      ADDS     r3,r0,r1
        0x00005eba:    0f99        ..      LSRS     r1,r3,#30
        0x00005ebc:    d004        ..      BEQ      0x5ec8 ; __aeabi_fmul + 76
        0x00005ebe:    2101        .!      MOVS     r1,#1
        0x00005ec0:    085b        [.      LSRS     r3,r3,#1
        0x00005ec2:    0749        I.      LSLS     r1,r1,#29
        0x00005ec4:    1a5b        [.      SUBS     r3,r3,r1
        0x00005ec6:    1c52        R.      ADDS     r2,r2,#1
        0x00005ec8:    09d8        ..      LSRS     r0,r3,#7
        0x00005eca:    d304        ..      BCC      0x5ed6 ; __aeabi_fmul + 90
        0x00005ecc:    1c40        @.      ADDS     r0,r0,#1
        0x00005ece:    03f5        ..      LSLS     r5,r6,#15
        0x00005ed0:    d101        ..      BNE      0x5ed6 ; __aeabi_fmul + 90
        0x00005ed2:    069d        ..      LSLS     r5,r3,#26
        0x00005ed4:    d007        ..      BEQ      0x5ee6 ; __aeabi_fmul + 106
        0x00005ed6:    2aff        .*      CMP      r2,#0xff
        0x00005ed8:    d208        ..      BCS      0x5eec ; __aeabi_fmul + 112
        0x00005eda:    05d5        ..      LSLS     r5,r2,#23
        0x00005edc:    d006        ..      BEQ      0x5eec ; __aeabi_fmul + 112
        0x00005ede:    07e4        ..      LSLS     r4,r4,#31
        0x00005ee0:    4320         C      ORRS     r0,r0,r4
        0x00005ee2:    1940        @.      ADDS     r0,r0,r5
        0x00005ee4:    bd70        p.      POP      {r4-r6,pc}
        0x00005ee6:    2501        .%      MOVS     r5,#1
        0x00005ee8:    43a8        .C      BICS     r0,r0,r5
        0x00005eea:    e7f4        ..      B        0x5ed6 ; __aeabi_fmul + 90
        0x00005eec:    2a00        .*      CMP      r2,#0
        0x00005eee:    dc01        ..      BGT      0x5ef4 ; __aeabi_fmul + 120
        0x00005ef0:    07e0        ..      LSLS     r0,r4,#31
        0x00005ef2:    bd70        p.      POP      {r4-r6,pc}
        0x00005ef4:    0224        $.      LSLS     r4,r4,#8
        0x00005ef6:    20ff        .       MOVS     r0,#0xff
        0x00005ef8:    4320         C      ORRS     r0,r0,r4
        0x00005efa:    05c0        ..      LSLS     r0,r0,#23
        0x00005efc:    bd70        p.      POP      {r4-r6,pc}
        0x00005efe:    0e1b        ..      LSRS     r3,r3,#24
        0x00005f00:    2aff        .*      CMP      r2,#0xff
        0x00005f02:    d003        ..      BEQ      0x5f0c ; __aeabi_fmul + 144
        0x00005f04:    2bff        .+      CMP      r3,#0xff
        0x00005f06:    d001        ..      BEQ      0x5f0c ; __aeabi_fmul + 144
        0x00005f08:    07e0        ..      LSLS     r0,r4,#31
        0x00005f0a:    bd70        p.      POP      {r4-r6,pc}
        0x00005f0c:    26ff        .&      MOVS     r6,#0xff
        0x00005f0e:    0045        E.      LSLS     r5,r0,#1
        0x00005f10:    0636        6.      LSLS     r6,r6,#24
        0x00005f12:    42b5        .B      CMP      r5,r6
        0x00005f14:    d806        ..      BHI      0x5f24 ; __aeabi_fmul + 168
        0x00005f16:    004d        M.      LSLS     r5,r1,#1
        0x00005f18:    42b5        .B      CMP      r5,r6
        0x00005f1a:    d803        ..      BHI      0x5f24 ; __aeabi_fmul + 168
        0x00005f1c:    18d2        ..      ADDS     r2,r2,r3
        0x00005f1e:    2aff        .*      CMP      r2,#0xff
        0x00005f20:    d000        ..      BEQ      0x5f24 ; __aeabi_fmul + 168
        0x00005f22:    e7e7        ..      B        0x5ef4 ; __aeabi_fmul + 120
        0x00005f24:    4800        .H      LDR      r0,[pc,#0] ; [0x5f28] = 0x7fc00000
        0x00005f26:    bd70        p.      POP      {r4-r6,pc}
    $d
        0x00005f28:    7fc00000    ....    DCD    2143289344
    $t
    x$fpl$frleqf
    __aeabi_cfrcmple
    _frcmple
        0x00005f2c:    2301        .#      MOVS     r3,#1
        0x00005f2e:    000a        ..      MOVS     r2,r1
        0x00005f30:    05db        ..      LSLS     r3,r3,#23
        0x00005f32:    4302        .C      ORRS     r2,r2,r0
        0x00005f34:    d40d        ..      BMI      0x5f52 ; __aeabi_cfrcmple + 38
        0x00005f36:    42da        .B      CMN      r2,r3
        0x00005f38:    d403        ..      BMI      0x5f42 ; __aeabi_cfrcmple + 22
        0x00005f3a:    429a        .B      CMP      r2,r3
        0x00005f3c:    d407        ..      BMI      0x5f4e ; __aeabi_cfrcmple + 34
        0x00005f3e:    4281        .B      CMP      r1,r0
        0x00005f40:    4770        pG      BX       lr
        0x00005f42:    42d9        .B      CMN      r1,r3
        0x00005f44:    d414        ..      BMI      0x5f70 ; __aeabi_cfrcmple + 68
        0x00005f46:    42d8        .B      CMN      r0,r3
        0x00005f48:    d412        ..      BMI      0x5f70 ; __aeabi_cfrcmple + 68
        0x00005f4a:    4281        .B      CMP      r1,r0
        0x00005f4c:    4770        pG      BX       lr
        0x00005f4e:    4289        .B      CMP      r1,r1
        0x00005f50:    4770        pG      BX       lr
        0x00005f52:    42da        .B      CMN      r2,r3
        0x00005f54:    d503        ..      BPL      0x5f5e ; __aeabi_cfrcmple + 50
        0x00005f56:    429a        .B      CMP      r2,r3
        0x00005f58:    d5f9        ..      BPL      0x5f4e ; __aeabi_cfrcmple + 34
        0x00005f5a:    4288        .B      CMP      r0,r1
        0x00005f5c:    4770        pG      BX       lr
        0x00005f5e:    005b        [.      LSLS     r3,r3,#1
        0x00005f60:    004a        J.      LSLS     r2,r1,#1
        0x00005f62:    42da        .B      CMN      r2,r3
        0x00005f64:    d204        ..      BCS      0x5f70 ; __aeabi_cfrcmple + 68
        0x00005f66:    0042        B.      LSLS     r2,r0,#1
        0x00005f68:    42da        .B      CMN      r2,r3
        0x00005f6a:    d201        ..      BCS      0x5f70 ; __aeabi_cfrcmple + 68
        0x00005f6c:    4288        .B      CMP      r0,r1
        0x00005f6e:    4770        pG      BX       lr
        0x00005f70:    4048        H@      EORS     r0,r0,r1
        0x00005f72:    4041        A@      EORS     r1,r1,r0
        0x00005f74:    b510        ..      PUSH     {r4,lr}
        0x00005f76:    4a02        .J      LDR      r2,[pc,#8] ; [0x5f80] = 0x4160009
        0x00005f78:    4048        H@      EORS     r0,r0,r1
        0x00005f7a:    f7fbfcaf    ....    BL       __fpl_fcmp_InfNaN ; 0x18dc
        0x00005f7e:    bd10        ..      POP      {r4,pc}
    $d
        0x00005f80:    04160009    ....    DCD    68550665
    $t
    x$fpl$fsub
    __aeabi_fsub
    _fsub
        0x00005f84:    b570        p.      PUSH     {r4-r6,lr}
        0x00005f86:    2501        .%      MOVS     r5,#1
        0x00005f88:    0004        ..      MOVS     r4,r0
        0x00005f8a:    07ed        ..      LSLS     r5,r5,#31
        0x00005f8c:    404c        L@      EORS     r4,r4,r1
        0x00005f8e:    d422        ".      BMI      0x5fd6 ; _fsub1 + 70
    _fsub1
        0x00005f90:    1a44        D.      SUBS     r4,r0,r1
        0x00005f92:    d202        ..      BCS      0x5f9a ; _fsub1 + 10
        0x00005f94:    406c        l@      EORS     r4,r4,r5
        0x00005f96:    1b00        ..      SUBS     r0,r0,r4
        0x00005f98:    1909        ..      ADDS     r1,r1,r4
        0x00005f9a:    0dc6        ..      LSRS     r6,r0,#23
        0x00005f9c:    004b        K.      LSLS     r3,r1,#1
        0x00005f9e:    b2f2        ..      UXTB     r2,r6
        0x00005fa0:    2aff        .*      CMP      r2,#0xff
        0x00005fa2:    d04b        K.      BEQ      0x603c ; _fsub1 + 172
        0x00005fa4:    0e1b        ..      LSRS     r3,r3,#24
        0x00005fa6:    d050        P.      BEQ      0x604a ; _fsub1 + 186
        0x00005fa8:    0200        ..      LSLS     r0,r0,#8
        0x00005faa:    020c        ..      LSLS     r4,r1,#8
        0x00005fac:    1ad3        ..      SUBS     r3,r2,r3
        0x00005fae:    432c        ,C      ORRS     r4,r4,r5
        0x00005fb0:    40dc        .@      LSRS     r4,r4,r3
        0x00005fb2:    43a8        .C      BICS     r0,r0,r5
        0x00005fb4:    1b05        ..      SUBS     r5,r0,r4
        0x00005fb6:    d505        ..      BPL      0x5fc4 ; _fsub1 + 52
        0x00005fb8:    00ad        ..      LSLS     r5,r5,#2
        0x00005fba:    d319        ..      BCC      0x5ff0 ; _fsub1 + 96
        0x00005fbc:    086d        m.      LSRS     r5,r5,#1
        0x00005fbe:    1e76        v.      SUBS     r6,r6,#1
        0x00005fc0:    1e52        R.      SUBS     r2,r2,#1
        0x00005fc2:    d037        7.      BEQ      0x6034 ; _fsub1 + 164
        0x00005fc4:    05f6        ..      LSLS     r6,r6,#23
        0x00005fc6:    0a28        (.      LSRS     r0,r5,#8
        0x00005fc8:    d201        ..      BCS      0x5fce ; _fsub1 + 62
        0x00005fca:    1980        ..      ADDS     r0,r0,r6
        0x00005fcc:    bd70        p.      POP      {r4-r6,pc}
        0x00005fce:    4170        pA      ADCS     r0,r0,r6
        0x00005fd0:    066d        m.      LSLS     r5,r5,#25
        0x00005fd2:    d003        ..      BEQ      0x5fdc ; _fsub1 + 76
        0x00005fd4:    bd70        p.      POP      {r4-r6,pc}
        0x00005fd6:    4069        i@      EORS     r1,r1,r5
        0x00005fd8:    f7fffee6    ....    BL       _fadd1 ; 0x5da8
        0x00005fdc:    409c        .@      LSLS     r4,r4,r3
        0x00005fde:    0209        ..      LSLS     r1,r1,#8
        0x00005fe0:    4061        a@      EORS     r1,r1,r4
        0x00005fe2:    0049        I.      LSLS     r1,r1,#1
        0x00005fe4:    d001        ..      BEQ      0x5fea ; _fsub1 + 90
        0x00005fe6:    1e40        @.      SUBS     r0,r0,#1
        0x00005fe8:    bd70        p.      POP      {r4-r6,pc}
        0x00005fea:    2401        .$      MOVS     r4,#1
        0x00005fec:    43a0        .C      BICS     r0,r0,r4
        0x00005fee:    bd70        p.      POP      {r4-r6,pc}
        0x00005ff0:    086d        m.      LSRS     r5,r5,#1
        0x00005ff2:    d01d        ..      BEQ      0x6030 ; _fsub1 + 160
        0x00005ff4:    2001        .       MOVS     r0,#1
        0x00005ff6:    0c2b        +.      LSRS     r3,r5,#16
        0x00005ff8:    d101        ..      BNE      0x5ffe ; _fsub1 + 110
        0x00005ffa:    042d        -.      LSLS     r5,r5,#16
        0x00005ffc:    3010        .0      ADDS     r0,r0,#0x10
        0x00005ffe:    0e2b        +.      LSRS     r3,r5,#24
        0x00006000:    d101        ..      BNE      0x6006 ; _fsub1 + 118
        0x00006002:    022d        -.      LSLS     r5,r5,#8
        0x00006004:    3008        .0      ADDS     r0,r0,#8
        0x00006006:    0f2b        +.      LSRS     r3,r5,#28
        0x00006008:    d101        ..      BNE      0x600e ; _fsub1 + 126
        0x0000600a:    012d        -.      LSLS     r5,r5,#4
        0x0000600c:    1d00        ..      ADDS     r0,r0,#4
        0x0000600e:    0fab        ..      LSRS     r3,r5,#30
        0x00006010:    d101        ..      BNE      0x6016 ; _fsub1 + 134
        0x00006012:    00ad        ..      LSLS     r5,r5,#2
        0x00006014:    1c80        ..      ADDS     r0,r0,#2
        0x00006016:    0feb        ..      LSRS     r3,r5,#31
        0x00006018:    d101        ..      BNE      0x601e ; _fsub1 + 142
        0x0000601a:    006d        m.      LSLS     r5,r5,#1
        0x0000601c:    1c40        @.      ADDS     r0,r0,#1
        0x0000601e:    006d        m.      LSLS     r5,r5,#1
        0x00006020:    1a36        6.      SUBS     r6,r6,r0
        0x00006022:    1a12        ..      SUBS     r2,r2,r0
        0x00006024:    0a68        h.      LSRS     r0,r5,#9
        0x00006026:    05f5        ..      LSLS     r5,r6,#23
        0x00006028:    1940        @.      ADDS     r0,r0,r5
        0x0000602a:    2a01        .*      CMP      r2,#1
        0x0000602c:    db02        ..      BLT      0x6034 ; _fsub1 + 164
        0x0000602e:    bd70        p.      POP      {r4-r6,pc}
        0x00006030:    2000        .       MOVS     r0,#0
        0x00006032:    bd70        p.      POP      {r4-r6,pc}
        0x00006034:    36c0        .6      ADDS     r6,r6,#0xc0
        0x00006036:    0a30        0.      LSRS     r0,r6,#8
        0x00006038:    07c0        ..      LSLS     r0,r0,#31
        0x0000603a:    bd70        p.      POP      {r4-r6,pc}
        0x0000603c:    0e1b        ..      LSRS     r3,r3,#24
        0x0000603e:    0244        D.      LSLS     r4,r0,#9
        0x00006040:    d101        ..      BNE      0x6046 ; _fsub1 + 182
        0x00006042:    2bff        .+      CMP      r3,#0xff
        0x00006044:    d100        ..      BNE      0x6048 ; _fsub1 + 184
        0x00006046:    4802        .H      LDR      r0,[pc,#8] ; [0x6050] = 0x7fc00000
        0x00006048:    bd70        p.      POP      {r4-r6,pc}
        0x0000604a:    2a00        .*      CMP      r2,#0
        0x0000604c:    d0f0        ..      BEQ      0x6030 ; _fsub1 + 160
        0x0000604e:    bd70        p.      POP      {r4-r6,pc}
    $d
        0x00006050:    7fc00000    ....    DCD    2143289344
    $t
    x$fpl$printf1
    _printf_fp_dec
        0x00006054:    b403        ..      PUSH     {r0,r1}
        0x00006056:    4802        .H      LDR      r0,[pc,#8] ; [0x6060] = 0xffffb451
        0x00006058:    4478        xD      ADD      r0,r0,pc
        0x0000605a:    4684        .F      MOV      r12,r0
        0x0000605c:    bc03        ..      POP      {r0,r1}
        0x0000605e:    4760        `G      BX       r12
    $d
        0x00006060:    ffffb451    Q...    DCD    4294947921
    $d.realdata
    .constdata
    x$fpl$usenofp
    __I$use$fp
        0x00006064:    20434441    ADC     DCD    541279297
        0x00006068:    756c6156    Valu    DCD    1970037078
        0x0000606c:    00003a65    e:..    DCD    14949
        0x00006070:    00000000    ....    DCD    0
    .constdata
        0x00006074:    00000001    ....    DCD    1
        0x00006078:    00000002    ....    DCD    2
        0x0000607c:    00000002    ....    DCD    2
        0x00006080:    00000004    ....    DCD    4
    .constdata
    ddiv_reciptbl
        0x00006084:    7e7f8080    ...~    DCD    2122285184
        0x00006088:    7a7b7c7d    }|{z    DCD    2054913149
        0x0000608c:    76777879    yxwv    DCD    1987541113
        0x00006090:    73747576    vuts    DCD    1937012086
        0x00006094:    70717172    rqqp    DCD    1886482802
        0x00006098:    6d6e6e6f    onnm    DCD    1835953775
        0x0000609c:    6a6b6c6c    llkj    DCD    1785425004
        0x000060a0:    6868696a    jihh    DCD    1751673194
        0x000060a4:    65666667    gffe    DCD    1701209703
        0x000060a8:    63636464    ddcc    DCD    1667458148
        0x000060ac:    60616162    baa`    DCD    1616994658
        0x000060b0:    5e5f5f60    `__^    DCD    1583308640
        0x000060b4:    5c5d5d5e    ^]]\    DCD    1549622622
        0x000060b8:    5a5b5b5c    \[[Z    DCD    1515936604
        0x000060bc:    5859595a    ZYYX    DCD    1482250586
        0x000060c0:    56575758    XWWV    DCD    1448564568
        0x000060c4:    55555556    VUUU    DCD    1431655766
        0x000060c8:    53535454    TTSS    DCD    1397970004
        0x000060cc:    51525252    RRRQ    DCD    1364349522
        0x000060d0:    50505051    QPPP    DCD    1347440721
        0x000060d4:    4e4f4f4f    OOON    DCD    1313820495
        0x000060d8:    4d4d4d4e    NMMM    DCD    1296911694
        0x000060dc:    4b4c4c4c    LLLK    DCD    1263291468
        0x000060e0:    4a4a4b4b    KKJJ    DCD    1246382923
        0x000060e4:    4949494a    JIII    DCD    1229539658
        0x000060e8:    47484848    HHHG    DCD    1195919432
        0x000060ec:    46474747    GGGF    DCD    1179076423
        0x000060f0:    45454646    FFEE    DCD    1162167878
        0x000060f4:    44444445    EDDD    DCD    1145324613
        0x000060f8:    43434344    DCCC    DCD    1128481604
        0x000060fc:    42424243    CBBB    DCD    1111638595
        0x00006100:    41414142    BAAA    DCD    1094795586
    .constdata
    fdiv_tab
        0x00006104:    84838281    ....    DCD    2223211137
        0x00006108:    88878685    ....    DCD    2290583173
        0x0000610c:    8d8c8b89    ....    DCD    2374798217
        0x00006110:    92918f8e    ....    DCD    2459013006
        0x00006114:    97969593    ....    DCD    2543228307
        0x00006118:    9d9c9a99    ....    DCD    2644286105
        0x0000611c:    a3a2a09f    ....    DCD    2745344159
        0x00006120:    aaa8a7a5    ....    DCD    2863179685
        0x00006124:    b2b0aeac    ....    DCD    2997923500
        0x00006128:    b9b7b5b3    ....    DCD    3115824563
        0x0000612c:    c2c0bebc    ....    DCD    3267411644
        0x00006130:    ccc9c7c5    ....    DCD    3435775941
        0x00006134:    d7d4d1ce    ....    DCD    3621048782
        0x00006138:    e2dfdcd9    ....    DCD    3806321881
        0x0000613c:    f0ece9e6    ....    DCD    4042058214
        0x00006140:    fefaf7f3    ....    DCD    4277860339
        0x00006144:    00000000    ....    DCD    0
    .constdata
    atanhi
        0x00006148:    0561bb4f    O.a.    DCD    90291023
        0x0000614c:    3fddac67    g..?    DCD    1071492199
        0x00006150:    54442d18    .-DT    DCD    1413754136
        0x00006154:    3fe921fb    .!.?    DCD    1072243195
        0x00006158:    d281f69b    ....    DCD    3531732635
        0x0000615c:    3fef730b    .s.?    DCD    1072657163
        0x00006160:    54442d18    .-DT    DCD    1413754136
        0x00006164:    3ff921fb    .!.?    DCD    1073291771
    atanlo
        0x00006168:    222f65e2    .e/"    DCD    573531618
        0x0000616c:    3c7a2b7f    .+z<    DCD    1014639487
        0x00006170:    33145c07    .\.3    DCD    856972295
        0x00006174:    3c81a626    &..<    DCD    1015129638
        0x00006178:    7af0cbbd    ...z    DCD    2062601149
        0x0000617c:    3c700788    ..p<    DCD    1013974920
        0x00006180:    33145c07    .\.3    DCD    856972295
        0x00006184:    3c91a626    &..<    DCD    1016178214
    aTodd
        0x00006188:    9998ebc4    ....    DCD    2576935876
        0x0000618c:    bfc99999    ....    DCD    3217660313
        0x00006190:    fe231671    q.#.    DCD    4263712369
        0x00006194:    bfbc71c6    .q..    DCD    3216798150
        0x00006198:    af749a6d    m.t.    DCD    2943654509
        0x0000619c:    bfb3b0f2    ....    DCD    3216224498
        0x000061a0:    52defd9a    ...R    DCD    1390345626
        0x000061a4:    bfadde2d    -...    DCD    3215842861
        0x000061a8:    2c6a6c2f    /lj,    DCD    745172015
        0x000061ac:    bfa2b444    D...    DCD    3215111236
    aTeven
        0x000061b0:    5555550d    .UUU    DCD    1431655693
        0x000061b4:    3fd55555    UU.?    DCD    1070945621
        0x000061b8:    920083ff    ....    DCD    2449507327
        0x000061bc:    3fc24924    $I.?    DCD    1069697316
        0x000061c0:    c54c206e    n L.    DCD    3310100590
        0x000061c4:    3fb745cd    .E.?    DCD    1068975565
        0x000061c8:    a0d03d51    Q=..    DCD    2698001745
        0x000061cc:    3fb10d66    f..?    DCD    1068567910
        0x000061d0:    24760deb    ..v$    DCD    611716587
        0x000061d4:    3fa97b4b    K{.?    DCD    1068071755
        0x000061d8:    e322da11    ..".    DCD    3810712081
        0x000061dc:    3f90ad3a    :..?    DCD    1066446138
    .constdata
    C
        0x000061e0:    5555554c    LUUU    DCD    1431655756
        0x000061e4:    3fa55555    UU.?    DCD    1067799893
        0x000061e8:    16c15177    wQ..    DCD    381768055
        0x000061ec:    bf56c16c    l.V.    DCD    3210133868
        0x000061f0:    19cb1590    ....    DCD    432739728
        0x000061f4:    3efa01a0    ...>    DCD    1056571808
        0x000061f8:    809c52ad    .R..    DCD    2157728429
        0x000061fc:    be927e4f    O~..    DCD    3197271631
        0x00006200:    bdb4b1c4    ....    DCD    3182735812
        0x00006204:    3e21ee9e    ..!>    DCD    1042411166
        0x00006208:    be8838d4    .8..    DCD    3196598484
        0x0000620c:    bda8fae9    ....    DCD    3181968105
    .constdata
    __mathlib_zero
        0x00006210:    00000000    ....    DCD    0
        0x00006214:    00000000    ....    DCD    0
    .constdata
    pio2s
        0x00006218:    54400000    ..@T    DCD    1413480448
        0x0000621c:    3ff921fb    .!.?    DCD    1073291771
        0x00006220:    1a626331    1cb.    DCD    442655537
        0x00006224:    3dd0b461    a..=    DCD    1037087841
        0x00006228:    1a600000    ..`.    DCD    442499072
        0x0000622c:    3dd0b461    a..=    DCD    1037087841
        0x00006230:    2e037073    sp..    DCD    771977331
        0x00006234:    3ba3198a    ...;    DCD    1000544650
        0x00006238:    2e000000    ....    DCD    771751936
        0x0000623c:    3ba3198a    ...;    DCD    1000544650
        0x00006240:    252049c1    .I %    DCD    622873025
        0x00006244:    397b839a    ..{9    DCD    964395930
    twooverpi
        0x00006248:    00000000    ....    DCD    0
        0x0000624c:    00000000    ....    DCD    0
        0x00006250:    a2f9836e    n...    DCD    2734261102
        0x00006254:    4e441529    ).DN    DCD    1313084713
        0x00006258:    fc2757d1    .W'.    DCD    4230436817
        0x0000625c:    f534ddc0    ..4.    DCD    4113882560
        0x00006260:    db629599    ..b.    DCD    3680671129
        0x00006264:    3c439041    A.C<    DCD    1011060801
        0x00006268:    fe5163ab    .cQ.    DCD    4266746795
        0x0000626c:    debbc561    a...    DCD    3736847713
        0x00006270:    b7246e3a    :n$.    DCD    3072618042
        0x00006274:    424dd2e0    ..MB    DCD    1112396512
        0x00006278:    06492eea    ..I.    DCD    105459434
        0x0000627c:    09d1921c    ....    DCD    164729372
        0x00006280:    fe1deb1c    ....    DCD    4263373596
        0x00006284:    b129a73e    >.).    DCD    2972297022
        0x00006288:    e88235f5    .5..    DCD    3900847605
        0x0000628c:    2ebb4484    .D..    DCD    784024708
        0x00006290:    e99c7026    &p..    DCD    3919343654
        0x00006294:    b45f7e41    A~_.    DCD    3026157121
        0x00006298:    3991d639    9..9    DCD    965858873
        0x0000629c:    835339f4    .9S.    DCD    2203269620
        0x000062a0:    9c845f8b    ._..    DCD    2625920907
        0x000062a4:    bdf9283b    ;(..    DCD    3187222587
        0x000062a8:    1ff897ff    ....    DCD    536385535
        0x000062ac:    de05980f    ....    DCD    3724908559
        0x000062b0:    ef2f118b    ../.    DCD    4012839307
        0x000062b4:    5a0a6d1f    .m.Z    DCD    1510632735
        0x000062b8:    6d367ecf    .~6m    DCD    1832287951
        0x000062bc:    27cb09b7    ...'    DCD    667617719
        0x000062c0:    4f463f66    f?FO    DCD    1330003814
        0x000062c4:    9e5fea2d    -._.    DCD    2657085997
        0x000062c8:    7527bac7    ..'u    DCD    1965537991
        0x000062cc:    ebe5f17b    {...    DCD    3957715323
        0x000062d0:    3d0739f7    .9.=    DCD    1023883767
        0x000062d4:    8a5292ea    ..R.    DCD    2320667370
        0x000062d8:    6bfb5fb1    ._.k    DCD    1811636145
        0x000062dc:    1f8d5d08    .]..    DCD    529358088
    .constdata
    S
        0x000062e0:    1110f8a6    ....    DCD    286324902
        0x000062e4:    3f811111    ...?    DCD    1065423121
        0x000062e8:    19c161d5    .a..    DCD    432103893
        0x000062ec:    bf2a01a0    ..*.    DCD    3207201184
        0x000062f0:    57b1fe7d    }..W    DCD    1471282813
        0x000062f4:    3ec71de3    ...>    DCD    1053236707
        0x000062f8:    8a2b9ceb    ..+.    DCD    2318114027
        0x000062fc:    be5ae5e6    ..Z.    DCD    3193628134
        0x00006300:    5acfd57c    |..Z    DCD    1523570044
        0x00006304:    3de5d93a    :..=    DCD    1038473530
    .constdata
    tenpwrs_x
        0x00006308:    00004002    .@..    DCD    16386
        0x0000630c:    a0000000    ....    DCD    2684354560
        0x00006310:    00000000    ....    DCD    0
        0x00006314:    00004005    .@..    DCD    16389
        0x00006318:    c8000000    ....    DCD    3355443200
        0x0000631c:    00000000    ....    DCD    0
        0x00006320:    0000400c    .@..    DCD    16396
        0x00006324:    9c400000    ..@.    DCD    2621440000
        0x00006328:    00000000    ....    DCD    0
        0x0000632c:    00004019    .@..    DCD    16409
        0x00006330:    bebc2000    . ..    DCD    3200000000
        0x00006334:    00000000    ....    DCD    0
        0x00006338:    00004034    4@..    DCD    16436
        0x0000633c:    8e1bc9bf    ....    DCD    2384185791
        0x00006340:    04000000    ....    DCD    67108864
    tenpwrs_i
        0x00006344:    000040b5    .@..    DCD    16565
        0x00006348:    d0cf4b50    PK..    DCD    3503246160
        0x0000634c:    cfe20766    f...    DCD    3487696742
        0x00006350:    00000001    ....    DCD    1
        0x00006354:    0000416c    lA..    DCD    16748
        0x00006358:    aa51823e    >.Q.    DCD    2857468478
        0x0000635c:    34a7eedf    ...4    DCD    883420895
        0x00006360:    00000001    ....    DCD    1
        0x00006364:    000042d9    .B..    DCD    17113
        0x00006368:    e2a0b5dc    ....    DCD    3802183132
        0x0000636c:    971f303a    :0..    DCD    2535403578
        0x00006370:    ffffffff    ....    DCD    4294967295
        0x00006374:    000045b4    .E..    DCD    17844
        0x00006378:    c8a025fd    .%..    DCD    3365938685
        0x0000637c:    4fc1a3e9    ...O    DCD    1338090473
        0x00006380:    ffffffff    ....    DCD    4294967295
        0x00006384:    00003fff    .?..    DCD    16383
        0x00006388:    80000000    ....    DCD    2147483648
        0x0000638c:    00000000    ....    DCD    0
        0x00006390:    00003fff    .?..    DCD    16383
        0x00006394:    80000000    ....    DCD    2147483648
        0x00006398:    00000000    ....    DCD    0
    Region$$Table$$Base
        0x0000639c:    000063d8    .c..    DCD    25560
        0x000063a0:    20000000    ...     DCD    536870912
        0x000063a4:    000006b4    ....    DCD    1716
        0x000063a8:    00000104    ....    DCD    260
        0x000063ac:    00006a8c    .j..    DCD    27276
        0x000063b0:    200006b4    ...     DCD    536872628
        0x000063b4:    00000554    T...    DCD    1364
        0x000063b8:    00000120     ...    DCD    288
    locale$$data
    Region$$Table$$Limit
        0x000063bc:    0000001c    ....    DCD    28
    __lcnum_c_name
        0x000063c0:    00000043    C...    DCD    67
        0x000063c4:    fffffff8    ....    DCD    4294967288
    __lcnum_c_start
        0x000063c8:    0000000c    ....    DCD    12
        0x000063cc:    0000000e    ....    DCD    14
        0x000063d0:    0000000f    ....    DCD    15
    __lcnum_c_point
        0x000063d4:    002e        ..      DCW    46
    __lcnum_c_thousands
        0x000063d6:    00          .       DCB    0
    __lcnum_c_grouping
        0x000063d7:    00          .       DCB    0
    __lcnum_c_end

** Section #2 'ER_RW' (SHT_PROGBITS) [SHF_ALLOC + SHF_WRITE]
    Size   : 1716 bytes (alignment 4)
    Address: 0x20000000


** Section #3 'ER_ZI' (SHT_NOBITS) [SHF_ALLOC + SHF_WRITE]
    Size   : 1364 bytes (alignment 8)
    Address: 0x200006b4


** Section #4 '.debug_abbrev' (SHT_PROGBITS)
    Size   : 1476 bytes


** Section #5 '.debug_frame' (SHT_PROGBITS)
    Size   : 4364 bytes


** Section #6 '.debug_info' (SHT_PROGBITS)
    Size   : 131164 bytes


** Section #7 '.debug_line' (SHT_PROGBITS)
    Size   : 14052 bytes


** Section #8 '.debug_loc' (SHT_PROGBITS)
    Size   : 4400 bytes


** Section #9 '.debug_macinfo' (SHT_PROGBITS)
    Size   : 157876 bytes


** Section #10 '.debug_pubnames' (SHT_PROGBITS)
    Size   : 2538 bytes


** Section #11 '.symtab' (SHT_SYMTAB)
    Size   : 13984 bytes (alignment 4)
    String table #12 '.strtab'
    Last local symbol no. 603


** Section #12 '.strtab' (SHT_STRTAB)
    Size   : 9468 bytes


** Section #13 '.note' (SHT_NOTE)
    Size   : 28 bytes (alignment 4)


** Section #14 '.comment' (SHT_PROGBITS)
    Size   : 7440 bytes


** Section #15 '.shstrtab' (SHT_STRTAB)
    Size   : 156 bytes


