
========================================================================

** ELF Header Information

    File Name: .\obj\Smpl_CAN.axf

    Machine class: ELFCLASS32 (32-bit)
    Data encoding: ELFDATA2LSB (Little endian)
    Header version: EV_CURRENT (Current version)
    Operating System ABI: none
    ABI Version: 0
    File Type: ET_EXEC (Executable) (2)
    Machine: EM_ARM (ARM)

    Image Entry point: 0x00000175
    Flags: EF_ARM_HASENTRY + EF_ARM_ABI_FLOAT_SOFT (0x05000202)

    ARM ELF revision: 5 (ABI version 2)

    Conforms to Soft float procedure-call standard

    Built with
    Component: ARM Compiler 5.06 update 4 (build 422) Tool: armasm [4d35cf]
    Component: ARM Compiler 5.06 update 4 (build 422) Tool: armlink [4d35d2]

    Header size: 52 bytes (0x34)
    Program header entry size: 32 bytes (0x20)
    Section header entry size: 40 bytes (0x28)

    Program header entries: 1
    Section header entries: 16

    Program header offset: 348212 (0x00055034)
    Section header offset: 348244 (0x00055054)

    Section header string table index: 15

========================================================================

** Program header #0 (PT_LOAD) [PF_X + PF_W + PF_R + PF_ARM_ENTRY]
    Size : 17024 bytes (15632 bytes in file)
    Virtual address: 0x00000000 (Alignment 8)


========================================================================

** Section #1 'ER_RO' (SHT_PROGBITS) [SHF_ALLOC + SHF_EXECINSTR]
    Size   : 15448 bytes (alignment 4)
    Address: 0x00000000

    $d.realdata
    RESET
    __Vectors
        0x00000000:    20000628    (..     DCD    536872488
        0x00000004:    00000175    u...    DCD    373
        0x00000008:    00000195    ....    DCD    405
        0x0000000c:    00000197    ....    DCD    407
        0x00000010:    00000000    ....    DCD    0
        0x00000014:    00000000    ....    DCD    0
        0x00000018:    00000000    ....    DCD    0
        0x0000001c:    00000000    ....    DCD    0
        0x00000020:    00000000    ....    DCD    0
        0x00000024:    00000000    ....    DCD    0
        0x00000028:    00000000    ....    DCD    0
        0x0000002c:    00000199    ....    DCD    409
        0x00000030:    00000000    ....    DCD    0
        0x00000034:    00000000    ....    DCD    0
        0x00000038:    0000019b    ....    DCD    411
        0x0000003c:    0000019d    ....    DCD    413
        0x00000040:    00001491    ....    DCD    5265
        0x00000044:    0000019f    ....    DCD    415
        0x00000048:    00002699    .&..    DCD    9881
        0x0000004c:    000026bd    .&..    DCD    9917
        0x00000050:    000026e1    .&..    DCD    9953
        0x00000054:    00002725    %'..    DCD    10021
        0x00000058:    0000019f    ....    DCD    415
        0x0000005c:    0000019f    ....    DCD    415
        0x00000060:    0000019f    ....    DCD    415
        0x00000064:    0000019f    ....    DCD    415
        0x00000068:    0000019f    ....    DCD    415
        0x0000006c:    0000019f    ....    DCD    415
        0x00000070:    00002b71    q+..    DCD    11121
        0x00000074:    00002bad    .+..    DCD    11181
        0x00000078:    0000293d    =)..    DCD    10557
        0x0000007c:    000029a1    .)..    DCD    10657
        0x00000080:    00002a05    .*..    DCD    10757
        0x00000084:    00002a69    i*..    DCD    10857
        0x00000088:    000027e5    .'..    DCD    10213
        0x0000008c:    00002861    a(..    DCD    10337
        0x00000090:    0000158d    ....    DCD    5517
        0x00000094:    0000019f    ....    DCD    415
        0x00000098:    0000019f    ....    DCD    415
        0x0000009c:    0000019f    ....    DCD    415
        0x000000a0:    0000019f    ....    DCD    415
        0x000000a4:    0000019f    ....    DCD    415
        0x000000a8:    0000019f    ....    DCD    415
        0x000000ac:    0000019f    ....    DCD    415
        0x000000b0:    00002915    .)..    DCD    10517
        0x000000b4:    000013f5    ....    DCD    5109
        0x000000b8:    0000019f    ....    DCD    415
        0x000000bc:    0000019f    ....    DCD    415
    $t
    !!!main
    __main
        0x000000c0:    f000f802    ....    BL       __scatterload ; 0xc8
        0x000000c4:    f000f846    ..F.    BL       __rt_entry ; 0x154
    !!!scatter
    __scatterload
    __scatterload_rt2
    __scatterload_rt2_thumb_only
        0x000000c8:    a00c        ..      ADR      r0,{pc}+0x34 ; 0xfc
        0x000000ca:    c830        0.      LDM      r0!,{r4,r5}
        0x000000cc:    3808        .8      SUBS     r0,r0,#8
        0x000000ce:    1824        $.      ADDS     r4,r4,r0
        0x000000d0:    182d        -.      ADDS     r5,r5,r0
        0x000000d2:    46a2        .F      MOV      r10,r4
        0x000000d4:    1e67        g.      SUBS     r7,r4,#1
        0x000000d6:    46ab        .F      MOV      r11,r5
    __scatterload_null
        0x000000d8:    4654        TF      MOV      r4,r10
        0x000000da:    465d        ]F      MOV      r5,r11
        0x000000dc:    42ac        .B      CMP      r4,r5
        0x000000de:    d101        ..      BNE      0xe4 ; __scatterload_null + 12
        0x000000e0:    f000f838    ..8.    BL       __rt_entry ; 0x154
        0x000000e4:    467e        ~F      MOV      r6,pc
        0x000000e6:    3e0f        .>      SUBS     r6,r6,#0xf
        0x000000e8:    cc0f        ..      LDM      r4!,{r0-r3}
        0x000000ea:    46b6        .F      MOV      lr,r6
        0x000000ec:    2601        .&      MOVS     r6,#1
        0x000000ee:    4233        3B      TST      r3,r6
        0x000000f0:    d000        ..      BEQ      0xf4 ; __scatterload_null + 28
        0x000000f2:    1afb        ..      SUBS     r3,r7,r3
        0x000000f4:    46a2        .F      MOV      r10,r4
        0x000000f6:    46ab        .F      MOV      r11,r5
        0x000000f8:    4333        3C      ORRS     r3,r3,r6
        0x000000fa:    4718        .G      BX       r3
    $d
        0x000000fc:    00003b3c    <;..    DCD    15164
        0x00000100:    00003b5c    \;..    DCD    15196
    $t
    !!handler_copy
    __scatterload_copy
        0x00000104:    3a10        .:      SUBS     r2,r2,#0x10
        0x00000106:    d302        ..      BCC      0x10e ; __scatterload_copy + 10
        0x00000108:    c878        x.      LDM      r0!,{r3-r6}
        0x0000010a:    c178        x.      STM      r1!,{r3-r6}
        0x0000010c:    d8fa        ..      BHI      __scatterload_copy ; 0x104
        0x0000010e:    0752        R.      LSLS     r2,r2,#29
        0x00000110:    d301        ..      BCC      0x116 ; __scatterload_copy + 18
        0x00000112:    c830        0.      LDM      r0!,{r4,r5}
        0x00000114:    c130        0.      STM      r1!,{r4,r5}
        0x00000116:    d501        ..      BPL      0x11c ; __scatterload_copy + 24
        0x00000118:    6804        .h      LDR      r4,[r0,#0]
        0x0000011a:    600c        .`      STR      r4,[r1,#0]
        0x0000011c:    4770        pG      BX       lr
        0x0000011e:    0000        ..      MOVS     r0,r0
    !!handler_zi
    __scatterload_zeroinit
        0x00000120:    2300        .#      MOVS     r3,#0
        0x00000122:    2400        .$      MOVS     r4,#0
        0x00000124:    2500        .%      MOVS     r5,#0
        0x00000126:    2600        .&      MOVS     r6,#0
        0x00000128:    3a10        .:      SUBS     r2,r2,#0x10
        0x0000012a:    d301        ..      BCC      0x130 ; __scatterload_zeroinit + 16
        0x0000012c:    c178        x.      STM      r1!,{r3-r6}
        0x0000012e:    d8fb        ..      BHI      0x128 ; __scatterload_zeroinit + 8
        0x00000130:    0752        R.      LSLS     r2,r2,#29
        0x00000132:    d300        ..      BCC      0x136 ; __scatterload_zeroinit + 22
        0x00000134:    c130        0.      STM      r1!,{r4,r5}
        0x00000136:    d500        ..      BPL      0x13a ; __scatterload_zeroinit + 26
        0x00000138:    600b        .`      STR      r3,[r1,#0]
        0x0000013a:    4770        pG      BX       lr
    .ARM.Collect$$_printf_percent$$00000000
    _printf_percent
        0x0000013c:    b510        ..      PUSH     {r4,lr}
    .ARM.Collect$$_printf_percent$$00000009
    _printf_d
        0x0000013e:    2964        d)      CMP      r1,#0x64
        0x00000140:    d102        ..      BNE      _printf_percent_end ; 0x148
        0x00000142:    f000f85d    ..].    BL       _printf_int_dec ; 0x200
        0x00000146:    bd10        ..      POP      {r4,pc}
    .ARM.Collect$$_printf_percent$$00000017
    _printf_percent_end
        0x00000148:    2000        .       MOVS     r0,#0
        0x0000014a:    bd10        ..      POP      {r4,pc}
    .ARM.Collect$$libinit$$00000000
    __rt_lib_init
        0x0000014c:    b51f        ..      PUSH     {r0-r4,lr}
    .ARM.Collect$$libinit$$00000002
    .ARM.Collect$$libinit$$00000004
    .ARM.Collect$$libinit$$0000000A
    .ARM.Collect$$libinit$$0000000C
    .ARM.Collect$$libinit$$0000000E
    .ARM.Collect$$libinit$$00000011
    .ARM.Collect$$libinit$$00000013
    .ARM.Collect$$libinit$$00000015
    .ARM.Collect$$libinit$$00000017
    .ARM.Collect$$libinit$$00000019
    .ARM.Collect$$libinit$$0000001B
    .ARM.Collect$$libinit$$0000001D
    .ARM.Collect$$libinit$$0000001F
    .ARM.Collect$$libinit$$00000021
    .ARM.Collect$$libinit$$00000023
    .ARM.Collect$$libinit$$00000025
    .ARM.Collect$$libinit$$0000002C
    .ARM.Collect$$libinit$$0000002E
    .ARM.Collect$$libinit$$00000030
    .ARM.Collect$$libinit$$00000032
    .ARM.Collect$$libinit$$00000033
    __rt_lib_init_alloca_1
    __rt_lib_init_argv_1
    __rt_lib_init_atexit_1
    __rt_lib_init_clock_1
    __rt_lib_init_cpp_1
    __rt_lib_init_exceptions_1
    __rt_lib_init_fp_1
    __rt_lib_init_fp_trap_1
    __rt_lib_init_getenv_1
    __rt_lib_init_heap_1
    __rt_lib_init_lc_collate_1
    __rt_lib_init_lc_ctype_1
    __rt_lib_init_lc_monetary_1
    __rt_lib_init_lc_numeric_1
    __rt_lib_init_lc_time_1
    __rt_lib_init_preinit_1
    __rt_lib_init_rand_1
    __rt_lib_init_return
    __rt_lib_init_signal_1
    __rt_lib_init_stdio_1
    __rt_lib_init_user_alloc_1
        0x0000014e:    bd1f        ..      POP      {r0-r4,pc}
    .ARM.Collect$$libshutdown$$00000000
    __rt_lib_shutdown
        0x00000150:    b510        ..      PUSH     {r4,lr}
    .ARM.Collect$$libshutdown$$00000002
    .ARM.Collect$$libshutdown$$00000004
    .ARM.Collect$$libshutdown$$00000007
    .ARM.Collect$$libshutdown$$0000000A
    .ARM.Collect$$libshutdown$$0000000C
    .ARM.Collect$$libshutdown$$0000000F
    .ARM.Collect$$libshutdown$$00000010
    __rt_lib_shutdown_cpp_1
    __rt_lib_shutdown_fp_trap_1
    __rt_lib_shutdown_heap_1
    __rt_lib_shutdown_return
    __rt_lib_shutdown_signal_1
    __rt_lib_shutdown_stdio_1
    __rt_lib_shutdown_user_alloc_1
        0x00000152:    bd10        ..      POP      {r4,pc}
    .ARM.Collect$$rtentry$$00000000
    .ARM.Collect$$rtentry$$00000002
    .ARM.Collect$$rtentry$$00000004
    __rt_entry
    __rt_entry_presh_1
    __rt_entry_sh
        0x00000154:    f001f91b    ....    BL       __user_setup_stackheap ; 0x138e
        0x00000158:    4611        .F      MOV      r1,r2
    .ARM.Collect$$rtentry$$00000009
    .ARM.Collect$$rtentry$$0000000A
    __rt_entry_li
    __rt_entry_postsh_1
        0x0000015a:    f7fffff7    ....    BL       __rt_lib_init ; 0x14c
    .ARM.Collect$$rtentry$$0000000C
    .ARM.Collect$$rtentry$$0000000D
    __rt_entry_main
    __rt_entry_postli_1
        0x0000015e:    f003f893    ....    BL       main ; 0x3288
        0x00000162:    f001f933    ..3.    BL       exit ; 0x13cc
    .ARM.Collect$$rtexit$$00000000
    __rt_exit
        0x00000166:    b403        ..      PUSH     {r0,r1}
    .ARM.Collect$$rtexit$$00000002
    .ARM.Collect$$rtexit$$00000003
    __rt_exit_ls
    __rt_exit_prels_1
        0x00000168:    f7fffff2    ....    BL       __rt_lib_shutdown ; 0x150
    .ARM.Collect$$rtexit$$00000004
    __rt_exit_exit
        0x0000016c:    bc03        ..      POP      {r0,r1}
        0x0000016e:    f001f939    ..9.    BL       _sys_exit ; 0x13e4
        0x00000172:    0000        ..      MOVS     r0,r0
    .text
    Reset_Handler
        0x00000174:    480d        .H      LDR      r0,[pc,#52] ; [0x1ac] = 0x50000100
        0x00000176:    490e        .I      LDR      r1,[pc,#56] ; [0x1b0] = 0x59
        0x00000178:    6001        .`      STR      r1,[r0,#0]
        0x0000017a:    490e        .I      LDR      r1,[pc,#56] ; [0x1b4] = 0x16
        0x0000017c:    6001        .`      STR      r1,[r0,#0]
        0x0000017e:    490e        .I      LDR      r1,[pc,#56] ; [0x1b8] = 0x88
        0x00000180:    6001        .`      STR      r1,[r0,#0]
        0x00000182:    4a0e        .J      LDR      r2,[pc,#56] ; [0x1bc] = 0x50000024
        0x00000184:    490e        .I      LDR      r1,[pc,#56] ; [0x1c0] = 0x5aa5
        0x00000186:    6011        .`      STR      r1,[r2,#0]
        0x00000188:    2100        .!      MOVS     r1,#0
        0x0000018a:    6001        .`      STR      r1,[r0,#0]
        0x0000018c:    480d        .H      LDR      r0,[pc,#52] ; [0x1c4] = 0x2b6d
        0x0000018e:    4780        .G      BLX      r0
        0x00000190:    480d        .H      LDR      r0,[pc,#52] ; [0x1c8] = 0xc1
        0x00000192:    4700        .G      BX       r0
    NMI_Handler
        0x00000194:    e7fe        ..      B        NMI_Handler ; 0x194
    HardFault_Handler
        0x00000196:    e7fe        ..      B        HardFault_Handler ; 0x196
    SVC_Handler
        0x00000198:    e7fe        ..      B        SVC_Handler ; 0x198
    PendSV_Handler
        0x0000019a:    e7fe        ..      B        PendSV_Handler ; 0x19a
    SysTick_Handler
        0x0000019c:    e7fe        ..      B        SysTick_Handler ; 0x19c
    Default_Handler
    ACMP_IRQHandler
    I2S_IRQHandler
    PDMA_IRQHandler
    PS2_IRQHandler
    PWMA_IRQHandler
    PWMB_IRQHandler
    RTC_IRQHandler
    TMR0_IRQHandler
    TMR1_IRQHandler
    TMR2_IRQHandler
    TMR3_IRQHandler
    USBD_IRQHandler
    WDT_IRQHandler
        0x0000019e:    e7fe        ..      B        Default_Handler ; 0x19e
    __user_initial_stackheap
        0x000001a0:    480a        .H      LDR      r0,[pc,#40] ; [0x1cc] = 0x20000228
        0x000001a2:    490b        .I      LDR      r1,[pc,#44] ; [0x1d0] = 0x20000628
        0x000001a4:    4a09        .J      LDR      r2,[pc,#36] ; [0x1cc] = 0x20000228
        0x000001a6:    4b0b        .K      LDR      r3,[pc,#44] ; [0x1d4] = 0x20000228
        0x000001a8:    4770        pG      BX       lr
    $d
        0x000001aa:    0000        ..      DCW    0
        0x000001ac:    50000100    ...P    DCD    1342177536
        0x000001b0:    00000059    Y...    DCD    89
        0x000001b4:    00000016    ....    DCD    22
        0x000001b8:    00000088    ....    DCD    136
        0x000001bc:    50000024    $..P    DCD    1342177316
        0x000001c0:    00005aa5    .Z..    DCD    23205
        0x000001c4:    00002b6d    m+..    DCD    11117
        0x000001c8:    000000c1    ....    DCD    193
        0x000001cc:    20000228    (..     DCD    536871464
        0x000001d0:    20000628    (..     DCD    536872488
        0x000001d4:    20000228    (..     DCD    536871464
    $t
    .text
    __2sprintf
        0x000001d8:    b40f        ..      PUSH     {r0-r3}
        0x000001da:    b51c        ..      PUSH     {r2-r4,lr}
        0x000001dc:    4b07        .K      LDR      r3,[pc,#28] ; [0x1fc] = 0x1179
        0x000001de:    aa06        ..      ADD      r2,sp,#0x18
        0x000001e0:    447b        {D      ADD      r3,r3,pc
        0x000001e2:    4669        iF      MOV      r1,sp
        0x000001e4:    9000        ..      STR      r0,[sp,#0]
        0x000001e6:    9805        ..      LDR      r0,[sp,#0x14]
        0x000001e8:    f001f8a5    ....    BL       _printf_char_common ; 0x1336
        0x000001ec:    2000        .       MOVS     r0,#0
        0x000001ee:    4669        iF      MOV      r1,sp
        0x000001f0:    f001f8b4    ....    BL       _sputc ; 0x135c
        0x000001f4:    bc1c        ..      POP      {r2-r4}
        0x000001f6:    bc08        ..      POP      {r3}
        0x000001f8:    b004        ..      ADD      sp,sp,#0x10
        0x000001fa:    4718        .G      BX       r3
    $d
        0x000001fc:    00001179    y...    DCD    4473
    $t
    .text
    _printf_int_dec
        0x00000200:    b5f7        ..      PUSH     {r0-r2,r4-r7,lr}
        0x00000202:    2500        .%      MOVS     r5,#0
        0x00000204:    2975        u)      CMP      r1,#0x75
        0x00000206:    6810        .h      LDR      r0,[r2,#0]
        0x00000208:    9900        ..      LDR      r1,[sp,#0]
        0x0000020a:    a614        ..      ADR      r6,{pc}+0x52 ; 0x25c
        0x0000020c:    d011        ..      BEQ      0x232 ; _printf_int_dec + 50
        0x0000020e:    46c0        .F      MOV      r8,r8
        0x00000210:    46c0        .F      MOV      r8,r8
        0x00000212:    2800        .(      CMP      r0,#0
        0x00000214:    da02        ..      BGE      0x21c ; _printf_int_dec + 28
        0x00000216:    4240        @B      RSBS     r0,r0,#0
        0x00000218:    a611        ..      ADR      r6,{pc}+0x48 ; 0x260
        0x0000021a:    e008        ..      B        0x22e ; _printf_int_dec + 46
        0x0000021c:    9900        ..      LDR      r1,[sp,#0]
        0x0000021e:    6809        .h      LDR      r1,[r1,#0]
        0x00000220:    078a        ..      LSLS     r2,r1,#30
        0x00000222:    d501        ..      BPL      0x228 ; _printf_int_dec + 40
        0x00000224:    a60f        ..      ADR      r6,{pc}+0x40 ; 0x264
        0x00000226:    e002        ..      B        0x22e ; _printf_int_dec + 46
        0x00000228:    0749        I.      LSLS     r1,r1,#29
        0x0000022a:    d504        ..      BPL      0x236 ; _printf_int_dec + 54
        0x0000022c:    a60e        ..      ADR      r6,{pc}+0x3c ; 0x268
        0x0000022e:    2501        .%      MOVS     r5,#1
        0x00000230:    e001        ..      B        0x236 ; _printf_int_dec + 54
        0x00000232:    46c0        .F      MOV      r8,r8
        0x00000234:    46c0        .F      MOV      r8,r8
        0x00000236:    9f00        ..      LDR      r7,[sp,#0]
        0x00000238:    2400        .$      MOVS     r4,#0
        0x0000023a:    3724        $7      ADDS     r7,r7,#0x24
        0x0000023c:    e004        ..      B        0x248 ; _printf_int_dec + 72
        0x0000023e:    f001f892    ....    BL       __rt_udiv10 ; 0x1366
        0x00000242:    3130        01      ADDS     r1,r1,#0x30
        0x00000244:    5539        9U      STRB     r1,[r7,r4]
        0x00000246:    1c64        d.      ADDS     r4,r4,#1
        0x00000248:    2800        .(      CMP      r0,#0
        0x0000024a:    d1f8        ..      BNE      0x23e ; _printf_int_dec + 62
        0x0000024c:    462b        +F      MOV      r3,r5
        0x0000024e:    4632        2F      MOV      r2,r6
        0x00000250:    4621        !F      MOV      r1,r4
        0x00000252:    9800        ..      LDR      r0,[sp,#0]
        0x00000254:    f001f811    ....    BL       _printf_int_common ; 0x127a
        0x00000258:    bdfe        ..      POP      {r1-r7,pc}
    $d
        0x0000025a:    0000        ..      DCW    0
        0x0000025c:    00000000    ....    DCD    0
        0x00000260:    0000002d    -...    DCD    45
        0x00000264:    0000002b    +...    DCD    43
        0x00000268:    00000020     ...    DCD    32
    $t
    .text
    __printf
        0x0000026c:    b5f3        ..      PUSH     {r0,r1,r4-r7,lr}
        0x0000026e:    4604        .F      MOV      r4,r0
        0x00000270:    2000        .       MOVS     r0,#0
        0x00000272:    b081        ..      SUB      sp,sp,#4
        0x00000274:    6220         b      STR      r0,[r4,#0x20]
        0x00000276:    4620         F      MOV      r0,r4
        0x00000278:    68e1        .h      LDR      r1,[r4,#0xc]
        0x0000027a:    4788        .G      BLX      r1
        0x0000027c:    2800        .(      CMP      r0,#0
        0x0000027e:    d07a        z.      BEQ      0x376 ; __printf + 266
        0x00000280:    2825        %(      CMP      r0,#0x25
        0x00000282:    d002        ..      BEQ      0x28a ; __printf + 30
        0x00000284:    6862        bh      LDR      r2,[r4,#4]
        0x00000286:    68a1        .h      LDR      r1,[r4,#8]
        0x00000288:    e071        q.      B        0x36e ; __printf + 258
        0x0000028a:    68e1        .h      LDR      r1,[r4,#0xc]
        0x0000028c:    4620         F      MOV      r0,r4
        0x0000028e:    2500        .%      MOVS     r5,#0
        0x00000290:    4788        .G      BLX      r1
        0x00000292:    4606        .F      MOV      r6,r0
        0x00000294:    2000        .       MOVS     r0,#0
        0x00000296:    61e0        .a      STR      r0,[r4,#0x1c]
        0x00000298:    4607        .F      MOV      r7,r0
        0x0000029a:    61a0        .a      STR      r0,[r4,#0x18]
        0x0000029c:    2e2a        *.      CMP      r6,#0x2a
        0x0000029e:    d00a        ..      BEQ      0x2b6 ; __printf + 74
        0x000002a0:    4630        0F      MOV      r0,r6
        0x000002a2:    f002fca1    ....    BL       _is_digit ; 0x2be8
        0x000002a6:    2800        .(      CMP      r0,#0
        0x000002a8:    d027        '.      BEQ      0x2fa ; __printf + 142
        0x000002aa:    00b8        ..      LSLS     r0,r7,#2
        0x000002ac:    1900        ..      ADDS     r0,r0,r4
        0x000002ae:    3e30        0>      SUBS     r6,r6,#0x30
        0x000002b0:    9000        ..      STR      r0,[sp,#0]
        0x000002b2:    6186        .a      STR      r6,[r0,#0x18]
        0x000002b4:    e019        ..      B        0x2ea ; __printf + 126
        0x000002b6:    9802        ..      LDR      r0,[sp,#8]
        0x000002b8:    00ba        ..      LSLS     r2,r7,#2
        0x000002ba:    1912        ..      ADDS     r2,r2,r4
        0x000002bc:    c802        ..      LDM      r0!,{r1}
        0x000002be:    6191        .a      STR      r1,[r2,#0x18]
        0x000002c0:    9002        ..      STR      r0,[sp,#8]
        0x000002c2:    4620         F      MOV      r0,r4
        0x000002c4:    68e1        .h      LDR      r1,[r4,#0xc]
        0x000002c6:    4788        .G      BLX      r1
        0x000002c8:    2f01        ./      CMP      r7,#1
        0x000002ca:    4606        .F      MOV      r6,r0
        0x000002cc:    d117        ..      BNE      0x2fe ; __printf + 146
        0x000002ce:    69e0        .i      LDR      r0,[r4,#0x1c]
        0x000002d0:    2800        .(      CMP      r0,#0
        0x000002d2:    da1f        ..      BGE      0x314 ; __printf + 168
        0x000002d4:    2020                MOVS     r0,#0x20
        0x000002d6:    4385        .C      BICS     r5,r5,r0
        0x000002d8:    e01c        ..      B        0x314 ; __printf + 168
        0x000002da:    9800        ..      LDR      r0,[sp,#0]
        0x000002dc:    210a        .!      MOVS     r1,#0xa
        0x000002de:    6980        .i      LDR      r0,[r0,#0x18]
        0x000002e0:    4348        HC      MULS     r0,r1,r0
        0x000002e2:    9900        ..      LDR      r1,[sp,#0]
        0x000002e4:    1980        ..      ADDS     r0,r0,r6
        0x000002e6:    3830        08      SUBS     r0,r0,#0x30
        0x000002e8:    6188        .a      STR      r0,[r1,#0x18]
        0x000002ea:    4620         F      MOV      r0,r4
        0x000002ec:    68e1        .h      LDR      r1,[r4,#0xc]
        0x000002ee:    4788        .G      BLX      r1
        0x000002f0:    4606        .F      MOV      r6,r0
        0x000002f2:    f002fc79    ..y.    BL       _is_digit ; 0x2be8
        0x000002f6:    2800        .(      CMP      r0,#0
        0x000002f8:    d1ef        ..      BNE      0x2da ; __printf + 110
        0x000002fa:    2f01        ./      CMP      r7,#1
        0x000002fc:    d00a        ..      BEQ      0x314 ; __printf + 168
        0x000002fe:    2e2e        ..      CMP      r6,#0x2e
        0x00000300:    d108        ..      BNE      0x314 ; __printf + 168
        0x00000302:    4620         F      MOV      r0,r4
        0x00000304:    68e1        .h      LDR      r1,[r4,#0xc]
        0x00000306:    4788        .G      BLX      r1
        0x00000308:    4606        .F      MOV      r6,r0
        0x0000030a:    2020                MOVS     r0,#0x20
        0x0000030c:    4305        .C      ORRS     r5,r5,r0
        0x0000030e:    1c7f        ..      ADDS     r7,r7,#1
        0x00000310:    2f02        ./      CMP      r7,#2
        0x00000312:    dbc3        ..      BLT      0x29c ; __printf + 48
        0x00000314:    69a0        .i      LDR      r0,[r4,#0x18]
        0x00000316:    2800        .(      CMP      r0,#0
        0x00000318:    da03        ..      BGE      0x322 ; __printf + 182
        0x0000031a:    4240        @B      RSBS     r0,r0,#0
        0x0000031c:    61a0        .a      STR      r0,[r4,#0x18]
        0x0000031e:    2001        .       MOVS     r0,#1
        0x00000320:    4305        .C      ORRS     r5,r5,r0
        0x00000322:    07e8        ..      LSLS     r0,r5,#31
        0x00000324:    d001        ..      BEQ      0x32a ; __printf + 190
        0x00000326:    2010        .       MOVS     r0,#0x10
        0x00000328:    4385        .C      BICS     r5,r5,r0
        0x0000032a:    2e00        ..      CMP      r6,#0
        0x0000032c:    d023        #.      BEQ      0x376 ; __printf + 266
        0x0000032e:    4630        0F      MOV      r0,r6
        0x00000330:    3841        A8      SUBS     r0,r0,#0x41
        0x00000332:    2819        .(      CMP      r0,#0x19
        0x00000334:    d803        ..      BHI      0x33e ; __printf + 210
        0x00000336:    2001        .       MOVS     r0,#1
        0x00000338:    02c0        ..      LSLS     r0,r0,#11
        0x0000033a:    4305        .C      ORRS     r5,r5,r0
        0x0000033c:    3620         6      ADDS     r6,r6,#0x20
        0x0000033e:    4620         F      MOV      r0,r4
        0x00000340:    6025        %`      STR      r5,[r4,#0]
        0x00000342:    4631        1F      MOV      r1,r6
        0x00000344:    9a02        ..      LDR      r2,[sp,#8]
        0x00000346:    4615        .F      MOV      r5,r2
        0x00000348:    f7fffef8    ....    BL       _printf_percent ; 0x13c
        0x0000034c:    2800        .(      CMP      r0,#0
        0x0000034e:    d00b        ..      BEQ      0x368 ; __printf + 252
        0x00000350:    2801        .(      CMP      r0,#1
        0x00000352:    d006        ..      BEQ      0x362 ; __printf + 246
        0x00000354:    1ded        ..      ADDS     r5,r5,#7
        0x00000356:    08e8        ..      LSRS     r0,r5,#3
        0x00000358:    00c0        ..      LSLS     r0,r0,#3
        0x0000035a:    3008        .0      ADDS     r0,r0,#8
        0x0000035c:    9002        ..      STR      r0,[sp,#8]
        0x0000035e:    e78a        ..      B        0x276 ; __printf + 10
        0x00000360:    e009        ..      B        0x376 ; __printf + 266
        0x00000362:    1d2d        -.      ADDS     r5,r5,#4
        0x00000364:    9502        ..      STR      r5,[sp,#8]
        0x00000366:    e786        ..      B        0x276 ; __printf + 10
        0x00000368:    6862        bh      LDR      r2,[r4,#4]
        0x0000036a:    4630        0F      MOV      r0,r6
        0x0000036c:    68a1        .h      LDR      r1,[r4,#8]
        0x0000036e:    4790        .G      BLX      r2
        0x00000370:    6a20         j      LDR      r0,[r4,#0x20]
        0x00000372:    1c40        @.      ADDS     r0,r0,#1
        0x00000374:    e77e        ~.      B        0x274 ; __printf + 8
        0x00000376:    6a20         j      LDR      r0,[r4,#0x20]
        0x00000378:    bdfe        ..      POP      {r1-r7,pc}
        0x0000037a:    0000        ..      MOVS     r0,r0
    .text
    strlen
        0x0000037c:    b530        0.      PUSH     {r4,r5,lr}
        0x0000037e:    1c44        D.      ADDS     r4,r0,#1
        0x00000380:    e003        ..      B        0x38a ; strlen + 14
        0x00000382:    7801        .x      LDRB     r1,[r0,#0]
        0x00000384:    1c40        @.      ADDS     r0,r0,#1
        0x00000386:    2900        .)      CMP      r1,#0
        0x00000388:    d00d        ..      BEQ      0x3a6 ; strlen + 42
        0x0000038a:    0781        ..      LSLS     r1,r0,#30
        0x0000038c:    d1f9        ..      BNE      0x382 ; strlen + 6
        0x0000038e:    4b0b        .K      LDR      r3,[pc,#44] ; [0x3bc] = 0x1010101
        0x00000390:    01dd        ..      LSLS     r5,r3,#7
        0x00000392:    c804        ..      LDM      r0!,{r2}
        0x00000394:    1ad1        ..      SUBS     r1,r2,r3
        0x00000396:    4391        .C      BICS     r1,r1,r2
        0x00000398:    4029        )@      ANDS     r1,r1,r5
        0x0000039a:    d0fa        ..      BEQ      0x392 ; strlen + 22
        0x0000039c:    1b00        ..      SUBS     r0,r0,r4
        0x0000039e:    060a        ..      LSLS     r2,r1,#24
        0x000003a0:    d003        ..      BEQ      0x3aa ; strlen + 46
        0x000003a2:    1ec0        ..      SUBS     r0,r0,#3
        0x000003a4:    bd30        0.      POP      {r4,r5,pc}
        0x000003a6:    1b00        ..      SUBS     r0,r0,r4
        0x000003a8:    bd30        0.      POP      {r4,r5,pc}
        0x000003aa:    040a        ..      LSLS     r2,r1,#16
        0x000003ac:    d001        ..      BEQ      0x3b2 ; strlen + 54
        0x000003ae:    1e80        ..      SUBS     r0,r0,#2
        0x000003b0:    bd30        0.      POP      {r4,r5,pc}
        0x000003b2:    0209        ..      LSLS     r1,r1,#8
        0x000003b4:    d0fc        ..      BEQ      0x3b0 ; strlen + 52
        0x000003b6:    1e40        @.      SUBS     r0,r0,#1
        0x000003b8:    bd30        0.      POP      {r4,r5,pc}
    $d
        0x000003ba:    0000        ..      DCW    0
        0x000003bc:    01010101    ....    DCD    16843009
    $t
    .text
    _memset_w
        0x000003c0:    e001        ..      B        0x3c6 ; _memset_w + 6
        0x000003c2:    c004        ..      STM      r0!,{r2}
        0x000003c4:    1f09        ..      SUBS     r1,r1,#4
        0x000003c6:    2904        .)      CMP      r1,#4
        0x000003c8:    d2fb        ..      BCS      0x3c2 ; _memset_w + 2
        0x000003ca:    078b        ..      LSLS     r3,r1,#30
        0x000003cc:    d501        ..      BPL      0x3d2 ; _memset_w + 18
        0x000003ce:    8002        ..      STRH     r2,[r0,#0]
        0x000003d0:    1c80        ..      ADDS     r0,r0,#2
        0x000003d2:    07c9        ..      LSLS     r1,r1,#31
        0x000003d4:    d000        ..      BEQ      0x3d8 ; _memset_w + 24
        0x000003d6:    7002        .p      STRB     r2,[r0,#0]
        0x000003d8:    4770        pG      BX       lr
    _memset
        0x000003da:    2900        .)      CMP      r1,#0
        0x000003dc:    d00b        ..      BEQ      0x3f6 ; _memset + 28
        0x000003de:    07c3        ..      LSLS     r3,r0,#31
        0x000003e0:    d002        ..      BEQ      0x3e8 ; _memset + 14
        0x000003e2:    7002        .p      STRB     r2,[r0,#0]
        0x000003e4:    1c40        @.      ADDS     r0,r0,#1
        0x000003e6:    1e49        I.      SUBS     r1,r1,#1
        0x000003e8:    2902        .)      CMP      r1,#2
        0x000003ea:    d304        ..      BCC      0x3f6 ; _memset + 28
        0x000003ec:    0783        ..      LSLS     r3,r0,#30
        0x000003ee:    d502        ..      BPL      0x3f6 ; _memset + 28
        0x000003f0:    8002        ..      STRH     r2,[r0,#0]
        0x000003f2:    1c80        ..      ADDS     r0,r0,#2
        0x000003f4:    1e89        ..      SUBS     r1,r1,#2
        0x000003f6:    e7e3        ..      B        _memset_w ; 0x3c0
    __aeabi_memclr
    __rt_memclr
        0x000003f8:    2200        ."      MOVS     r2,#0
        0x000003fa:    e7ee        ..      B        _memset ; 0x3da
    __aeabi_memclr4
    __aeabi_memclr8
    __rt_memclr_w
        0x000003fc:    2200        ."      MOVS     r2,#0
        0x000003fe:    e7df        ..      B        _memset_w ; 0x3c0
    .text
    __aeabi_uidiv
    __aeabi_uidivmod
        0x00000400:    2200        ."      MOVS     r2,#0
        0x00000402:    0903        ..      LSRS     r3,r0,#4
        0x00000404:    428b        .B      CMP      r3,r1
        0x00000406:    d32c        ,.      BCC      0x462 ; __aeabi_idiv + 78
        0x00000408:    0a03        ..      LSRS     r3,r0,#8
        0x0000040a:    428b        .B      CMP      r3,r1
        0x0000040c:    d311        ..      BCC      0x432 ; __aeabi_idiv + 30
        0x0000040e:    2300        .#      MOVS     r3,#0
        0x00000410:    469c        .F      MOV      r12,r3
        0x00000412:    e04e        N.      B        0x4b2 ; __aeabi_idiv + 158
    __aeabi_idiv
    __aeabi_idivmod
        0x00000414:    4603        .F      MOV      r3,r0
        0x00000416:    430b        .C      ORRS     r3,r3,r1
        0x00000418:    d43c        <.      BMI      0x494 ; __aeabi_idiv + 128
        0x0000041a:    2200        ."      MOVS     r2,#0
        0x0000041c:    0843        C.      LSRS     r3,r0,#1
        0x0000041e:    428b        .B      CMP      r3,r1
        0x00000420:    d331        1.      BCC      0x486 ; __aeabi_idiv + 114
        0x00000422:    0903        ..      LSRS     r3,r0,#4
        0x00000424:    428b        .B      CMP      r3,r1
        0x00000426:    d31c        ..      BCC      0x462 ; __aeabi_idiv + 78
        0x00000428:    0a03        ..      LSRS     r3,r0,#8
        0x0000042a:    428b        .B      CMP      r3,r1
        0x0000042c:    d301        ..      BCC      0x432 ; __aeabi_idiv + 30
        0x0000042e:    4694        .F      MOV      r12,r2
        0x00000430:    e03f        ?.      B        0x4b2 ; __aeabi_idiv + 158
        0x00000432:    09c3        ..      LSRS     r3,r0,#7
        0x00000434:    428b        .B      CMP      r3,r1
        0x00000436:    d301        ..      BCC      0x43c ; __aeabi_idiv + 40
        0x00000438:    01cb        ..      LSLS     r3,r1,#7
        0x0000043a:    1ac0        ..      SUBS     r0,r0,r3
        0x0000043c:    4152        RA      ADCS     r2,r2,r2
        0x0000043e:    0983        ..      LSRS     r3,r0,#6
        0x00000440:    428b        .B      CMP      r3,r1
        0x00000442:    d301        ..      BCC      0x448 ; __aeabi_idiv + 52
        0x00000444:    018b        ..      LSLS     r3,r1,#6
        0x00000446:    1ac0        ..      SUBS     r0,r0,r3
        0x00000448:    4152        RA      ADCS     r2,r2,r2
        0x0000044a:    0943        C.      LSRS     r3,r0,#5
        0x0000044c:    428b        .B      CMP      r3,r1
        0x0000044e:    d301        ..      BCC      0x454 ; __aeabi_idiv + 64
        0x00000450:    014b        K.      LSLS     r3,r1,#5
        0x00000452:    1ac0        ..      SUBS     r0,r0,r3
        0x00000454:    4152        RA      ADCS     r2,r2,r2
        0x00000456:    0903        ..      LSRS     r3,r0,#4
        0x00000458:    428b        .B      CMP      r3,r1
        0x0000045a:    d301        ..      BCC      0x460 ; __aeabi_idiv + 76
        0x0000045c:    010b        ..      LSLS     r3,r1,#4
        0x0000045e:    1ac0        ..      SUBS     r0,r0,r3
        0x00000460:    4152        RA      ADCS     r2,r2,r2
        0x00000462:    08c3        ..      LSRS     r3,r0,#3
        0x00000464:    428b        .B      CMP      r3,r1
        0x00000466:    d301        ..      BCC      0x46c ; __aeabi_idiv + 88
        0x00000468:    00cb        ..      LSLS     r3,r1,#3
        0x0000046a:    1ac0        ..      SUBS     r0,r0,r3
        0x0000046c:    4152        RA      ADCS     r2,r2,r2
        0x0000046e:    0883        ..      LSRS     r3,r0,#2
        0x00000470:    428b        .B      CMP      r3,r1
        0x00000472:    d301        ..      BCC      0x478 ; __aeabi_idiv + 100
        0x00000474:    008b        ..      LSLS     r3,r1,#2
        0x00000476:    1ac0        ..      SUBS     r0,r0,r3
        0x00000478:    4152        RA      ADCS     r2,r2,r2
        0x0000047a:    0843        C.      LSRS     r3,r0,#1
        0x0000047c:    428b        .B      CMP      r3,r1
        0x0000047e:    d301        ..      BCC      0x484 ; __aeabi_idiv + 112
        0x00000480:    004b        K.      LSLS     r3,r1,#1
        0x00000482:    1ac0        ..      SUBS     r0,r0,r3
        0x00000484:    4152        RA      ADCS     r2,r2,r2
        0x00000486:    1a41        A.      SUBS     r1,r0,r1
        0x00000488:    d200        ..      BCS      0x48c ; __aeabi_idiv + 120
        0x0000048a:    4601        .F      MOV      r1,r0
        0x0000048c:    4152        RA      ADCS     r2,r2,r2
        0x0000048e:    4610        .F      MOV      r0,r2
        0x00000490:    4770        pG      BX       lr
        0x00000492:    e05d        ].      B        0x550 ; __aeabi_idiv + 316
        0x00000494:    0fca        ..      LSRS     r2,r1,#31
        0x00000496:    d000        ..      BEQ      0x49a ; __aeabi_idiv + 134
        0x00000498:    4249        IB      RSBS     r1,r1,#0
        0x0000049a:    1003        ..      ASRS     r3,r0,#32
        0x0000049c:    d300        ..      BCC      0x4a0 ; __aeabi_idiv + 140
        0x0000049e:    4240        @B      RSBS     r0,r0,#0
        0x000004a0:    4053        S@      EORS     r3,r3,r2
        0x000004a2:    2200        ."      MOVS     r2,#0
        0x000004a4:    469c        .F      MOV      r12,r3
        0x000004a6:    0903        ..      LSRS     r3,r0,#4
        0x000004a8:    428b        .B      CMP      r3,r1
        0x000004aa:    d32d        -.      BCC      0x508 ; __aeabi_idiv + 244
        0x000004ac:    0a03        ..      LSRS     r3,r0,#8
        0x000004ae:    428b        .B      CMP      r3,r1
        0x000004b0:    d312        ..      BCC      0x4d8 ; __aeabi_idiv + 196
        0x000004b2:    22fc        ."      MOVS     r2,#0xfc
        0x000004b4:    0189        ..      LSLS     r1,r1,#6
        0x000004b6:    ba12        ..      REV      r2,r2
        0x000004b8:    0a03        ..      LSRS     r3,r0,#8
        0x000004ba:    428b        .B      CMP      r3,r1
        0x000004bc:    d30c        ..      BCC      0x4d8 ; __aeabi_idiv + 196
        0x000004be:    0189        ..      LSLS     r1,r1,#6
        0x000004c0:    1192        ..      ASRS     r2,r2,#6
        0x000004c2:    428b        .B      CMP      r3,r1
        0x000004c4:    d308        ..      BCC      0x4d8 ; __aeabi_idiv + 196
        0x000004c6:    0189        ..      LSLS     r1,r1,#6
        0x000004c8:    1192        ..      ASRS     r2,r2,#6
        0x000004ca:    428b        .B      CMP      r3,r1
        0x000004cc:    d304        ..      BCC      0x4d8 ; __aeabi_idiv + 196
        0x000004ce:    0189        ..      LSLS     r1,r1,#6
        0x000004d0:    d03a        :.      BEQ      0x548 ; __aeabi_idiv + 308
        0x000004d2:    1192        ..      ASRS     r2,r2,#6
        0x000004d4:    e000        ..      B        0x4d8 ; __aeabi_idiv + 196
        0x000004d6:    0989        ..      LSRS     r1,r1,#6
        0x000004d8:    09c3        ..      LSRS     r3,r0,#7
        0x000004da:    428b        .B      CMP      r3,r1
        0x000004dc:    d301        ..      BCC      0x4e2 ; __aeabi_idiv + 206
        0x000004de:    01cb        ..      LSLS     r3,r1,#7
        0x000004e0:    1ac0        ..      SUBS     r0,r0,r3
        0x000004e2:    4152        RA      ADCS     r2,r2,r2
        0x000004e4:    0983        ..      LSRS     r3,r0,#6
        0x000004e6:    428b        .B      CMP      r3,r1
        0x000004e8:    d301        ..      BCC      0x4ee ; __aeabi_idiv + 218
        0x000004ea:    018b        ..      LSLS     r3,r1,#6
        0x000004ec:    1ac0        ..      SUBS     r0,r0,r3
        0x000004ee:    4152        RA      ADCS     r2,r2,r2
        0x000004f0:    0943        C.      LSRS     r3,r0,#5
        0x000004f2:    428b        .B      CMP      r3,r1
        0x000004f4:    d301        ..      BCC      0x4fa ; __aeabi_idiv + 230
        0x000004f6:    014b        K.      LSLS     r3,r1,#5
        0x000004f8:    1ac0        ..      SUBS     r0,r0,r3
        0x000004fa:    4152        RA      ADCS     r2,r2,r2
        0x000004fc:    0903        ..      LSRS     r3,r0,#4
        0x000004fe:    428b        .B      CMP      r3,r1
        0x00000500:    d301        ..      BCC      0x506 ; __aeabi_idiv + 242
        0x00000502:    010b        ..      LSLS     r3,r1,#4
        0x00000504:    1ac0        ..      SUBS     r0,r0,r3
        0x00000506:    4152        RA      ADCS     r2,r2,r2
        0x00000508:    08c3        ..      LSRS     r3,r0,#3
        0x0000050a:    428b        .B      CMP      r3,r1
        0x0000050c:    d301        ..      BCC      0x512 ; __aeabi_idiv + 254
        0x0000050e:    00cb        ..      LSLS     r3,r1,#3
        0x00000510:    1ac0        ..      SUBS     r0,r0,r3
        0x00000512:    4152        RA      ADCS     r2,r2,r2
        0x00000514:    0883        ..      LSRS     r3,r0,#2
        0x00000516:    428b        .B      CMP      r3,r1
        0x00000518:    d301        ..      BCC      0x51e ; __aeabi_idiv + 266
        0x0000051a:    008b        ..      LSLS     r3,r1,#2
        0x0000051c:    1ac0        ..      SUBS     r0,r0,r3
        0x0000051e:    4152        RA      ADCS     r2,r2,r2
        0x00000520:    d2d9        ..      BCS      0x4d6 ; __aeabi_idiv + 194
        0x00000522:    0843        C.      LSRS     r3,r0,#1
        0x00000524:    428b        .B      CMP      r3,r1
        0x00000526:    d301        ..      BCC      0x52c ; __aeabi_idiv + 280
        0x00000528:    004b        K.      LSLS     r3,r1,#1
        0x0000052a:    1ac0        ..      SUBS     r0,r0,r3
        0x0000052c:    4152        RA      ADCS     r2,r2,r2
        0x0000052e:    1a41        A.      SUBS     r1,r0,r1
        0x00000530:    d200        ..      BCS      0x534 ; __aeabi_idiv + 288
        0x00000532:    4601        .F      MOV      r1,r0
        0x00000534:    4663        cF      MOV      r3,r12
        0x00000536:    4152        RA      ADCS     r2,r2,r2
        0x00000538:    105b        [.      ASRS     r3,r3,#1
        0x0000053a:    4610        .F      MOV      r0,r2
        0x0000053c:    d301        ..      BCC      0x542 ; __aeabi_idiv + 302
        0x0000053e:    4240        @B      RSBS     r0,r0,#0
        0x00000540:    2b00        .+      CMP      r3,#0
        0x00000542:    d500        ..      BPL      0x546 ; __aeabi_idiv + 306
        0x00000544:    4249        IB      RSBS     r1,r1,#0
        0x00000546:    4770        pG      BX       lr
        0x00000548:    4663        cF      MOV      r3,r12
        0x0000054a:    105b        [.      ASRS     r3,r3,#1
        0x0000054c:    d300        ..      BCC      0x550 ; __aeabi_idiv + 316
        0x0000054e:    4240        @B      RSBS     r0,r0,#0
        0x00000550:    b501        ..      PUSH     {r0,lr}
        0x00000552:    2000        .       MOVS     r0,#0
        0x00000554:    46c0        .F      MOV      r8,r8
        0x00000556:    46c0        .F      MOV      r8,r8
        0x00000558:    bd02        ..      POP      {r1,pc}
    .text
    __use_two_region_memory
        0x0000055a:    4770        pG      BX       lr
    __rt_heap_escrow$2region
        0x0000055c:    4770        pG      BX       lr
    __rt_heap_expand$2region
        0x0000055e:    4770        pG      BX       lr
    .text
    __aeabi_d2f
    _d2f
        0x00000560:    4602        .F      MOV      r2,r0
        0x00000562:    0fc8        ..      LSRS     r0,r1,#31
        0x00000564:    07c0        ..      LSLS     r0,r0,#31
        0x00000566:    4381        .C      BICS     r1,r1,r0
        0x00000568:    004b        K.      LSLS     r3,r1,#1
        0x0000056a:    b530        0.      PUSH     {r4,r5,lr}
        0x0000056c:    404b        K@      EORS     r3,r3,r1
        0x0000056e:    005b        [.      LSLS     r3,r3,#1
        0x00000570:    0d9b        ..      LSRS     r3,r3,#22
        0x00000572:    d020         .      BEQ      0x5b6 ; __aeabi_d2f + 86
        0x00000574:    2319        .#      MOVS     r3,#0x19
        0x00000576:    06db        ..      LSLS     r3,r3,#27
        0x00000578:    18c9        ..      ADDS     r1,r1,r3
        0x0000057a:    2301        .#      MOVS     r3,#1
        0x0000057c:    051b        ..      LSLS     r3,r3,#20
        0x0000057e:    4299        .B      CMP      r1,r3
        0x00000580:    db20         .      BLT      0x5c4 ; __aeabi_d2f + 100
        0x00000582:    2403        .$      MOVS     r4,#3
        0x00000584:    07a4        ..      LSLS     r4,r4,#30
        0x00000586:    2504        .%      MOVS     r5,#4
        0x00000588:    4613        .F      MOV      r3,r2
        0x0000058a:    40ab        .@      LSLS     r3,r3,r5
        0x0000058c:    d30b        ..      BCC      0x5a6 ; __aeabi_d2f + 70
        0x0000058e:    2b00        .+      CMP      r3,#0
        0x00000590:    d104        ..      BNE      0x59c ; __aeabi_d2f + 60
        0x00000592:    06eb        ..      LSLS     r3,r5,#27
        0x00000594:    4013        .@      ANDS     r3,r3,r2
        0x00000596:    009b        ..      LSLS     r3,r3,#2
        0x00000598:    42e3        .B      CMN      r3,r4
        0x0000059a:    d404        ..      BMI      0x5a6 ; __aeabi_d2f + 70
        0x0000059c:    2401        .$      MOVS     r4,#1
        0x0000059e:    0764        d.      LSLS     r4,r4,#29
        0x000005a0:    2300        .#      MOVS     r3,#0
        0x000005a2:    1912        ..      ADDS     r2,r2,r4
        0x000005a4:    4159        YA      ADCS     r1,r1,r3
        0x000005a6:    23ff        .#      MOVS     r3,#0xff
        0x000005a8:    051b        ..      LSLS     r3,r3,#20
        0x000005aa:    4299        .B      CMP      r1,r3
        0x000005ac:    d20b        ..      BCS      0x5c6 ; __aeabi_d2f + 102
        0x000005ae:    00c9        ..      LSLS     r1,r1,#3
        0x000005b0:    4301        .C      ORRS     r1,r1,r0
        0x000005b2:    0f50        P.      LSRS     r0,r2,#29
        0x000005b4:    e009        ..      B        0x5ca ; __aeabi_d2f + 106
        0x000005b6:    02cb        ..      LSLS     r3,r1,#11
        0x000005b8:    d504        ..      BPL      0x5c4 ; __aeabi_d2f + 100
        0x000005ba:    4301        .C      ORRS     r1,r1,r0
        0x000005bc:    0308        ..      LSLS     r0,r1,#12
        0x000005be:    4302        .C      ORRS     r2,r2,r0
        0x000005c0:    d005        ..      BEQ      0x5ce ; __aeabi_d2f + 110
        0x000005c2:    4805        .H      LDR      r0,[pc,#20] ; [0x5d8] = 0x7fc00000
        0x000005c4:    bd30        0.      POP      {r4,r5,pc}
        0x000005c6:    21ff        .!      MOVS     r1,#0xff
        0x000005c8:    05c9        ..      LSLS     r1,r1,#23
        0x000005ca:    4308        .C      ORRS     r0,r0,r1
        0x000005cc:    bd30        0.      POP      {r4,r5,pc}
        0x000005ce:    4608        .F      MOV      r0,r1
        0x000005d0:    2107        .!      MOVS     r1,#7
        0x000005d2:    0509        ..      LSLS     r1,r1,#20
        0x000005d4:    4388        .C      BICS     r0,r0,r1
        0x000005d6:    bd30        0.      POP      {r4,r5,pc}
    $d
        0x000005d8:    7fc00000    ....    DCD    2143289344
    $t
    .text
    _dadd1
        0x000005dc:    b5f0        ..      PUSH     {r4-r7,lr}
        0x000005de:    460c        .F      MOV      r4,r1
        0x000005e0:    1a87        ..      SUBS     r7,r0,r2
        0x000005e2:    419c        .A      SBCS     r4,r4,r3
        0x000005e4:    460d        .F      MOV      r5,r1
        0x000005e6:    1a86        ..      SUBS     r6,r0,r2
        0x000005e8:    419d        .A      SBCS     r5,r5,r3
        0x000005ea:    d203        ..      BCS      0x5f4 ; _dadd1 + 24
        0x000005ec:    1bc0        ..      SUBS     r0,r0,r7
        0x000005ee:    41a1        .A      SBCS     r1,r1,r4
        0x000005f0:    19d2        ..      ADDS     r2,r2,r7
        0x000005f2:    4163        cA      ADCS     r3,r3,r4
        0x000005f4:    0d0d        ..      LSRS     r5,r1,#20
        0x000005f6:    0d1f        ..      LSRS     r7,r3,#20
        0x000005f8:    4ec9        .N      LDR      r6,[pc,#804] ; [0x920] = 0x7ff
        0x000005fa:    1bec        ..      SUBS     r4,r5,r7
        0x000005fc:    43ae        .C      BICS     r6,r6,r5
        0x000005fe:    d05c        \.      BEQ      0x6ba ; _dadd1 + 222
        0x00000600:    057f        ..      LSLS     r7,r7,#21
        0x00000602:    0d7f        ..      LSRS     r7,r7,#21
        0x00000604:    2600        .&      MOVS     r6,#0
        0x00000606:    2f00        ./      CMP      r7,#0
        0x00000608:    d051        Q.      BEQ      0x6ae ; _dadd1 + 210
        0x0000060a:    052d        -.      LSLS     r5,r5,#20
        0x0000060c:    46ac        .F      MOV      r12,r5
        0x0000060e:    43a9        .C      BICS     r1,r1,r5
        0x00000610:    02dd        ..      LSLS     r5,r3,#11
        0x00000612:    2301        .#      MOVS     r3,#1
        0x00000614:    0aed        ..      LSRS     r5,r5,#11
        0x00000616:    051b        ..      LSLS     r3,r3,#20
        0x00000618:    431d        .C      ORRS     r5,r5,r3
        0x0000061a:    2320         #      MOVS     r3,#0x20
        0x0000061c:    1b1b        ..      SUBS     r3,r3,r4
        0x0000061e:    d424        $.      BMI      0x66a ; _dadd1 + 142
        0x00000620:    4617        .F      MOV      r7,r2
        0x00000622:    40e7        .@      LSRS     r7,r7,r4
        0x00000624:    1838        8.      ADDS     r0,r7,r0
        0x00000626:    4171        qA      ADCS     r1,r1,r6
        0x00000628:    462f        /F      MOV      r7,r5
        0x0000062a:    40e7        .@      LSRS     r7,r7,r4
        0x0000062c:    19cc        ..      ADDS     r4,r1,r7
        0x0000062e:    409d        .@      LSLS     r5,r5,r3
        0x00000630:    1828        (.      ADDS     r0,r5,r0
        0x00000632:    4631        1F      MOV      r1,r6
        0x00000634:    4161        aA      ADCS     r1,r1,r4
        0x00000636:    0d0c        ..      LSRS     r4,r1,#20
        0x00000638:    d127        '.      BNE      0x68a ; _dadd1 + 174
        0x0000063a:    4461        aD      ADD      r1,r1,r12
        0x0000063c:    409a        .@      LSLS     r2,r2,r3
        0x0000063e:    d513        ..      BPL      0x668 ; _dadd1 + 140
        0x00000640:    2300        .#      MOVS     r3,#0
        0x00000642:    1c40        @.      ADDS     r0,r0,#1
        0x00000644:    4159        YA      ADCS     r1,r1,r3
        0x00000646:    0052        R.      LSLS     r2,r2,#1
        0x00000648:    d10e        ..      BNE      0x668 ; _dadd1 + 140
        0x0000064a:    0840        @.      LSRS     r0,r0,#1
        0x0000064c:    0040        @.      LSLS     r0,r0,#1
        0x0000064e:    2201        ."      MOVS     r2,#1
        0x00000650:    004b        K.      LSLS     r3,r1,#1
        0x00000652:    0552        R.      LSLS     r2,r2,#21
        0x00000654:    42d3        .B      CMN      r3,r2
        0x00000656:    d307        ..      BCC      0x668 ; _dadd1 + 140
        0x00000658:    2005        .       MOVS     r0,#5
        0x0000065a:    0740        @.      LSLS     r0,r0,#29
        0x0000065c:    42c1        .B      CMN      r1,r0
        0x0000065e:    d501        ..      BPL      0x664 ; _dadd1 + 136
        0x00000660:    49b0        .I      LDR      r1,[pc,#704] ; [0x924] = 0xfff00000
        0x00000662:    e000        ..      B        0x666 ; _dadd1 + 138
        0x00000664:    49b0        .I      LDR      r1,[pc,#704] ; [0x928] = 0x7ff00000
        0x00000666:    4630        0F      MOV      r0,r6
        0x00000668:    bdf0        ..      POP      {r4-r7,pc}
        0x0000066a:    006b        k.      LSLS     r3,r5,#1
        0x0000066c:    2a00        .*      CMP      r2,#0
        0x0000066e:    d000        ..      BEQ      0x672 ; _dadd1 + 150
        0x00000670:    2201        ."      MOVS     r2,#1
        0x00000672:    189a        ..      ADDS     r2,r3,r2
        0x00000674:    231f        .#      MOVS     r3,#0x1f
        0x00000676:    3c20         <      SUBS     r4,r4,#0x20
        0x00000678:    1b1b        ..      SUBS     r3,r3,r4
        0x0000067a:    d501        ..      BPL      0x680 ; _dadd1 + 164
        0x0000067c:    2300        .#      MOVS     r3,#0
        0x0000067e:    e002        ..      B        0x686 ; _dadd1 + 170
        0x00000680:    40e5        .@      LSRS     r5,r5,r4
        0x00000682:    1828        (.      ADDS     r0,r5,r0
        0x00000684:    4171        qA      ADCS     r1,r1,r6
        0x00000686:    0d0c        ..      LSRS     r4,r1,#20
        0x00000688:    d0d7        ..      BEQ      0x63a ; _dadd1 + 94
        0x0000068a:    2401        .$      MOVS     r4,#1
        0x0000068c:    0524        $.      LSLS     r4,r4,#20
        0x0000068e:    1909        ..      ADDS     r1,r1,r4
        0x00000690:    07c4        ..      LSLS     r4,r0,#31
        0x00000692:    07cd        ..      LSLS     r5,r1,#31
        0x00000694:    0840        @.      LSRS     r0,r0,#1
        0x00000696:    0849        I.      LSRS     r1,r1,#1
        0x00000698:    0fe4        ..      LSRS     r4,r4,#31
        0x0000069a:    4328        (C      ORRS     r0,r0,r5
        0x0000069c:    4461        aD      ADD      r1,r1,r12
        0x0000069e:    2c00        .,      CMP      r4,#0
        0x000006a0:    d0d5        ..      BEQ      0x64e ; _dadd1 + 114
        0x000006a2:    2400        .$      MOVS     r4,#0
        0x000006a4:    1c40        @.      ADDS     r0,r0,#1
        0x000006a6:    4161        aA      ADCS     r1,r1,r4
        0x000006a8:    409a        .@      LSLS     r2,r2,r3
        0x000006aa:    d1d0        ..      BNE      0x64e ; _dadd1 + 114
        0x000006ac:    e7cd        ..      B        0x64a ; _dadd1 + 110
        0x000006ae:    056a        j.      LSLS     r2,r5,#21
        0x000006b0:    0d52        R.      LSRS     r2,r2,#21
        0x000006b2:    d1d9        ..      BNE      0x668 ; _dadd1 + 140
        0x000006b4:    0fc9        ..      LSRS     r1,r1,#31
        0x000006b6:    07c9        ..      LSLS     r1,r1,#31
        0x000006b8:    e7d5        ..      B        0x666 ; _dadd1 + 138
        0x000006ba:    4d9c        .M      LDR      r5,[pc,#624] ; [0x92c] = 0xffe00000
        0x000006bc:    004e        N.      LSLS     r6,r1,#1
        0x000006be:    2800        .(      CMP      r0,#0
        0x000006c0:    d001        ..      BEQ      0x6c6 ; _dadd1 + 234
        0x000006c2:    2401        .$      MOVS     r4,#1
        0x000006c4:    e000        ..      B        0x6c8 ; _dadd1 + 236
        0x000006c6:    2400        .$      MOVS     r4,#0
        0x000006c8:    1934        4.      ADDS     r4,r6,r4
        0x000006ca:    005f        _.      LSLS     r7,r3,#1
        0x000006cc:    2a00        .*      CMP      r2,#0
        0x000006ce:    d001        ..      BEQ      0x6d4 ; _dadd1 + 248
        0x000006d0:    2601        .&      MOVS     r6,#1
        0x000006d2:    e000        ..      B        0x6d6 ; _dadd1 + 250
        0x000006d4:    2600        .&      MOVS     r6,#0
        0x000006d6:    19be        ..      ADDS     r6,r7,r6
        0x000006d8:    4f95        .O      LDR      r7,[pc,#596] ; [0x930] = 0x7ff80000
        0x000006da:    42ac        .B      CMP      r4,r5
        0x000006dc:    d80c        ..      BHI      0x6f8 ; _dadd1 + 284
        0x000006de:    42ae        .B      CMP      r6,r5
        0x000006e0:    d80a        ..      BHI      0x6f8 ; _dadd1 + 284
        0x000006e2:    42b4        .B      CMP      r4,r6
        0x000006e4:    d006        ..      BEQ      0x6f4 ; _dadd1 + 280
        0x000006e6:    2501        .%      MOVS     r5,#1
        0x000006e8:    056d        m.      LSLS     r5,r5,#21
        0x000006ea:    42ec        .B      CMN      r4,r5
        0x000006ec:    d0bc        ..      BEQ      0x668 ; _dadd1 + 140
        0x000006ee:    4610        .F      MOV      r0,r2
        0x000006f0:    4619        .F      MOV      r1,r3
        0x000006f2:    bdf0        ..      POP      {r4-r7,pc}
        0x000006f4:    4299        .B      CMP      r1,r3
        0x000006f6:    d0fc        ..      BEQ      0x6f2 ; _dadd1 + 278
        0x000006f8:    2000        .       MOVS     r0,#0
        0x000006fa:    4639        9F      MOV      r1,r7
        0x000006fc:    bdf0        ..      POP      {r4-r7,pc}
    _dsub1
        0x000006fe:    b5f0        ..      PUSH     {r4-r7,lr}
        0x00000700:    b41f        ..      PUSH     {r0-r4}
        0x00000702:    460c        .F      MOV      r4,r1
        0x00000704:    460f        .F      MOV      r7,r1
        0x00000706:    1a81        ..      SUBS     r1,r0,r2
        0x00000708:    419f        .A      SBCS     r7,r7,r3
        0x0000070a:    4625        %F      MOV      r5,r4
        0x0000070c:    1a86        ..      SUBS     r6,r0,r2
        0x0000070e:    419d        .A      SBCS     r5,r5,r3
        0x00000710:    d206        ..      BCS      0x720 ; _dsub1 + 34
        0x00000712:    2501        .%      MOVS     r5,#1
        0x00000714:    07ed        ..      LSLS     r5,r5,#31
        0x00000716:    406f        o@      EORS     r7,r7,r5
        0x00000718:    1a40        @.      SUBS     r0,r0,r1
        0x0000071a:    41bc        .A      SBCS     r4,r4,r7
        0x0000071c:    1852        R.      ADDS     r2,r2,r1
        0x0000071e:    417b        {A      ADCS     r3,r3,r7
        0x00000720:    0d21        !.      LSRS     r1,r4,#20
        0x00000722:    0d1e        ..      LSRS     r6,r3,#20
        0x00000724:    1b8d        ..      SUBS     r5,r1,r6
        0x00000726:    46ac        .F      MOV      r12,r5
        0x00000728:    4d7d        }M      LDR      r5,[pc,#500] ; [0x920] = 0x7ff
        0x0000072a:    438d        .C      BICS     r5,r5,r1
        0x0000072c:    d07e        ~.      BEQ      0x82c ; _dsub1 + 302
        0x0000072e:    0575        u.      LSLS     r5,r6,#21
        0x00000730:    0d6d        m.      LSRS     r5,r5,#21
        0x00000732:    d07c        |.      BEQ      0x82e ; _dsub1 + 304
        0x00000734:    050d        ..      LSLS     r5,r1,#20
        0x00000736:    46ae        .F      MOV      lr,r5
        0x00000738:    43ac        .C      BICS     r4,r4,r5
        0x0000073a:    031b        ..      LSLS     r3,r3,#12
        0x0000073c:    0b1b        ..      LSRS     r3,r3,#12
        0x0000073e:    4d79        yM      LDR      r5,[pc,#484] ; [0x924] = 0xfff00000
        0x00000740:    4252        RB      RSBS     r2,r2,#0
        0x00000742:    419d        .A      SBCS     r5,r5,r3
        0x00000744:    2320         #      MOVS     r3,#0x20
        0x00000746:    4666        fF      MOV      r6,r12
        0x00000748:    1b9b        ..      SUBS     r3,r3,r6
        0x0000074a:    d314        ..      BCC      0x776 ; _dsub1 + 120
        0x0000074c:    4617        .F      MOV      r7,r2
        0x0000074e:    40f7        .@      LSRS     r7,r7,r6
        0x00000750:    1838        8.      ADDS     r0,r7,r0
        0x00000752:    2600        .&      MOVS     r6,#0
        0x00000754:    9000        ..      STR      r0,[sp,#0]
        0x00000756:    4174        tA      ADCS     r4,r4,r6
        0x00000758:    4660        `F      MOV      r0,r12
        0x0000075a:    462f        /F      MOV      r7,r5
        0x0000075c:    4107        .A      ASRS     r7,r7,r0
        0x0000075e:    19e4        ..      ADDS     r4,r4,r7
        0x00000760:    9800        ..      LDR      r0,[sp,#0]
        0x00000762:    409d        .@      LSLS     r5,r5,r3
        0x00000764:    1828        (.      ADDS     r0,r5,r0
        0x00000766:    4166        fA      ADCS     r6,r6,r4
        0x00000768:    d416        ..      BMI      0x798 ; _dsub1 + 154
        0x0000076a:    4671        qF      MOV      r1,lr
        0x0000076c:    1871        q.      ADDS     r1,r6,r1
        0x0000076e:    409a        .@      LSLS     r2,r2,r3
        0x00000770:    d525        %.      BPL      0x7be ; _dsub1 + 192
        0x00000772:    2301        .#      MOVS     r3,#1
        0x00000774:    e020         .      B        0x7b8 ; _dsub1 + 186
        0x00000776:    1893        ..      ADDS     r3,r2,r2
        0x00000778:    462a        *F      MOV      r2,r5
        0x0000077a:    416a        jA      ADCS     r2,r2,r5
        0x0000077c:    0052        R.      LSLS     r2,r2,#1
        0x0000077e:    2b00        .+      CMP      r3,#0
        0x00000780:    d000        ..      BEQ      0x784 ; _dsub1 + 134
        0x00000782:    1c52        R.      ADDS     r2,r2,#1
        0x00000784:    231e        .#      MOVS     r3,#0x1e
        0x00000786:    3e20         >      SUBS     r6,r6,#0x20
        0x00000788:    1b9b        ..      SUBS     r3,r3,r6
        0x0000078a:    2b00        .+      CMP      r3,#0
        0x0000078c:    dd61        a.      BLE      0x852 ; _dsub1 + 340
        0x0000078e:    4135        5A      ASRS     r5,r5,r6
        0x00000790:    17ee        ..      ASRS     r6,r5,#31
        0x00000792:    1828        (.      ADDS     r0,r5,r0
        0x00000794:    4166        fA      ADCS     r6,r6,r4
        0x00000796:    d5e8        ..      BPL      0x76a ; _dsub1 + 108
        0x00000798:    1800        ..      ADDS     r0,r0,r0
        0x0000079a:    4176        vA      ADCS     r6,r6,r6
        0x0000079c:    1c5b        [.      ADDS     r3,r3,#1
        0x0000079e:    409a        .@      LSLS     r2,r2,r3
        0x000007a0:    d300        ..      BCC      0x7a4 ; _dsub1 + 166
        0x000007a2:    1c40        @.      ADDS     r0,r0,#1
        0x000007a4:    054b        K.      LSLS     r3,r1,#21
        0x000007a6:    18f3        ..      ADDS     r3,r6,r3
        0x000007a8:    2415        .$      MOVS     r4,#0x15
        0x000007aa:    40e3        .@      LSRS     r3,r3,r4
        0x000007ac:    d310        ..      BCC      0x7d0 ; _dsub1 + 210
        0x000007ae:    2b00        .+      CMP      r3,#0
        0x000007b0:    d052        R.      BEQ      0x858 ; _dsub1 + 346
        0x000007b2:    4671        qF      MOV      r1,lr
        0x000007b4:    1871        q.      ADDS     r1,r6,r1
        0x000007b6:    0fd3        ..      LSRS     r3,r2,#31
        0x000007b8:    18c0        ..      ADDS     r0,r0,r3
        0x000007ba:    d302        ..      BCC      0x7c2 ; _dsub1 + 196
        0x000007bc:    1c49        I.      ADDS     r1,r1,#1
        0x000007be:    b005        ..      ADD      sp,sp,#0x14
        0x000007c0:    bdf0        ..      POP      {r4-r7,pc}
        0x000007c2:    2301        .#      MOVS     r3,#1
        0x000007c4:    07db        ..      LSLS     r3,r3,#31
        0x000007c6:    429a        .B      CMP      r2,r3
        0x000007c8:    d1f9        ..      BNE      0x7be ; _dsub1 + 192
        0x000007ca:    0840        @.      LSRS     r0,r0,#1
        0x000007cc:    0040        @.      LSLS     r0,r0,#1
        0x000007ce:    e7f6        ..      B        0x7be ; _dsub1 + 192
        0x000007d0:    2201        ."      MOVS     r2,#1
        0x000007d2:    0552        R.      LSLS     r2,r2,#21
        0x000007d4:    18b2        ..      ADDS     r2,r6,r2
        0x000007d6:    d101        ..      BNE      0x7dc ; _dsub1 + 222
        0x000007d8:    2800        .(      CMP      r0,#0
        0x000007da:    d053        S.      BEQ      0x884 ; _dsub1 + 390
        0x000007dc:    2301        .#      MOVS     r3,#1
        0x000007de:    0acc        ..      LSRS     r4,r1,#11
        0x000007e0:    02db        ..      LSLS     r3,r3,#11
        0x000007e2:    4399        .C      BICS     r1,r1,r3
        0x000007e4:    1e89        ..      SUBS     r1,r1,#2
        0x000007e6:    2a00        .*      CMP      r2,#0
        0x000007e8:    d108        ..      BNE      0x7fc ; _dsub1 + 254
        0x000007ea:    0c02        ..      LSRS     r2,r0,#16
        0x000007ec:    d003        ..      BEQ      0x7f6 ; _dsub1 + 248
        0x000007ee:    0c02        ..      LSRS     r2,r0,#16
        0x000007f0:    0400        ..      LSLS     r0,r0,#16
        0x000007f2:    3910        .9      SUBS     r1,r1,#0x10
        0x000007f4:    e002        ..      B        0x7fc ; _dsub1 + 254
        0x000007f6:    4602        .F      MOV      r2,r0
        0x000007f8:    2000        .       MOVS     r0,#0
        0x000007fa:    3920         9      SUBS     r1,r1,#0x20
        0x000007fc:    2300        .#      MOVS     r3,#0
        0x000007fe:    0b55        U.      LSRS     r5,r2,#13
        0x00000800:    d105        ..      BNE      0x80e ; _dsub1 + 272
        0x00000802:    0212        ..      LSLS     r2,r2,#8
        0x00000804:    2308        .#      MOVS     r3,#8
        0x00000806:    0b55        U.      LSRS     r5,r2,#13
        0x00000808:    d101        ..      BNE      0x80e ; _dsub1 + 272
        0x0000080a:    0152        R.      LSLS     r2,r2,#5
        0x0000080c:    230d        .#      MOVS     r3,#0xd
        0x0000080e:    0c55        U.      LSRS     r5,r2,#17
        0x00000810:    d101        ..      BNE      0x816 ; _dsub1 + 280
        0x00000812:    0112        ..      LSLS     r2,r2,#4
        0x00000814:    1d1b        ..      ADDS     r3,r3,#4
        0x00000816:    0cd5        ..      LSRS     r5,r2,#19
        0x00000818:    d101        ..      BNE      0x81e ; _dsub1 + 288
        0x0000081a:    0092        ..      LSLS     r2,r2,#2
        0x0000081c:    1c9b        ..      ADDS     r3,r3,#2
        0x0000081e:    0d15        ..      LSRS     r5,r2,#20
        0x00000820:    d101        ..      BNE      0x826 ; _dsub1 + 296
        0x00000822:    0052        R.      LSLS     r2,r2,#1
        0x00000824:    1c5b        [.      ADDS     r3,r3,#1
        0x00000826:    2520         %      MOVS     r5,#0x20
        0x00000828:    1aee        ..      SUBS     r6,r5,r3
        0x0000082a:    e001        ..      B        0x830 ; _dsub1 + 306
        0x0000082c:    e02c        ,.      B        0x888 ; _dsub1 + 394
        0x0000082e:    e022        ".      B        0x876 ; _dsub1 + 376
        0x00000830:    4605        .F      MOV      r5,r0
        0x00000832:    40f5        .@      LSRS     r5,r5,r6
        0x00000834:    4315        .C      ORRS     r5,r5,r2
        0x00000836:    4098        .@      LSLS     r0,r0,r3
        0x00000838:    1aca        ..      SUBS     r2,r1,r3
        0x0000083a:    07e1        ..      LSLS     r1,r4,#31
        0x0000083c:    1869        i.      ADDS     r1,r5,r1
        0x0000083e:    0513        ..      LSLS     r3,r2,#20
        0x00000840:    18c9        ..      ADDS     r1,r1,r3
        0x00000842:    2a00        .*      CMP      r2,#0
        0x00000844:    dabb        ..      BGE      0x7be ; _dsub1 + 192
        0x00000846:    2003        .       MOVS     r0,#3
        0x00000848:    0740        @.      LSLS     r0,r0,#29
        0x0000084a:    1808        ..      ADDS     r0,r1,r0
        0x0000084c:    0fc1        ..      LSRS     r1,r0,#31
        0x0000084e:    07c9        ..      LSLS     r1,r1,#31
        0x00000850:    e00f        ..      B        0x872 ; _dsub1 + 372
        0x00000852:    4671        qF      MOV      r1,lr
        0x00000854:    1861        a.      ADDS     r1,r4,r1
        0x00000856:    e7b2        ..      B        0x7be ; _dsub1 + 192
        0x00000858:    07f1        ..      LSLS     r1,r6,#31
        0x0000085a:    0840        @.      LSRS     r0,r0,#1
        0x0000085c:    4308        .C      ORRS     r0,r0,r1
        0x0000085e:    1071        q.      ASRS     r1,r6,#1
        0x00000860:    4471        qD      ADD      r1,r1,lr
        0x00000862:    004a        J.      LSLS     r2,r1,#1
        0x00000864:    d00c        ..      BEQ      0x880 ; _dsub1 + 386
        0x00000866:    2301        .#      MOVS     r3,#1
        0x00000868:    055b        [.      LSLS     r3,r3,#21
        0x0000086a:    429a        .B      CMP      r2,r3
        0x0000086c:    d2a7        ..      BCS      0x7be ; _dsub1 + 192
        0x0000086e:    0fc9        ..      LSRS     r1,r1,#31
        0x00000870:    07c9        ..      LSLS     r1,r1,#31
        0x00000872:    2000        .       MOVS     r0,#0
        0x00000874:    e7a3        ..      B        0x7be ; _dsub1 + 192
        0x00000876:    0549        I.      LSLS     r1,r1,#21
        0x00000878:    0d49        I.      LSRS     r1,r1,#21
        0x0000087a:    d126        &.      BNE      0x8ca ; _dsub1 + 460
        0x0000087c:    2000        .       MOVS     r0,#0
        0x0000087e:    e001        ..      B        0x884 ; _dsub1 + 390
        0x00000880:    2800        .(      CMP      r0,#0
        0x00000882:    d1f4        ..      BNE      0x86e ; _dsub1 + 368
        0x00000884:    2100        .!      MOVS     r1,#0
        0x00000886:    e79a        ..      B        0x7be ; _dsub1 + 192
        0x00000888:    4d28        (M      LDR      r5,[pc,#160] ; [0x92c] = 0xffe00000
        0x0000088a:    0066        f.      LSLS     r6,r4,#1
        0x0000088c:    2800        .(      CMP      r0,#0
        0x0000088e:    d001        ..      BEQ      0x894 ; _dsub1 + 406
        0x00000890:    2101        .!      MOVS     r1,#1
        0x00000892:    e000        ..      B        0x896 ; _dsub1 + 408
        0x00000894:    2100        .!      MOVS     r1,#0
        0x00000896:    1871        q.      ADDS     r1,r6,r1
        0x00000898:    005f        _.      LSLS     r7,r3,#1
        0x0000089a:    2a00        .*      CMP      r2,#0
        0x0000089c:    d001        ..      BEQ      0x8a2 ; _dsub1 + 420
        0x0000089e:    2601        .&      MOVS     r6,#1
        0x000008a0:    e000        ..      B        0x8a4 ; _dsub1 + 422
        0x000008a2:    2600        .&      MOVS     r6,#0
        0x000008a4:    19be        ..      ADDS     r6,r7,r6
        0x000008a6:    4f22        "O      LDR      r7,[pc,#136] ; [0x930] = 0x7ff80000
        0x000008a8:    42a9        .B      CMP      r1,r5
        0x000008aa:    d810        ..      BHI      0x8ce ; _dsub1 + 464
        0x000008ac:    42ae        .B      CMP      r6,r5
        0x000008ae:    d80e        ..      BHI      0x8ce ; _dsub1 + 464
        0x000008b0:    42b1        .B      CMP      r1,r6
        0x000008b2:    d008        ..      BEQ      0x8c6 ; _dsub1 + 456
        0x000008b4:    2501        .%      MOVS     r5,#1
        0x000008b6:    056d        m.      LSLS     r5,r5,#21
        0x000008b8:    42e9        .B      CMN      r1,r5
        0x000008ba:    d006        ..      BEQ      0x8ca ; _dsub1 + 460
        0x000008bc:    4619        .F      MOV      r1,r3
        0x000008be:    02a8        ..      LSLS     r0,r5,#10
        0x000008c0:    4041        A@      EORS     r1,r1,r0
        0x000008c2:    4610        .F      MOV      r0,r2
        0x000008c4:    e77b        {.      B        0x7be ; _dsub1 + 192
        0x000008c6:    429c        .B      CMP      r4,r3
        0x000008c8:    d001        ..      BEQ      0x8ce ; _dsub1 + 464
        0x000008ca:    4621        !F      MOV      r1,r4
        0x000008cc:    e777        w.      B        0x7be ; _dsub1 + 192
        0x000008ce:    2000        .       MOVS     r0,#0
        0x000008d0:    4639        9F      MOV      r1,r7
        0x000008d2:    e774        t.      B        0x7be ; _dsub1 + 192
    __aeabi_dadd
    _dadd
        0x000008d4:    b510        ..      PUSH     {r4,lr}
        0x000008d6:    460c        .F      MOV      r4,r1
        0x000008d8:    405c        \@      EORS     r4,r4,r3
        0x000008da:    d505        ..      BPL      0x8e8 ; __aeabi_dadd + 20
        0x000008dc:    2401        .$      MOVS     r4,#1
        0x000008de:    07e4        ..      LSLS     r4,r4,#31
        0x000008e0:    4063        c@      EORS     r3,r3,r4
        0x000008e2:    f7ffff0c    ....    BL       _dsub1 ; 0x6fe
        0x000008e6:    bd10        ..      POP      {r4,pc}
        0x000008e8:    f7fffe78    ..x.    BL       _dadd1 ; 0x5dc
        0x000008ec:    bd10        ..      POP      {r4,pc}
    __aeabi_dsub
    _dsub
        0x000008ee:    b430        0.      PUSH     {r4,r5}
        0x000008f0:    460c        .F      MOV      r4,r1
        0x000008f2:    405c        \@      EORS     r4,r4,r3
        0x000008f4:    d504        ..      BPL      0x900 ; __aeabi_dsub + 18
        0x000008f6:    2401        .$      MOVS     r4,#1
        0x000008f8:    07e4        ..      LSLS     r4,r4,#31
        0x000008fa:    4063        c@      EORS     r3,r3,r4
        0x000008fc:    bc30        0.      POP      {r4,r5}
        0x000008fe:    e66d        m.      B        _dadd1 ; 0x5dc
        0x00000900:    bc30        0.      POP      {r4,r5}
        0x00000902:    e6fc        ..      B        _dsub1 ; 0x6fe
    __aeabi_drsub
    _drsb
        0x00000904:    b570        p.      PUSH     {r4-r6,lr}
        0x00000906:    2401        .$      MOVS     r4,#1
        0x00000908:    07e4        ..      LSLS     r4,r4,#31
        0x0000090a:    4061        a@      EORS     r1,r1,r4
        0x0000090c:    460d        .F      MOV      r5,r1
        0x0000090e:    405d        ]@      EORS     r5,r5,r3
        0x00000910:    d402        ..      BMI      0x918 ; __aeabi_drsub + 20
        0x00000912:    f7fffe63    ..c.    BL       _dadd1 ; 0x5dc
        0x00000916:    bd70        p.      POP      {r4-r6,pc}
        0x00000918:    4063        c@      EORS     r3,r3,r4
        0x0000091a:    f7fffef0    ....    BL       _dsub1 ; 0x6fe
        0x0000091e:    bd70        p.      POP      {r4-r6,pc}
    $d
        0x00000920:    000007ff    ....    DCD    2047
        0x00000924:    fff00000    ....    DCD    4293918720
        0x00000928:    7ff00000    ....    DCD    2146435072
        0x0000092c:    ffe00000    ....    DCD    4292870144
        0x00000930:    7ff80000    ....    DCD    2146959360
    $t
    .text
    __aeabi_ddiv
    _ddiv
        0x00000934:    b5f0        ..      PUSH     {r4-r7,lr}
        0x00000936:    4df9        .M      LDR      r5,[pc,#996] ; [0xd1c] = 0x7ff0000
        0x00000938:    090c        ..      LSRS     r4,r1,#4
        0x0000093a:    091e        ..      LSRS     r6,r3,#4
        0x0000093c:    402c        ,@      ANDS     r4,r4,r5
        0x0000093e:    402e        .@      ANDS     r6,r6,r5
        0x00000940:    462f        /F      MOV      r7,r5
        0x00000942:    b08b        ..      SUB      sp,sp,#0x2c
        0x00000944:    43a7        .C      BICS     r7,r7,r4
        0x00000946:    d07d        }.      BEQ      0xa44 ; __aeabi_ddiv + 272
        0x00000948:    43b5        .C      BICS     r5,r5,r6
        0x0000094a:    d0fc        ..      BEQ      0x946 ; __aeabi_ddiv + 18
        0x0000094c:    2e00        ..      CMP      r6,#0
        0x0000094e:    d07a        z.      BEQ      0xa46 ; __aeabi_ddiv + 274
        0x00000950:    2c00        .,      CMP      r4,#0
        0x00000952:    d0fc        ..      BEQ      0x94e ; __aeabi_ddiv + 26
        0x00000954:    460d        .F      MOV      r5,r1
        0x00000956:    405d        ]@      EORS     r5,r5,r3
        0x00000958:    0fed        ..      LSRS     r5,r5,#31
        0x0000095a:    4325        %C      ORRS     r5,r5,r4
        0x0000095c:    1bac        ..      SUBS     r4,r5,r6
        0x0000095e:    25ff        .%      MOVS     r5,#0xff
        0x00000960:    04ad        ..      LSLS     r5,r5,#18
        0x00000962:    1964        d.      ADDS     r4,r4,r5
        0x00000964:    9408        ..      STR      r4,[sp,#0x20]
        0x00000966:    02c5        ..      LSLS     r5,r0,#11
        0x00000968:    0d44        D.      LSRS     r4,r0,#21
        0x0000096a:    02c9        ..      LSLS     r1,r1,#11
        0x0000096c:    4321        !C      ORRS     r1,r1,r4
        0x0000096e:    0d50        P.      LSRS     r0,r2,#21
        0x00000970:    02dc        ..      LSLS     r4,r3,#11
        0x00000972:    4304        .C      ORRS     r4,r4,r0
        0x00000974:    2001        .       MOVS     r0,#1
        0x00000976:    07c0        ..      LSLS     r0,r0,#31
        0x00000978:    4301        .C      ORRS     r1,r1,r0
        0x0000097a:    4304        .C      ORRS     r4,r4,r0
        0x0000097c:    02d2        ..      LSLS     r2,r2,#11
        0x0000097e:    9101        ..      STR      r1,[sp,#4]
        0x00000980:    0c20         .      LSRS     r0,r4,#16
        0x00000982:    0c11        ..      LSRS     r1,r2,#16
        0x00000984:    9500        ..      STR      r5,[sp,#0]
        0x00000986:    468c        .F      MOV      r12,r1
        0x00000988:    0401        ..      LSLS     r1,r0,#16
        0x0000098a:    4623        #F      MOV      r3,r4
        0x0000098c:    438b        .C      BICS     r3,r3,r1
        0x0000098e:    910a        ..      STR      r1,[sp,#0x28]
        0x00000990:    4661        aF      MOV      r1,r12
        0x00000992:    0409        ..      LSLS     r1,r1,#16
        0x00000994:    4de2        .M      LDR      r5,[pc,#904] ; [0xd20] = 0x31d8
        0x00000996:    438a        .C      BICS     r2,r2,r1
        0x00000998:    9109        ..      STR      r1,[sp,#0x24]
        0x0000099a:    0a01        ..      LSRS     r1,r0,#8
        0x0000099c:    447d        }D      ADD      r5,r5,pc
        0x0000099e:    1949        I.      ADDS     r1,r1,r5
        0x000009a0:    3980        .9      SUBS     r1,r1,#0x80
        0x000009a2:    7809        .x      LDRB     r1,[r1,#0]
        0x000009a4:    4605        .F      MOV      r5,r0
        0x000009a6:    434d        MC      MULS     r5,r1,r5
        0x000009a8:    2601        .&      MOVS     r6,#1
        0x000009aa:    186d        m.      ADDS     r5,r5,r1
        0x000009ac:    05f6        ..      LSLS     r6,r6,#23
        0x000009ae:    1b75        u.      SUBS     r5,r6,r5
        0x000009b0:    4369        iC      MULS     r1,r5,r1
        0x000009b2:    0cc9        ..      LSRS     r1,r1,#19
        0x000009b4:    0b64        d.      LSRS     r4,r4,#13
        0x000009b6:    1c89        ..      ADDS     r1,r1,#2
        0x000009b8:    434c        LC      MULS     r4,r1,r4
        0x000009ba:    1864        d.      ADDS     r4,r4,r1
        0x000009bc:    01b5        ..      LSLS     r5,r6,#6
        0x000009be:    1b2c        ,.      SUBS     r4,r5,r4
        0x000009c0:    0c25        %.      LSRS     r5,r4,#16
        0x000009c2:    042e        ..      LSLS     r6,r5,#16
        0x000009c4:    43b4        .C      BICS     r4,r4,r6
        0x000009c6:    434c        LC      MULS     r4,r1,r4
        0x000009c8:    434d        MC      MULS     r5,r1,r5
        0x000009ca:    0c21        !.      LSRS     r1,r4,#16
        0x000009cc:    1869        i.      ADDS     r1,r5,r1
        0x000009ce:    0989        ..      LSRS     r1,r1,#6
        0x000009d0:    9105        ..      STR      r1,[sp,#0x14]
        0x000009d2:    9d00        ..      LDR      r5,[sp,#0]
        0x000009d4:    07e9        ..      LSLS     r1,r5,#31
        0x000009d6:    d001        ..      BEQ      0x9dc ; __aeabi_ddiv + 168
        0x000009d8:    2101        .!      MOVS     r1,#1
        0x000009da:    07c9        ..      LSLS     r1,r1,#31
        0x000009dc:    9104        ..      STR      r1,[sp,#0x10]
        0x000009de:    462c        ,F      MOV      r4,r5
        0x000009e0:    9901        ..      LDR      r1,[sp,#4]
        0x000009e2:    0867        g.      LSRS     r7,r4,#1
        0x000009e4:    07cd        ..      LSLS     r5,r1,#31
        0x000009e6:    432f        /C      ORRS     r7,r7,r5
        0x000009e8:    084c        L.      LSRS     r4,r1,#1
        0x000009ea:    9d05        ..      LDR      r5,[sp,#0x14]
        0x000009ec:    0be1        ..      LSRS     r1,r4,#15
        0x000009ee:    434d        MC      MULS     r5,r1,r5
        0x000009f0:    0c2d        -.      LSRS     r5,r5,#16
        0x000009f2:    4629        )F      MOV      r1,r5
        0x000009f4:    4666        fF      MOV      r6,r12
        0x000009f6:    4375        uC      MULS     r5,r6,r5
        0x000009f8:    9502        ..      STR      r5,[sp,#8]
        0x000009fa:    460d        .F      MOV      r5,r1
        0x000009fc:    4345        EC      MULS     r5,r0,r5
        0x000009fe:    462e        .F      MOV      r6,r5
        0x00000a00:    9d02        ..      LDR      r5,[sp,#8]
        0x00000a02:    1b7d        }.      SUBS     r5,r7,r5
        0x00000a04:    41b4        .A      SBCS     r4,r4,r6
        0x00000a06:    9500        ..      STR      r5,[sp,#0]
        0x00000a08:    460d        .F      MOV      r5,r1
        0x00000a0a:    435d        ]C      MULS     r5,r3,r5
        0x00000a0c:    9401        ..      STR      r4,[sp,#4]
        0x00000a0e:    0c2c        ,.      LSRS     r4,r5,#16
        0x00000a10:    042f        /.      LSLS     r7,r5,#16
        0x00000a12:    460d        .F      MOV      r5,r1
        0x00000a14:    4355        UC      MULS     r5,r2,r5
        0x00000a16:    46ae        .F      MOV      lr,r5
        0x00000a18:    0c2d        -.      LSRS     r5,r5,#16
        0x00000a1a:    433d        =C      ORRS     r5,r5,r7
        0x00000a1c:    9502        ..      STR      r5,[sp,#8]
        0x00000a1e:    9403        ..      STR      r4,[sp,#0xc]
        0x00000a20:    4675        uF      MOV      r5,lr
        0x00000a22:    9c04        ..      LDR      r4,[sp,#0x10]
        0x00000a24:    042d        -.      LSLS     r5,r5,#16
        0x00000a26:    1b64        d.      SUBS     r4,r4,r5
        0x00000a28:    9404        ..      STR      r4,[sp,#0x10]
        0x00000a2a:    d206        ..      BCS      0xa3a ; __aeabi_ddiv + 262
        0x00000a2c:    9c02        ..      LDR      r4,[sp,#8]
        0x00000a2e:    9d03        ..      LDR      r5,[sp,#0xc]
        0x00000a30:    1c64        d.      ADDS     r4,r4,#1
        0x00000a32:    2600        .&      MOVS     r6,#0
        0x00000a34:    4175        uA      ADCS     r5,r5,r6
        0x00000a36:    9503        ..      STR      r5,[sp,#0xc]
        0x00000a38:    9402        ..      STR      r4,[sp,#8]
        0x00000a3a:    ac01        ..      ADD      r4,sp,#4
        0x00000a3c:    cc70        p.      LDM      r4,{r4-r6}
        0x00000a3e:    9f00        ..      LDR      r7,[sp,#0]
        0x00000a40:    1b7d        }.      SUBS     r5,r7,r5
        0x00000a42:    e001        ..      B        0xa48 ; __aeabi_ddiv + 276
        0x00000a44:    e13e        >.      B        0xcc4 ; __aeabi_ddiv + 912
        0x00000a46:    e162        b.      B        0xd0e ; __aeabi_ddiv + 986
        0x00000a48:    41b4        .A      SBCS     r4,r4,r6
        0x00000a4a:    0409        ..      LSLS     r1,r1,#16
        0x00000a4c:    9500        ..      STR      r5,[sp,#0]
        0x00000a4e:    9107        ..      STR      r1,[sp,#0x1c]
        0x00000a50:    9401        ..      STR      r4,[sp,#4]
        0x00000a52:    9905        ..      LDR      r1,[sp,#0x14]
        0x00000a54:    08a4        ..      LSRS     r4,r4,#2
        0x00000a56:    4361        aC      MULS     r1,r4,r1
        0x00000a58:    0c09        ..      LSRS     r1,r1,#16
        0x00000a5a:    460c        .F      MOV      r4,r1
        0x00000a5c:    4344        DC      MULS     r4,r0,r4
        0x00000a5e:    0b65        e.      LSRS     r5,r4,#13
        0x00000a60:    04e7        ..      LSLS     r7,r4,#19
        0x00000a62:    460c        .F      MOV      r4,r1
        0x00000a64:    4666        fF      MOV      r6,r12
        0x00000a66:    4374        tC      MULS     r4,r6,r4
        0x00000a68:    46a6        .F      MOV      lr,r4
        0x00000a6a:    0b64        d.      LSRS     r4,r4,#13
        0x00000a6c:    433c        <C      ORRS     r4,r4,r7
        0x00000a6e:    9503        ..      STR      r5,[sp,#0xc]
        0x00000a70:    9402        ..      STR      r4,[sp,#8]
        0x00000a72:    4674        tF      MOV      r4,lr
        0x00000a74:    9d04        ..      LDR      r5,[sp,#0x10]
        0x00000a76:    04e4        ..      LSLS     r4,r4,#19
        0x00000a78:    1b2c        ,.      SUBS     r4,r5,r4
        0x00000a7a:    9404        ..      STR      r4,[sp,#0x10]
        0x00000a7c:    d206        ..      BCS      0xa8c ; __aeabi_ddiv + 344
        0x00000a7e:    9c02        ..      LDR      r4,[sp,#8]
        0x00000a80:    9d03        ..      LDR      r5,[sp,#0xc]
        0x00000a82:    1c64        d.      ADDS     r4,r4,#1
        0x00000a84:    2600        .&      MOVS     r6,#0
        0x00000a86:    4175        uA      ADCS     r5,r5,r6
        0x00000a88:    9503        ..      STR      r5,[sp,#0xc]
        0x00000a8a:    9402        ..      STR      r4,[sp,#8]
        0x00000a8c:    ac01        ..      ADD      r4,sp,#4
        0x00000a8e:    cc70        p.      LDM      r4,{r4-r6}
        0x00000a90:    9f00        ..      LDR      r7,[sp,#0]
        0x00000a92:    1b7d        }.      SUBS     r5,r7,r5
        0x00000a94:    41b4        .A      SBCS     r4,r4,r6
        0x00000a96:    9401        ..      STR      r4,[sp,#4]
        0x00000a98:    460c        .F      MOV      r4,r1
        0x00000a9a:    435c        \C      MULS     r4,r3,r4
        0x00000a9c:    9500        ..      STR      r5,[sp,#0]
        0x00000a9e:    0f65        e.      LSRS     r5,r4,#29
        0x00000aa0:    00e7        ..      LSLS     r7,r4,#3
        0x00000aa2:    460c        .F      MOV      r4,r1
        0x00000aa4:    4354        TC      MULS     r4,r2,r4
        0x00000aa6:    46a6        .F      MOV      lr,r4
        0x00000aa8:    0f64        d.      LSRS     r4,r4,#29
        0x00000aaa:    433c        <C      ORRS     r4,r4,r7
        0x00000aac:    9503        ..      STR      r5,[sp,#0xc]
        0x00000aae:    9402        ..      STR      r4,[sp,#8]
        0x00000ab0:    4674        tF      MOV      r4,lr
        0x00000ab2:    9d04        ..      LDR      r5,[sp,#0x10]
        0x00000ab4:    00e4        ..      LSLS     r4,r4,#3
        0x00000ab6:    1b2c        ,.      SUBS     r4,r5,r4
        0x00000ab8:    9404        ..      STR      r4,[sp,#0x10]
        0x00000aba:    d206        ..      BCS      0xaca ; __aeabi_ddiv + 406
        0x00000abc:    9c02        ..      LDR      r4,[sp,#8]
        0x00000abe:    9d03        ..      LDR      r5,[sp,#0xc]
        0x00000ac0:    1c64        d.      ADDS     r4,r4,#1
        0x00000ac2:    2600        .&      MOVS     r6,#0
        0x00000ac4:    4175        uA      ADCS     r5,r5,r6
        0x00000ac6:    9503        ..      STR      r5,[sp,#0xc]
        0x00000ac8:    9402        ..      STR      r4,[sp,#8]
        0x00000aca:    ac01        ..      ADD      r4,sp,#4
        0x00000acc:    cc70        p.      LDM      r4,{r4-r6}
        0x00000ace:    9f00        ..      LDR      r7,[sp,#0]
        0x00000ad0:    1b7d        }.      SUBS     r5,r7,r5
        0x00000ad2:    41b4        .A      SBCS     r4,r4,r6
        0x00000ad4:    09ae        ..      LSRS     r6,r5,#6
        0x00000ad6:    06af        ..      LSLS     r7,r5,#26
        0x00000ad8:    9d04        ..      LDR      r5,[sp,#0x10]
        0x00000ada:    00c9        ..      LSLS     r1,r1,#3
        0x00000adc:    09ad        ..      LSRS     r5,r5,#6
        0x00000ade:    432f        /C      ORRS     r7,r7,r5
        0x00000ae0:    9d04        ..      LDR      r5,[sp,#0x10]
        0x00000ae2:    06a4        ..      LSLS     r4,r4,#26
        0x00000ae4:    06ad        ..      LSLS     r5,r5,#26
        0x00000ae6:    9504        ..      STR      r5,[sp,#0x10]
        0x00000ae8:    9d07        ..      LDR      r5,[sp,#0x1c]
        0x00000aea:    4334        4C      ORRS     r4,r4,r6
        0x00000aec:    1869        i.      ADDS     r1,r5,r1
        0x00000aee:    9107        ..      STR      r1,[sp,#0x1c]
        0x00000af0:    9d05        ..      LDR      r5,[sp,#0x14]
        0x00000af2:    0be1        ..      LSRS     r1,r4,#15
        0x00000af4:    434d        MC      MULS     r5,r1,r5
        0x00000af6:    0c2d        -.      LSRS     r5,r5,#16
        0x00000af8:    4629        )F      MOV      r1,r5
        0x00000afa:    4666        fF      MOV      r6,r12
        0x00000afc:    4375        uC      MULS     r5,r6,r5
        0x00000afe:    9502        ..      STR      r5,[sp,#8]
        0x00000b00:    460d        .F      MOV      r5,r1
        0x00000b02:    4345        EC      MULS     r5,r0,r5
        0x00000b04:    462e        .F      MOV      r6,r5
        0x00000b06:    9d02        ..      LDR      r5,[sp,#8]
        0x00000b08:    1b7d        }.      SUBS     r5,r7,r5
        0x00000b0a:    41b4        .A      SBCS     r4,r4,r6
        0x00000b0c:    9500        ..      STR      r5,[sp,#0]
        0x00000b0e:    460d        .F      MOV      r5,r1
        0x00000b10:    435d        ]C      MULS     r5,r3,r5
        0x00000b12:    9401        ..      STR      r4,[sp,#4]
        0x00000b14:    0c2c        ,.      LSRS     r4,r5,#16
        0x00000b16:    042f        /.      LSLS     r7,r5,#16
        0x00000b18:    460d        .F      MOV      r5,r1
        0x00000b1a:    4355        UC      MULS     r5,r2,r5
        0x00000b1c:    46ae        .F      MOV      lr,r5
        0x00000b1e:    0c2d        -.      LSRS     r5,r5,#16
        0x00000b20:    433d        =C      ORRS     r5,r5,r7
        0x00000b22:    9502        ..      STR      r5,[sp,#8]
        0x00000b24:    9403        ..      STR      r4,[sp,#0xc]
        0x00000b26:    4675        uF      MOV      r5,lr
        0x00000b28:    9c04        ..      LDR      r4,[sp,#0x10]
        0x00000b2a:    042d        -.      LSLS     r5,r5,#16
        0x00000b2c:    1b64        d.      SUBS     r4,r4,r5
        0x00000b2e:    9404        ..      STR      r4,[sp,#0x10]
        0x00000b30:    d206        ..      BCS      0xb40 ; __aeabi_ddiv + 524
        0x00000b32:    9c02        ..      LDR      r4,[sp,#8]
        0x00000b34:    9d03        ..      LDR      r5,[sp,#0xc]
        0x00000b36:    1c64        d.      ADDS     r4,r4,#1
        0x00000b38:    2600        .&      MOVS     r6,#0
        0x00000b3a:    4175        uA      ADCS     r5,r5,r6
        0x00000b3c:    9503        ..      STR      r5,[sp,#0xc]
        0x00000b3e:    9402        ..      STR      r4,[sp,#8]
        0x00000b40:    ac01        ..      ADD      r4,sp,#4
        0x00000b42:    cc70        p.      LDM      r4,{r4-r6}
        0x00000b44:    9f00        ..      LDR      r7,[sp,#0]
        0x00000b46:    1b7d        }.      SUBS     r5,r7,r5
        0x00000b48:    41b4        .A      SBCS     r4,r4,r6
        0x00000b4a:    9401        ..      STR      r4,[sp,#4]
        0x00000b4c:    058c        ..      LSLS     r4,r1,#22
        0x00000b4e:    9406        ..      STR      r4,[sp,#0x18]
        0x00000b50:    9c07        ..      LDR      r4,[sp,#0x1c]
        0x00000b52:    0a89        ..      LSRS     r1,r1,#10
        0x00000b54:    1861        a.      ADDS     r1,r4,r1
        0x00000b56:    9500        ..      STR      r5,[sp,#0]
        0x00000b58:    9107        ..      STR      r1,[sp,#0x1c]
        0x00000b5a:    9c01        ..      LDR      r4,[sp,#4]
        0x00000b5c:    9905        ..      LDR      r1,[sp,#0x14]
        0x00000b5e:    08a4        ..      LSRS     r4,r4,#2
        0x00000b60:    4361        aC      MULS     r1,r4,r1
        0x00000b62:    0c09        ..      LSRS     r1,r1,#16
        0x00000b64:    460d        .F      MOV      r5,r1
        0x00000b66:    4345        EC      MULS     r5,r0,r5
        0x00000b68:    0b68        h.      LSRS     r0,r5,#13
        0x00000b6a:    04ef        ..      LSLS     r7,r5,#19
        0x00000b6c:    460d        .F      MOV      r5,r1
        0x00000b6e:    4664        dF      MOV      r4,r12
        0x00000b70:    4365        eC      MULS     r5,r4,r5
        0x00000b72:    0b6c        l.      LSRS     r4,r5,#13
        0x00000b74:    433c        <C      ORRS     r4,r4,r7
        0x00000b76:    9f04        ..      LDR      r7,[sp,#0x10]
        0x00000b78:    04ed        ..      LSLS     r5,r5,#19
        0x00000b7a:    1b7d        }.      SUBS     r5,r7,r5
        0x00000b7c:    46ac        .F      MOV      r12,r5
        0x00000b7e:    d202        ..      BCS      0xb86 ; __aeabi_ddiv + 594
        0x00000b80:    2500        .%      MOVS     r5,#0
        0x00000b82:    1c64        d.      ADDS     r4,r4,#1
        0x00000b84:    4168        hA      ADCS     r0,r0,r5
        0x00000b86:    9e00        ..      LDR      r6,[sp,#0]
        0x00000b88:    9d01        ..      LDR      r5,[sp,#4]
        0x00000b8a:    1b37        7.      SUBS     r7,r6,r4
        0x00000b8c:    4185        .A      SBCS     r5,r5,r0
        0x00000b8e:    4608        .F      MOV      r0,r1
        0x00000b90:    4358        XC      MULS     r0,r3,r0
        0x00000b92:    9501        ..      STR      r5,[sp,#4]
        0x00000b94:    460c        .F      MOV      r4,r1
        0x00000b96:    0f46        F.      LSRS     r6,r0,#29
        0x00000b98:    00c5        ..      LSLS     r5,r0,#3
        0x00000b9a:    4354        TC      MULS     r4,r2,r4
        0x00000b9c:    0f60        `.      LSRS     r0,r4,#29
        0x00000b9e:    4328        (C      ORRS     r0,r0,r5
        0x00000ba0:    4665        eF      MOV      r5,r12
        0x00000ba2:    00e4        ..      LSLS     r4,r4,#3
        0x00000ba4:    1b2c        ,.      SUBS     r4,r5,r4
        0x00000ba6:    d202        ..      BCS      0xbae ; __aeabi_ddiv + 634
        0x00000ba8:    2500        .%      MOVS     r5,#0
        0x00000baa:    1c40        @.      ADDS     r0,r0,#1
        0x00000bac:    416e        nA      ADCS     r6,r6,r5
        0x00000bae:    9d01        ..      LDR      r5,[sp,#4]
        0x00000bb0:    1a3f        ?.      SUBS     r7,r7,r0
        0x00000bb2:    41b5        .A      SBCS     r5,r5,r6
        0x00000bb4:    4628        (F      MOV      r0,r5
        0x00000bb6:    09bd        ..      LSRS     r5,r7,#6
        0x00000bb8:    0680        ..      LSLS     r0,r0,#26
        0x00000bba:    4328        (C      ORRS     r0,r0,r5
        0x00000bbc:    4684        .F      MOV      r12,r0
        0x00000bbe:    09a0        ..      LSRS     r0,r4,#6
        0x00000bc0:    06bf        ..      LSLS     r7,r7,#26
        0x00000bc2:    024e        N.      LSLS     r6,r1,#9
        0x00000bc4:    9906        ..      LDR      r1,[sp,#0x18]
        0x00000bc6:    06a4        ..      LSLS     r4,r4,#26
        0x00000bc8:    1876        v.      ADDS     r6,r6,r1
        0x00000bca:    4307        .C      ORRS     r7,r7,r0
        0x00000bcc:    9d07        ..      LDR      r5,[sp,#0x1c]
        0x00000bce:    2000        .       MOVS     r0,#0
        0x00000bd0:    4168        hA      ADCS     r0,r0,r5
        0x00000bd2:    990a        ..      LDR      r1,[sp,#0x28]
        0x00000bd4:    9007        ..      STR      r0,[sp,#0x1c]
        0x00000bd6:    4319        .C      ORRS     r1,r1,r3
        0x00000bd8:    2000        .       MOVS     r0,#0
        0x00000bda:    9b09        ..      LDR      r3,[sp,#0x24]
        0x00000bdc:    9000        ..      STR      r0,[sp,#0]
        0x00000bde:    4660        `F      MOV      r0,r12
        0x00000be0:    19ff        ..      ADDS     r7,r7,r7
        0x00000be2:    4313        .C      ORRS     r3,r3,r2
        0x00000be4:    4140        @A      ADCS     r0,r0,r0
        0x00000be6:    0fe2        ..      LSRS     r2,r4,#31
        0x00000be8:    0064        d.      LSLS     r4,r4,#1
        0x00000bea:    433a        :C      ORRS     r2,r2,r7
        0x00000bec:    46a4        .F      MOV      r12,r4
        0x00000bee:    4604        .F      MOV      r4,r0
        0x00000bf0:    1ad7        ..      SUBS     r7,r2,r3
        0x00000bf2:    418c        .A      SBCS     r4,r4,r1
        0x00000bf4:    42a0        .B      CMP      r0,r4
        0x00000bf6:    d903        ..      BLS      0xc00 ; __aeabi_ddiv + 716
        0x00000bf8:    2001        .       MOVS     r0,#1
        0x00000bfa:    9000        ..      STR      r0,[sp,#0]
        0x00000bfc:    4620         F      MOV      r0,r4
        0x00000bfe:    463a        :F      MOV      r2,r7
        0x00000c00:    0fc7        ..      LSRS     r7,r0,#31
        0x00000c02:    1894        ..      ADDS     r4,r2,r2
        0x00000c04:    4140        @A      ADCS     r0,r0,r0
        0x00000c06:    4662        bF      MOV      r2,r12
        0x00000c08:    0fd2        ..      LSRS     r2,r2,#31
        0x00000c0a:    4322        "C      ORRS     r2,r2,r4
        0x00000c0c:    4664        dF      MOV      r4,r12
        0x00000c0e:    0064        d.      LSLS     r4,r4,#1
        0x00000c10:    9404        ..      STR      r4,[sp,#0x10]
        0x00000c12:    9c00        ..      LDR      r4,[sp,#0]
        0x00000c14:    46be        .F      MOV      lr,r7
        0x00000c16:    0064        d.      LSLS     r4,r4,#1
        0x00000c18:    1ad7        ..      SUBS     r7,r2,r3
        0x00000c1a:    46a4        .F      MOV      r12,r4
        0x00000c1c:    4604        .F      MOV      r4,r0
        0x00000c1e:    9702        ..      STR      r7,[sp,#8]
        0x00000c20:    418c        .A      SBCS     r4,r4,r1
        0x00000c22:    4677        wF      MOV      r7,lr
        0x00000c24:    2f00        ./      CMP      r7,#0
        0x00000c26:    d101        ..      BNE      0xc2c ; __aeabi_ddiv + 760
        0x00000c28:    42a0        .B      CMP      r0,r4
        0x00000c2a:    d904        ..      BLS      0xc36 ; __aeabi_ddiv + 770
        0x00000c2c:    4660        `F      MOV      r0,r12
        0x00000c2e:    1c40        @.      ADDS     r0,r0,#1
        0x00000c30:    4684        .F      MOV      r12,r0
        0x00000c32:    9a02        ..      LDR      r2,[sp,#8]
        0x00000c34:    4620         F      MOV      r0,r4
        0x00000c36:    0fc4        ..      LSRS     r4,r0,#31
        0x00000c38:    46a6        .F      MOV      lr,r4
        0x00000c3a:    1894        ..      ADDS     r4,r2,r2
        0x00000c3c:    4140        @A      ADCS     r0,r0,r0
        0x00000c3e:    9a04        ..      LDR      r2,[sp,#0x10]
        0x00000c40:    4605        .F      MOV      r5,r0
        0x00000c42:    0fd2        ..      LSRS     r2,r2,#31
        0x00000c44:    4322        "C      ORRS     r2,r2,r4
        0x00000c46:    4664        dF      MOV      r4,r12
        0x00000c48:    0064        d.      LSLS     r4,r4,#1
        0x00000c4a:    1ad3        ..      SUBS     r3,r2,r3
        0x00000c4c:    418d        .A      SBCS     r5,r5,r1
        0x00000c4e:    4671        qF      MOV      r1,lr
        0x00000c50:    2900        .)      CMP      r1,#0
        0x00000c52:    d101        ..      BNE      0xc58 ; __aeabi_ddiv + 804
        0x00000c54:    42a8        .B      CMP      r0,r5
        0x00000c56:    d902        ..      BLS      0xc5e ; __aeabi_ddiv + 810
        0x00000c58:    4628        (F      MOV      r0,r5
        0x00000c5a:    461a        .F      MOV      r2,r3
        0x00000c5c:    1c64        d.      ADDS     r4,r4,#1
        0x00000c5e:    4310        .C      ORRS     r0,r0,r2
        0x00000c60:    2201        ."      MOVS     r2,#1
        0x00000c62:    2800        .(      CMP      r0,#0
        0x00000c64:    d000        ..      BEQ      0xc68 ; __aeabi_ddiv + 820
        0x00000c66:    4316        .C      ORRS     r6,r6,r2
        0x00000c68:    0261        a.      LSLS     r1,r4,#9
        0x00000c6a:    2000        .       MOVS     r0,#0
        0x00000c6c:    9b07        ..      LDR      r3,[sp,#0x1c]
        0x00000c6e:    1989        ..      ADDS     r1,r1,r6
        0x00000c70:    4604        .F      MOV      r4,r0
        0x00000c72:    415c        \A      ADCS     r4,r4,r3
        0x00000c74:    2302        .#      MOVS     r3,#2
        0x00000c76:    2c00        .,      CMP      r4,#0
        0x00000c78:    db02        ..      BLT      0xc80 ; __aeabi_ddiv + 844
        0x00000c7a:    1849        I.      ADDS     r1,r1,r1
        0x00000c7c:    4613        .F      MOV      r3,r2
        0x00000c7e:    4164        dA      ADCS     r4,r4,r4
        0x00000c80:    9d08        ..      LDR      r5,[sp,#0x20]
        0x00000c82:    0ace        ..      LSRS     r6,r1,#11
        0x00000c84:    142d        -.      ASRS     r5,r5,#16
        0x00000c86:    195d        ].      ADDS     r5,r3,r5
        0x00000c88:    054b        K.      LSLS     r3,r1,#21
        0x00000c8a:    0567        g.      LSLS     r7,r4,#21
        0x00000c8c:    0ae1        ..      LSRS     r1,r4,#11
        0x00000c8e:    052c        ,.      LSLS     r4,r5,#20
        0x00000c90:    190d        ..      ADDS     r5,r1,r4
        0x00000c92:    9908        ..      LDR      r1,[sp,#0x20]
        0x00000c94:    433e        >C      ORRS     r6,r6,r7
        0x00000c96:    07c9        ..      LSLS     r1,r1,#31
        0x00000c98:    4069        i@      EORS     r1,r1,r5
        0x00000c9a:    2b00        .+      CMP      r3,#0
        0x00000c9c:    d008        ..      BEQ      0xcb0 ; __aeabi_ddiv + 892
        0x00000c9e:    4093        .@      LSLS     r3,r3,r2
        0x00000ca0:    d306        ..      BCC      0xcb0 ; __aeabi_ddiv + 892
        0x00000ca2:    2200        ."      MOVS     r2,#0
        0x00000ca4:    1c76        v.      ADDS     r6,r6,#1
        0x00000ca6:    4151        QA      ADCS     r1,r1,r2
        0x00000ca8:    2b00        .+      CMP      r3,#0
        0x00000caa:    d101        ..      BNE      0xcb0 ; __aeabi_ddiv + 892
        0x00000cac:    0876        v.      LSRS     r6,r6,#1
        0x00000cae:    0076        v.      LSLS     r6,r6,#1
        0x00000cb0:    4a1c        .J      LDR      r2,[pc,#112] ; [0xd24] = 0x7ff00000
        0x00000cb2:    2d00        .-      CMP      r5,#0
        0x00000cb4:    db43        C.      BLT      0xd3e ; __aeabi_ddiv + 1034
        0x00000cb6:    4215        .B      TST      r5,r2
        0x00000cb8:    d041        A.      BEQ      0xd3e ; __aeabi_ddiv + 1034
        0x00000cba:    43aa        .C      BICS     r2,r2,r5
        0x00000cbc:    d03f        ?.      BEQ      0xd3e ; __aeabi_ddiv + 1034
        0x00000cbe:    4630        0F      MOV      r0,r6
        0x00000cc0:    b00b        ..      ADD      sp,sp,#0x2c
        0x00000cc2:    bdf0        ..      POP      {r4-r7,pc}
        0x00000cc4:    1806        ..      ADDS     r6,r0,r0
        0x00000cc6:    460d        .F      MOV      r5,r1
        0x00000cc8:    414d        MA      ADCS     r5,r5,r1
        0x00000cca:    4c17        .L      LDR      r4,[pc,#92] ; [0xd28] = 0xffe00000
        0x00000ccc:    4276        vB      RSBS     r6,r6,#0
        0x00000cce:    41ac        .A      SBCS     r4,r4,r5
        0x00000cd0:    d31a        ..      BCC      0xd08 ; __aeabi_ddiv + 980
        0x00000cd2:    1895        ..      ADDS     r5,r2,r2
        0x00000cd4:    461c        .F      MOV      r4,r3
        0x00000cd6:    415c        \A      ADCS     r4,r4,r3
        0x00000cd8:    4a13        .J      LDR      r2,[pc,#76] ; [0xd28] = 0xffe00000
        0x00000cda:    426d        mB      RSBS     r5,r5,#0
        0x00000cdc:    41a2        .A      SBCS     r2,r2,r4
        0x00000cde:    d313        ..      BCC      0xd08 ; __aeabi_ddiv + 980
        0x00000ce0:    2201        ."      MOVS     r2,#1
        0x00000ce2:    0552        R.      LSLS     r2,r2,#21
        0x00000ce4:    004c        L.      LSLS     r4,r1,#1
        0x00000ce6:    42d4        .B      CMN      r4,r2
        0x00000ce8:    d10a        ..      BNE      0xd00 ; __aeabi_ddiv + 972
        0x00000cea:    005c        \.      LSLS     r4,r3,#1
        0x00000cec:    42d4        .B      CMN      r4,r2
        0x00000cee:    d00b        ..      BEQ      0xd08 ; __aeabi_ddiv + 980
        0x00000cf0:    404b        K@      EORS     r3,r3,r1
        0x00000cf2:    d502        ..      BPL      0xcfa ; __aeabi_ddiv + 966
        0x00000cf4:    0292        ..      LSLS     r2,r2,#10
        0x00000cf6:    4311        .C      ORRS     r1,r1,r2
        0x00000cf8:    e7e2        ..      B        0xcc0 ; __aeabi_ddiv + 908
        0x00000cfa:    0049        I.      LSLS     r1,r1,#1
        0x00000cfc:    0849        I.      LSRS     r1,r1,#1
        0x00000cfe:    e7df        ..      B        0xcc0 ; __aeabi_ddiv + 908
        0x00000d00:    4059        Y@      EORS     r1,r1,r3
        0x00000d02:    0fc9        ..      LSRS     r1,r1,#31
        0x00000d04:    07c9        ..      LSLS     r1,r1,#31
        0x00000d06:    e018        ..      B        0xd3a ; __aeabi_ddiv + 1030
        0x00000d08:    2000        .       MOVS     r0,#0
        0x00000d0a:    4908        .I      LDR      r1,[pc,#32] ; [0xd2c] = 0x7ff80000
        0x00000d0c:    e7d8        ..      B        0xcc0 ; __aeabi_ddiv + 908
        0x00000d0e:    4805        .H      LDR      r0,[pc,#20] ; [0xd24] = 0x7ff00000
        0x00000d10:    4201        .B      TST      r1,r0
        0x00000d12:    d10d        ..      BNE      0xd30 ; __aeabi_ddiv + 1020
        0x00000d14:    4203        .B      TST      r3,r0
        0x00000d16:    d0f7        ..      BEQ      0xd08 ; __aeabi_ddiv + 980
        0x00000d18:    e7f2        ..      B        0xd00 ; __aeabi_ddiv + 972
    $d
        0x00000d1a:    0000        ..      DCW    0
        0x00000d1c:    07ff0000    ....    DCD    134152192
        0x00000d20:    000031d8    .1..    DCD    12760
        0x00000d24:    7ff00000    ....    DCD    2146435072
        0x00000d28:    ffe00000    ....    DCD    4292870144
        0x00000d2c:    7ff80000    ....    DCD    2146959360
    $t
        0x00000d30:    4811        .H      LDR      r0,[pc,#68] ; [0xd78] = 0x7fffffff
        0x00000d32:    4059        Y@      EORS     r1,r1,r3
        0x00000d34:    4301        .C      ORRS     r1,r1,r0
        0x00000d36:    12c0        ..      ASRS     r0,r0,#11
        0x00000d38:    4041        A@      EORS     r1,r1,r0
        0x00000d3a:    2000        .       MOVS     r0,#0
        0x00000d3c:    e7c0        ..      B        0xcc0 ; __aeabi_ddiv + 908
        0x00000d3e:    2301        .#      MOVS     r3,#1
        0x00000d40:    9a08        ..      LDR      r2,[sp,#0x20]
        0x00000d42:    069b        ..      LSLS     r3,r3,#26
        0x00000d44:    429a        .B      CMP      r2,r3
        0x00000d46:    dc05        ..      BGT      0xd54 ; __aeabi_ddiv + 1056
        0x00000d48:    2203        ."      MOVS     r2,#3
        0x00000d4a:    0752        R.      LSLS     r2,r2,#29
        0x00000d4c:    1889        ..      ADDS     r1,r1,r2
        0x00000d4e:    0fc9        ..      LSRS     r1,r1,#31
        0x00000d50:    07c9        ..      LSLS     r1,r1,#31
        0x00000d52:    e7b5        ..      B        0xcc0 ; __aeabi_ddiv + 908
        0x00000d54:    2205        ."      MOVS     r2,#5
        0x00000d56:    0752        R.      LSLS     r2,r2,#29
        0x00000d58:    1889        ..      ADDS     r1,r1,r2
        0x00000d5a:    4a07        .J      LDR      r2,[pc,#28] ; [0xd78] = 0x7fffffff
        0x00000d5c:    4311        .C      ORRS     r1,r1,r2
        0x00000d5e:    12d2        ..      ASRS     r2,r2,#11
        0x00000d60:    4051        Q@      EORS     r1,r1,r2
        0x00000d62:    e7ad        ..      B        0xcc0 ; __aeabi_ddiv + 908
    _drdiv
        0x00000d64:    b570        p.      PUSH     {r4-r6,lr}
        0x00000d66:    4615        .F      MOV      r5,r2
        0x00000d68:    461c        .F      MOV      r4,r3
        0x00000d6a:    4602        .F      MOV      r2,r0
        0x00000d6c:    460b        .F      MOV      r3,r1
        0x00000d6e:    4628        (F      MOV      r0,r5
        0x00000d70:    4621        !F      MOV      r1,r4
        0x00000d72:    f7fffddf    ....    BL       __aeabi_ddiv ; 0x934
        0x00000d76:    bd70        p.      POP      {r4-r6,pc}
    $d
        0x00000d78:    7fffffff    ....    DCD    2147483647
    $t
    .text
    __aeabi_i2d_normalise
        0x00000d7c:    221f        ."      MOVS     r2,#0x1f
        0x00000d7e:    0c03        ..      LSRS     r3,r0,#16
        0x00000d80:    d102        ..      BNE      0xd88 ; __aeabi_i2d_normalise + 12
        0x00000d82:    220f        ."      MOVS     r2,#0xf
        0x00000d84:    0400        ..      LSLS     r0,r0,#16
        0x00000d86:    d002        ..      BEQ      0xd8e ; __aeabi_i2d_normalise + 18
        0x00000d88:    0e03        ..      LSRS     r3,r0,#24
        0x00000d8a:    d003        ..      BEQ      0xd94 ; __aeabi_i2d_normalise + 24
        0x00000d8c:    e004        ..      B        0xd98 ; __aeabi_i2d_normalise + 28
        0x00000d8e:    2000        .       MOVS     r0,#0
        0x00000d90:    4601        .F      MOV      r1,r0
        0x00000d92:    4770        pG      BX       lr
        0x00000d94:    0200        ..      LSLS     r0,r0,#8
        0x00000d96:    3a08        .:      SUBS     r2,r2,#8
        0x00000d98:    0f03        ..      LSRS     r3,r0,#28
        0x00000d9a:    d101        ..      BNE      0xda0 ; __aeabi_i2d_normalise + 36
        0x00000d9c:    0100        ..      LSLS     r0,r0,#4
        0x00000d9e:    1f12        ..      SUBS     r2,r2,#4
        0x00000da0:    0f83        ..      LSRS     r3,r0,#30
        0x00000da2:    d101        ..      BNE      0xda8 ; __aeabi_i2d_normalise + 44
        0x00000da4:    0080        ..      LSLS     r0,r0,#2
        0x00000da6:    1e92        ..      SUBS     r2,r2,#2
        0x00000da8:    2800        .(      CMP      r0,#0
        0x00000daa:    db01        ..      BLT      0xdb0 ; __aeabi_i2d_normalise + 52
        0x00000dac:    0040        @.      LSLS     r0,r0,#1
        0x00000dae:    1e52        R.      SUBS     r2,r2,#1
        0x00000db0:    0512        ..      LSLS     r2,r2,#20
        0x00000db2:    1851        Q.      ADDS     r1,r2,r1
        0x00000db4:    0542        B.      LSLS     r2,r0,#21
        0x00000db6:    12c0        ..      ASRS     r0,r0,#11
        0x00000db8:    1841        A.      ADDS     r1,r0,r1
        0x00000dba:    4610        .F      MOV      r0,r2
        0x00000dbc:    4770        pG      BX       lr
    __aeabi_i2d
    _dflt
        0x00000dbe:    0fc1        ..      LSRS     r1,r0,#31
        0x00000dc0:    07c9        ..      LSLS     r1,r1,#31
        0x00000dc2:    d000        ..      BEQ      0xdc6 ; __aeabi_i2d + 8
        0x00000dc4:    4240        @B      RSBS     r0,r0,#0
        0x00000dc6:    2201        ."      MOVS     r2,#1
        0x00000dc8:    0792        ..      LSLS     r2,r2,#30
        0x00000dca:    4311        .C      ORRS     r1,r1,r2
        0x00000dcc:    e7d6        ..      B        __aeabi_i2d_normalise ; 0xd7c
    __aeabi_ui2d
    _dfltu
        0x00000dce:    2101        .!      MOVS     r1,#1
        0x00000dd0:    0789        ..      LSLS     r1,r1,#30
        0x00000dd2:    e7d3        ..      B        __aeabi_i2d_normalise ; 0xd7c
    .text
    __aeabi_dmul
    _dmul
        0x00000dd4:    b5f0        ..      PUSH     {r4-r7,lr}
        0x00000dd6:    4c8b        .L      LDR      r4,[pc,#556] ; [0x1004] = 0x7ff0000
        0x00000dd8:    090f        ..      LSRS     r7,r1,#4
        0x00000dda:    4625        %F      MOV      r5,r4
        0x00000ddc:    b089        ..      SUB      sp,sp,#0x24
        0x00000dde:    43bd        .C      BICS     r5,r5,r7
        0x00000de0:    d07b        {.      BEQ      0xeda ; __aeabi_dmul + 262
        0x00000de2:    091d        ..      LSRS     r5,r3,#4
        0x00000de4:    4626        &F      MOV      r6,r4
        0x00000de6:    43ae        .C      BICS     r6,r6,r5
        0x00000de8:    d0fa        ..      BEQ      0xde0 ; __aeabi_dmul + 12
        0x00000dea:    460e        .F      MOV      r6,r1
        0x00000dec:    405e        ^@      EORS     r6,r6,r3
        0x00000dee:    4027        '@      ANDS     r7,r7,r4
        0x00000df0:    0ff6        ..      LSRS     r6,r6,#31
        0x00000df2:    433e        >C      ORRS     r6,r6,r7
        0x00000df4:    4025        %@      ANDS     r5,r5,r4
        0x00000df6:    d071        q.      BEQ      0xedc ; __aeabi_dmul + 264
        0x00000df8:    0124        $.      LSLS     r4,r4,#4
        0x00000dfa:    4221        !B      TST      r1,r4
        0x00000dfc:    d0fb        ..      BEQ      0xdf6 ; __aeabi_dmul + 34
        0x00000dfe:    24ff        .$      MOVS     r4,#0xff
        0x00000e00:    19ad        ..      ADDS     r5,r5,r6
        0x00000e02:    04a4        ..      LSLS     r4,r4,#18
        0x00000e04:    1b2d        -.      SUBS     r5,r5,r4
        0x00000e06:    9503        ..      STR      r5,[sp,#0xc]
        0x00000e08:    2501        .%      MOVS     r5,#1
        0x00000e0a:    052d        -.      LSLS     r5,r5,#20
        0x00000e0c:    02db        ..      LSLS     r3,r3,#11
        0x00000e0e:    0adb        ..      LSRS     r3,r3,#11
        0x00000e10:    02c9        ..      LSLS     r1,r1,#11
        0x00000e12:    432b        +C      ORRS     r3,r3,r5
        0x00000e14:    0ac9        ..      LSRS     r1,r1,#11
        0x00000e16:    4329        )C      ORRS     r1,r1,r5
        0x00000e18:    011e        ..      LSLS     r6,r3,#4
        0x00000e1a:    0109        ..      LSLS     r1,r1,#4
        0x00000e1c:    0f04        ..      LSRS     r4,r0,#28
        0x00000e1e:    0f13        ..      LSRS     r3,r2,#28
        0x00000e20:    0105        ..      LSLS     r5,r0,#4
        0x00000e22:    4321        !C      ORRS     r1,r1,r4
        0x00000e24:    0117        ..      LSLS     r7,r2,#4
        0x00000e26:    0b88        ..      LSRS     r0,r1,#14
        0x00000e28:    0382        ..      LSLS     r2,r0,#14
        0x00000e2a:    4391        .C      BICS     r1,r1,r2
        0x00000e2c:    092d        -.      LSRS     r5,r5,#4
        0x00000e2e:    468c        .F      MOV      r12,r1
        0x00000e30:    0ba9        ..      LSRS     r1,r5,#14
        0x00000e32:    431e        .C      ORRS     r6,r6,r3
        0x00000e34:    038a        ..      LSLS     r2,r1,#14
        0x00000e36:    4395        .C      BICS     r5,r5,r2
        0x00000e38:    0bb3        ..      LSRS     r3,r6,#14
        0x00000e3a:    039a        ..      LSLS     r2,r3,#14
        0x00000e3c:    4396        .C      BICS     r6,r6,r2
        0x00000e3e:    093f        ?.      LSRS     r7,r7,#4
        0x00000e40:    0bba        ..      LSRS     r2,r7,#14
        0x00000e42:    0394        ..      LSLS     r4,r2,#14
        0x00000e44:    43a7        .C      BICS     r7,r7,r4
        0x00000e46:    9602        ..      STR      r6,[sp,#8]
        0x00000e48:    462e        .F      MOV      r6,r5
        0x00000e4a:    437e        ~C      MULS     r6,r7,r6
        0x00000e4c:    9704        ..      STR      r7,[sp,#0x10]
        0x00000e4e:    46b6        .F      MOV      lr,r6
        0x00000e50:    194e        N.      ADDS     r6,r1,r5
        0x00000e52:    19d7        ..      ADDS     r7,r2,r7
        0x00000e54:    460c        .F      MOV      r4,r1
        0x00000e56:    9601        ..      STR      r6,[sp,#4]
        0x00000e58:    4354        TC      MULS     r4,r2,r4
        0x00000e5a:    9705        ..      STR      r7,[sp,#0x14]
        0x00000e5c:    437e        ~C      MULS     r6,r7,r6
        0x00000e5e:    1b37        7.      SUBS     r7,r6,r4
        0x00000e60:    4676        vF      MOV      r6,lr
        0x00000e62:    1bbf        ..      SUBS     r7,r7,r6
        0x00000e64:    0136        6.      LSLS     r6,r6,#4
        0x00000e66:    46b6        .F      MOV      lr,r6
        0x00000e68:    0bbe        ..      LSRS     r6,r7,#14
        0x00000e6a:    1936        6.      ADDS     r6,r6,r4
        0x00000e6c:    9600        ..      STR      r6,[sp,#0]
        0x00000e6e:    4676        vF      MOV      r6,lr
        0x00000e70:    04bc        ..      LSLS     r4,r7,#18
        0x00000e72:    1937        7.      ADDS     r7,r6,r4
        0x00000e74:    9c00        ..      LDR      r4,[sp,#0]
        0x00000e76:    d301        ..      BCC      0xe7c ; __aeabi_dmul + 168
        0x00000e78:    1c64        d.      ADDS     r4,r4,#1
        0x00000e7a:    9400        ..      STR      r4,[sp,#0]
        0x00000e7c:    0064        d.      LSLS     r4,r4,#1
        0x00000e7e:    2f00        ./      CMP      r7,#0
        0x00000e80:    d001        ..      BEQ      0xe86 ; __aeabi_dmul + 178
        0x00000e82:    2601        .&      MOVS     r6,#1
        0x00000e84:    4334        4C      ORRS     r4,r4,r6
        0x00000e86:    9e02        ..      LDR      r6,[sp,#8]
        0x00000e88:    9f04        ..      LDR      r7,[sp,#0x10]
        0x00000e8a:    4375        uC      MULS     r5,r6,r5
        0x00000e8c:    4666        fF      MOV      r6,r12
        0x00000e8e:    437e        ~C      MULS     r6,r7,r6
        0x00000e90:    9604        ..      STR      r6,[sp,#0x10]
        0x00000e92:    0076        v.      LSLS     r6,r6,#1
        0x00000e94:    1934        4.      ADDS     r4,r6,r4
        0x00000e96:    006e        n.      LSLS     r6,r5,#1
        0x00000e98:    1934        4.      ADDS     r4,r6,r4
        0x00000e9a:    9400        ..      STR      r4,[sp,#0]
        0x00000e9c:    9c02        ..      LDR      r4,[sp,#8]
        0x00000e9e:    9e01        ..      LDR      r6,[sp,#4]
        0x00000ea0:    191c        ..      ADDS     r4,r3,r4
        0x00000ea2:    4366        fC      MULS     r6,r4,r6
        0x00000ea4:    1b75        u.      SUBS     r5,r6,r5
        0x00000ea6:    46ae        .F      MOV      lr,r5
        0x00000ea8:    9406        ..      STR      r4,[sp,#0x18]
        0x00000eaa:    4665        eF      MOV      r5,r12
        0x00000eac:    1945        E.      ADDS     r5,r0,r5
        0x00000eae:    9c05        ..      LDR      r4,[sp,#0x14]
        0x00000eb0:    9505        ..      STR      r5,[sp,#0x14]
        0x00000eb2:    436c        lC      MULS     r4,r5,r4
        0x00000eb4:    4359        YC      MULS     r1,r3,r1
        0x00000eb6:    4675        uF      MOV      r5,lr
        0x00000eb8:    9108        ..      STR      r1,[sp,#0x20]
        0x00000eba:    1a69        i.      SUBS     r1,r5,r1
        0x00000ebc:    9101        ..      STR      r1,[sp,#4]
        0x00000ebe:    9e04        ..      LDR      r6,[sp,#0x10]
        0x00000ec0:    4601        .F      MOV      r1,r0
        0x00000ec2:    4351        QC      MULS     r1,r2,r1
        0x00000ec4:    1ba4        ..      SUBS     r4,r4,r6
        0x00000ec6:    9104        ..      STR      r1,[sp,#0x10]
        0x00000ec8:    1a61        a.      SUBS     r1,r4,r1
        0x00000eca:    9c00        ..      LDR      r4,[sp,#0]
        0x00000ecc:    9107        ..      STR      r1,[sp,#0x1c]
        0x00000ece:    06e1        ..      LSLS     r1,r4,#27
        0x00000ed0:    d005        ..      BEQ      0xede ; __aeabi_dmul + 266
        0x00000ed2:    0961        a.      LSRS     r1,r4,#5
        0x00000ed4:    2201        ."      MOVS     r2,#1
        0x00000ed6:    4311        .C      ORRS     r1,r1,r2
        0x00000ed8:    e002        ..      B        0xee0 ; __aeabi_dmul + 268
        0x00000eda:    e072        r.      B        0xfc2 ; __aeabi_dmul + 494
        0x00000edc:    e06e        n.      B        0xfbc ; __aeabi_dmul + 488
        0x00000ede:    0961        a.      LSRS     r1,r4,#5
        0x00000ee0:    9d08        ..      LDR      r5,[sp,#0x20]
        0x00000ee2:    2700        .'      MOVS     r7,#0
        0x00000ee4:    0a2c        ,.      LSRS     r4,r5,#8
        0x00000ee6:    062d        -.      LSLS     r5,r5,#24
        0x00000ee8:    1869        i.      ADDS     r1,r5,r1
        0x00000eea:    9d04        ..      LDR      r5,[sp,#0x10]
        0x00000eec:    417c        |A      ADCS     r4,r4,r7
        0x00000eee:    0a2a        *.      LSRS     r2,r5,#8
        0x00000ef0:    062d        -.      LSLS     r5,r5,#24
        0x00000ef2:    1869        i.      ADDS     r1,r5,r1
        0x00000ef4:    9d01        ..      LDR      r5,[sp,#4]
        0x00000ef6:    4162        bA      ADCS     r2,r2,r4
        0x00000ef8:    0dac        ..      LSRS     r4,r5,#22
        0x00000efa:    02ad        ..      LSLS     r5,r5,#10
        0x00000efc:    186d        m.      ADDS     r5,r5,r1
        0x00000efe:    4154        TA      ADCS     r4,r4,r2
        0x00000f00:    9a07        ..      LDR      r2,[sp,#0x1c]
        0x00000f02:    0d91        ..      LSRS     r1,r2,#22
        0x00000f04:    0292        ..      LSLS     r2,r2,#10
        0x00000f06:    1955        U.      ADDS     r5,r2,r5
        0x00000f08:    4161        aA      ADCS     r1,r1,r4
        0x00000f0a:    9a02        ..      LDR      r2,[sp,#8]
        0x00000f0c:    4664        dF      MOV      r4,r12
        0x00000f0e:    4358        XC      MULS     r0,r3,r0
        0x00000f10:    4354        TC      MULS     r4,r2,r4
        0x00000f12:    9b06        ..      LDR      r3,[sp,#0x18]
        0x00000f14:    9a05        ..      LDR      r2,[sp,#0x14]
        0x00000f16:    435a        ZC      MULS     r2,r3,r2
        0x00000f18:    1a12        ..      SUBS     r2,r2,r0
        0x00000f1a:    1b13        ..      SUBS     r3,r2,r4
        0x00000f1c:    0e9a        ..      LSRS     r2,r3,#26
        0x00000f1e:    019b        ..      LSLS     r3,r3,#6
        0x00000f20:    185b        [.      ADDS     r3,r3,r1
        0x00000f22:    417a        zA      ADCS     r2,r2,r7
        0x00000f24:    0b01        ..      LSRS     r1,r0,#12
        0x00000f26:    0500        ..      LSLS     r0,r0,#20
        0x00000f28:    18c3        ..      ADDS     r3,r0,r3
        0x00000f2a:    4151        QA      ADCS     r1,r1,r2
        0x00000f2c:    0a22        ".      LSRS     r2,r4,#8
        0x00000f2e:    0620         .      LSLS     r0,r4,#24
        0x00000f30:    1944        D.      ADDS     r4,r0,r5
        0x00000f32:    415a        ZA      ADCS     r2,r2,r3
        0x00000f34:    429a        .B      CMP      r2,r3
        0x00000f36:    d200        ..      BCS      0xf3a ; __aeabi_dmul + 358
        0x00000f38:    1c49        I.      ADDS     r1,r1,#1
        0x00000f3a:    2001        .       MOVS     r0,#1
        0x00000f3c:    0240        @.      LSLS     r0,r0,#9
        0x00000f3e:    4281        .B      CMP      r1,r0
        0x00000f40:    d303        ..      BCC      0xf4a ; __aeabi_dmul + 374
        0x00000f42:    2315        .#      MOVS     r3,#0x15
        0x00000f44:    2602        .&      MOVS     r6,#2
        0x00000f46:    43f6        .C      MVNS     r6,r6
        0x00000f48:    e002        ..      B        0xf50 ; __aeabi_dmul + 380
        0x00000f4a:    2314        .#      MOVS     r3,#0x14
        0x00000f4c:    2603        .&      MOVS     r6,#3
        0x00000f4e:    43f6        .C      MVNS     r6,r6
        0x00000f50:    2020                MOVS     r0,#0x20
        0x00000f52:    1ac5        ..      SUBS     r5,r0,r3
        0x00000f54:    40a9        .@      LSLS     r1,r1,r5
        0x00000f56:    4617        .F      MOV      r7,r2
        0x00000f58:    40af        .@      LSLS     r7,r7,r5
        0x00000f5a:    40da        .@      LSRS     r2,r2,r3
        0x00000f5c:    430a        .C      ORRS     r2,r2,r1
        0x00000f5e:    4620         F      MOV      r0,r4
        0x00000f60:    9903        ..      LDR      r1,[sp,#0xc]
        0x00000f62:    40d8        .@      LSRS     r0,r0,r3
        0x00000f64:    1409        ..      ASRS     r1,r1,#16
        0x00000f66:    1873        s.      ADDS     r3,r6,r1
        0x00000f68:    0519        ..      LSLS     r1,r3,#20
        0x00000f6a:    1851        Q.      ADDS     r1,r2,r1
        0x00000f6c:    9a03        ..      LDR      r2,[sp,#0xc]
        0x00000f6e:    4338        8C      ORRS     r0,r0,r7
        0x00000f70:    07d2        ..      LSLS     r2,r2,#31
        0x00000f72:    4051        Q@      EORS     r1,r1,r2
        0x00000f74:    40ac        .@      LSLS     r4,r4,r5
        0x00000f76:    d009        ..      BEQ      0xf8c ; __aeabi_dmul + 440
        0x00000f78:    2201        ."      MOVS     r2,#1
        0x00000f7a:    4094        .@      LSLS     r4,r4,r2
        0x00000f7c:    d306        ..      BCC      0xf8c ; __aeabi_dmul + 440
        0x00000f7e:    2200        ."      MOVS     r2,#0
        0x00000f80:    1c40        @.      ADDS     r0,r0,#1
        0x00000f82:    4151        QA      ADCS     r1,r1,r2
        0x00000f84:    2c00        .,      CMP      r4,#0
        0x00000f86:    d101        ..      BNE      0xf8c ; __aeabi_dmul + 440
        0x00000f88:    0840        @.      LSRS     r0,r0,#1
        0x00000f8a:    0040        @.      LSLS     r0,r0,#1
        0x00000f8c:    4a1e        .J      LDR      r2,[pc,#120] ; [0x1008] = 0x7fe
        0x00000f8e:    4293        .B      CMP      r3,r2
        0x00000f90:    d312        ..      BCC      0xfb8 ; __aeabi_dmul + 484
        0x00000f92:    2201        ."      MOVS     r2,#1
        0x00000f94:    9803        ..      LDR      r0,[sp,#0xc]
        0x00000f96:    0692        ..      LSLS     r2,r2,#26
        0x00000f98:    4290        .B      CMP      r0,r2
        0x00000f9a:    db07        ..      BLT      0xfac ; __aeabi_dmul + 472
        0x00000f9c:    2005        .       MOVS     r0,#5
        0x00000f9e:    0740        @.      LSLS     r0,r0,#29
        0x00000fa0:    1809        ..      ADDS     r1,r1,r0
        0x00000fa2:    481a        .H      LDR      r0,[pc,#104] ; [0x100c] = 0x7fffffff
        0x00000fa4:    4301        .C      ORRS     r1,r1,r0
        0x00000fa6:    12c0        ..      ASRS     r0,r0,#11
        0x00000fa8:    4041        A@      EORS     r1,r1,r0
        0x00000faa:    e004        ..      B        0xfb6 ; __aeabi_dmul + 482
        0x00000fac:    2003        .       MOVS     r0,#3
        0x00000fae:    0740        @.      LSLS     r0,r0,#29
        0x00000fb0:    1808        ..      ADDS     r0,r1,r0
        0x00000fb2:    0fc1        ..      LSRS     r1,r0,#31
        0x00000fb4:    07c9        ..      LSLS     r1,r1,#31
        0x00000fb6:    2000        .       MOVS     r0,#0
        0x00000fb8:    b009        ..      ADD      sp,sp,#0x24
        0x00000fba:    bdf0        ..      POP      {r4-r7,pc}
        0x00000fbc:    2000        .       MOVS     r0,#0
        0x00000fbe:    07f1        ..      LSLS     r1,r6,#31
        0x00000fc0:    e7fa        ..      B        0xfb8 ; __aeabi_dmul + 484
        0x00000fc2:    1805        ..      ADDS     r5,r0,r0
        0x00000fc4:    460c        .F      MOV      r4,r1
        0x00000fc6:    414c        LA      ADCS     r4,r4,r1
        0x00000fc8:    4811        .H      LDR      r0,[pc,#68] ; [0x1010] = 0xffe00000
        0x00000fca:    426d        mB      RSBS     r5,r5,#0
        0x00000fcc:    41a0        .A      SBCS     r0,r0,r4
        0x00000fce:    d315        ..      BCC      0xffc ; __aeabi_dmul + 552
        0x00000fd0:    1894        ..      ADDS     r4,r2,r2
        0x00000fd2:    461a        .F      MOV      r2,r3
        0x00000fd4:    415a        ZA      ADCS     r2,r2,r3
        0x00000fd6:    480e        .H      LDR      r0,[pc,#56] ; [0x1010] = 0xffe00000
        0x00000fd8:    4264        dB      RSBS     r4,r4,#0
        0x00000fda:    4190        .A      SBCS     r0,r0,r2
        0x00000fdc:    d30e        ..      BCC      0xffc ; __aeabi_dmul + 552
        0x00000fde:    2001        .       MOVS     r0,#1
        0x00000fe0:    004a        J.      LSLS     r2,r1,#1
        0x00000fe2:    0540        @.      LSLS     r0,r0,#21
        0x00000fe4:    4282        .B      CMP      r2,r0
        0x00000fe6:    d309        ..      BCC      0xffc ; __aeabi_dmul + 552
        0x00000fe8:    005a        Z.      LSLS     r2,r3,#1
        0x00000fea:    4282        .B      CMP      r2,r0
        0x00000fec:    d306        ..      BCC      0xffc ; __aeabi_dmul + 552
        0x00000fee:    4059        Y@      EORS     r1,r1,r3
        0x00000ff0:    0fc9        ..      LSRS     r1,r1,#31
        0x00000ff2:    4a08        .J      LDR      r2,[pc,#32] ; [0x1014] = 0x7ff00000
        0x00000ff4:    07c9        ..      LSLS     r1,r1,#31
        0x00000ff6:    2000        .       MOVS     r0,#0
        0x00000ff8:    4311        .C      ORRS     r1,r1,r2
        0x00000ffa:    e7dd        ..      B        0xfb8 ; __aeabi_dmul + 484
        0x00000ffc:    2000        .       MOVS     r0,#0
        0x00000ffe:    4906        .I      LDR      r1,[pc,#24] ; [0x1018] = 0x7ff80000
        0x00001000:    e7da        ..      B        0xfb8 ; __aeabi_dmul + 484
    $d
        0x00001002:    0000        ..      DCW    0
        0x00001004:    07ff0000    ....    DCD    134152192
        0x00001008:    000007fe    ....    DCD    2046
        0x0000100c:    7fffffff    ....    DCD    2147483647
        0x00001010:    ffe00000    ....    DCD    4292870144
        0x00001014:    7ff00000    ....    DCD    2146435072
        0x00001018:    7ff80000    ....    DCD    2146959360
    $t
    .text
    __aeabi_f2d
    _f2d
        0x0000101c:    2101        .!      MOVS     r1,#1
        0x0000101e:    05c9        ..      LSLS     r1,r1,#23
        0x00001020:    2301        .#      MOVS     r3,#1
        0x00001022:    1841        A.      ADDS     r1,r0,r1
        0x00001024:    0042        B.      LSLS     r2,r0,#1
        0x00001026:    061b        ..      LSLS     r3,r3,#24
        0x00001028:    18d3        ..      ADDS     r3,r2,r3
        0x0000102a:    0e5b        [.      LSRS     r3,r3,#25
        0x0000102c:    d00a        ..      BEQ      0x1044 ; __aeabi_f2d + 40
        0x0000102e:    10c1        ..      ASRS     r1,r0,#3
        0x00001030:    2207        ."      MOVS     r2,#7
        0x00001032:    06d2        ..      LSLS     r2,r2,#27
        0x00001034:    1889        ..      ADDS     r1,r1,r2
        0x00001036:    0740        @.      LSLS     r0,r0,#29
        0x00001038:    4252        RB      RSBS     r2,r2,#0
        0x0000103a:    42d1        .B      CMN      r1,r2
        0x0000103c:    d501        ..      BPL      0x1042 ; __aeabi_f2d + 38
        0x0000103e:    0052        R.      LSLS     r2,r2,#1
        0x00001040:    1889        ..      ADDS     r1,r1,r2
        0x00001042:    4770        pG      BX       lr
        0x00001044:    0209        ..      LSLS     r1,r1,#8
        0x00001046:    d508        ..      BPL      0x105a ; __aeabi_f2d + 62
        0x00001048:    4601        .F      MOV      r1,r0
        0x0000104a:    2a00        .*      CMP      r2,#0
        0x0000104c:    d003        ..      BEQ      0x1056 ; __aeabi_f2d + 58
        0x0000104e:    0fc1        ..      LSRS     r1,r0,#31
        0x00001050:    07c9        ..      LSLS     r1,r1,#31
        0x00001052:    2000        .       MOVS     r0,#0
        0x00001054:    4770        pG      BX       lr
        0x00001056:    4610        .F      MOV      r0,r2
        0x00001058:    4770        pG      BX       lr
        0x0000105a:    0242        B.      LSLS     r2,r0,#9
        0x0000105c:    d002        ..      BEQ      0x1064 ; __aeabi_f2d + 72
        0x0000105e:    2000        .       MOVS     r0,#0
        0x00001060:    4902        .I      LDR      r1,[pc,#8] ; [0x106c] = 0x7ff80000
        0x00001062:    4770        pG      BX       lr
        0x00001064:    2107        .!      MOVS     r1,#7
        0x00001066:    0509        ..      LSLS     r1,r1,#20
        0x00001068:    4301        .C      ORRS     r1,r1,r0
        0x0000106a:    e7f4        ..      B        0x1056 ; __aeabi_f2d + 58
    $d
        0x0000106c:    7ff80000    ....    DCD    2146959360
    $t
    .text
    __aeabi_fdiv
    _fdiv
        0x00001070:    b5f0        ..      PUSH     {r4-r7,lr}
        0x00001072:    25ff        .%      MOVS     r5,#0xff
        0x00001074:    042d        -.      LSLS     r5,r5,#16
        0x00001076:    09c6        ..      LSRS     r6,r0,#7
        0x00001078:    09c2        ..      LSRS     r2,r0,#7
        0x0000107a:    27ff        .'      MOVS     r7,#0xff
        0x0000107c:    4604        .F      MOV      r4,r0
        0x0000107e:    402e        .@      ANDS     r6,r6,r5
        0x00001080:    3701        .7      ADDS     r7,#1
        0x00001082:    09cb        ..      LSRS     r3,r1,#7
        0x00001084:    433e        >C      ORRS     r6,r6,r7
        0x00001086:    4048        H@      EORS     r0,r0,r1
        0x00001088:    402a        *@      ANDS     r2,r2,r5
        0x0000108a:    402b        +@      ANDS     r3,r3,r5
        0x0000108c:    4607        .F      MOV      r7,r0
        0x0000108e:    2a00        .*      CMP      r2,#0
        0x00001090:    d06b        k.      BEQ      0x116a ; __aeabi_fdiv + 250
        0x00001092:    2b00        .+      CMP      r3,#0
        0x00001094:    d069        i.      BEQ      0x116a ; __aeabi_fdiv + 250
        0x00001096:    42aa        .B      CMP      r2,r5
        0x00001098:    d067        g.      BEQ      0x116a ; __aeabi_fdiv + 250
        0x0000109a:    42ab        .B      CMP      r3,r5
        0x0000109c:    d065        e.      BEQ      0x116a ; __aeabi_fdiv + 250
        0x0000109e:    2800        .(      CMP      r0,#0
        0x000010a0:    da00        ..      BGE      0x10a4 ; __aeabi_fdiv + 52
        0x000010a2:    4632        2F      MOV      r2,r6
        0x000010a4:    2501        .%      MOVS     r5,#1
        0x000010a6:    05ed        ..      LSLS     r5,r5,#23
        0x000010a8:    4329        )C      ORRS     r1,r1,r5
        0x000010aa:    432c        ,C      ORRS     r4,r4,r5
        0x000010ac:    0209        ..      LSLS     r1,r1,#8
        0x000010ae:    0220         .      LSLS     r0,r4,#8
        0x000010b0:    0a09        ..      LSRS     r1,r1,#8
        0x000010b2:    1ad2        ..      SUBS     r2,r2,r3
        0x000010b4:    0c4b        K.      LSRS     r3,r1,#17
        0x000010b6:    247f        .$      MOVS     r4,#0x7f
        0x000010b8:    1ae3        ..      SUBS     r3,r4,r3
        0x000010ba:    4c43        CL      LDR      r4,[pc,#268] ; [0x11c8] = 0x2b36
        0x000010bc:    0a00        ..      LSRS     r0,r0,#8
        0x000010be:    447c        |D      ADD      r4,r4,pc
        0x000010c0:    5ce3        .\      LDRB     r3,[r4,r3]
        0x000010c2:    247d        }$      MOVS     r4,#0x7d
        0x000010c4:    0424        $.      LSLS     r4,r4,#16
        0x000010c6:    1912        ..      ADDS     r2,r2,r4
        0x000010c8:    1414        ..      ASRS     r4,r2,#16
        0x000010ca:    005b        [.      LSLS     r3,r3,#1
        0x000010cc:    18a2        ..      ADDS     r2,r4,r2
        0x000010ce:    4288        .B      CMP      r0,r1
        0x000010d0:    d301        ..      BCC      0x10d6 ; __aeabi_fdiv + 102
        0x000010d2:    1c52        R.      ADDS     r2,r2,#1
        0x000010d4:    e000        ..      B        0x10d8 ; __aeabi_fdiv + 104
        0x000010d6:    0040        @.      LSLS     r0,r0,#1
        0x000010d8:    4249        IB      RSBS     r1,r1,#0
        0x000010da:    460c        .F      MOV      r4,r1
        0x000010dc:    435c        \C      MULS     r4,r3,r4
        0x000010de:    1124        $.      ASRS     r4,r4,#4
        0x000010e0:    435c        \C      MULS     r4,r3,r4
        0x000010e2:    01db        ..      LSLS     r3,r3,#7
        0x000010e4:    1564        d.      ASRS     r4,r4,#21
        0x000010e6:    18e3        ..      ADDS     r3,r4,r3
        0x000010e8:    0a04        ..      LSRS     r4,r0,#8
        0x000010ea:    435c        \C      MULS     r4,r3,r4
        0x000010ec:    02c5        ..      LSLS     r5,r0,#11
        0x000010ee:    0d20         .      LSRS     r0,r4,#20
        0x000010f0:    460c        .F      MOV      r4,r1
        0x000010f2:    4344        DC      MULS     r4,r0,r4
        0x000010f4:    1964        d.      ADDS     r4,r4,r5
        0x000010f6:    0a25        %.      LSRS     r5,r4,#8
        0x000010f8:    435d        ]C      MULS     r5,r3,r5
        0x000010fa:    0323        #.      LSLS     r3,r4,#12
        0x000010fc:    0cec        ..      LSRS     r4,r5,#19
        0x000010fe:    460d        .F      MOV      r5,r1
        0x00001100:    4365        eC      MULS     r5,r4,r5
        0x00001102:    0300        ..      LSLS     r0,r0,#12
        0x00001104:    1900        ..      ADDS     r0,r0,r4
        0x00001106:    18eb        ..      ADDS     r3,r5,r3
        0x00001108:    424c        LB      RSBS     r4,r1,#0
        0x0000110a:    42a3        .B      CMP      r3,r4
        0x0000110c:    d301        ..      BCC      0x1112 ; __aeabi_fdiv + 162
        0x0000110e:    185b        [.      ADDS     r3,r3,r1
        0x00001110:    1c40        @.      ADDS     r0,r0,#1
        0x00001112:    05d4        ..      LSLS     r4,r2,#23
        0x00001114:    1820         .      ADDS     r0,r4,r0
        0x00001116:    2b00        .+      CMP      r3,#0
        0x00001118:    d007        ..      BEQ      0x112a ; __aeabi_fdiv + 186
        0x0000111a:    005b        [.      LSLS     r3,r3,#1
        0x0000111c:    18c9        ..      ADDS     r1,r1,r3
        0x0000111e:    d304        ..      BCC      0x112a ; __aeabi_fdiv + 186
        0x00001120:    1c40        @.      ADDS     r0,r0,#1
        0x00001122:    2900        .)      CMP      r1,#0
        0x00001124:    d101        ..      BNE      0x112a ; __aeabi_fdiv + 186
        0x00001126:    0840        @.      LSRS     r0,r0,#1
        0x00001128:    0040        @.      LSLS     r0,r0,#1
        0x0000112a:    213f        ?!      MOVS     r1,#0x3f
        0x0000112c:    0489        ..      LSLS     r1,r1,#18
        0x0000112e:    428a        .B      CMP      r2,r1
        0x00001130:    d309        ..      BCC      0x1146 ; __aeabi_fdiv + 214
        0x00001132:    2a00        .*      CMP      r2,#0
        0x00001134:    dc08        ..      BGT      0x1148 ; __aeabi_fdiv + 216
        0x00001136:    0611        ..      LSLS     r1,r2,#24
        0x00001138:    0f09        ..      LSRS     r1,r1,#28
        0x0000113a:    d004        ..      BEQ      0x1146 ; __aeabi_fdiv + 214
        0x0000113c:    2103        .!      MOVS     r1,#3
        0x0000113e:    0749        I.      LSLS     r1,r1,#29
        0x00001140:    1840        @.      ADDS     r0,r0,r1
        0x00001142:    0fc0        ..      LSRS     r0,r0,#31
        0x00001144:    07c0        ..      LSLS     r0,r0,#31
        0x00001146:    bdf0        ..      POP      {r4-r7,pc}
        0x00001148:    2201        ."      MOVS     r2,#1
        0x0000114a:    0041        A.      LSLS     r1,r0,#1
        0x0000114c:    0612        ..      LSLS     r2,r2,#24
        0x0000114e:    1889        ..      ADDS     r1,r1,r2
        0x00001150:    227f        ."      MOVS     r2,#0x7f
        0x00001152:    0652        R.      LSLS     r2,r2,#25
        0x00001154:    4291        .B      CMP      r1,r2
        0x00001156:    d2f6        ..      BCS      0x1146 ; __aeabi_fdiv + 214
        0x00001158:    2105        .!      MOVS     r1,#5
        0x0000115a:    0749        I.      LSLS     r1,r1,#29
        0x0000115c:    42c8        .B      CMN      r0,r1
        0x0000115e:    d501        ..      BPL      0x1164 ; __aeabi_fdiv + 244
        0x00001160:    1090        ..      ASRS     r0,r2,#2
        0x00001162:    bdf0        ..      POP      {r4-r7,pc}
        0x00001164:    20ff        .       MOVS     r0,#0xff
        0x00001166:    05c0        ..      LSLS     r0,r0,#23
        0x00001168:    bdf0        ..      POP      {r4-r7,pc}
        0x0000116a:    2f00        ./      CMP      r7,#0
        0x0000116c:    da00        ..      BGE      0x1170 ; __aeabi_fdiv + 256
        0x0000116e:    4632        2F      MOV      r2,r6
        0x00001170:    4816        .H      LDR      r0,[pc,#88] ; [0x11cc] = 0x7fc00000
        0x00001172:    42aa        .B      CMP      r2,r5
        0x00001174:    d207        ..      BCS      0x1186 ; __aeabi_fdiv + 278
        0x00001176:    42ab        .B      CMP      r3,r5
        0x00001178:    d205        ..      BCS      0x1186 ; __aeabi_fdiv + 278
        0x0000117a:    0219        ..      LSLS     r1,r3,#8
        0x0000117c:    0e09        ..      LSRS     r1,r1,#24
        0x0000117e:    d017        ..      BEQ      0x11b0 ; __aeabi_fdiv + 320
        0x00001180:    0ff8        ..      LSRS     r0,r7,#31
        0x00001182:    07c0        ..      LSLS     r0,r0,#31
        0x00001184:    bdf0        ..      POP      {r4-r7,pc}
        0x00001186:    25ff        .%      MOVS     r5,#0xff
        0x00001188:    0063        c.      LSLS     r3,r4,#1
        0x0000118a:    062d        -.      LSLS     r5,r5,#24
        0x0000118c:    42ab        .B      CMP      r3,r5
        0x0000118e:    d8f9        ..      BHI      0x1184 ; __aeabi_fdiv + 276
        0x00001190:    0049        I.      LSLS     r1,r1,#1
        0x00001192:    42a9        .B      CMP      r1,r5
        0x00001194:    d8f6        ..      BHI      0x1184 ; __aeabi_fdiv + 276
        0x00001196:    42ab        .B      CMP      r3,r5
        0x00001198:    d101        ..      BNE      0x119e ; __aeabi_fdiv + 302
        0x0000119a:    42a9        .B      CMP      r1,r5
        0x0000119c:    d0f2        ..      BEQ      0x1184 ; __aeabi_fdiv + 276
        0x0000119e:    42a9        .B      CMP      r1,r5
        0x000011a0:    d101        ..      BNE      0x11a6 ; __aeabi_fdiv + 310
        0x000011a2:    2100        .!      MOVS     r1,#0
        0x000011a4:    e001        ..      B        0x11aa ; __aeabi_fdiv + 314
        0x000011a6:    0061        a.      LSLS     r1,r4,#1
        0x000011a8:    0849        I.      LSRS     r1,r1,#1
        0x000011aa:    05d0        ..      LSLS     r0,r2,#23
        0x000011ac:    4308        .C      ORRS     r0,r0,r1
        0x000011ae:    bdf0        ..      POP      {r4-r7,pc}
        0x000011b0:    0211        ..      LSLS     r1,r2,#8
        0x000011b2:    0e09        ..      LSRS     r1,r1,#24
        0x000011b4:    d0fb        ..      BEQ      0x11ae ; __aeabi_fdiv + 318
        0x000011b6:    20ff        .       MOVS     r0,#0xff
        0x000011b8:    4302        .C      ORRS     r2,r2,r0
        0x000011ba:    05d0        ..      LSLS     r0,r2,#23
        0x000011bc:    bdf0        ..      POP      {r4-r7,pc}
    _frdiv
        0x000011be:    460a        .F      MOV      r2,r1
        0x000011c0:    4601        .F      MOV      r1,r0
        0x000011c2:    4610        .F      MOV      r0,r2
        0x000011c4:    e754        T.      B        __aeabi_fdiv ; 0x1070
    $d
        0x000011c6:    0000        ..      DCW    0
        0x000011c8:    00002b36    6+..    DCD    11062
        0x000011cc:    7fc00000    ....    DCD    2143289344
    $t
    .text
    __aeabi_f2iz
    _ffix
        0x000011d0:    b510        ..      PUSH     {r4,lr}
        0x000011d2:    4601        .F      MOV      r1,r0
        0x000011d4:    249e        .$      MOVS     r4,#0x9e
        0x000011d6:    0200        ..      LSLS     r0,r0,#8
        0x000011d8:    15ca        ..      ASRS     r2,r1,#23
        0x000011da:    07a3        ..      LSLS     r3,r4,#30
        0x000011dc:    2a00        .*      CMP      r2,#0
        0x000011de:    d002        ..      BEQ      0x11e6 ; __aeabi_f2iz + 22
        0x000011e0:    4318        .C      ORRS     r0,r0,r3
        0x000011e2:    2a00        .*      CMP      r2,#0
        0x000011e4:    db04        ..      BLT      0x11f0 ; __aeabi_f2iz + 32
        0x000011e6:    1aa2        ..      SUBS     r2,r4,r2
        0x000011e8:    2a00        .*      CMP      r2,#0
        0x000011ea:    dd0c        ..      BLE      0x1206 ; __aeabi_f2iz + 54
        0x000011ec:    40d0        .@      LSRS     r0,r0,r2
        0x000011ee:    bd10        ..      POP      {r4,pc}
        0x000011f0:    0612        ..      LSLS     r2,r2,#24
        0x000011f2:    0e12        ..      LSRS     r2,r2,#24
        0x000011f4:    d101        ..      BNE      0x11fa ; __aeabi_f2iz + 42
        0x000011f6:    0040        @.      LSLS     r0,r0,#1
        0x000011f8:    0840        @.      LSRS     r0,r0,#1
        0x000011fa:    1aa2        ..      SUBS     r2,r4,r2
        0x000011fc:    d403        ..      BMI      0x1206 ; __aeabi_f2iz + 54
        0x000011fe:    40d0        .@      LSRS     r0,r0,r2
        0x00001200:    4240        @B      RSBS     r0,r0,#0
        0x00001202:    2800        .(      CMP      r0,#0
        0x00001204:    ddf3        ..      BLE      0x11ee ; __aeabi_f2iz + 30
        0x00001206:    22ff        ."      MOVS     r2,#0xff
        0x00001208:    0048        H.      LSLS     r0,r1,#1
        0x0000120a:    0612        ..      LSLS     r2,r2,#24
        0x0000120c:    4290        .B      CMP      r0,r2
        0x0000120e:    d901        ..      BLS      0x1214 ; __aeabi_f2iz + 68
        0x00001210:    2000        .       MOVS     r0,#0
        0x00001212:    bd10        ..      POP      {r4,pc}
        0x00001214:    17c8        ..      ASRS     r0,r1,#31
        0x00001216:    43c0        .C      MVNS     r0,r0
        0x00001218:    4058        X@      EORS     r0,r0,r3
        0x0000121a:    bd10        ..      POP      {r4,pc}
    .text
    __aeabi_i2f_normalise
        0x0000121c:    221f        ."      MOVS     r2,#0x1f
        0x0000121e:    0c03        ..      LSRS     r3,r0,#16
        0x00001220:    d102        ..      BNE      0x1228 ; __aeabi_i2f_normalise + 12
        0x00001222:    220f        ."      MOVS     r2,#0xf
        0x00001224:    0400        ..      LSLS     r0,r0,#16
        0x00001226:    d01c        ..      BEQ      0x1262 ; __aeabi_i2f_normalise + 70
        0x00001228:    0e03        ..      LSRS     r3,r0,#24
        0x0000122a:    d101        ..      BNE      0x1230 ; __aeabi_i2f_normalise + 20
        0x0000122c:    0200        ..      LSLS     r0,r0,#8
        0x0000122e:    3a08        .:      SUBS     r2,r2,#8
        0x00001230:    0f03        ..      LSRS     r3,r0,#28
        0x00001232:    d101        ..      BNE      0x1238 ; __aeabi_i2f_normalise + 28
        0x00001234:    0100        ..      LSLS     r0,r0,#4
        0x00001236:    1f12        ..      SUBS     r2,r2,#4
        0x00001238:    0f83        ..      LSRS     r3,r0,#30
        0x0000123a:    d101        ..      BNE      0x1240 ; __aeabi_i2f_normalise + 36
        0x0000123c:    0080        ..      LSLS     r0,r0,#2
        0x0000123e:    1e92        ..      SUBS     r2,r2,#2
        0x00001240:    2800        .(      CMP      r0,#0
        0x00001242:    db01        ..      BLT      0x1248 ; __aeabi_i2f_normalise + 44
        0x00001244:    0040        @.      LSLS     r0,r0,#1
        0x00001246:    1e52        R.      SUBS     r2,r2,#1
        0x00001248:    05d2        ..      LSLS     r2,r2,#23
        0x0000124a:    1851        Q.      ADDS     r1,r2,r1
        0x0000124c:    1202        ..      ASRS     r2,r0,#8
        0x0000124e:    1851        Q.      ADDS     r1,r2,r1
        0x00001250:    2219        ."      MOVS     r2,#0x19
        0x00001252:    4090        .@      LSLS     r0,r0,r2
        0x00001254:    d304        ..      BCC      0x1260 ; __aeabi_i2f_normalise + 68
        0x00001256:    1c49        I.      ADDS     r1,r1,#1
        0x00001258:    2800        .(      CMP      r0,#0
        0x0000125a:    d101        ..      BNE      0x1260 ; __aeabi_i2f_normalise + 68
        0x0000125c:    0849        I.      LSRS     r1,r1,#1
        0x0000125e:    0049        I.      LSLS     r1,r1,#1
        0x00001260:    4608        .F      MOV      r0,r1
        0x00001262:    4770        pG      BX       lr
    __aeabi_i2f
    _fflt
        0x00001264:    0fc1        ..      LSRS     r1,r0,#31
        0x00001266:    07c9        ..      LSLS     r1,r1,#31
        0x00001268:    d000        ..      BEQ      0x126c ; __aeabi_i2f + 8
        0x0000126a:    4240        @B      RSBS     r0,r0,#0
        0x0000126c:    2201        ."      MOVS     r2,#1
        0x0000126e:    0792        ..      LSLS     r2,r2,#30
        0x00001270:    4311        .C      ORRS     r1,r1,r2
        0x00001272:    e7d3        ..      B        __aeabi_i2f_normalise ; 0x121c
    __aeabi_ui2f
    _ffltu
        0x00001274:    2101        .!      MOVS     r1,#1
        0x00001276:    0789        ..      LSLS     r1,r1,#30
        0x00001278:    e7d0        ..      B        __aeabi_i2f_normalise ; 0x121c
    .text
    _printf_int_common
        0x0000127a:    b5ff        ..      PUSH     {r0-r7,lr}
        0x0000127c:    4604        .F      MOV      r4,r0
        0x0000127e:    460d        .F      MOV      r5,r1
        0x00001280:    b081        ..      SUB      sp,sp,#4
        0x00001282:    3024        $0      ADDS     r0,r0,#0x24
        0x00001284:    9000        ..      STR      r0,[sp,#0]
        0x00001286:    6821        !h      LDR      r1,[r4,#0]
        0x00001288:    0688        ..      LSLS     r0,r1,#26
        0x0000128a:    d504        ..      BPL      0x1296 ; _printf_int_common + 28
        0x0000128c:    2210        ."      MOVS     r2,#0x10
        0x0000128e:    69e0        .i      LDR      r0,[r4,#0x1c]
        0x00001290:    4391        .C      BICS     r1,r1,r2
        0x00001292:    6021        !`      STR      r1,[r4,#0]
        0x00001294:    e000        ..      B        0x1298 ; _printf_int_common + 30
        0x00001296:    2001        .       MOVS     r0,#1
        0x00001298:    42a8        .B      CMP      r0,r5
        0x0000129a:    dd01        ..      BLE      0x12a0 ; _printf_int_common + 38
        0x0000129c:    1b47        G.      SUBS     r7,r0,r5
        0x0000129e:    e000        ..      B        0x12a2 ; _printf_int_common + 40
        0x000012a0:    2700        .'      MOVS     r7,#0
        0x000012a2:    9804        ..      LDR      r0,[sp,#0x10]
        0x000012a4:    69a1        .i      LDR      r1,[r4,#0x18]
        0x000012a6:    197a        z.      ADDS     r2,r7,r5
        0x000012a8:    1810        ..      ADDS     r0,r2,r0
        0x000012aa:    1a08        ..      SUBS     r0,r1,r0
        0x000012ac:    61a0        .a      STR      r0,[r4,#0x18]
        0x000012ae:    7820         x      LDRB     r0,[r4,#0]
        0x000012b0:    06c0        ..      LSLS     r0,r0,#27
        0x000012b2:    d402        ..      BMI      0x12ba ; _printf_int_common + 64
        0x000012b4:    4620         F      MOV      r0,r4
        0x000012b6:    46c0        .F      MOV      r8,r8
        0x000012b8:    46c0        .F      MOV      r8,r8
        0x000012ba:    2600        .&      MOVS     r6,#0
        0x000012bc:    e008        ..      B        0x12d0 ; _printf_int_common + 86
        0x000012be:    9803        ..      LDR      r0,[sp,#0xc]
        0x000012c0:    6862        bh      LDR      r2,[r4,#4]
        0x000012c2:    68a1        .h      LDR      r1,[r4,#8]
        0x000012c4:    5d80        .]      LDRB     r0,[r0,r6]
        0x000012c6:    4790        .G      BLX      r2
        0x000012c8:    6a20         j      LDR      r0,[r4,#0x20]
        0x000012ca:    1c40        @.      ADDS     r0,r0,#1
        0x000012cc:    1c76        v.      ADDS     r6,r6,#1
        0x000012ce:    6220         b      STR      r0,[r4,#0x20]
        0x000012d0:    9804        ..      LDR      r0,[sp,#0x10]
        0x000012d2:    4286        .B      CMP      r6,r0
        0x000012d4:    dbf3        ..      BLT      0x12be ; _printf_int_common + 68
        0x000012d6:    7820         x      LDRB     r0,[r4,#0]
        0x000012d8:    06c0        ..      LSLS     r0,r0,#27
        0x000012da:    d50a        ..      BPL      0x12f2 ; _printf_int_common + 120
        0x000012dc:    4620         F      MOV      r0,r4
        0x000012de:    46c0        .F      MOV      r8,r8
        0x000012e0:    46c0        .F      MOV      r8,r8
        0x000012e2:    e006        ..      B        0x12f2 ; _printf_int_common + 120
        0x000012e4:    6862        bh      LDR      r2,[r4,#4]
        0x000012e6:    68a1        .h      LDR      r1,[r4,#8]
        0x000012e8:    2030        0       MOVS     r0,#0x30
        0x000012ea:    4790        .G      BLX      r2
        0x000012ec:    6a20         j      LDR      r0,[r4,#0x20]
        0x000012ee:    1c40        @.      ADDS     r0,r0,#1
        0x000012f0:    6220         b      STR      r0,[r4,#0x20]
        0x000012f2:    4638        8F      MOV      r0,r7
        0x000012f4:    1e7f        ..      SUBS     r7,r7,#1
        0x000012f6:    2800        .(      CMP      r0,#0
        0x000012f8:    dcf4        ..      BGT      0x12e4 ; _printf_int_common + 106
        0x000012fa:    e007        ..      B        0x130c ; _printf_int_common + 146
        0x000012fc:    9800        ..      LDR      r0,[sp,#0]
        0x000012fe:    6862        bh      LDR      r2,[r4,#4]
        0x00001300:    68a1        .h      LDR      r1,[r4,#8]
        0x00001302:    5d40        @]      LDRB     r0,[r0,r5]
        0x00001304:    4790        .G      BLX      r2
        0x00001306:    6a20         j      LDR      r0,[r4,#0x20]
        0x00001308:    1c40        @.      ADDS     r0,r0,#1
        0x0000130a:    6220         b      STR      r0,[r4,#0x20]
        0x0000130c:    4628        (F      MOV      r0,r5
        0x0000130e:    1e6d        m.      SUBS     r5,r5,#1
        0x00001310:    2800        .(      CMP      r0,#0
        0x00001312:    dcf3        ..      BGT      0x12fc ; _printf_int_common + 130
        0x00001314:    4620         F      MOV      r0,r4
        0x00001316:    46c0        .F      MOV      r8,r8
        0x00001318:    46c0        .F      MOV      r8,r8
        0x0000131a:    7820         x      LDRB     r0,[r4,#0]
        0x0000131c:    0600        ..      LSLS     r0,r0,#24
        0x0000131e:    d502        ..      BPL      0x1326 ; _printf_int_common + 172
        0x00001320:    2002        .       MOVS     r0,#2
        0x00001322:    b005        ..      ADD      sp,sp,#0x14
        0x00001324:    bdf0        ..      POP      {r4-r7,pc}
        0x00001326:    2001        .       MOVS     r0,#1
        0x00001328:    e7fb        ..      B        0x1322 ; _printf_int_common + 168
        0x0000132a:    0000        ..      MOVS     r0,r0
    .text
    _printf_input_char
        0x0000132c:    6901        .i      LDR      r1,[r0,#0x10]
        0x0000132e:    1c4a        J.      ADDS     r2,r1,#1
        0x00001330:    6102        .a      STR      r2,[r0,#0x10]
        0x00001332:    7808        .x      LDRB     r0,[r1,#0]
        0x00001334:    4770        pG      BX       lr
    _printf_char_common
        0x00001336:    b500        ..      PUSH     {lr}
        0x00001338:    b08f        ..      SUB      sp,sp,#0x3c
        0x0000133a:    9102        ..      STR      r1,[sp,#8]
        0x0000133c:    2100        .!      MOVS     r1,#0
        0x0000133e:    9105        ..      STR      r1,[sp,#0x14]
        0x00001340:    4905        .I      LDR      r1,[pc,#20] ; [0x1358] = 0xffffffe5
        0x00001342:    9301        ..      STR      r3,[sp,#4]
        0x00001344:    4479        yD      ADD      r1,r1,pc
        0x00001346:    9103        ..      STR      r1,[sp,#0xc]
        0x00001348:    4611        .F      MOV      r1,r2
        0x0000134a:    9004        ..      STR      r0,[sp,#0x10]
        0x0000134c:    4668        hF      MOV      r0,sp
        0x0000134e:    f7feff8d    ....    BL       __printf ; 0x26c
        0x00001352:    b00f        ..      ADD      sp,sp,#0x3c
        0x00001354:    bd00        ..      POP      {pc}
    $d
        0x00001356:    0000        ..      DCW    0
        0x00001358:    ffffffe5    ....    DCD    4294967269
    $t
    .text
    _sputc
        0x0000135c:    680a        .h      LDR      r2,[r1,#0]
        0x0000135e:    7010        .p      STRB     r0,[r2,#0]
        0x00001360:    1c52        R.      ADDS     r2,r2,#1
        0x00001362:    600a        .`      STR      r2,[r1,#0]
        0x00001364:    4770        pG      BX       lr
    .text
    __rt_udiv10
        0x00001366:    4601        .F      MOV      r1,r0
        0x00001368:    0880        ..      LSRS     r0,r0,#2
        0x0000136a:    1a08        ..      SUBS     r0,r1,r0
        0x0000136c:    0902        ..      LSRS     r2,r0,#4
        0x0000136e:    1810        ..      ADDS     r0,r2,r0
        0x00001370:    0a02        ..      LSRS     r2,r0,#8
        0x00001372:    1810        ..      ADDS     r0,r2,r0
        0x00001374:    0c02        ..      LSRS     r2,r0,#16
        0x00001376:    1810        ..      ADDS     r0,r2,r0
        0x00001378:    08c0        ..      LSRS     r0,r0,#3
        0x0000137a:    0082        ..      LSLS     r2,r0,#2
        0x0000137c:    1812        ..      ADDS     r2,r2,r0
        0x0000137e:    0052        R.      LSLS     r2,r2,#1
        0x00001380:    1a89        ..      SUBS     r1,r1,r2
        0x00001382:    e001        ..      B        0x1388 ; __rt_udiv10 + 34
        0x00001384:    1c40        @.      ADDS     r0,r0,#1
        0x00001386:    390a        .9      SUBS     r1,r1,#0xa
        0x00001388:    290a        .)      CMP      r1,#0xa
        0x0000138a:    d2fb        ..      BCS      0x1384 ; __rt_udiv10 + 30
        0x0000138c:    4770        pG      BX       lr
    .text
    __user_setup_stackheap
        0x0000138e:    4675        uF      MOV      r5,lr
        0x00001390:    f000f824    ..$.    BL       __user_libspace ; 0x13dc
        0x00001394:    46ae        .F      MOV      lr,r5
        0x00001396:    0005        ..      MOVS     r5,r0
        0x00001398:    4669        iF      MOV      r1,sp
        0x0000139a:    4653        SF      MOV      r3,r10
        0x0000139c:    08c0        ..      LSRS     r0,r0,#3
        0x0000139e:    00c0        ..      LSLS     r0,r0,#3
        0x000013a0:    4685        .F      MOV      sp,r0
        0x000013a2:    b018        ..      ADD      sp,sp,#0x60
        0x000013a4:    b520         .      PUSH     {r5,lr}
        0x000013a6:    f7fefefb    ....    BL       __user_initial_stackheap ; 0x1a0
        0x000013aa:    bc60        `.      POP      {r5,r6}
        0x000013ac:    2700        .'      MOVS     r7,#0
        0x000013ae:    0849        I.      LSRS     r1,r1,#1
        0x000013b0:    46b6        .F      MOV      lr,r6
        0x000013b2:    2600        .&      MOVS     r6,#0
        0x000013b4:    c5c0        ..      STM      r5!,{r6,r7}
        0x000013b6:    c5c0        ..      STM      r5!,{r6,r7}
        0x000013b8:    c5c0        ..      STM      r5!,{r6,r7}
        0x000013ba:    c5c0        ..      STM      r5!,{r6,r7}
        0x000013bc:    c5c0        ..      STM      r5!,{r6,r7}
        0x000013be:    c5c0        ..      STM      r5!,{r6,r7}
        0x000013c0:    c5c0        ..      STM      r5!,{r6,r7}
        0x000013c2:    c5c0        ..      STM      r5!,{r6,r7}
        0x000013c4:    3d40        @=      SUBS     r5,r5,#0x40
        0x000013c6:    0049        I.      LSLS     r1,r1,#1
        0x000013c8:    468d        .F      MOV      sp,r1
        0x000013ca:    4770        pG      BX       lr
    .text
    exit
        0x000013cc:    b510        ..      PUSH     {r4,lr}
        0x000013ce:    4604        .F      MOV      r4,r0
        0x000013d0:    46c0        .F      MOV      r8,r8
        0x000013d2:    46c0        .F      MOV      r8,r8
        0x000013d4:    4620         F      MOV      r0,r4
        0x000013d6:    f7fefec6    ....    BL       __rt_exit ; 0x166
        0x000013da:    bd10        ..      POP      {r4,pc}
    .text
    __user_libspace
    __user_perproc_libspace
    __user_perthread_libspace
        0x000013dc:    4800        .H      LDR      r0,[pc,#0] ; [0x13e0] = 0x200001c4
        0x000013de:    4770        pG      BX       lr
    $d
        0x000013e0:    200001c4    ...     DCD    536871364
    $t
    .text
    _sys_exit
        0x000013e4:    4901        .I      LDR      r1,[pc,#4] ; [0x13ec] = 0x20026
        0x000013e6:    2018        .       MOVS     r0,#0x18
        0x000013e8:    beab        ..      BKPT     #0xab
        0x000013ea:    e7fe        ..      B        0x13ea ; _sys_exit + 6
    $d
        0x000013ec:    00020026    &...    DCD    131110
    $t
    .text
    __I$use$semihosting
    __use_no_semihosting_swi
        0x000013f0:    4770        pG      BX       lr
    .text
    __semihosting_library_function
        0x000013f2:    0000        ..      MOVS     r0,r0
    i.ADC_IRQHandler
    ADC_IRQHandler
        0x000013f4:    b510        ..      PUSH     {r4,lr}
        0x000013f6:    4821        !H      LDR      r0,[pc,#132] ; [0x147c] = 0x400e0000
        0x000013f8:    6b00        .k      LDR      r0,[r0,#0x30]
        0x000013fa:    07c0        ..      LSLS     r0,r0,#31
        0x000013fc:    0fc0        ..      LSRS     r0,r0,#31
        0x000013fe:    2800        .(      CMP      r0,#0
        0x00001400:    d00f        ..      BEQ      0x1422 ; ADC_IRQHandler + 46
        0x00001402:    481f        .H      LDR      r0,[pc,#124] ; [0x1480] = 0x200000ac
        0x00001404:    6800        .h      LDR      r0,[r0,#0]
        0x00001406:    2800        .(      CMP      r0,#0
        0x00001408:    d004        ..      BEQ      0x1414 ; ADC_IRQHandler + 32
        0x0000140a:    491e        .I      LDR      r1,[pc,#120] ; [0x1484] = 0x200001b8
        0x0000140c:    6808        .h      LDR      r0,[r1,#0]
        0x0000140e:    491c        .I      LDR      r1,[pc,#112] ; [0x1480] = 0x200000ac
        0x00001410:    6809        .h      LDR      r1,[r1,#0]
        0x00001412:    4788        .G      BLX      r1
        0x00001414:    4819        .H      LDR      r0,[pc,#100] ; [0x147c] = 0x400e0000
        0x00001416:    6b00        .k      LDR      r0,[r0,#0x30]
        0x00001418:    08c0        ..      LSRS     r0,r0,#3
        0x0000141a:    00c0        ..      LSLS     r0,r0,#3
        0x0000141c:    1c40        @.      ADDS     r0,r0,#1
        0x0000141e:    4917        .I      LDR      r1,[pc,#92] ; [0x147c] = 0x400e0000
        0x00001420:    6308        .c      STR      r0,[r1,#0x30]
        0x00001422:    4816        .H      LDR      r0,[pc,#88] ; [0x147c] = 0x400e0000
        0x00001424:    6b00        .k      LDR      r0,[r0,#0x30]
        0x00001426:    0780        ..      LSLS     r0,r0,#30
        0x00001428:    0fc0        ..      LSRS     r0,r0,#31
        0x0000142a:    2800        .(      CMP      r0,#0
        0x0000142c:    d00f        ..      BEQ      0x144e ; ADC_IRQHandler + 90
        0x0000142e:    4816        .H      LDR      r0,[pc,#88] ; [0x1488] = 0x200000b0
        0x00001430:    6800        .h      LDR      r0,[r0,#0]
        0x00001432:    2800        .(      CMP      r0,#0
        0x00001434:    d004        ..      BEQ      0x1440 ; ADC_IRQHandler + 76
        0x00001436:    4913        .I      LDR      r1,[pc,#76] ; [0x1484] = 0x200001b8
        0x00001438:    6848        Hh      LDR      r0,[r1,#4]
        0x0000143a:    4913        .I      LDR      r1,[pc,#76] ; [0x1488] = 0x200000b0
        0x0000143c:    6809        .h      LDR      r1,[r1,#0]
        0x0000143e:    4788        .G      BLX      r1
        0x00001440:    480e        .H      LDR      r0,[pc,#56] ; [0x147c] = 0x400e0000
        0x00001442:    6b00        .k      LDR      r0,[r0,#0x30]
        0x00001444:    08c0        ..      LSRS     r0,r0,#3
        0x00001446:    00c0        ..      LSLS     r0,r0,#3
        0x00001448:    1c80        ..      ADDS     r0,r0,#2
        0x0000144a:    490c        .I      LDR      r1,[pc,#48] ; [0x147c] = 0x400e0000
        0x0000144c:    6308        .c      STR      r0,[r1,#0x30]
        0x0000144e:    480b        .H      LDR      r0,[pc,#44] ; [0x147c] = 0x400e0000
        0x00001450:    6b00        .k      LDR      r0,[r0,#0x30]
        0x00001452:    0740        @.      LSLS     r0,r0,#29
        0x00001454:    0fc0        ..      LSRS     r0,r0,#31
        0x00001456:    2800        .(      CMP      r0,#0
        0x00001458:    d00f        ..      BEQ      0x147a ; ADC_IRQHandler + 134
        0x0000145a:    480c        .H      LDR      r0,[pc,#48] ; [0x148c] = 0x200000b4
        0x0000145c:    6800        .h      LDR      r0,[r0,#0]
        0x0000145e:    2800        .(      CMP      r0,#0
        0x00001460:    d004        ..      BEQ      0x146c ; ADC_IRQHandler + 120
        0x00001462:    4908        .I      LDR      r1,[pc,#32] ; [0x1484] = 0x200001b8
        0x00001464:    6888        .h      LDR      r0,[r1,#8]
        0x00001466:    4909        .I      LDR      r1,[pc,#36] ; [0x148c] = 0x200000b4
        0x00001468:    6809        .h      LDR      r1,[r1,#0]
        0x0000146a:    4788        .G      BLX      r1
        0x0000146c:    4803        .H      LDR      r0,[pc,#12] ; [0x147c] = 0x400e0000
        0x0000146e:    6b00        .k      LDR      r0,[r0,#0x30]
        0x00001470:    08c0        ..      LSRS     r0,r0,#3
        0x00001472:    00c0        ..      LSLS     r0,r0,#3
        0x00001474:    1d00        ..      ADDS     r0,r0,#4
        0x00001476:    4901        .I      LDR      r1,[pc,#4] ; [0x147c] = 0x400e0000
        0x00001478:    6308        .c      STR      r0,[r1,#0x30]
        0x0000147a:    bd10        ..      POP      {r4,pc}
    $d
        0x0000147c:    400e0000    ...@    DCD    1074659328
        0x00001480:    200000ac    ...     DCD    536871084
        0x00001484:    200001b8    ...     DCD    536871352
        0x00001488:    200000b0    ...     DCD    536871088
        0x0000148c:    200000b4    ...     DCD    536871092
    $t
    i.BOD_IRQHandler
    BOD_IRQHandler
        0x00001490:    b510        ..      PUSH     {r4,lr}
        0x00001492:    2005        .       MOVS     r0,#5
        0x00001494:    0700        ..      LSLS     r0,r0,#28
        0x00001496:    6980        .i      LDR      r0,[r0,#0x18]
        0x00001498:    2110        .!      MOVS     r1,#0x10
        0x0000149a:    4388        .C      BICS     r0,r0,r1
        0x0000149c:    3010        .0      ADDS     r0,r0,#0x10
        0x0000149e:    2105        .!      MOVS     r1,#5
        0x000014a0:    0709        ..      LSLS     r1,r1,#28
        0x000014a2:    6188        .a      STR      r0,[r1,#0x18]
        0x000014a4:    4803        .H      LDR      r0,[pc,#12] ; [0x14b4] = 0x20000098
        0x000014a6:    6800        .h      LDR      r0,[r0,#0]
        0x000014a8:    2800        .(      CMP      r0,#0
        0x000014aa:    d002        ..      BEQ      0x14b2 ; BOD_IRQHandler + 34
        0x000014ac:    4801        .H      LDR      r0,[pc,#4] ; [0x14b4] = 0x20000098
        0x000014ae:    6800        .h      LDR      r0,[r0,#0]
        0x000014b0:    4780        .G      BLX      r0
        0x000014b2:    bd10        ..      POP      {r4,pc}
    $d
        0x000014b4:    20000098    ...     DCD    536871064
    $t
    i.BaudRateCalculator
    BaudRateCalculator
        0x000014b8:    b5f7        ..      PUSH     {r0-r2,r4-r7,lr}
        0x000014ba:    b082        ..      SUB      sp,sp,#8
        0x000014bc:    4617        .F      MOV      r7,r2
        0x000014be:    4831        1H      LDR      r0,[pc,#196] ; [0x1584] = 0x40050000
        0x000014c0:    183c        <.      ADDS     r4,r7,r0
        0x000014c2:    9903        ..      LDR      r1,[sp,#0xc]
        0x000014c4:    9802        ..      LDR      r0,[sp,#8]
        0x000014c6:    f7feff9b    ....    BL       __aeabi_uidiv ; 0x400
        0x000014ca:    0700        ..      LSLS     r0,r0,#28
        0x000014cc:    0f00        ..      LSRS     r0,r0,#28
        0x000014ce:    2803        .(      CMP      r0,#3
        0x000014d0:    d20f        ..      BCS      0x14f2 ; BaudRateCalculator + 58
        0x000014d2:    6a60        `j      LDR      r0,[r4,#0x24]
        0x000014d4:    2101        .!      MOVS     r1,#1
        0x000014d6:    0749        I.      LSLS     r1,r1,#29
        0x000014d8:    4388        .C      BICS     r0,r0,r1
        0x000014da:    6260        `b      STR      r0,[r4,#0x24]
        0x000014dc:    6a60        `j      LDR      r0,[r4,#0x24]
        0x000014de:    1049        I.      ASRS     r1,r1,#1
        0x000014e0:    4388        .C      BICS     r0,r0,r1
        0x000014e2:    6260        `b      STR      r0,[r4,#0x24]
        0x000014e4:    9903        ..      LDR      r1,[sp,#0xc]
        0x000014e6:    9802        ..      LDR      r0,[sp,#8]
        0x000014e8:    f7feff8a    ....    BL       __aeabi_uidiv ; 0x400
        0x000014ec:    0900        ..      LSRS     r0,r0,#4
        0x000014ee:    1e86        ..      SUBS     r6,r0,#2
        0x000014f0:    e040        @.      B        0x1574 ; BaudRateCalculator + 188
        0x000014f2:    6a60        `j      LDR      r0,[r4,#0x24]
        0x000014f4:    2101        .!      MOVS     r1,#1
        0x000014f6:    0749        I.      LSLS     r1,r1,#29
        0x000014f8:    4388        .C      BICS     r0,r0,r1
        0x000014fa:    1840        @.      ADDS     r0,r0,r1
        0x000014fc:    6260        `b      STR      r0,[r4,#0x24]
        0x000014fe:    6a60        `j      LDR      r0,[r4,#0x24]
        0x00001500:    1049        I.      ASRS     r1,r1,#1
        0x00001502:    4388        .C      BICS     r0,r0,r1
        0x00001504:    1840        @.      ADDS     r0,r0,r1
        0x00001506:    6260        `b      STR      r0,[r4,#0x24]
        0x00001508:    9903        ..      LDR      r1,[sp,#0xc]
        0x0000150a:    9802        ..      LDR      r0,[sp,#8]
        0x0000150c:    f7feff78    ..x.    BL       __aeabi_uidiv ; 0x400
        0x00001510:    1e86        ..      SUBS     r6,r0,#2
        0x00001512:    481d        .H      LDR      r0,[pc,#116] ; [0x1588] = 0xffff
        0x00001514:    4286        .B      CMP      r6,r0
        0x00001516:    dd2d        -.      BLE      0x1574 ; BaudRateCalculator + 188
        0x00001518:    6a60        `j      LDR      r0,[r4,#0x24]
        0x0000151a:    2101        .!      MOVS     r1,#1
        0x0000151c:    0749        I.      LSLS     r1,r1,#29
        0x0000151e:    4388        .C      BICS     r0,r0,r1
        0x00001520:    1840        @.      ADDS     r0,r0,r1
        0x00001522:    6260        `b      STR      r0,[r4,#0x24]
        0x00001524:    6a60        `j      LDR      r0,[r4,#0x24]
        0x00001526:    1049        I.      ASRS     r1,r1,#1
        0x00001528:    4388        .C      BICS     r0,r0,r1
        0x0000152a:    6260        `b      STR      r0,[r4,#0x24]
        0x0000152c:    2508        .%      MOVS     r5,#8
        0x0000152e:    e01e        ..      B        0x156e ; BaudRateCalculator + 182
        0x00001530:    9903        ..      LDR      r1,[sp,#0xc]
        0x00001532:    9802        ..      LDR      r0,[sp,#8]
        0x00001534:    f7feff64    ..d.    BL       __aeabi_uidiv ; 0x400
        0x00001538:    1c69        i.      ADDS     r1,r5,#1
        0x0000153a:    9001        ..      STR      r0,[sp,#4]
        0x0000153c:    f7feff60    ..`.    BL       __aeabi_uidiv ; 0x400
        0x00001540:    2903        .)      CMP      r1,#3
        0x00001542:    d213        ..      BCS      0x156c ; BaudRateCalculator + 180
        0x00001544:    6a60        `j      LDR      r0,[r4,#0x24]
        0x00001546:    210f        .!      MOVS     r1,#0xf
        0x00001548:    0609        ..      LSLS     r1,r1,#24
        0x0000154a:    4388        .C      BICS     r0,r0,r1
        0x0000154c:    0629        ).      LSLS     r1,r5,#24
        0x0000154e:    220f        ."      MOVS     r2,#0xf
        0x00001550:    0612        ..      LSLS     r2,r2,#24
        0x00001552:    4011        .@      ANDS     r1,r1,r2
        0x00001554:    4308        .C      ORRS     r0,r0,r1
        0x00001556:    6260        `b      STR      r0,[r4,#0x24]
        0x00001558:    9903        ..      LDR      r1,[sp,#0xc]
        0x0000155a:    9802        ..      LDR      r0,[sp,#8]
        0x0000155c:    f7feff50    ..P.    BL       __aeabi_uidiv ; 0x400
        0x00001560:    1c69        i.      ADDS     r1,r5,#1
        0x00001562:    9001        ..      STR      r0,[sp,#4]
        0x00001564:    f7feff4c    ..L.    BL       __aeabi_uidiv ; 0x400
        0x00001568:    1e86        ..      SUBS     r6,r0,#2
        0x0000156a:    e002        ..      B        0x1572 ; BaudRateCalculator + 186
        0x0000156c:    1c6d        m.      ADDS     r5,r5,#1
        0x0000156e:    2d10        .-      CMP      r5,#0x10
        0x00001570:    dbde        ..      BLT      0x1530 ; BaudRateCalculator + 120
        0x00001572:    bf00        ..      NOP      
        0x00001574:    6a60        `j      LDR      r0,[r4,#0x24]
        0x00001576:    0c00        ..      LSRS     r0,r0,#16
        0x00001578:    0400        ..      LSLS     r0,r0,#16
        0x0000157a:    b2b1        ..      UXTH     r1,r6
        0x0000157c:    4308        .C      ORRS     r0,r0,r1
        0x0000157e:    6260        `b      STR      r0,[r4,#0x24]
        0x00001580:    b005        ..      ADD      sp,sp,#0x14
        0x00001582:    bdf0        ..      POP      {r4-r7,pc}
    $d
        0x00001584:    40050000    ...@    DCD    1074069504
        0x00001588:    0000ffff    ....    DCD    65535
    $t
    i.CAN0_IRQHandler
    CAN0_IRQHandler
        0x0000158c:    b510        ..      PUSH     {r4,lr}
        0x0000158e:    4838        8H      LDR      r0,[pc,#224] ; [0x1670] = 0x40180000
        0x00001590:    6900        .i      LDR      r0,[r0,#0x10]
        0x00001592:    2101        .!      MOVS     r1,#1
        0x00001594:    03c9        ..      LSLS     r1,r1,#15
        0x00001596:    4288        .B      CMP      r0,r1
        0x00001598:    d144        D.      BNE      0x1624 ; CAN0_IRQHandler + 152
        0x0000159a:    4835        5H      LDR      r0,[pc,#212] ; [0x1670] = 0x40180000
        0x0000159c:    6840        @h      LDR      r0,[r0,#4]
        0x0000159e:    06c0        ..      LSLS     r0,r0,#27
        0x000015a0:    0fc0        ..      LSRS     r0,r0,#31
        0x000015a2:    2800        .(      CMP      r0,#0
        0x000015a4:    d00d        ..      BEQ      0x15c2 ; CAN0_IRQHandler + 54
        0x000015a6:    4832        2H      LDR      r0,[pc,#200] ; [0x1670] = 0x40180000
        0x000015a8:    6840        @h      LDR      r0,[r0,#4]
        0x000015aa:    2110        .!      MOVS     r1,#0x10
        0x000015ac:    4388        .C      BICS     r0,r0,r1
        0x000015ae:    4930        0I      LDR      r1,[pc,#192] ; [0x1670] = 0x40180000
        0x000015b0:    6048        H`      STR      r0,[r1,#4]
        0x000015b2:    4830        0H      LDR      r0,[pc,#192] ; [0x1674] = 0x20000150
        0x000015b4:    6800        .h      LDR      r0,[r0,#0]
        0x000015b6:    2800        .(      CMP      r0,#0
        0x000015b8:    d003        ..      BEQ      0x15c2 ; CAN0_IRQHandler + 54
        0x000015ba:    482e        .H      LDR      r0,[pc,#184] ; [0x1674] = 0x20000150
        0x000015bc:    6801        .h      LDR      r1,[r0,#0]
        0x000015be:    2000        .       MOVS     r0,#0
        0x000015c0:    4788        .G      BLX      r1
        0x000015c2:    482b        +H      LDR      r0,[pc,#172] ; [0x1670] = 0x40180000
        0x000015c4:    6840        @h      LDR      r0,[r0,#4]
        0x000015c6:    0700        ..      LSLS     r0,r0,#28
        0x000015c8:    0fc0        ..      LSRS     r0,r0,#31
        0x000015ca:    2800        .(      CMP      r0,#0
        0x000015cc:    d00d        ..      BEQ      0x15ea ; CAN0_IRQHandler + 94
        0x000015ce:    4828        (H      LDR      r0,[pc,#160] ; [0x1670] = 0x40180000
        0x000015d0:    6840        @h      LDR      r0,[r0,#4]
        0x000015d2:    2108        .!      MOVS     r1,#8
        0x000015d4:    4388        .C      BICS     r0,r0,r1
        0x000015d6:    4926        &I      LDR      r1,[pc,#152] ; [0x1670] = 0x40180000
        0x000015d8:    6048        H`      STR      r0,[r1,#4]
        0x000015da:    4826        &H      LDR      r0,[pc,#152] ; [0x1674] = 0x20000150
        0x000015dc:    6840        @h      LDR      r0,[r0,#4]
        0x000015de:    2800        .(      CMP      r0,#0
        0x000015e0:    d003        ..      BEQ      0x15ea ; CAN0_IRQHandler + 94
        0x000015e2:    4824        $H      LDR      r0,[pc,#144] ; [0x1674] = 0x20000150
        0x000015e4:    6841        Ah      LDR      r1,[r0,#4]
        0x000015e6:    2000        .       MOVS     r0,#0
        0x000015e8:    4788        .G      BLX      r1
        0x000015ea:    4821        !H      LDR      r0,[pc,#132] ; [0x1670] = 0x40180000
        0x000015ec:    6840        @h      LDR      r0,[r0,#4]
        0x000015ee:    0640        @.      LSLS     r0,r0,#25
        0x000015f0:    0fc0        ..      LSRS     r0,r0,#31
        0x000015f2:    2800        .(      CMP      r0,#0
        0x000015f4:    d007        ..      BEQ      0x1606 ; CAN0_IRQHandler + 122
        0x000015f6:    481f        .H      LDR      r0,[pc,#124] ; [0x1674] = 0x20000150
        0x000015f8:    6880        .h      LDR      r0,[r0,#8]
        0x000015fa:    2800        .(      CMP      r0,#0
        0x000015fc:    d003        ..      BEQ      0x1606 ; CAN0_IRQHandler + 122
        0x000015fe:    481d        .H      LDR      r0,[pc,#116] ; [0x1674] = 0x20000150
        0x00001600:    6881        .h      LDR      r1,[r0,#8]
        0x00001602:    2000        .       MOVS     r0,#0
        0x00001604:    4788        .G      BLX      r1
        0x00001606:    481a        .H      LDR      r0,[pc,#104] ; [0x1670] = 0x40180000
        0x00001608:    6840        @h      LDR      r0,[r0,#4]
        0x0000160a:    0600        ..      LSLS     r0,r0,#24
        0x0000160c:    0fc0        ..      LSRS     r0,r0,#31
        0x0000160e:    2800        .(      CMP      r0,#0
        0x00001610:    d02d        -.      BEQ      0x166e ; CAN0_IRQHandler + 226
        0x00001612:    4818        .H      LDR      r0,[pc,#96] ; [0x1674] = 0x20000150
        0x00001614:    68c0        .h      LDR      r0,[r0,#0xc]
        0x00001616:    2800        .(      CMP      r0,#0
        0x00001618:    d029        ).      BEQ      0x166e ; CAN0_IRQHandler + 226
        0x0000161a:    4816        .H      LDR      r0,[pc,#88] ; [0x1674] = 0x20000150
        0x0000161c:    68c1        .h      LDR      r1,[r0,#0xc]
        0x0000161e:    2000        .       MOVS     r0,#0
        0x00001620:    4788        .G      BLX      r1
        0x00001622:    e024        $.      B        0x166e ; CAN0_IRQHandler + 226
        0x00001624:    4812        .H      LDR      r0,[pc,#72] ; [0x1670] = 0x40180000
        0x00001626:    6900        .i      LDR      r0,[r0,#0x10]
        0x00001628:    2800        .(      CMP      r0,#0
        0x0000162a:    d011        ..      BEQ      0x1650 ; CAN0_IRQHandler + 196
        0x0000162c:    4810        .H      LDR      r0,[pc,#64] ; [0x1670] = 0x40180000
        0x0000162e:    6900        .i      LDR      r0,[r0,#0x10]
        0x00001630:    b2c4        ..      UXTB     r4,r0
        0x00001632:    4810        .H      LDR      r0,[pc,#64] ; [0x1674] = 0x20000150
        0x00001634:    6900        .i      LDR      r0,[r0,#0x10]
        0x00001636:    2800        .(      CMP      r0,#0
        0x00001638:    d003        ..      BEQ      0x1642 ; CAN0_IRQHandler + 182
        0x0000163a:    480e        .H      LDR      r0,[pc,#56] ; [0x1674] = 0x20000150
        0x0000163c:    6901        .i      LDR      r1,[r0,#0x10]
        0x0000163e:    4620         F      MOV      r0,r4
        0x00001640:    4788        .G      BLX      r1
        0x00001642:    490b        .I      LDR      r1,[pc,#44] ; [0x1670] = 0x40180000
        0x00001644:    6909        .i      LDR      r1,[r1,#0x10]
        0x00001646:    1e49        I.      SUBS     r1,r1,#1
        0x00001648:    b2c8        ..      UXTB     r0,r1
        0x0000164a:    f000f817    ....    BL       DrvCAN_ClrIntPnd ; 0x167c
        0x0000164e:    e00e        ..      B        0x166e ; CAN0_IRQHandler + 226
        0x00001650:    4809        .H      LDR      r0,[pc,#36] ; [0x1678] = 0x40180140
        0x00001652:    6ac0        .j      LDR      r0,[r0,#0x2c]
        0x00001654:    2801        .(      CMP      r0,#1
        0x00001656:    d10a        ..      BNE      0x166e ; CAN0_IRQHandler + 226
        0x00001658:    2000        .       MOVS     r0,#0
        0x0000165a:    4907        .I      LDR      r1,[pc,#28] ; [0x1678] = 0x40180140
        0x0000165c:    62c8        .b      STR      r0,[r1,#0x2c]
        0x0000165e:    4805        .H      LDR      r0,[pc,#20] ; [0x1674] = 0x20000150
        0x00001660:    6940        @i      LDR      r0,[r0,#0x14]
        0x00001662:    2800        .(      CMP      r0,#0
        0x00001664:    d003        ..      BEQ      0x166e ; CAN0_IRQHandler + 226
        0x00001666:    4803        .H      LDR      r0,[pc,#12] ; [0x1674] = 0x20000150
        0x00001668:    6941        Ai      LDR      r1,[r0,#0x14]
        0x0000166a:    2000        .       MOVS     r0,#0
        0x0000166c:    4788        .G      BLX      r1
        0x0000166e:    bd10        ..      POP      {r4,pc}
    $d
        0x00001670:    40180000    ...@    DCD    1075314688
        0x00001674:    20000150    P..     DCD    536871248
        0x00001678:    40180140    @..@    DCD    1075315008
    $t
    i.DrvCAN_ClrIntPnd
    DrvCAN_ClrIntPnd
        0x0000167c:    b570        p.      PUSH     {r4-r6,lr}
        0x0000167e:    4604        .F      MOV      r4,r0
        0x00001680:    2500        .%      MOVS     r5,#0
        0x00001682:    f001f875    ..u.    BL       GetFreeIF ; 0x2770
        0x00001686:    b2c0        ..      UXTB     r0,r0
        0x00001688:    4605        .F      MOV      r5,r0
        0x0000168a:    2802        .(      CMP      r0,#2
        0x0000168c:    d101        ..      BNE      0x1692 ; DrvCAN_ClrIntPnd + 22
        0x0000168e:    4807        .H      LDR      r0,[pc,#28] ; [0x16ac] = 0xffff8586
        0x00001690:    bd70        p.      POP      {r4-r6,pc}
        0x00001692:    220c        ."      MOVS     r2,#0xc
        0x00001694:    4806        .H      LDR      r0,[pc,#24] ; [0x16b0] = 0x40180020
        0x00001696:    2160        `!      MOVS     r1,#0x60
        0x00001698:    4369        iC      MULS     r1,r5,r1
        0x0000169a:    1840        @.      ADDS     r0,r0,r1
        0x0000169c:    6042        B`      STR      r2,[r0,#4]
        0x0000169e:    1c60        `.      ADDS     r0,r4,#1
        0x000016a0:    4903        .I      LDR      r1,[pc,#12] ; [0x16b0] = 0x40180020
        0x000016a2:    2260        `"      MOVS     r2,#0x60
        0x000016a4:    436a        jC      MULS     r2,r5,r2
        0x000016a6:    5088        .P      STR      r0,[r1,r2]
        0x000016a8:    2000        .       MOVS     r0,#0
        0x000016aa:    e7f1        ..      B        0x1690 ; DrvCAN_ClrIntPnd + 20
    $d
        0x000016ac:    ffff8586    ....    DCD    4294935942
        0x000016b0:    40180020     ..@    DCD    1075314720
    $t
    i.DrvGPIO_ClrBit
    DrvGPIO_ClrBit
        0x000016b4:    b510        ..      PUSH     {r4,lr}
        0x000016b6:    4603        .F      MOV      r3,r0
        0x000016b8:    2900        .)      CMP      r1,#0
        0x000016ba:    db01        ..      BLT      0x16c0 ; DrvGPIO_ClrBit + 12
        0x000016bc:    2910        .)      CMP      r1,#0x10
        0x000016be:    dd01        ..      BLE      0x16c4 ; DrvGPIO_ClrBit + 16
        0x000016c0:    4805        .H      LDR      r0,[pc,#20] ; [0x16d8] = 0xffff8901
        0x000016c2:    bd10        ..      POP      {r4,pc}
        0x000016c4:    0198        ..      LSLS     r0,r3,#6
        0x000016c6:    4c05        .L      LDR      r4,[pc,#20] ; [0x16dc] = 0x50004000
        0x000016c8:    1902        ..      ADDS     r2,r0,r4
        0x000016ca:    6890        .h      LDR      r0,[r2,#8]
        0x000016cc:    2401        .$      MOVS     r4,#1
        0x000016ce:    408c        .@      LSLS     r4,r4,r1
        0x000016d0:    43a0        .C      BICS     r0,r0,r4
        0x000016d2:    6090        .`      STR      r0,[r2,#8]
        0x000016d4:    2000        .       MOVS     r0,#0
        0x000016d6:    e7f4        ..      B        0x16c2 ; DrvGPIO_ClrBit + 14
    $d
        0x000016d8:    ffff8901    ....    DCD    4294936833
        0x000016dc:    50004000    .@.P    DCD    1342193664
    $t
    i.DrvGPIO_GetBit
    DrvGPIO_GetBit
        0x000016e0:    b508        ..      PUSH     {r3,lr}
        0x000016e2:    4602        .F      MOV      r2,r0
        0x000016e4:    2900        .)      CMP      r1,#0
        0x000016e6:    db01        ..      BLT      0x16ec ; DrvGPIO_GetBit + 12
        0x000016e8:    2910        .)      CMP      r1,#0x10
        0x000016ea:    dd01        ..      BLE      0x16f0 ; DrvGPIO_GetBit + 16
        0x000016ec:    4805        .H      LDR      r0,[pc,#20] ; [0x1704] = 0xffff8901
        0x000016ee:    bd08        ..      POP      {r3,pc}
        0x000016f0:    0190        ..      LSLS     r0,r2,#6
        0x000016f2:    4b05        .K      LDR      r3,[pc,#20] ; [0x1708] = 0x50004010
        0x000016f4:    18c0        ..      ADDS     r0,r0,r3
        0x000016f6:    9000        ..      STR      r0,[sp,#0]
        0x000016f8:    9800        ..      LDR      r0,[sp,#0]
        0x000016fa:    6800        .h      LDR      r0,[r0,#0]
        0x000016fc:    40c8        .@      LSRS     r0,r0,r1
        0x000016fe:    07c0        ..      LSLS     r0,r0,#31
        0x00001700:    0fc0        ..      LSRS     r0,r0,#31
        0x00001702:    e7f4        ..      B        0x16ee ; DrvGPIO_GetBit + 14
    $d
        0x00001704:    ffff8901    ....    DCD    4294936833
        0x00001708:    50004010    .@.P    DCD    1342193680
    $t
    i.DrvGPIO_InitFunction
    DrvGPIO_InitFunction
        0x0000170c:    b510        ..      PUSH     {r4,lr}
        0x0000170e:    4601        .F      MOV      r1,r0
        0x00001710:    000b        ..      MOVS     r3,r1
        0x00001712:    f001fa5b    ..[.    BL       __ARM_common_switch8 ; 0x2bcc
    $d
        0x00001716:    203e        >       DCW    8254
        0x00001718:    5c4b412a    *AK\    DCD    1548435754
        0x0000171c:    947e7d74    t}~.    DCD    2491317620
        0x00001720:    eff1b4a4    ....    DCD    4025595044
        0x00001724:    ebecedee    ....    DCD    3958173166
        0x00001728:    e7e8e9ea    ....    DCD    3890801130
        0x0000172c:    e3e4e5e6    ....    DCD    3823429094
        0x00001730:    dfe0e1e2    ....    DCD    3756057058
        0x00001734:    dbdcddde    ....    DCD    3688685022
        0x00001738:    d7d8d9da    ....    DCD    3621312986
        0x0000173c:    d3d4d5d6    ....    DCD    3553940950
        0x00001740:    cfd0d1d2    ....    DCD    3486568914
        0x00001744:    cbcccdce    ....    DCD    3419196878
        0x00001748:    c7c8c9ca    ....    DCD    3351824842
        0x0000174c:    c3c4c5c6    ....    DCD    3284452806
        0x00001750:    bfc0c1c2    ....    DCD    3217080770
        0x00001754:    bdbe        ..      DCW    48574
    $t
        0x00001756:    2000        .       MOVS     r0,#0
        0x00001758:    2305        .#      MOVS     r3,#5
        0x0000175a:    071b        ..      LSLS     r3,r3,#28
        0x0000175c:    6318        .c      STR      r0,[r3,#0x30]
        0x0000175e:    6358        Xc      STR      r0,[r3,#0x34]
        0x00001760:    6398        .c      STR      r0,[r3,#0x38]
        0x00001762:    63d8        .c      STR      r0,[r3,#0x3c]
        0x00001764:    4bfa        .K      LDR      r3,[pc,#1000] ; [0x1b50] = 0x50000040
        0x00001766:    6018        .`      STR      r0,[r3,#0]
        0x00001768:    e371        q.      B        0x1e4e ; DrvGPIO_InitFunction + 1858
        0x0000176a:    2005        .       MOVS     r0,#5
        0x0000176c:    0700        ..      LSLS     r0,r0,#28
        0x0000176e:    6b40        @k      LDR      r0,[r0,#0x34]
        0x00001770:    2301        .#      MOVS     r3,#1
        0x00001772:    031b        ..      LSLS     r3,r3,#12
        0x00001774:    4318        .C      ORRS     r0,r0,r3
        0x00001776:    2305        .#      MOVS     r3,#5
        0x00001778:    071b        ..      LSLS     r3,r3,#28
        0x0000177a:    6358        Xc      STR      r0,[r3,#0x34]
        0x0000177c:    48f4        .H      LDR      r0,[pc,#976] ; [0x1b50] = 0x50000040
        0x0000177e:    6900        .i      LDR      r0,[r0,#0x10]
        0x00001780:    2301        .#      MOVS     r3,#1
        0x00001782:    029b        ..      LSLS     r3,r3,#10
        0x00001784:    4318        .C      ORRS     r0,r0,r3
        0x00001786:    4bf2        .K      LDR      r3,[pc,#968] ; [0x1b50] = 0x50000040
        0x00001788:    6118        .a      STR      r0,[r3,#0x10]
        0x0000178a:    4618        .F      MOV      r0,r3
        0x0000178c:    6900        .i      LDR      r0,[r0,#0x10]
        0x0000178e:    015b        [.      LSLS     r3,r3,#5
        0x00001790:    4398        .C      BICS     r0,r0,r3
        0x00001792:    4bef        .K      LDR      r3,[pc,#956] ; [0x1b50] = 0x50000040
        0x00001794:    6118        .a      STR      r0,[r3,#0x10]
        0x00001796:    e35a        Z.      B        0x1e4e ; DrvGPIO_InitFunction + 1858
        0x00001798:    2005        .       MOVS     r0,#5
        0x0000179a:    0700        ..      LSLS     r0,r0,#28
        0x0000179c:    6b00        .k      LDR      r0,[r0,#0x30]
        0x0000179e:    2303        .#      MOVS     r3,#3
        0x000017a0:    021b        ..      LSLS     r3,r3,#8
        0x000017a2:    4318        .C      ORRS     r0,r0,r3
        0x000017a4:    2305        .#      MOVS     r3,#5
        0x000017a6:    071b        ..      LSLS     r3,r3,#28
        0x000017a8:    6318        .c      STR      r0,[r3,#0x30]
        0x000017aa:    e350        P.      B        0x1e4e ; DrvGPIO_InitFunction + 1858
        0x000017ac:    2005        .       MOVS     r0,#5
        0x000017ae:    0700        ..      LSLS     r0,r0,#28
        0x000017b0:    6b00        .k      LDR      r0,[r0,#0x30]
        0x000017b2:    2303        .#      MOVS     r3,#3
        0x000017b4:    029b        ..      LSLS     r3,r3,#10
        0x000017b6:    4318        .C      ORRS     r0,r0,r3
        0x000017b8:    2305        .#      MOVS     r3,#5
        0x000017ba:    071b        ..      LSLS     r3,r3,#28
        0x000017bc:    6318        .c      STR      r0,[r3,#0x30]
        0x000017be:    48e4        .H      LDR      r0,[pc,#912] ; [0x1b50] = 0x50000040
        0x000017c0:    6900        .i      LDR      r0,[r0,#0x10]
        0x000017c2:    2301        .#      MOVS     r3,#1
        0x000017c4:    02db        ..      LSLS     r3,r3,#11
        0x000017c6:    4398        .C      BICS     r0,r0,r3
        0x000017c8:    4be1        .K      LDR      r3,[pc,#900] ; [0x1b50] = 0x50000040
        0x000017ca:    6118        .a      STR      r0,[r3,#0x10]
        0x000017cc:    e33f        ?.      B        0x1e4e ; DrvGPIO_InitFunction + 1858
        0x000017ce:    2005        .       MOVS     r0,#5
        0x000017d0:    0700        ..      LSLS     r0,r0,#28
        0x000017d2:    6b80        .k      LDR      r0,[r0,#0x38]
        0x000017d4:    230f        .#      MOVS     r3,#0xf
        0x000017d6:    4318        .C      ORRS     r0,r0,r3
        0x000017d8:    2305        .#      MOVS     r3,#5
        0x000017da:    071b        ..      LSLS     r3,r3,#28
        0x000017dc:    6398        .c      STR      r0,[r3,#0x38]
        0x000017de:    4618        .F      MOV      r0,r3
        0x000017e0:    6b00        .k      LDR      r0,[r0,#0x30]
        0x000017e2:    2301        .#      MOVS     r3,#1
        0x000017e4:    03db        ..      LSLS     r3,r3,#15
        0x000017e6:    4318        .C      ORRS     r0,r0,r3
        0x000017e8:    2305        .#      MOVS     r3,#5
        0x000017ea:    071b        ..      LSLS     r3,r3,#28
        0x000017ec:    6318        .c      STR      r0,[r3,#0x30]
        0x000017ee:    48d8        .H      LDR      r0,[pc,#864] ; [0x1b50] = 0x50000040
        0x000017f0:    6900        .i      LDR      r0,[r0,#0x10]
        0x000017f2:    231f        .#      MOVS     r3,#0x1f
        0x000017f4:    015b        [.      LSLS     r3,r3,#5
        0x000017f6:    4318        .C      ORRS     r0,r0,r3
        0x000017f8:    4bd5        .K      LDR      r3,[pc,#852] ; [0x1b50] = 0x50000040
        0x000017fa:    6118        .a      STR      r0,[r3,#0x10]
        0x000017fc:    e327        '.      B        0x1e4e ; DrvGPIO_InitFunction + 1858
        0x000017fe:    2005        .       MOVS     r0,#5
        0x00001800:    0700        ..      LSLS     r0,r0,#28
        0x00001802:    6bc0        .k      LDR      r0,[r0,#0x3c]
        0x00001804:    23c0        .#      MOVS     r3,#0xc0
        0x00001806:    4318        .C      ORRS     r0,r0,r3
        0x00001808:    2305        .#      MOVS     r3,#5
        0x0000180a:    071b        ..      LSLS     r3,r3,#28
        0x0000180c:    63d8        .c      STR      r0,[r3,#0x3c]
        0x0000180e:    e31e        ..      B        0x1e4e ; DrvGPIO_InitFunction + 1858
        0x00001810:    bf00        ..      NOP      
        0x00001812:    2906        .)      CMP      r1,#6
        0x00001814:    d101        ..      BNE      0x181a ; DrvGPIO_InitFunction + 270
        0x00001816:    2206        ."      MOVS     r2,#6
        0x00001818:    e000        ..      B        0x181c ; DrvGPIO_InitFunction + 272
        0x0000181a:    220e        ."      MOVS     r2,#0xe
        0x0000181c:    2005        .       MOVS     r0,#5
        0x0000181e:    0700        ..      LSLS     r0,r0,#28
        0x00001820:    6b80        .k      LDR      r0,[r0,#0x38]
        0x00001822:    2303        .#      MOVS     r3,#3
        0x00001824:    4093        .@      LSLS     r3,r3,r2
        0x00001826:    4318        .C      ORRS     r0,r0,r3
        0x00001828:    2305        .#      MOVS     r3,#5
        0x0000182a:    071b        ..      LSLS     r3,r3,#28
        0x0000182c:    6398        .c      STR      r0,[r3,#0x38]
        0x0000182e:    48c8        .H      LDR      r0,[pc,#800] ; [0x1b50] = 0x50000040
        0x00001830:    6900        .i      LDR      r0,[r0,#0x10]
        0x00001832:    2301        .#      MOVS     r3,#1
        0x00001834:    02db        ..      LSLS     r3,r3,#11
        0x00001836:    4398        .C      BICS     r0,r0,r3
        0x00001838:    4bc5        .K      LDR      r3,[pc,#788] ; [0x1b50] = 0x50000040
        0x0000183a:    6118        .a      STR      r0,[r3,#0x10]
        0x0000183c:    e307        ..      B        0x1e4e ; DrvGPIO_InitFunction + 1858
        0x0000183e:    2005        .       MOVS     r0,#5
        0x00001840:    0700        ..      LSLS     r0,r0,#28
        0x00001842:    6b80        .k      LDR      r0,[r0,#0x38]
        0x00001844:    230f        .#      MOVS     r3,#0xf
        0x00001846:    4318        .C      ORRS     r0,r0,r3
        0x00001848:    2305        .#      MOVS     r3,#5
        0x0000184a:    071b        ..      LSLS     r3,r3,#28
        0x0000184c:    6398        .c      STR      r0,[r3,#0x38]
        0x0000184e:    48c0        .H      LDR      r0,[pc,#768] ; [0x1b50] = 0x50000040
        0x00001850:    6900        .i      LDR      r0,[r0,#0x10]
        0x00001852:    23ff        .#      MOVS     r3,#0xff
        0x00001854:    33e1        .3      ADDS     r3,r3,#0xe1
        0x00001856:    4398        .C      BICS     r0,r0,r3
        0x00001858:    4bbd        .K      LDR      r3,[pc,#756] ; [0x1b50] = 0x50000040
        0x0000185a:    6118        .a      STR      r0,[r3,#0x10]
        0x0000185c:    e2f7        ..      B        0x1e4e ; DrvGPIO_InitFunction + 1858
        0x0000185e:    2005        .       MOVS     r0,#5
        0x00001860:    0700        ..      LSLS     r0,r0,#28
        0x00001862:    6b40        @k      LDR      r0,[r0,#0x34]
        0x00001864:    2301        .#      MOVS     r3,#1
        0x00001866:    029b        ..      LSLS     r3,r3,#10
        0x00001868:    4318        .C      ORRS     r0,r0,r3
        0x0000186a:    2305        .#      MOVS     r3,#5
        0x0000186c:    071b        ..      LSLS     r3,r3,#28
        0x0000186e:    6358        Xc      STR      r0,[r3,#0x34]
        0x00001870:    48b7        .H      LDR      r0,[pc,#732] ; [0x1b50] = 0x50000040
        0x00001872:    6900        .i      LDR      r0,[r0,#0x10]
        0x00001874:    2301        .#      MOVS     r3,#1
        0x00001876:    4318        .C      ORRS     r0,r0,r3
        0x00001878:    4bb5        .K      LDR      r3,[pc,#724] ; [0x1b50] = 0x50000040
        0x0000187a:    6118        .a      STR      r0,[r3,#0x10]
        0x0000187c:    e2e7        ..      B        0x1e4e ; DrvGPIO_InitFunction + 1858
        0x0000187e:    2005        .       MOVS     r0,#5
        0x00001880:    0700        ..      LSLS     r0,r0,#28
        0x00001882:    6b80        .k      LDR      r0,[r0,#0x38]
        0x00001884:    2330        0#      MOVS     r3,#0x30
        0x00001886:    4318        .C      ORRS     r0,r0,r3
        0x00001888:    2305        .#      MOVS     r3,#5
        0x0000188a:    071b        ..      LSLS     r3,r3,#28
        0x0000188c:    6398        .c      STR      r0,[r3,#0x38]
        0x0000188e:    e2de        ..      B        0x1e4e ; DrvGPIO_InitFunction + 1858
        0x00001890:    e2db        ..      B        0x1e4a ; DrvGPIO_InitFunction + 1854
        0x00001892:    e264        d.      B        0x1d5e ; DrvGPIO_InitFunction + 1618
        0x00001894:    e282        ..      B        0x1d9c ; DrvGPIO_InitFunction + 1680
        0x00001896:    e248        H.      B        0x1d2a ; DrvGPIO_InitFunction + 1566
        0x00001898:    e246        F.      B        0x1d28 ; DrvGPIO_InitFunction + 1564
        0x0000189a:    e213        ..      B        0x1cc4 ; DrvGPIO_InitFunction + 1464
        0x0000189c:    e211        ..      B        0x1cc2 ; DrvGPIO_InitFunction + 1462
        0x0000189e:    e1d9        ..      B        0x1c54 ; DrvGPIO_InitFunction + 1352
        0x000018a0:    e1d7        ..      B        0x1c52 ; DrvGPIO_InitFunction + 1350
        0x000018a2:    e1b7        ..      B        0x1c14 ; DrvGPIO_InitFunction + 1288
        0x000018a4:    e1b5        ..      B        0x1c12 ; DrvGPIO_InitFunction + 1286
        0x000018a6:    e241        A.      B        0x1d2c ; DrvGPIO_InitFunction + 1568
        0x000018a8:    e20d        ..      B        0x1cc6 ; DrvGPIO_InitFunction + 1466
        0x000018aa:    e1d4        ..      B        0x1c56 ; DrvGPIO_InitFunction + 1354
        0x000018ac:    e1b3        ..      B        0x1c16 ; DrvGPIO_InitFunction + 1290
        0x000018ae:    e1a6        ..      B        0x1bfe ; DrvGPIO_InitFunction + 1266
        0x000018b0:    e165        e.      B        0x1b7e ; DrvGPIO_InitFunction + 1138
        0x000018b2:    e163        c.      B        0x1b7c ; DrvGPIO_InitFunction + 1136
        0x000018b4:    e161        a.      B        0x1b7a ; DrvGPIO_InitFunction + 1134
        0x000018b6:    e15f        _.      B        0x1b78 ; DrvGPIO_InitFunction + 1132
        0x000018b8:    e15d        ].      B        0x1b76 ; DrvGPIO_InitFunction + 1130
        0x000018ba:    e15b        [.      B        0x1b74 ; DrvGPIO_InitFunction + 1128
        0x000018bc:    e14a        J.      B        0x1b54 ; DrvGPIO_InitFunction + 1096
        0x000018be:    e137        7.      B        0x1b30 ; DrvGPIO_InitFunction + 1060
        0x000018c0:    e129        ).      B        0x1b16 ; DrvGPIO_InitFunction + 1034
        0x000018c2:    e117        ..      B        0x1af4 ; DrvGPIO_InitFunction + 1000
        0x000018c4:    e106        ..      B        0x1ad4 ; DrvGPIO_InitFunction + 968
        0x000018c6:    e0f5        ..      B        0x1ab4 ; DrvGPIO_InitFunction + 936
        0x000018c8:    e0e4        ..      B        0x1a94 ; DrvGPIO_InitFunction + 904
        0x000018ca:    e0d9        ..      B        0x1a80 ; DrvGPIO_InitFunction + 884
        0x000018cc:    e0cc        ..      B        0x1a68 ; DrvGPIO_InitFunction + 860
        0x000018ce:    e0c4        ..      B        0x1a5a ; DrvGPIO_InitFunction + 846
        0x000018d0:    e0a3        ..      B        0x1a1a ; DrvGPIO_InitFunction + 782
        0x000018d2:    e0ae        ..      B        0x1a32 ; DrvGPIO_InitFunction + 806
        0x000018d4:    e0ac        ..      B        0x1a30 ; DrvGPIO_InitFunction + 804
        0x000018d6:    e0aa        ..      B        0x1a2e ; DrvGPIO_InitFunction + 802
        0x000018d8:    e0a8        ..      B        0x1a2c ; DrvGPIO_InitFunction + 800
        0x000018da:    e0a6        ..      B        0x1a2a ; DrvGPIO_InitFunction + 798
        0x000018dc:    e0a4        ..      B        0x1a28 ; DrvGPIO_InitFunction + 796
        0x000018de:    e0b0        ..      B        0x1a42 ; DrvGPIO_InitFunction + 822
        0x000018e0:    e092        ..      B        0x1a08 ; DrvGPIO_InitFunction + 764
        0x000018e2:    e088        ..      B        0x19f6 ; DrvGPIO_InitFunction + 746
        0x000018e4:    e07e        ~.      B        0x19e4 ; DrvGPIO_InitFunction + 728
        0x000018e6:    e073        s.      B        0x19d0 ; DrvGPIO_InitFunction + 708
        0x000018e8:    e062        b.      B        0x19b0 ; DrvGPIO_InitFunction + 676
        0x000018ea:    e057        W.      B        0x199c ; DrvGPIO_InitFunction + 656
        0x000018ec:    e04d        M.      B        0x198a ; DrvGPIO_InitFunction + 638
        0x000018ee:    e037        7.      B        0x1960 ; DrvGPIO_InitFunction + 596
        0x000018f0:    e02d        -.      B        0x194e ; DrvGPIO_InitFunction + 578
        0x000018f2:    e022        ".      B        0x193a ; DrvGPIO_InitFunction + 558
        0x000018f4:    e011        ..      B        0x191a ; DrvGPIO_InitFunction + 526
        0x000018f6:    e7ff        ..      B        0x18f8 ; DrvGPIO_InitFunction + 492
        0x000018f8:    2005        .       MOVS     r0,#5
        0x000018fa:    0700        ..      LSLS     r0,r0,#28
        0x000018fc:    6b80        .k      LDR      r0,[r0,#0x38]
        0x000018fe:    230f        .#      MOVS     r3,#0xf
        0x00001900:    021b        ..      LSLS     r3,r3,#8
        0x00001902:    4318        .C      ORRS     r0,r0,r3
        0x00001904:    2305        .#      MOVS     r3,#5
        0x00001906:    071b        ..      LSLS     r3,r3,#28
        0x00001908:    6398        .c      STR      r0,[r3,#0x38]
        0x0000190a:    4891        .H      LDR      r0,[pc,#580] ; [0x1b50] = 0x50000040
        0x0000190c:    6900        .i      LDR      r0,[r0,#0x10]
        0x0000190e:    2301        .#      MOVS     r3,#1
        0x00001910:    02db        ..      LSLS     r3,r3,#11
        0x00001912:    4398        .C      BICS     r0,r0,r3
        0x00001914:    4b8e        .K      LDR      r3,[pc,#568] ; [0x1b50] = 0x50000040
        0x00001916:    6118        .a      STR      r0,[r3,#0x10]
        0x00001918:    e299        ..      B        0x1e4e ; DrvGPIO_InitFunction + 1858
        0x0000191a:    2005        .       MOVS     r0,#5
        0x0000191c:    0700        ..      LSLS     r0,r0,#28
        0x0000191e:    6b40        @k      LDR      r0,[r0,#0x34]
        0x00001920:    2301        .#      MOVS     r3,#1
        0x00001922:    025b        [.      LSLS     r3,r3,#9
        0x00001924:    4318        .C      ORRS     r0,r0,r3
        0x00001926:    2305        .#      MOVS     r3,#5
        0x00001928:    071b        ..      LSLS     r3,r3,#28
        0x0000192a:    6358        Xc      STR      r0,[r3,#0x34]
        0x0000192c:    4888        .H      LDR      r0,[pc,#544] ; [0x1b50] = 0x50000040
        0x0000192e:    6900        .i      LDR      r0,[r0,#0x10]
        0x00001930:    2302        .#      MOVS     r3,#2
        0x00001932:    4318        .C      ORRS     r0,r0,r3
        0x00001934:    4b86        .K      LDR      r3,[pc,#536] ; [0x1b50] = 0x50000040
        0x00001936:    6118        .a      STR      r0,[r3,#0x10]
        0x00001938:    e289        ..      B        0x1e4e ; DrvGPIO_InitFunction + 1858
        0x0000193a:    2005        .       MOVS     r0,#5
        0x0000193c:    0700        ..      LSLS     r0,r0,#28
        0x0000193e:    6b80        .k      LDR      r0,[r0,#0x38]
        0x00001940:    2303        .#      MOVS     r3,#3
        0x00001942:    031b        ..      LSLS     r3,r3,#12
        0x00001944:    4318        .C      ORRS     r0,r0,r3
        0x00001946:    2305        .#      MOVS     r3,#5
        0x00001948:    071b        ..      LSLS     r3,r3,#28
        0x0000194a:    6398        .c      STR      r0,[r3,#0x38]
        0x0000194c:    e27f        ..      B        0x1e4e ; DrvGPIO_InitFunction + 1858
        0x0000194e:    2005        .       MOVS     r0,#5
        0x00001950:    0700        ..      LSLS     r0,r0,#28
        0x00001952:    6bc0        .k      LDR      r0,[r0,#0x3c]
        0x00001954:    230f        .#      MOVS     r3,#0xf
        0x00001956:    4318        .C      ORRS     r0,r0,r3
        0x00001958:    2305        .#      MOVS     r3,#5
        0x0000195a:    071b        ..      LSLS     r3,r3,#28
        0x0000195c:    63d8        .c      STR      r0,[r3,#0x3c]
        0x0000195e:    e276        v.      B        0x1e4e ; DrvGPIO_InitFunction + 1858
        0x00001960:    2005        .       MOVS     r0,#5
        0x00001962:    0700        ..      LSLS     r0,r0,#28
        0x00001964:    6b00        .k      LDR      r0,[r0,#0x30]
        0x00001966:    2380        .#      MOVS     r3,#0x80
        0x00001968:    4318        .C      ORRS     r0,r0,r3
        0x0000196a:    2305        .#      MOVS     r3,#5
        0x0000196c:    071b        ..      LSLS     r3,r3,#28
        0x0000196e:    6318        .c      STR      r0,[r3,#0x30]
        0x00001970:    4877        wH      LDR      r0,[pc,#476] ; [0x1b50] = 0x50000040
        0x00001972:    6900        .i      LDR      r0,[r0,#0x10]
        0x00001974:    2304        .#      MOVS     r3,#4
        0x00001976:    4318        .C      ORRS     r0,r0,r3
        0x00001978:    4b75        uK      LDR      r3,[pc,#468] ; [0x1b50] = 0x50000040
        0x0000197a:    6118        .a      STR      r0,[r3,#0x10]
        0x0000197c:    4618        .F      MOV      r0,r3
        0x0000197e:    6900        .i      LDR      r0,[r0,#0x10]
        0x00001980:    015b        [.      LSLS     r3,r3,#5
        0x00001982:    4398        .C      BICS     r0,r0,r3
        0x00001984:    4b72        rK      LDR      r3,[pc,#456] ; [0x1b50] = 0x50000040
        0x00001986:    6118        .a      STR      r0,[r3,#0x10]
        0x00001988:    e261        a.      B        0x1e4e ; DrvGPIO_InitFunction + 1858
        0x0000198a:    2005        .       MOVS     r0,#5
        0x0000198c:    0700        ..      LSLS     r0,r0,#28
        0x0000198e:    6bc0        .k      LDR      r0,[r0,#0x3c]
        0x00001990:    2330        0#      MOVS     r3,#0x30
        0x00001992:    4318        .C      ORRS     r0,r0,r3
        0x00001994:    2305        .#      MOVS     r3,#5
        0x00001996:    071b        ..      LSLS     r3,r3,#28
        0x00001998:    63d8        .c      STR      r0,[r3,#0x3c]
        0x0000199a:    e258        X.      B        0x1e4e ; DrvGPIO_InitFunction + 1858
        0x0000199c:    2005        .       MOVS     r0,#5
        0x0000199e:    0700        ..      LSLS     r0,r0,#28
        0x000019a0:    6bc0        .k      LDR      r0,[r0,#0x3c]
        0x000019a2:    230f        .#      MOVS     r3,#0xf
        0x000019a4:    021b        ..      LSLS     r3,r3,#8
        0x000019a6:    4318        .C      ORRS     r0,r0,r3
        0x000019a8:    2305        .#      MOVS     r3,#5
        0x000019aa:    071b        ..      LSLS     r3,r3,#28
        0x000019ac:    63d8        .c      STR      r0,[r3,#0x3c]
        0x000019ae:    e24e        N.      B        0x1e4e ; DrvGPIO_InitFunction + 1858
        0x000019b0:    2005        .       MOVS     r0,#5
        0x000019b2:    0700        ..      LSLS     r0,r0,#28
        0x000019b4:    6b40        @k      LDR      r0,[r0,#0x34]
        0x000019b6:    2301        .#      MOVS     r3,#1
        0x000019b8:    039b        ..      LSLS     r3,r3,#14
        0x000019ba:    4318        .C      ORRS     r0,r0,r3
        0x000019bc:    2305        .#      MOVS     r3,#5
        0x000019be:    071b        ..      LSLS     r3,r3,#28
        0x000019c0:    6358        Xc      STR      r0,[r3,#0x34]
        0x000019c2:    4863        cH      LDR      r0,[pc,#396] ; [0x1b50] = 0x50000040
        0x000019c4:    6900        .i      LDR      r0,[r0,#0x10]
        0x000019c6:    2308        .#      MOVS     r3,#8
        0x000019c8:    4318        .C      ORRS     r0,r0,r3
        0x000019ca:    4b61        aK      LDR      r3,[pc,#388] ; [0x1b50] = 0x50000040
        0x000019cc:    6118        .a      STR      r0,[r3,#0x10]
        0x000019ce:    e23e        >.      B        0x1e4e ; DrvGPIO_InitFunction + 1858
        0x000019d0:    2005        .       MOVS     r0,#5
        0x000019d2:    0700        ..      LSLS     r0,r0,#28
        0x000019d4:    6bc0        .k      LDR      r0,[r0,#0x3c]
        0x000019d6:    2303        .#      MOVS     r3,#3
        0x000019d8:    031b        ..      LSLS     r3,r3,#12
        0x000019da:    4318        .C      ORRS     r0,r0,r3
        0x000019dc:    2305        .#      MOVS     r3,#5
        0x000019de:    071b        ..      LSLS     r3,r3,#28
        0x000019e0:    63d8        .c      STR      r0,[r3,#0x3c]
        0x000019e2:    e234        4.      B        0x1e4e ; DrvGPIO_InitFunction + 1858
        0x000019e4:    2005        .       MOVS     r0,#5
        0x000019e6:    0700        ..      LSLS     r0,r0,#28
        0x000019e8:    6b80        .k      LDR      r0,[r0,#0x38]
        0x000019ea:    230f        .#      MOVS     r3,#0xf
        0x000019ec:    4318        .C      ORRS     r0,r0,r3
        0x000019ee:    2305        .#      MOVS     r3,#5
        0x000019f0:    071b        ..      LSLS     r3,r3,#28
        0x000019f2:    6398        .c      STR      r0,[r3,#0x38]
        0x000019f4:    e22b        +.      B        0x1e4e ; DrvGPIO_InitFunction + 1858
        0x000019f6:    2005        .       MOVS     r0,#5
        0x000019f8:    0700        ..      LSLS     r0,r0,#28
        0x000019fa:    6bc0        .k      LDR      r0,[r0,#0x3c]
        0x000019fc:    2302        .#      MOVS     r3,#2
        0x000019fe:    4318        .C      ORRS     r0,r0,r3
        0x00001a00:    2305        .#      MOVS     r3,#5
        0x00001a02:    071b        ..      LSLS     r3,r3,#28
        0x00001a04:    63d8        .c      STR      r0,[r3,#0x3c]
        0x00001a06:    e222        ".      B        0x1e4e ; DrvGPIO_InitFunction + 1858
        0x00001a08:    2005        .       MOVS     r0,#5
        0x00001a0a:    0700        ..      LSLS     r0,r0,#28
        0x00001a0c:    6bc0        .k      LDR      r0,[r0,#0x3c]
        0x00001a0e:    2304        .#      MOVS     r3,#4
        0x00001a10:    4318        .C      ORRS     r0,r0,r3
        0x00001a12:    2305        .#      MOVS     r3,#5
        0x00001a14:    071b        ..      LSLS     r3,r3,#28
        0x00001a16:    63d8        .c      STR      r0,[r3,#0x3c]
        0x00001a18:    e219        ..      B        0x1e4e ; DrvGPIO_InitFunction + 1858
        0x00001a1a:    484d        MH      LDR      r0,[pc,#308] ; [0x1b50] = 0x50000040
        0x00001a1c:    6900        .i      LDR      r0,[r0,#0x10]
        0x00001a1e:    2304        .#      MOVS     r3,#4
        0x00001a20:    4398        .C      BICS     r0,r0,r3
        0x00001a22:    4b4b        KK      LDR      r3,[pc,#300] ; [0x1b50] = 0x50000040
        0x00001a24:    6118        .a      STR      r0,[r3,#0x10]
        0x00001a26:    bf00        ..      NOP      
        0x00001a28:    bf00        ..      NOP      
        0x00001a2a:    bf00        ..      NOP      
        0x00001a2c:    bf00        ..      NOP      
        0x00001a2e:    bf00        ..      NOP      
        0x00001a30:    bf00        ..      NOP      
        0x00001a32:    4847        GH      LDR      r0,[pc,#284] ; [0x1b50] = 0x50000040
        0x00001a34:    6900        .i      LDR      r0,[r0,#0x10]
        0x00001a36:    2301        .#      MOVS     r3,#1
        0x00001a38:    02db        ..      LSLS     r3,r3,#11
        0x00001a3a:    4398        .C      BICS     r0,r0,r3
        0x00001a3c:    4b44        DK      LDR      r3,[pc,#272] ; [0x1b50] = 0x50000040
        0x00001a3e:    6118        .a      STR      r0,[r3,#0x10]
        0x00001a40:    bf00        ..      NOP      
        0x00001a42:    2005        .       MOVS     r0,#5
        0x00001a44:    0700        ..      LSLS     r0,r0,#28
        0x00001a46:    6b00        .k      LDR      r0,[r0,#0x30]
        0x00001a48:    460b        .F      MOV      r3,r1
        0x00001a4a:    3b17        .;      SUBS     r3,r3,#0x17
        0x00001a4c:    2401        .$      MOVS     r4,#1
        0x00001a4e:    409c        .@      LSLS     r4,r4,r3
        0x00001a50:    4320         C      ORRS     r0,r0,r4
        0x00001a52:    2305        .#      MOVS     r3,#5
        0x00001a54:    071b        ..      LSLS     r3,r3,#28
        0x00001a56:    6318        .c      STR      r0,[r3,#0x30]
        0x00001a58:    e1f9        ..      B        0x1e4e ; DrvGPIO_InitFunction + 1858
        0x00001a5a:    483d        =H      LDR      r0,[pc,#244] ; [0x1b50] = 0x50000040
        0x00001a5c:    6900        .i      LDR      r0,[r0,#0x10]
        0x00001a5e:    2308        .#      MOVS     r3,#8
        0x00001a60:    4398        .C      BICS     r0,r0,r3
        0x00001a62:    4b3b        ;K      LDR      r3,[pc,#236] ; [0x1b50] = 0x50000040
        0x00001a64:    6118        .a      STR      r0,[r3,#0x10]
        0x00001a66:    bf00        ..      NOP      
        0x00001a68:    2005        .       MOVS     r0,#5
        0x00001a6a:    0700        ..      LSLS     r0,r0,#28
        0x00001a6c:    6b43        Ck      LDR      r3,[r0,#0x34]
        0x00001a6e:    4608        .F      MOV      r0,r1
        0x00001a70:    3811        .8      SUBS     r0,r0,#0x11
        0x00001a72:    2401        .$      MOVS     r4,#1
        0x00001a74:    4084        .@      LSLS     r4,r4,r0
        0x00001a76:    4323        #C      ORRS     r3,r3,r4
        0x00001a78:    2005        .       MOVS     r0,#5
        0x00001a7a:    0700        ..      LSLS     r0,r0,#28
        0x00001a7c:    6343        Cc      STR      r3,[r0,#0x34]
        0x00001a7e:    e1e6        ..      B        0x1e4e ; DrvGPIO_InitFunction + 1858
        0x00001a80:    2005        .       MOVS     r0,#5
        0x00001a82:    0700        ..      LSLS     r0,r0,#28
        0x00001a84:    6b40        @k      LDR      r0,[r0,#0x34]
        0x00001a86:    23ff        .#      MOVS     r3,#0xff
        0x00001a88:    3301        .3      ADDS     r3,#1
        0x00001a8a:    4318        .C      ORRS     r0,r0,r3
        0x00001a8c:    2305        .#      MOVS     r3,#5
        0x00001a8e:    071b        ..      LSLS     r3,r3,#28
        0x00001a90:    6358        Xc      STR      r0,[r3,#0x34]
        0x00001a92:    e1dc        ..      B        0x1e4e ; DrvGPIO_InitFunction + 1858
        0x00001a94:    2005        .       MOVS     r0,#5
        0x00001a96:    0700        ..      LSLS     r0,r0,#28
        0x00001a98:    6b40        @k      LDR      r0,[r0,#0x34]
        0x00001a9a:    2301        .#      MOVS     r3,#1
        0x00001a9c:    025b        [.      LSLS     r3,r3,#9
        0x00001a9e:    4318        .C      ORRS     r0,r0,r3
        0x00001aa0:    2305        .#      MOVS     r3,#5
        0x00001aa2:    071b        ..      LSLS     r3,r3,#28
        0x00001aa4:    6358        Xc      STR      r0,[r3,#0x34]
        0x00001aa6:    482a        *H      LDR      r0,[pc,#168] ; [0x1b50] = 0x50000040
        0x00001aa8:    6900        .i      LDR      r0,[r0,#0x10]
        0x00001aaa:    2302        .#      MOVS     r3,#2
        0x00001aac:    4398        .C      BICS     r0,r0,r3
        0x00001aae:    4b28        (K      LDR      r3,[pc,#160] ; [0x1b50] = 0x50000040
        0x00001ab0:    6118        .a      STR      r0,[r3,#0x10]
        0x00001ab2:    e1cc        ..      B        0x1e4e ; DrvGPIO_InitFunction + 1858
        0x00001ab4:    2005        .       MOVS     r0,#5
        0x00001ab6:    0700        ..      LSLS     r0,r0,#28
        0x00001ab8:    6b40        @k      LDR      r0,[r0,#0x34]
        0x00001aba:    2301        .#      MOVS     r3,#1
        0x00001abc:    029b        ..      LSLS     r3,r3,#10
        0x00001abe:    4318        .C      ORRS     r0,r0,r3
        0x00001ac0:    2305        .#      MOVS     r3,#5
        0x00001ac2:    071b        ..      LSLS     r3,r3,#28
        0x00001ac4:    6358        Xc      STR      r0,[r3,#0x34]
        0x00001ac6:    4822        "H      LDR      r0,[pc,#136] ; [0x1b50] = 0x50000040
        0x00001ac8:    6900        .i      LDR      r0,[r0,#0x10]
        0x00001aca:    0840        @.      LSRS     r0,r0,#1
        0x00001acc:    0040        @.      LSLS     r0,r0,#1
        0x00001ace:    4b20         K      LDR      r3,[pc,#128] ; [0x1b50] = 0x50000040
        0x00001ad0:    6118        .a      STR      r0,[r3,#0x10]
        0x00001ad2:    e1bc        ..      B        0x1e4e ; DrvGPIO_InitFunction + 1858
        0x00001ad4:    2005        .       MOVS     r0,#5
        0x00001ad6:    0700        ..      LSLS     r0,r0,#28
        0x00001ad8:    6b40        @k      LDR      r0,[r0,#0x34]
        0x00001ada:    2301        .#      MOVS     r3,#1
        0x00001adc:    02db        ..      LSLS     r3,r3,#11
        0x00001ade:    4318        .C      ORRS     r0,r0,r3
        0x00001ae0:    2305        .#      MOVS     r3,#5
        0x00001ae2:    071b        ..      LSLS     r3,r3,#28
        0x00001ae4:    6358        Xc      STR      r0,[r3,#0x34]
        0x00001ae6:    481a        .H      LDR      r0,[pc,#104] ; [0x1b50] = 0x50000040
        0x00001ae8:    6900        .i      LDR      r0,[r0,#0x10]
        0x00001aea:    2310        .#      MOVS     r3,#0x10
        0x00001aec:    4398        .C      BICS     r0,r0,r3
        0x00001aee:    4b18        .K      LDR      r3,[pc,#96] ; [0x1b50] = 0x50000040
        0x00001af0:    6118        .a      STR      r0,[r3,#0x10]
        0x00001af2:    e1ac        ..      B        0x1e4e ; DrvGPIO_InitFunction + 1858
        0x00001af4:    2005        .       MOVS     r0,#5
        0x00001af6:    0700        ..      LSLS     r0,r0,#28
        0x00001af8:    6b40        @k      LDR      r0,[r0,#0x34]
        0x00001afa:    2301        .#      MOVS     r3,#1
        0x00001afc:    03db        ..      LSLS     r3,r3,#15
        0x00001afe:    4318        .C      ORRS     r0,r0,r3
        0x00001b00:    2305        .#      MOVS     r3,#5
        0x00001b02:    071b        ..      LSLS     r3,r3,#28
        0x00001b04:    6358        Xc      STR      r0,[r3,#0x34]
        0x00001b06:    4812        .H      LDR      r0,[pc,#72] ; [0x1b50] = 0x50000040
        0x00001b08:    6900        .i      LDR      r0,[r0,#0x10]
        0x00001b0a:    2301        .#      MOVS     r3,#1
        0x00001b0c:    061b        ..      LSLS     r3,r3,#24
        0x00001b0e:    4318        .C      ORRS     r0,r0,r3
        0x00001b10:    4b0f        .K      LDR      r3,[pc,#60] ; [0x1b50] = 0x50000040
        0x00001b12:    6118        .a      STR      r0,[r3,#0x10]
        0x00001b14:    e19b        ..      B        0x1e4e ; DrvGPIO_InitFunction + 1858
        0x00001b16:    480e        .H      LDR      r0,[pc,#56] ; [0x1b50] = 0x50000040
        0x00001b18:    6800        .h      LDR      r0,[r0,#0]
        0x00001b1a:    2320         #      MOVS     r3,#0x20
        0x00001b1c:    4318        .C      ORRS     r0,r0,r3
        0x00001b1e:    4b0c        .K      LDR      r3,[pc,#48] ; [0x1b50] = 0x50000040
        0x00001b20:    6018        .`      STR      r0,[r3,#0]
        0x00001b22:    4618        .F      MOV      r0,r3
        0x00001b24:    6900        .i      LDR      r0,[r0,#0x10]
        0x00001b26:    04db        ..      LSLS     r3,r3,#19
        0x00001b28:    4318        .C      ORRS     r0,r0,r3
        0x00001b2a:    4b09        .K      LDR      r3,[pc,#36] ; [0x1b50] = 0x50000040
        0x00001b2c:    6118        .a      STR      r0,[r3,#0x10]
        0x00001b2e:    e18e        ..      B        0x1e4e ; DrvGPIO_InitFunction + 1858
        0x00001b30:    2005        .       MOVS     r0,#5
        0x00001b32:    0700        ..      LSLS     r0,r0,#28
        0x00001b34:    6b40        @k      LDR      r0,[r0,#0x34]
        0x00001b36:    2304        .#      MOVS     r3,#4
        0x00001b38:    4318        .C      ORRS     r0,r0,r3
        0x00001b3a:    2305        .#      MOVS     r3,#5
        0x00001b3c:    071b        ..      LSLS     r3,r3,#28
        0x00001b3e:    6358        Xc      STR      r0,[r3,#0x34]
        0x00001b40:    4803        .H      LDR      r0,[pc,#12] ; [0x1b50] = 0x50000040
        0x00001b42:    6900        .i      LDR      r0,[r0,#0x10]
        0x00001b44:    2301        .#      MOVS     r3,#1
        0x00001b46:    069b        ..      LSLS     r3,r3,#26
        0x00001b48:    4318        .C      ORRS     r0,r0,r3
        0x00001b4a:    4b01        .K      LDR      r3,[pc,#4] ; [0x1b50] = 0x50000040
        0x00001b4c:    6118        .a      STR      r0,[r3,#0x10]
        0x00001b4e:    e17e        ~.      B        0x1e4e ; DrvGPIO_InitFunction + 1858
    $d
        0x00001b50:    50000040    @..P    DCD    1342177344
    $t
        0x00001b54:    2005        .       MOVS     r0,#5
        0x00001b56:    0700        ..      LSLS     r0,r0,#28
        0x00001b58:    6b40        @k      LDR      r0,[r0,#0x34]
        0x00001b5a:    2308        .#      MOVS     r3,#8
        0x00001b5c:    4318        .C      ORRS     r0,r0,r3
        0x00001b5e:    2305        .#      MOVS     r3,#5
        0x00001b60:    071b        ..      LSLS     r3,r3,#28
        0x00001b62:    6358        Xc      STR      r0,[r3,#0x34]
        0x00001b64:    48bb        .H      LDR      r0,[pc,#748] ; [0x1e54] = 0x50000040
        0x00001b66:    6900        .i      LDR      r0,[r0,#0x10]
        0x00001b68:    2301        .#      MOVS     r3,#1
        0x00001b6a:    06db        ..      LSLS     r3,r3,#27
        0x00001b6c:    4318        .C      ORRS     r0,r0,r3
        0x00001b6e:    4bb9        .K      LDR      r3,[pc,#740] ; [0x1e54] = 0x50000040
        0x00001b70:    6118        .a      STR      r0,[r3,#0x10]
        0x00001b72:    e16c        l.      B        0x1e4e ; DrvGPIO_InitFunction + 1858
        0x00001b74:    bf00        ..      NOP      
        0x00001b76:    bf00        ..      NOP      
        0x00001b78:    bf00        ..      NOP      
        0x00001b7a:    bf00        ..      NOP      
        0x00001b7c:    bf00        ..      NOP      
        0x00001b7e:    2929        ))      CMP      r1,#0x29
        0x00001b80:    db03        ..      BLT      0x1b8a ; DrvGPIO_InitFunction + 1150
        0x00001b82:    292b        +)      CMP      r1,#0x2b
        0x00001b84:    dc01        ..      BGT      0x1b8a ; DrvGPIO_InitFunction + 1150
        0x00001b86:    2200        ."      MOVS     r2,#0
        0x00001b88:    e000        ..      B        0x1b8c ; DrvGPIO_InitFunction + 1152
        0x00001b8a:    2204        ."      MOVS     r2,#4
        0x00001b8c:    2929        ))      CMP      r1,#0x29
        0x00001b8e:    d001        ..      BEQ      0x1b94 ; DrvGPIO_InitFunction + 1160
        0x00001b90:    292c        ,)      CMP      r1,#0x2c
        0x00001b92:    d110        ..      BNE      0x1bb6 ; DrvGPIO_InitFunction + 1194
        0x00001b94:    2005        .       MOVS     r0,#5
        0x00001b96:    0700        ..      LSLS     r0,r0,#28
        0x00001b98:    6b40        @k      LDR      r0,[r0,#0x34]
        0x00001b9a:    230f        .#      MOVS     r3,#0xf
        0x00001b9c:    4093        .@      LSLS     r3,r3,r2
        0x00001b9e:    4318        .C      ORRS     r0,r0,r3
        0x00001ba0:    2305        .#      MOVS     r3,#5
        0x00001ba2:    071b        ..      LSLS     r3,r3,#28
        0x00001ba4:    6358        Xc      STR      r0,[r3,#0x34]
        0x00001ba6:    48ab        .H      LDR      r0,[pc,#684] ; [0x1e54] = 0x50000040
        0x00001ba8:    6900        .i      LDR      r0,[r0,#0x10]
        0x00001baa:    2301        .#      MOVS     r3,#1
        0x00001bac:    02db        ..      LSLS     r3,r3,#11
        0x00001bae:    4398        .C      BICS     r0,r0,r3
        0x00001bb0:    4ba8        .K      LDR      r3,[pc,#672] ; [0x1e54] = 0x50000040
        0x00001bb2:    6118        .a      STR      r0,[r3,#0x10]
        0x00001bb4:    e022        ".      B        0x1bfc ; DrvGPIO_InitFunction + 1264
        0x00001bb6:    292a        *)      CMP      r1,#0x2a
        0x00001bb8:    d001        ..      BEQ      0x1bbe ; DrvGPIO_InitFunction + 1202
        0x00001bba:    292d        -)      CMP      r1,#0x2d
        0x00001bbc:    d109        ..      BNE      0x1bd2 ; DrvGPIO_InitFunction + 1222
        0x00001bbe:    2005        .       MOVS     r0,#5
        0x00001bc0:    0700        ..      LSLS     r0,r0,#28
        0x00001bc2:    6b40        @k      LDR      r0,[r0,#0x34]
        0x00001bc4:    2303        .#      MOVS     r3,#3
        0x00001bc6:    4093        .@      LSLS     r3,r3,r2
        0x00001bc8:    4318        .C      ORRS     r0,r0,r3
        0x00001bca:    2305        .#      MOVS     r3,#5
        0x00001bcc:    071b        ..      LSLS     r3,r3,#28
        0x00001bce:    6358        Xc      STR      r0,[r3,#0x34]
        0x00001bd0:    e014        ..      B        0x1bfc ; DrvGPIO_InitFunction + 1264
        0x00001bd2:    292b        +)      CMP      r1,#0x2b
        0x00001bd4:    d001        ..      BEQ      0x1bda ; DrvGPIO_InitFunction + 1230
        0x00001bd6:    292e        .)      CMP      r1,#0x2e
        0x00001bd8:    d110        ..      BNE      0x1bfc ; DrvGPIO_InitFunction + 1264
        0x00001bda:    2005        .       MOVS     r0,#5
        0x00001bdc:    0700        ..      LSLS     r0,r0,#28
        0x00001bde:    6b40        @k      LDR      r0,[r0,#0x34]
        0x00001be0:    1c93        ..      ADDS     r3,r2,#2
        0x00001be2:    2403        .$      MOVS     r4,#3
        0x00001be4:    409c        .@      LSLS     r4,r4,r3
        0x00001be6:    4320         C      ORRS     r0,r0,r4
        0x00001be8:    2305        .#      MOVS     r3,#5
        0x00001bea:    071b        ..      LSLS     r3,r3,#28
        0x00001bec:    6358        Xc      STR      r0,[r3,#0x34]
        0x00001bee:    4899        .H      LDR      r0,[pc,#612] ; [0x1e54] = 0x50000040
        0x00001bf0:    6900        .i      LDR      r0,[r0,#0x10]
        0x00001bf2:    2301        .#      MOVS     r3,#1
        0x00001bf4:    02db        ..      LSLS     r3,r3,#11
        0x00001bf6:    4398        .C      BICS     r0,r0,r3
        0x00001bf8:    4b96        .K      LDR      r3,[pc,#600] ; [0x1e54] = 0x50000040
        0x00001bfa:    6118        .a      STR      r0,[r3,#0x10]
        0x00001bfc:    e127        '.      B        0x1e4e ; DrvGPIO_InitFunction + 1858
        0x00001bfe:    2005        .       MOVS     r0,#5
        0x00001c00:    0700        ..      LSLS     r0,r0,#28
        0x00001c02:    6bc0        .k      LDR      r0,[r0,#0x3c]
        0x00001c04:    2303        .#      MOVS     r3,#3
        0x00001c06:    039b        ..      LSLS     r3,r3,#14
        0x00001c08:    4318        .C      ORRS     r0,r0,r3
        0x00001c0a:    2305        .#      MOVS     r3,#5
        0x00001c0c:    071b        ..      LSLS     r3,r3,#28
        0x00001c0e:    63d8        .c      STR      r0,[r3,#0x3c]
        0x00001c10:    e11d        ..      B        0x1e4e ; DrvGPIO_InitFunction + 1858
        0x00001c12:    bf00        ..      NOP      
        0x00001c14:    bf00        ..      NOP      
        0x00001c16:    2930        0)      CMP      r1,#0x30
        0x00001c18:    d108        ..      BNE      0x1c2c ; DrvGPIO_InitFunction + 1312
        0x00001c1a:    2005        .       MOVS     r0,#5
        0x00001c1c:    0700        ..      LSLS     r0,r0,#28
        0x00001c1e:    6b00        .k      LDR      r0,[r0,#0x30]
        0x00001c20:    020b        ..      LSLS     r3,r1,#8
        0x00001c22:    4318        .C      ORRS     r0,r0,r3
        0x00001c24:    2305        .#      MOVS     r3,#5
        0x00001c26:    071b        ..      LSLS     r3,r3,#28
        0x00001c28:    6318        .c      STR      r0,[r3,#0x30]
        0x00001c2a:    e00a        ..      B        0x1c42 ; DrvGPIO_InitFunction + 1334
        0x00001c2c:    2005        .       MOVS     r0,#5
        0x00001c2e:    0700        ..      LSLS     r0,r0,#28
        0x00001c30:    6b03        .k      LDR      r3,[r0,#0x30]
        0x00001c32:    4608        .F      MOV      r0,r1
        0x00001c34:    3828        (8      SUBS     r0,r0,#0x28
        0x00001c36:    2401        .$      MOVS     r4,#1
        0x00001c38:    4084        .@      LSLS     r4,r4,r0
        0x00001c3a:    4323        #C      ORRS     r3,r3,r4
        0x00001c3c:    2005        .       MOVS     r0,#5
        0x00001c3e:    0700        ..      LSLS     r0,r0,#28
        0x00001c40:    6303        .c      STR      r3,[r0,#0x30]
        0x00001c42:    4884        .H      LDR      r0,[pc,#528] ; [0x1e54] = 0x50000040
        0x00001c44:    6900        .i      LDR      r0,[r0,#0x10]
        0x00001c46:    2301        .#      MOVS     r3,#1
        0x00001c48:    02db        ..      LSLS     r3,r3,#11
        0x00001c4a:    4398        .C      BICS     r0,r0,r3
        0x00001c4c:    4b81        .K      LDR      r3,[pc,#516] ; [0x1e54] = 0x50000040
        0x00001c4e:    6118        .a      STR      r0,[r3,#0x10]
        0x00001c50:    e0fd        ..      B        0x1e4e ; DrvGPIO_InitFunction + 1858
        0x00001c52:    bf00        ..      NOP      
        0x00001c54:    bf00        ..      NOP      
        0x00001c56:    2931        1)      CMP      r1,#0x31
        0x00001c58:    d116        ..      BNE      0x1c88 ; DrvGPIO_InitFunction + 1404
        0x00001c5a:    2005        .       MOVS     r0,#5
        0x00001c5c:    0700        ..      LSLS     r0,r0,#28
        0x00001c5e:    6b00        .k      LDR      r0,[r0,#0x30]
        0x00001c60:    2303        .#      MOVS     r3,#3
        0x00001c62:    039b        ..      LSLS     r3,r3,#14
        0x00001c64:    4318        .C      ORRS     r0,r0,r3
        0x00001c66:    2305        .#      MOVS     r3,#5
        0x00001c68:    071b        ..      LSLS     r3,r3,#28
        0x00001c6a:    6318        .c      STR      r0,[r3,#0x30]
        0x00001c6c:    4879        yH      LDR      r0,[pc,#484] ; [0x1e54] = 0x50000040
        0x00001c6e:    6900        .i      LDR      r0,[r0,#0x10]
        0x00001c70:    2301        .#      MOVS     r3,#1
        0x00001c72:    025b        [.      LSLS     r3,r3,#9
        0x00001c74:    4398        .C      BICS     r0,r0,r3
        0x00001c76:    4b77        wK      LDR      r3,[pc,#476] ; [0x1e54] = 0x50000040
        0x00001c78:    6118        .a      STR      r0,[r3,#0x10]
        0x00001c7a:    4618        .F      MOV      r0,r3
        0x00001c7c:    6900        .i      LDR      r0,[r0,#0x10]
        0x00001c7e:    015b        [.      LSLS     r3,r3,#5
        0x00001c80:    4398        .C      BICS     r0,r0,r3
        0x00001c82:    4b74        tK      LDR      r3,[pc,#464] ; [0x1e54] = 0x50000040
        0x00001c84:    6118        .a      STR      r0,[r3,#0x10]
        0x00001c86:    e01b        ..      B        0x1cc0 ; DrvGPIO_InitFunction + 1460
        0x00001c88:    2005        .       MOVS     r0,#5
        0x00001c8a:    0700        ..      LSLS     r0,r0,#28
        0x00001c8c:    6b03        .k      LDR      r3,[r0,#0x30]
        0x00001c8e:    4608        .F      MOV      r0,r1
        0x00001c90:    3828        (8      SUBS     r0,r0,#0x28
        0x00001c92:    2401        .$      MOVS     r4,#1
        0x00001c94:    4084        .@      LSLS     r4,r4,r0
        0x00001c96:    4323        #C      ORRS     r3,r3,r4
        0x00001c98:    2005        .       MOVS     r0,#5
        0x00001c9a:    0700        ..      LSLS     r0,r0,#28
        0x00001c9c:    6303        .c      STR      r3,[r0,#0x30]
        0x00001c9e:    2936        6)      CMP      r1,#0x36
        0x00001ca0:    d107        ..      BNE      0x1cb2 ; DrvGPIO_InitFunction + 1446
        0x00001ca2:    486c        lH      LDR      r0,[pc,#432] ; [0x1e54] = 0x50000040
        0x00001ca4:    6900        .i      LDR      r0,[r0,#0x10]
        0x00001ca6:    2301        .#      MOVS     r3,#1
        0x00001ca8:    02db        ..      LSLS     r3,r3,#11
        0x00001caa:    4398        .C      BICS     r0,r0,r3
        0x00001cac:    4b69        iK      LDR      r3,[pc,#420] ; [0x1e54] = 0x50000040
        0x00001cae:    6118        .a      STR      r0,[r3,#0x10]
        0x00001cb0:    e006        ..      B        0x1cc0 ; DrvGPIO_InitFunction + 1460
        0x00001cb2:    4868        hH      LDR      r0,[pc,#416] ; [0x1e54] = 0x50000040
        0x00001cb4:    6900        .i      LDR      r0,[r0,#0x10]
        0x00001cb6:    2301        .#      MOVS     r3,#1
        0x00001cb8:    025b        [.      LSLS     r3,r3,#9
        0x00001cba:    4398        .C      BICS     r0,r0,r3
        0x00001cbc:    4b65        eK      LDR      r3,[pc,#404] ; [0x1e54] = 0x50000040
        0x00001cbe:    6118        .a      STR      r0,[r3,#0x10]
        0x00001cc0:    e0c5        ..      B        0x1e4e ; DrvGPIO_InitFunction + 1858
        0x00001cc2:    bf00        ..      NOP      
        0x00001cc4:    bf00        ..      NOP      
        0x00001cc6:    2932        2)      CMP      r1,#0x32
        0x00001cc8:    d115        ..      BNE      0x1cf6 ; DrvGPIO_InitFunction + 1514
        0x00001cca:    2005        .       MOVS     r0,#5
        0x00001ccc:    0700        ..      LSLS     r0,r0,#28
        0x00001cce:    6b40        @k      LDR      r0,[r0,#0x34]
        0x00001cd0:    2301        .#      MOVS     r3,#1
        0x00001cd2:    02db        ..      LSLS     r3,r3,#11
        0x00001cd4:    4318        .C      ORRS     r0,r0,r3
        0x00001cd6:    2305        .#      MOVS     r3,#5
        0x00001cd8:    071b        ..      LSLS     r3,r3,#28
        0x00001cda:    6358        Xc      STR      r0,[r3,#0x34]
        0x00001cdc:    485d        ]H      LDR      r0,[pc,#372] ; [0x1e54] = 0x50000040
        0x00001cde:    6900        .i      LDR      r0,[r0,#0x10]
        0x00001ce0:    2310        .#      MOVS     r3,#0x10
        0x00001ce2:    4318        .C      ORRS     r0,r0,r3
        0x00001ce4:    4b5b        [K      LDR      r3,[pc,#364] ; [0x1e54] = 0x50000040
        0x00001ce6:    6118        .a      STR      r0,[r3,#0x10]
        0x00001ce8:    4618        .F      MOV      r0,r3
        0x00001cea:    6800        .h      LDR      r0,[r0,#0]
        0x00001cec:    2320         #      MOVS     r3,#0x20
        0x00001cee:    4318        .C      ORRS     r0,r0,r3
        0x00001cf0:    4b58        XK      LDR      r3,[pc,#352] ; [0x1e54] = 0x50000040
        0x00001cf2:    6018        .`      STR      r0,[r3,#0]
        0x00001cf4:    e017        ..      B        0x1d26 ; DrvGPIO_InitFunction + 1562
        0x00001cf6:    2938        8)      CMP      r1,#0x38
        0x00001cf8:    d10f        ..      BNE      0x1d1a ; DrvGPIO_InitFunction + 1550
        0x00001cfa:    2005        .       MOVS     r0,#5
        0x00001cfc:    0700        ..      LSLS     r0,r0,#28
        0x00001cfe:    6b40        @k      LDR      r0,[r0,#0x34]
        0x00001d00:    2301        .#      MOVS     r3,#1
        0x00001d02:    02db        ..      LSLS     r3,r3,#11
        0x00001d04:    4318        .C      ORRS     r0,r0,r3
        0x00001d06:    2305        .#      MOVS     r3,#5
        0x00001d08:    071b        ..      LSLS     r3,r3,#28
        0x00001d0a:    6358        Xc      STR      r0,[r3,#0x34]
        0x00001d0c:    4851        QH      LDR      r0,[pc,#324] ; [0x1e54] = 0x50000040
        0x00001d0e:    6900        .i      LDR      r0,[r0,#0x10]
        0x00001d10:    2310        .#      MOVS     r3,#0x10
        0x00001d12:    4318        .C      ORRS     r0,r0,r3
        0x00001d14:    4b4f        OK      LDR      r3,[pc,#316] ; [0x1e54] = 0x50000040
        0x00001d16:    6118        .a      STR      r0,[r3,#0x10]
        0x00001d18:    e005        ..      B        0x1d26 ; DrvGPIO_InitFunction + 1562
        0x00001d1a:    484e        NH      LDR      r0,[pc,#312] ; [0x1e54] = 0x50000040
        0x00001d1c:    6800        .h      LDR      r0,[r0,#0]
        0x00001d1e:    2320         #      MOVS     r3,#0x20
        0x00001d20:    4318        .C      ORRS     r0,r0,r3
        0x00001d22:    4b4c        LK      LDR      r3,[pc,#304] ; [0x1e54] = 0x50000040
        0x00001d24:    6018        .`      STR      r0,[r3,#0]
        0x00001d26:    e092        ..      B        0x1e4e ; DrvGPIO_InitFunction + 1858
        0x00001d28:    bf00        ..      NOP      
        0x00001d2a:    bf00        ..      NOP      
        0x00001d2c:    2933        3)      CMP      r1,#0x33
        0x00001d2e:    d106        ..      BNE      0x1d3e ; DrvGPIO_InitFunction + 1586
        0x00001d30:    4848        HH      LDR      r0,[pc,#288] ; [0x1e54] = 0x50000040
        0x00001d32:    6800        .h      LDR      r0,[r0,#0]
        0x00001d34:    2303        .#      MOVS     r3,#3
        0x00001d36:    4318        .C      ORRS     r0,r0,r3
        0x00001d38:    4b46        FK      LDR      r3,[pc,#280] ; [0x1e54] = 0x50000040
        0x00001d3a:    6018        .`      STR      r0,[r3,#0]
        0x00001d3c:    e00e        ..      B        0x1d5c ; DrvGPIO_InitFunction + 1616
        0x00001d3e:    293a        :)      CMP      r1,#0x3a
        0x00001d40:    d106        ..      BNE      0x1d50 ; DrvGPIO_InitFunction + 1604
        0x00001d42:    4844        DH      LDR      r0,[pc,#272] ; [0x1e54] = 0x50000040
        0x00001d44:    6800        .h      LDR      r0,[r0,#0]
        0x00001d46:    2301        .#      MOVS     r3,#1
        0x00001d48:    4318        .C      ORRS     r0,r0,r3
        0x00001d4a:    4b42        BK      LDR      r3,[pc,#264] ; [0x1e54] = 0x50000040
        0x00001d4c:    6018        .`      STR      r0,[r3,#0]
        0x00001d4e:    e005        ..      B        0x1d5c ; DrvGPIO_InitFunction + 1616
        0x00001d50:    4840        @H      LDR      r0,[pc,#256] ; [0x1e54] = 0x50000040
        0x00001d52:    6800        .h      LDR      r0,[r0,#0]
        0x00001d54:    2302        .#      MOVS     r3,#2
        0x00001d56:    4318        .C      ORRS     r0,r0,r3
        0x00001d58:    4b3e        >K      LDR      r3,[pc,#248] ; [0x1e54] = 0x50000040
        0x00001d5a:    6018        .`      STR      r0,[r3,#0]
        0x00001d5c:    e077        w.      B        0x1e4e ; DrvGPIO_InitFunction + 1858
        0x00001d5e:    2005        .       MOVS     r0,#5
        0x00001d60:    0700        ..      LSLS     r0,r0,#28
        0x00001d62:    6b40        @k      LDR      r0,[r0,#0x34]
        0x00001d64:    230c        .#      MOVS     r3,#0xc
        0x00001d66:    4318        .C      ORRS     r0,r0,r3
        0x00001d68:    2305        .#      MOVS     r3,#5
        0x00001d6a:    071b        ..      LSLS     r3,r3,#28
        0x00001d6c:    6358        Xc      STR      r0,[r3,#0x34]
        0x00001d6e:    4839        9H      LDR      r0,[pc,#228] ; [0x1e54] = 0x50000040
        0x00001d70:    6900        .i      LDR      r0,[r0,#0x10]
        0x00001d72:    2303        .#      MOVS     r3,#3
        0x00001d74:    035b        [.      LSLS     r3,r3,#13
        0x00001d76:    4318        .C      ORRS     r0,r0,r3
        0x00001d78:    4b36        6K      LDR      r3,[pc,#216] ; [0x1e54] = 0x50000040
        0x00001d7a:    6118        .a      STR      r0,[r3,#0x10]
        0x00001d7c:    2005        .       MOVS     r0,#5
        0x00001d7e:    0700        ..      LSLS     r0,r0,#28
        0x00001d80:    6b00        .k      LDR      r0,[r0,#0x30]
        0x00001d82:    4b35        5K      LDR      r3,[pc,#212] ; [0x1e58] = 0x703e
        0x00001d84:    4318        .C      ORRS     r0,r0,r3
        0x00001d86:    2305        .#      MOVS     r3,#5
        0x00001d88:    071b        ..      LSLS     r3,r3,#28
        0x00001d8a:    6318        .c      STR      r0,[r3,#0x30]
        0x00001d8c:    4831        1H      LDR      r0,[pc,#196] ; [0x1e54] = 0x50000040
        0x00001d8e:    6900        .i      LDR      r0,[r0,#0x10]
        0x00001d90:    23ff        .#      MOVS     r3,#0xff
        0x00001d92:    041b        ..      LSLS     r3,r3,#16
        0x00001d94:    4318        .C      ORRS     r0,r0,r3
        0x00001d96:    4b2f        /K      LDR      r3,[pc,#188] ; [0x1e54] = 0x50000040
        0x00001d98:    6118        .a      STR      r0,[r3,#0x10]
        0x00001d9a:    bf00        ..      NOP      
        0x00001d9c:    293c        <)      CMP      r1,#0x3c
        0x00001d9e:    d11e        ..      BNE      0x1dde ; DrvGPIO_InitFunction + 1746
        0x00001da0:    2005        .       MOVS     r0,#5
        0x00001da2:    0700        ..      LSLS     r0,r0,#28
        0x00001da4:    6b40        @k      LDR      r0,[r0,#0x34]
        0x00001da6:    230c        .#      MOVS     r3,#0xc
        0x00001da8:    4398        .C      BICS     r0,r0,r3
        0x00001daa:    2305        .#      MOVS     r3,#5
        0x00001dac:    071b        ..      LSLS     r3,r3,#28
        0x00001dae:    6358        Xc      STR      r0,[r3,#0x34]
        0x00001db0:    4828        (H      LDR      r0,[pc,#160] ; [0x1e54] = 0x50000040
        0x00001db2:    6900        .i      LDR      r0,[r0,#0x10]
        0x00001db4:    2303        .#      MOVS     r3,#3
        0x00001db6:    035b        [.      LSLS     r3,r3,#13
        0x00001db8:    4398        .C      BICS     r0,r0,r3
        0x00001dba:    4b26        &K      LDR      r3,[pc,#152] ; [0x1e54] = 0x50000040
        0x00001dbc:    6118        .a      STR      r0,[r3,#0x10]
        0x00001dbe:    2005        .       MOVS     r0,#5
        0x00001dc0:    0700        ..      LSLS     r0,r0,#28
        0x00001dc2:    6b00        .k      LDR      r0,[r0,#0x30]
        0x00001dc4:    4b24        $K      LDR      r3,[pc,#144] ; [0x1e58] = 0x703e
        0x00001dc6:    43db        .C      MVNS     r3,r3
        0x00001dc8:    4018        .@      ANDS     r0,r0,r3
        0x00001dca:    2305        .#      MOVS     r3,#5
        0x00001dcc:    071b        ..      LSLS     r3,r3,#28
        0x00001dce:    6318        .c      STR      r0,[r3,#0x30]
        0x00001dd0:    4820         H      LDR      r0,[pc,#128] ; [0x1e54] = 0x50000040
        0x00001dd2:    6900        .i      LDR      r0,[r0,#0x10]
        0x00001dd4:    23ff        .#      MOVS     r3,#0xff
        0x00001dd6:    041b        ..      LSLS     r3,r3,#16
        0x00001dd8:    4398        .C      BICS     r0,r0,r3
        0x00001dda:    4b1e        .K      LDR      r3,[pc,#120] ; [0x1e54] = 0x50000040
        0x00001ddc:    6118        .a      STR      r0,[r3,#0x10]
        0x00001dde:    481d        .H      LDR      r0,[pc,#116] ; [0x1e54] = 0x50000040
        0x00001de0:    6900        .i      LDR      r0,[r0,#0x10]
        0x00001de2:    2303        .#      MOVS     r3,#3
        0x00001de4:    02db        ..      LSLS     r3,r3,#11
        0x00001de6:    4318        .C      ORRS     r0,r0,r3
        0x00001de8:    4b1a        .K      LDR      r3,[pc,#104] ; [0x1e54] = 0x50000040
        0x00001dea:    6118        .a      STR      r0,[r3,#0x10]
        0x00001dec:    2005        .       MOVS     r0,#5
        0x00001dee:    0700        ..      LSLS     r0,r0,#28
        0x00001df0:    6b80        .k      LDR      r0,[r0,#0x38]
        0x00001df2:    23ff        .#      MOVS     r3,#0xff
        0x00001df4:    3301        .3      ADDS     r3,#1
        0x00001df6:    4318        .C      ORRS     r0,r0,r3
        0x00001df8:    2305        .#      MOVS     r3,#5
        0x00001dfa:    071b        ..      LSLS     r3,r3,#28
        0x00001dfc:    6398        .c      STR      r0,[r3,#0x38]
        0x00001dfe:    4618        .F      MOV      r0,r3
        0x00001e00:    6b00        .k      LDR      r0,[r0,#0x30]
        0x00001e02:    2303        .#      MOVS     r3,#3
        0x00001e04:    029b        ..      LSLS     r3,r3,#10
        0x00001e06:    4318        .C      ORRS     r0,r0,r3
        0x00001e08:    2305        .#      MOVS     r3,#5
        0x00001e0a:    071b        ..      LSLS     r3,r3,#28
        0x00001e0c:    6318        .c      STR      r0,[r3,#0x30]
        0x00001e0e:    4618        .F      MOV      r0,r3
        0x00001e10:    6b40        @k      LDR      r0,[r0,#0x34]
        0x00001e12:    23c0        .#      MOVS     r3,#0xc0
        0x00001e14:    4318        .C      ORRS     r0,r0,r3
        0x00001e16:    2305        .#      MOVS     r3,#5
        0x00001e18:    071b        ..      LSLS     r3,r3,#28
        0x00001e1a:    6358        Xc      STR      r0,[r3,#0x34]
        0x00001e1c:    4618        .F      MOV      r0,r3
        0x00001e1e:    6b00        .k      LDR      r0,[r0,#0x30]
        0x00001e20:    23c0        .#      MOVS     r3,#0xc0
        0x00001e22:    4318        .C      ORRS     r0,r0,r3
        0x00001e24:    2305        .#      MOVS     r3,#5
        0x00001e26:    071b        ..      LSLS     r3,r3,#28
        0x00001e28:    6318        .c      STR      r0,[r3,#0x30]
        0x00001e2a:    4618        .F      MOV      r0,r3
        0x00001e2c:    6b80        .k      LDR      r0,[r0,#0x38]
        0x00001e2e:    4b0b        .K      LDR      r3,[pc,#44] ; [0x1e5c] = 0xc0c0
        0x00001e30:    4318        .C      ORRS     r0,r0,r3
        0x00001e32:    2305        .#      MOVS     r3,#5
        0x00001e34:    071b        ..      LSLS     r3,r3,#28
        0x00001e36:    6398        .c      STR      r0,[r3,#0x38]
        0x00001e38:    4618        .F      MOV      r0,r3
        0x00001e3a:    6b40        @k      LDR      r0,[r0,#0x34]
        0x00001e3c:    2303        .#      MOVS     r3,#3
        0x00001e3e:    031b        ..      LSLS     r3,r3,#12
        0x00001e40:    4318        .C      ORRS     r0,r0,r3
        0x00001e42:    2305        .#      MOVS     r3,#5
        0x00001e44:    071b        ..      LSLS     r3,r3,#28
        0x00001e46:    6358        Xc      STR      r0,[r3,#0x34]
        0x00001e48:    e001        ..      B        0x1e4e ; DrvGPIO_InitFunction + 1858
        0x00001e4a:    4805        .H      LDR      r0,[pc,#20] ; [0x1e60] = 0xffff8901
        0x00001e4c:    bd10        ..      POP      {r4,pc}
        0x00001e4e:    bf00        ..      NOP      
        0x00001e50:    2000        .       MOVS     r0,#0
        0x00001e52:    e7fb        ..      B        0x1e4c ; DrvGPIO_InitFunction + 1856
    $d
        0x00001e54:    50000040    @..P    DCD    1342177344
        0x00001e58:    0000703e    >p..    DCD    28734
        0x00001e5c:    0000c0c0    ....    DCD    49344
        0x00001e60:    ffff8901    ....    DCD    4294936833
    $t
    i.DrvGPIO_SetBit
    DrvGPIO_SetBit
        0x00001e64:    b510        ..      PUSH     {r4,lr}
        0x00001e66:    4603        .F      MOV      r3,r0
        0x00001e68:    2900        .)      CMP      r1,#0
        0x00001e6a:    db01        ..      BLT      0x1e70 ; DrvGPIO_SetBit + 12
        0x00001e6c:    2910        .)      CMP      r1,#0x10
        0x00001e6e:    dd01        ..      BLE      0x1e74 ; DrvGPIO_SetBit + 16
        0x00001e70:    4805        .H      LDR      r0,[pc,#20] ; [0x1e88] = 0xffff8901
        0x00001e72:    bd10        ..      POP      {r4,pc}
        0x00001e74:    0198        ..      LSLS     r0,r3,#6
        0x00001e76:    4c05        .L      LDR      r4,[pc,#20] ; [0x1e8c] = 0x50004000
        0x00001e78:    1902        ..      ADDS     r2,r0,r4
        0x00001e7a:    6890        .h      LDR      r0,[r2,#8]
        0x00001e7c:    2401        .$      MOVS     r4,#1
        0x00001e7e:    408c        .@      LSLS     r4,r4,r1
        0x00001e80:    4320         C      ORRS     r0,r0,r4
        0x00001e82:    6090        .`      STR      r0,[r2,#8]
        0x00001e84:    2000        .       MOVS     r0,#0
        0x00001e86:    e7f4        ..      B        0x1e72 ; DrvGPIO_SetBit + 14
    $d
        0x00001e88:    ffff8901    ....    DCD    4294936833
        0x00001e8c:    50004000    .@.P    DCD    1342193664
    $t
    i.DrvI2C_Close
    DrvI2C_Close
        0x00001e90:    4601        .F      MOV      r1,r0
        0x00001e92:    2900        .)      CMP      r1,#0
        0x00001e94:    d01e        ..      BEQ      0x1ed4 ; DrvI2C_Close + 68
        0x00001e96:    481f        .H      LDR      r0,[pc,#124] ; [0x1f14] = 0x40120000
        0x00001e98:    6800        .h      LDR      r0,[r0,#0]
        0x00001e9a:    2240        @"      MOVS     r2,#0x40
        0x00001e9c:    4390        .C      BICS     r0,r0,r2
        0x00001e9e:    4a1d        .J      LDR      r2,[pc,#116] ; [0x1f14] = 0x40120000
        0x00001ea0:    6010        .`      STR      r0,[r2,#0]
        0x00001ea2:    2005        .       MOVS     r0,#5
        0x00001ea4:    0700        ..      LSLS     r0,r0,#28
        0x00001ea6:    68c0        .h      LDR      r0,[r0,#0xc]
        0x00001ea8:    1552        R.      ASRS     r2,r2,#21
        0x00001eaa:    4390        .C      BICS     r0,r0,r2
        0x00001eac:    1880        ..      ADDS     r0,r0,r2
        0x00001eae:    2205        ."      MOVS     r2,#5
        0x00001eb0:    0712        ..      LSLS     r2,r2,#28
        0x00001eb2:    60d0        .`      STR      r0,[r2,#0xc]
        0x00001eb4:    4610        .F      MOV      r0,r2
        0x00001eb6:    68c0        .h      LDR      r0,[r0,#0xc]
        0x00001eb8:    2201        ."      MOVS     r2,#1
        0x00001eba:    0252        R.      LSLS     r2,r2,#9
        0x00001ebc:    4390        .C      BICS     r0,r0,r2
        0x00001ebe:    2205        ."      MOVS     r2,#5
        0x00001ec0:    0712        ..      LSLS     r2,r2,#28
        0x00001ec2:    60d0        .`      STR      r0,[r2,#0xc]
        0x00001ec4:    4814        .H      LDR      r0,[pc,#80] ; [0x1f18] = 0x50000200
        0x00001ec6:    6880        .h      LDR      r0,[r0,#8]
        0x00001ec8:    2201        ."      MOVS     r2,#1
        0x00001eca:    0252        R.      LSLS     r2,r2,#9
        0x00001ecc:    4390        .C      BICS     r0,r0,r2
        0x00001ece:    4a12        .J      LDR      r2,[pc,#72] ; [0x1f18] = 0x50000200
        0x00001ed0:    6090        .`      STR      r0,[r2,#8]
        0x00001ed2:    e01d        ..      B        0x1f10 ; DrvI2C_Close + 128
        0x00001ed4:    4811        .H      LDR      r0,[pc,#68] ; [0x1f1c] = 0x40020000
        0x00001ed6:    6800        .h      LDR      r0,[r0,#0]
        0x00001ed8:    2240        @"      MOVS     r2,#0x40
        0x00001eda:    4390        .C      BICS     r0,r0,r2
        0x00001edc:    4a0f        .J      LDR      r2,[pc,#60] ; [0x1f1c] = 0x40020000
        0x00001ede:    6010        .`      STR      r0,[r2,#0]
        0x00001ee0:    2005        .       MOVS     r0,#5
        0x00001ee2:    0700        ..      LSLS     r0,r0,#28
        0x00001ee4:    68c0        .h      LDR      r0,[r0,#0xc]
        0x00001ee6:    1592        ..      ASRS     r2,r2,#22
        0x00001ee8:    4390        .C      BICS     r0,r0,r2
        0x00001eea:    1880        ..      ADDS     r0,r0,r2
        0x00001eec:    2205        ."      MOVS     r2,#5
        0x00001eee:    0712        ..      LSLS     r2,r2,#28
        0x00001ef0:    60d0        .`      STR      r0,[r2,#0xc]
        0x00001ef2:    4610        .F      MOV      r0,r2
        0x00001ef4:    68c0        .h      LDR      r0,[r0,#0xc]
        0x00001ef6:    22ff        ."      MOVS     r2,#0xff
        0x00001ef8:    3201        .2      ADDS     r2,#1
        0x00001efa:    4390        .C      BICS     r0,r0,r2
        0x00001efc:    2205        ."      MOVS     r2,#5
        0x00001efe:    0712        ..      LSLS     r2,r2,#28
        0x00001f00:    60d0        .`      STR      r0,[r2,#0xc]
        0x00001f02:    4805        .H      LDR      r0,[pc,#20] ; [0x1f18] = 0x50000200
        0x00001f04:    6880        .h      LDR      r0,[r0,#8]
        0x00001f06:    22ff        ."      MOVS     r2,#0xff
        0x00001f08:    3201        .2      ADDS     r2,#1
        0x00001f0a:    4390        .C      BICS     r0,r0,r2
        0x00001f0c:    4a02        .J      LDR      r2,[pc,#8] ; [0x1f18] = 0x50000200
        0x00001f0e:    6090        .`      STR      r0,[r2,#8]
        0x00001f10:    2000        .       MOVS     r0,#0
        0x00001f12:    4770        pG      BX       lr
    $d
        0x00001f14:    40120000    ...@    DCD    1074921472
        0x00001f18:    50000200    ...P    DCD    1342177792
        0x00001f1c:    40020000    ...@    DCD    1073872896
    $t
    i.DrvI2C_Ctrl
    DrvI2C_Ctrl
        0x00001f20:    b5f0        ..      PUSH     {r4-r7,lr}
        0x00001f22:    9c05        ..      LDR      r4,[sp,#0x14]
        0x00001f24:    2500        .%      MOVS     r5,#0
        0x00001f26:    2900        .)      CMP      r1,#0
        0x00001f28:    d001        ..      BEQ      0x1f2e ; DrvI2C_Ctrl + 14
        0x00001f2a:    2620         &      MOVS     r6,#0x20
        0x00001f2c:    4335        5C      ORRS     r5,r5,r6
        0x00001f2e:    2a00        .*      CMP      r2,#0
        0x00001f30:    d001        ..      BEQ      0x1f36 ; DrvI2C_Ctrl + 22
        0x00001f32:    2610        .&      MOVS     r6,#0x10
        0x00001f34:    4335        5C      ORRS     r5,r5,r6
        0x00001f36:    2b00        .+      CMP      r3,#0
        0x00001f38:    d001        ..      BEQ      0x1f3e ; DrvI2C_Ctrl + 30
        0x00001f3a:    2608        .&      MOVS     r6,#8
        0x00001f3c:    4335        5C      ORRS     r5,r5,r6
        0x00001f3e:    2c00        .,      CMP      r4,#0
        0x00001f40:    d001        ..      BEQ      0x1f46 ; DrvI2C_Ctrl + 38
        0x00001f42:    2604        .&      MOVS     r6,#4
        0x00001f44:    4335        5C      ORRS     r5,r5,r6
        0x00001f46:    2800        .(      CMP      r0,#0
        0x00001f48:    d007        ..      BEQ      0x1f5a ; DrvI2C_Ctrl + 58
        0x00001f4a:    4e08        .N      LDR      r6,[pc,#32] ; [0x1f6c] = 0x40120000
        0x00001f4c:    6836        6h      LDR      r6,[r6,#0]
        0x00001f4e:    273c        <'      MOVS     r7,#0x3c
        0x00001f50:    43be        .C      BICS     r6,r6,r7
        0x00001f52:    432e        .C      ORRS     r6,r6,r5
        0x00001f54:    4f05        .O      LDR      r7,[pc,#20] ; [0x1f6c] = 0x40120000
        0x00001f56:    603e        >`      STR      r6,[r7,#0]
        0x00001f58:    e006        ..      B        0x1f68 ; DrvI2C_Ctrl + 72
        0x00001f5a:    4e05        .N      LDR      r6,[pc,#20] ; [0x1f70] = 0x40020000
        0x00001f5c:    6836        6h      LDR      r6,[r6,#0]
        0x00001f5e:    273c        <'      MOVS     r7,#0x3c
        0x00001f60:    43be        .C      BICS     r6,r6,r7
        0x00001f62:    432e        .C      ORRS     r6,r6,r5
        0x00001f64:    4f02        .O      LDR      r7,[pc,#8] ; [0x1f70] = 0x40020000
        0x00001f66:    603e        >`      STR      r6,[r7,#0]
        0x00001f68:    bdf0        ..      POP      {r4-r7,pc}
    $d
        0x00001f6a:    0000        ..      DCW    0
        0x00001f6c:    40120000    ...@    DCD    1074921472
        0x00001f70:    40020000    ...@    DCD    1073872896
    $t
    i.DrvI2C_Open
    DrvI2C_Open
        0x00001f74:    b5f8        ..      PUSH     {r3-r7,lr}
        0x00001f76:    4604        .F      MOV      r4,r0
        0x00001f78:    460d        .F      MOV      r5,r1
        0x00001f7a:    00a9        ..      LSLS     r1,r5,#2
        0x00001f7c:    4a2b        +J      LDR      r2,[pc,#172] ; [0x202c] = 0x20000000
        0x00001f7e:    6812        .h      LDR      r2,[r2,#0]
        0x00001f80:    230a        .#      MOVS     r3,#0xa
        0x00001f82:    435a        ZC      MULS     r2,r3,r2
        0x00001f84:    4610        .F      MOV      r0,r2
        0x00001f86:    f7fefa3b    ..;.    BL       __aeabi_uidiv ; 0x400
        0x00001f8a:    1d47        G.      ADDS     r7,r0,#5
        0x00001f8c:    210a        .!      MOVS     r1,#0xa
        0x00001f8e:    4638        8F      MOV      r0,r7
        0x00001f90:    f7fefa36    ..6.    BL       __aeabi_uidiv ; 0x400
        0x00001f94:    1e46        F.      SUBS     r6,r0,#1
        0x00001f96:    2c00        .,      CMP      r4,#0
        0x00001f98:    d023        #.      BEQ      0x1fe2 ; DrvI2C_Open + 110
        0x00001f9a:    4825        %H      LDR      r0,[pc,#148] ; [0x2030] = 0x50000200
        0x00001f9c:    6880        .h      LDR      r0,[r0,#8]
        0x00001f9e:    2101        .!      MOVS     r1,#1
        0x00001fa0:    0249        I.      LSLS     r1,r1,#9
        0x00001fa2:    4388        .C      BICS     r0,r0,r1
        0x00001fa4:    1840        @.      ADDS     r0,r0,r1
        0x00001fa6:    4922        "I      LDR      r1,[pc,#136] ; [0x2030] = 0x50000200
        0x00001fa8:    6088        .`      STR      r0,[r1,#8]
        0x00001faa:    2005        .       MOVS     r0,#5
        0x00001fac:    0700        ..      LSLS     r0,r0,#28
        0x00001fae:    68c0        .h      LDR      r0,[r0,#0xc]
        0x00001fb0:    2101        .!      MOVS     r1,#1
        0x00001fb2:    0249        I.      LSLS     r1,r1,#9
        0x00001fb4:    4388        .C      BICS     r0,r0,r1
        0x00001fb6:    1840        @.      ADDS     r0,r0,r1
        0x00001fb8:    2105        .!      MOVS     r1,#5
        0x00001fba:    0709        ..      LSLS     r1,r1,#28
        0x00001fbc:    60c8        .`      STR      r0,[r1,#0xc]
        0x00001fbe:    4608        .F      MOV      r0,r1
        0x00001fc0:    68c0        .h      LDR      r0,[r0,#0xc]
        0x00001fc2:    2101        .!      MOVS     r1,#1
        0x00001fc4:    0249        I.      LSLS     r1,r1,#9
        0x00001fc6:    4388        .C      BICS     r0,r0,r1
        0x00001fc8:    2105        .!      MOVS     r1,#5
        0x00001fca:    0709        ..      LSLS     r1,r1,#28
        0x00001fcc:    60c8        .`      STR      r0,[r1,#0xc]
        0x00001fce:    4819        .H      LDR      r0,[pc,#100] ; [0x2034] = 0x40120000
        0x00001fd0:    6800        .h      LDR      r0,[r0,#0]
        0x00001fd2:    2140        @!      MOVS     r1,#0x40
        0x00001fd4:    4388        .C      BICS     r0,r0,r1
        0x00001fd6:    3040        @0      ADDS     r0,r0,#0x40
        0x00001fd8:    4916        .I      LDR      r1,[pc,#88] ; [0x2034] = 0x40120000
        0x00001fda:    6008        .`      STR      r0,[r1,#0]
        0x00001fdc:    4608        .F      MOV      r0,r1
        0x00001fde:    6106        .a      STR      r6,[r0,#0x10]
        0x00001fe0:    e022        ".      B        0x2028 ; DrvI2C_Open + 180
        0x00001fe2:    4813        .H      LDR      r0,[pc,#76] ; [0x2030] = 0x50000200
        0x00001fe4:    6880        .h      LDR      r0,[r0,#8]
        0x00001fe6:    21ff        .!      MOVS     r1,#0xff
        0x00001fe8:    3101        .1      ADDS     r1,#1
        0x00001fea:    4388        .C      BICS     r0,r0,r1
        0x00001fec:    1840        @.      ADDS     r0,r0,r1
        0x00001fee:    4910        .I      LDR      r1,[pc,#64] ; [0x2030] = 0x50000200
        0x00001ff0:    6088        .`      STR      r0,[r1,#8]
        0x00001ff2:    2005        .       MOVS     r0,#5
        0x00001ff4:    0700        ..      LSLS     r0,r0,#28
        0x00001ff6:    68c0        .h      LDR      r0,[r0,#0xc]
        0x00001ff8:    21ff        .!      MOVS     r1,#0xff
        0x00001ffa:    3101        .1      ADDS     r1,#1
        0x00001ffc:    4388        .C      BICS     r0,r0,r1
        0x00001ffe:    1840        @.      ADDS     r0,r0,r1
        0x00002000:    2105        .!      MOVS     r1,#5
        0x00002002:    0709        ..      LSLS     r1,r1,#28
        0x00002004:    60c8        .`      STR      r0,[r1,#0xc]
        0x00002006:    4608        .F      MOV      r0,r1
        0x00002008:    68c0        .h      LDR      r0,[r0,#0xc]
        0x0000200a:    21ff        .!      MOVS     r1,#0xff
        0x0000200c:    3101        .1      ADDS     r1,#1
        0x0000200e:    4388        .C      BICS     r0,r0,r1
        0x00002010:    2105        .!      MOVS     r1,#5
        0x00002012:    0709        ..      LSLS     r1,r1,#28
        0x00002014:    60c8        .`      STR      r0,[r1,#0xc]
        0x00002016:    4808        .H      LDR      r0,[pc,#32] ; [0x2038] = 0x40020000
        0x00002018:    6800        .h      LDR      r0,[r0,#0]
        0x0000201a:    2140        @!      MOVS     r1,#0x40
        0x0000201c:    4388        .C      BICS     r0,r0,r1
        0x0000201e:    3040        @0      ADDS     r0,r0,#0x40
        0x00002020:    4905        .I      LDR      r1,[pc,#20] ; [0x2038] = 0x40020000
        0x00002022:    6008        .`      STR      r0,[r1,#0]
        0x00002024:    4608        .F      MOV      r0,r1
        0x00002026:    6106        .a      STR      r6,[r0,#0x10]
        0x00002028:    2000        .       MOVS     r0,#0
        0x0000202a:    bdf8        ..      POP      {r3-r7,pc}
    $d
        0x0000202c:    20000000    ...     DCD    536870912
        0x00002030:    50000200    ...P    DCD    1342177792
        0x00002034:    40120000    ...@    DCD    1074921472
        0x00002038:    40020000    ...@    DCD    1073872896
    $t
    i.DrvSYS_Delay
    DrvSYS_Delay
        0x0000203c:    4908        .I      LDR      r1,[pc,#32] ; [0x2060] = 0x20000004
        0x0000203e:    6809        .h      LDR      r1,[r1,#0]
        0x00002040:    4341        AC      MULS     r1,r0,r1
        0x00002042:    4a08        .J      LDR      r2,[pc,#32] ; [0x2064] = 0xe000e000
        0x00002044:    6151        Qa      STR      r1,[r2,#0x14]
        0x00002046:    2100        .!      MOVS     r1,#0
        0x00002048:    6191        .a      STR      r1,[r2,#0x18]
        0x0000204a:    2105        .!      MOVS     r1,#5
        0x0000204c:    6111        .a      STR      r1,[r2,#0x10]
        0x0000204e:    bf00        ..      NOP      
        0x00002050:    4904        .I      LDR      r1,[pc,#16] ; [0x2064] = 0xe000e000
        0x00002052:    6909        .i      LDR      r1,[r1,#0x10]
        0x00002054:    2201        ."      MOVS     r2,#1
        0x00002056:    0412        ..      LSLS     r2,r2,#16
        0x00002058:    4011        .@      ANDS     r1,r1,r2
        0x0000205a:    2900        .)      CMP      r1,#0
        0x0000205c:    d0f8        ..      BEQ      0x2050 ; DrvSYS_Delay + 20
        0x0000205e:    4770        pG      BX       lr
    $d
        0x00002060:    20000004    ...     DCD    536870916
        0x00002064:    e000e000    ....    DCD    3758153728
    $t
    i.DrvSYS_GetExtClockFreq
    DrvSYS_GetExtClockFreq
        0x00002068:    4800        .H      LDR      r0,[pc,#0] ; [0x206c] = 0xb71b00
        0x0000206a:    4770        pG      BX       lr
    $d
        0x0000206c:    00b71b00    ....    DCD    12000000
    $t
    i.DrvSYS_GetHCLKFreq
    DrvSYS_GetHCLKFreq
        0x00002070:    b570        p.      PUSH     {r4-r6,lr}
        0x00002072:    2500        .%      MOVS     r5,#0
        0x00002074:    4816        .H      LDR      r0,[pc,#88] ; [0x20d0] = 0x50000200
        0x00002076:    6900        .i      LDR      r0,[r0,#0x10]
        0x00002078:    0740        @.      LSLS     r0,r0,#29
        0x0000207a:    0f40        @.      LSRS     r0,r0,#29
        0x0000207c:    2800        .(      CMP      r0,#0
        0x0000207e:    d101        ..      BNE      0x2084 ; DrvSYS_GetHCLKFreq + 20
        0x00002080:    4d14        .M      LDR      r5,[pc,#80] ; [0x20d4] = 0xb71b00
        0x00002082:    e01a        ..      B        0x20ba ; DrvSYS_GetHCLKFreq + 74
        0x00002084:    4812        .H      LDR      r0,[pc,#72] ; [0x20d0] = 0x50000200
        0x00002086:    6900        .i      LDR      r0,[r0,#0x10]
        0x00002088:    0740        @.      LSLS     r0,r0,#29
        0x0000208a:    0f40        @.      LSRS     r0,r0,#29
        0x0000208c:    2801        .(      CMP      r0,#1
        0x0000208e:    d101        ..      BNE      0x2094 ; DrvSYS_GetHCLKFreq + 36
        0x00002090:    03c5        ..      LSLS     r5,r0,#15
        0x00002092:    e012        ..      B        0x20ba ; DrvSYS_GetHCLKFreq + 74
        0x00002094:    480e        .H      LDR      r0,[pc,#56] ; [0x20d0] = 0x50000200
        0x00002096:    6900        .i      LDR      r0,[r0,#0x10]
        0x00002098:    0740        @.      LSLS     r0,r0,#29
        0x0000209a:    0f40        @.      LSRS     r0,r0,#29
        0x0000209c:    2802        .(      CMP      r0,#2
        0x0000209e:    d103        ..      BNE      0x20a8 ; DrvSYS_GetHCLKFreq + 56
        0x000020a0:    f000f81e    ....    BL       DrvSYS_GetPLLClockFreq ; 0x20e0
        0x000020a4:    4605        .F      MOV      r5,r0
        0x000020a6:    e008        ..      B        0x20ba ; DrvSYS_GetHCLKFreq + 74
        0x000020a8:    4809        .H      LDR      r0,[pc,#36] ; [0x20d0] = 0x50000200
        0x000020aa:    6900        .i      LDR      r0,[r0,#0x10]
        0x000020ac:    0740        @.      LSLS     r0,r0,#29
        0x000020ae:    0f40        @.      LSRS     r0,r0,#29
        0x000020b0:    2803        .(      CMP      r0,#3
        0x000020b2:    d101        ..      BNE      0x20b8 ; DrvSYS_GetHCLKFreq + 72
        0x000020b4:    4d08        .M      LDR      r5,[pc,#32] ; [0x20d8] = 0x2710
        0x000020b6:    e000        ..      B        0x20ba ; DrvSYS_GetHCLKFreq + 74
        0x000020b8:    4d08        .M      LDR      r5,[pc,#32] ; [0x20dc] = 0x1518000
        0x000020ba:    4805        .H      LDR      r0,[pc,#20] ; [0x20d0] = 0x50000200
        0x000020bc:    6980        .i      LDR      r0,[r0,#0x18]
        0x000020be:    0700        ..      LSLS     r0,r0,#28
        0x000020c0:    0f00        ..      LSRS     r0,r0,#28
        0x000020c2:    1c44        D.      ADDS     r4,r0,#1
        0x000020c4:    4621        !F      MOV      r1,r4
        0x000020c6:    4628        (F      MOV      r0,r5
        0x000020c8:    f7fef99a    ....    BL       __aeabi_uidiv ; 0x400
        0x000020cc:    bd70        p.      POP      {r4-r6,pc}
    $d
        0x000020ce:    0000        ..      DCW    0
        0x000020d0:    50000200    ...P    DCD    1342177792
        0x000020d4:    00b71b00    ....    DCD    12000000
        0x000020d8:    00002710    .'..    DCD    10000
        0x000020dc:    01518000    ..Q.    DCD    22118400
    $t
    i.DrvSYS_GetPLLClockFreq
    DrvSYS_GetPLLClockFreq
        0x000020e0:    b57f        ..      PUSH     {r0-r6,lr}
        0x000020e2:    2500        .%      MOVS     r5,#0
        0x000020e4:    4b18        .K      LDR      r3,[pc,#96] ; [0x2148] = 0x3b68
        0x000020e6:    cb0f        ..      LDM      r3,{r0-r3}
        0x000020e8:    466c        lF      MOV      r4,sp
        0x000020ea:    c40f        ..      STM      r4!,{r0-r3}
        0x000020ec:    4817        .H      LDR      r0,[pc,#92] ; [0x214c] = 0x50000200
        0x000020ee:    6a00        .j      LDR      r0,[r0,#0x20]
        0x000020f0:    0300        ..      LSLS     r0,r0,#12
        0x000020f2:    0fc0        ..      LSRS     r0,r0,#31
        0x000020f4:    2800        .(      CMP      r0,#0
        0x000020f6:    d001        ..      BEQ      0x20fc ; DrvSYS_GetPLLClockFreq + 28
        0x000020f8:    4c15        .L      LDR      r4,[pc,#84] ; [0x2150] = 0x1518000
        0x000020fa:    e000        ..      B        0x20fe ; DrvSYS_GetPLLClockFreq + 30
        0x000020fc:    4c15        .L      LDR      r4,[pc,#84] ; [0x2154] = 0xb71b00
        0x000020fe:    4813        .H      LDR      r0,[pc,#76] ; [0x214c] = 0x50000200
        0x00002100:    6a00        .j      LDR      r0,[r0,#0x20]
        0x00002102:    03c0        ..      LSLS     r0,r0,#15
        0x00002104:    0fc0        ..      LSRS     r0,r0,#31
        0x00002106:    2800        .(      CMP      r0,#0
        0x00002108:    d001        ..      BEQ      0x210e ; DrvSYS_GetPLLClockFreq + 46
        0x0000210a:    2500        .%      MOVS     r5,#0
        0x0000210c:    e019        ..      B        0x2142 ; DrvSYS_GetPLLClockFreq + 98
        0x0000210e:    4a0f        .J      LDR      r2,[pc,#60] ; [0x214c] = 0x50000200
        0x00002110:    6a12        .j      LDR      r2,[r2,#0x20]
        0x00002112:    0492        ..      LSLS     r2,r2,#18
        0x00002114:    0ed2        ..      LSRS     r2,r2,#27
        0x00002116:    1c91        ..      ADDS     r1,r2,#2
        0x00002118:    4a0c        .J      LDR      r2,[pc,#48] ; [0x214c] = 0x50000200
        0x0000211a:    6a12        .j      LDR      r2,[r2,#0x20]
        0x0000211c:    05d2        ..      LSLS     r2,r2,#23
        0x0000211e:    0dd2        ..      LSRS     r2,r2,#23
        0x00002120:    1c92        ..      ADDS     r2,r2,#2
        0x00002122:    4362        bC      MULS     r2,r4,r2
        0x00002124:    4610        .F      MOV      r0,r2
        0x00002126:    f7fef96b    ..k.    BL       __aeabi_uidiv ; 0x400
        0x0000212a:    4606        .F      MOV      r6,r0
        0x0000212c:    4807        .H      LDR      r0,[pc,#28] ; [0x214c] = 0x50000200
        0x0000212e:    6a00        .j      LDR      r0,[r0,#0x20]
        0x00002130:    0400        ..      LSLS     r0,r0,#16
        0x00002132:    0f80        ..      LSRS     r0,r0,#30
        0x00002134:    0080        ..      LSLS     r0,r0,#2
        0x00002136:    466a        jF      MOV      r2,sp
        0x00002138:    5811        .X      LDR      r1,[r2,r0]
        0x0000213a:    4630        0F      MOV      r0,r6
        0x0000213c:    f7fef960    ..`.    BL       __aeabi_uidiv ; 0x400
        0x00002140:    4605        .F      MOV      r5,r0
        0x00002142:    4628        (F      MOV      r0,r5
        0x00002144:    b004        ..      ADD      sp,sp,#0x10
        0x00002146:    bd70        p.      POP      {r4-r6,pc}
    $d
        0x00002148:    00003b68    h;..    DCD    15208
        0x0000214c:    50000200    ...P    DCD    1342177792
        0x00002150:    01518000    ..Q.    DCD    22118400
        0x00002154:    00b71b00    ....    DCD    12000000
    $t
    i.DrvSYS_GetPLLContent
    DrvSYS_GetPLLContent
        0x00002158:    b5f3        ..      PUSH     {r0,r1,r4-r7,lr}
        0x0000215a:    b083        ..      SUB      sp,sp,#0xc
        0x0000215c:    460c        .F      MOV      r4,r1
        0x0000215e:    4828        (H      LDR      r0,[pc,#160] ; [0x2200] = 0xb71b00
        0x00002160:    9002        ..      STR      r0,[sp,#8]
        0x00002162:    2000        .       MOVS     r0,#0
        0x00002164:    9001        ..      STR      r0,[sp,#4]
        0x00002166:    4827        'H      LDR      r0,[pc,#156] ; [0x2204] = 0xbebc200
        0x00002168:    4284        .B      CMP      r4,r0
        0x0000216a:    d804        ..      BHI      0x2176 ; DrvSYS_GetPLLContent + 30
        0x0000216c:    1040        @.      ASRS     r0,r0,#1
        0x0000216e:    4284        .B      CMP      r4,r0
        0x00002170:    d901        ..      BLS      0x2176 ; DrvSYS_GetPLLContent + 30
        0x00002172:    2700        .'      MOVS     r7,#0
        0x00002174:    e014        ..      B        0x21a0 ; DrvSYS_GetPLLContent + 72
        0x00002176:    4824        $H      LDR      r0,[pc,#144] ; [0x2208] = 0x5f5e100
        0x00002178:    4284        .B      CMP      r4,r0
        0x0000217a:    d805        ..      BHI      0x2188 ; DrvSYS_GetPLLContent + 48
        0x0000217c:    1040        @.      ASRS     r0,r0,#1
        0x0000217e:    4284        .B      CMP      r4,r0
        0x00002180:    d902        ..      BLS      0x2188 ; DrvSYS_GetPLLContent + 48
        0x00002182:    2701        .'      MOVS     r7,#1
        0x00002184:    0064        d.      LSLS     r4,r4,#1
        0x00002186:    e00b        ..      B        0x21a0 ; DrvSYS_GetPLLContent + 72
        0x00002188:    4820         H      LDR      r0,[pc,#128] ; [0x220c] = 0x2faf080
        0x0000218a:    4284        .B      CMP      r4,r0
        0x0000218c:    d805        ..      BHI      0x219a ; DrvSYS_GetPLLContent + 66
        0x0000218e:    1040        @.      ASRS     r0,r0,#1
        0x00002190:    4284        .B      CMP      r4,r0
        0x00002192:    d302        ..      BCC      0x219a ; DrvSYS_GetPLLContent + 66
        0x00002194:    2703        .'      MOVS     r7,#3
        0x00002196:    00a4        ..      LSLS     r4,r4,#2
        0x00002198:    e002        ..      B        0x21a0 ; DrvSYS_GetPLLContent + 72
        0x0000219a:    481d        .H      LDR      r0,[pc,#116] ; [0x2210] = 0xc22e
        0x0000219c:    b005        ..      ADD      sp,sp,#0x14
        0x0000219e:    bdf0        ..      POP      {r4-r7,pc}
        0x000021a0:    9803        ..      LDR      r0,[sp,#0xc]
        0x000021a2:    2800        .(      CMP      r0,#0
        0x000021a4:    d102        ..      BNE      0x21ac ; DrvSYS_GetPLLContent + 84
        0x000021a6:    4816        .H      LDR      r0,[pc,#88] ; [0x2200] = 0xb71b00
        0x000021a8:    9002        ..      STR      r0,[sp,#8]
        0x000021aa:    e004        ..      B        0x21b6 ; DrvSYS_GetPLLContent + 94
        0x000021ac:    9803        ..      LDR      r0,[sp,#0xc]
        0x000021ae:    2801        .(      CMP      r0,#1
        0x000021b0:    d101        ..      BNE      0x21b6 ; DrvSYS_GetPLLContent + 94
        0x000021b2:    4818        .H      LDR      r0,[pc,#96] ; [0x2214] = 0x1518000
        0x000021b4:    9002        ..      STR      r0,[sp,#8]
        0x000021b6:    4918        .I      LDR      r1,[pc,#96] ; [0x2218] = 0xf4240
        0x000021b8:    4620         F      MOV      r0,r4
        0x000021ba:    f7fef921    ..!.    BL       __aeabi_uidiv ; 0x400
        0x000021be:    4606        .F      MOV      r6,r0
        0x000021c0:    4915        .I      LDR      r1,[pc,#84] ; [0x2218] = 0xf4240
        0x000021c2:    9802        ..      LDR      r0,[sp,#8]
        0x000021c4:    f7fef91c    ....    BL       __aeabi_uidiv ; 0x400
        0x000021c8:    4605        .F      MOV      r5,r0
        0x000021ca:    e00e        ..      B        0x21ea ; DrvSYS_GetPLLContent + 146
        0x000021cc:    07e8        ..      LSLS     r0,r5,#31
        0x000021ce:    0fc0        ..      LSRS     r0,r0,#31
        0x000021d0:    2800        .(      CMP      r0,#0
        0x000021d2:    d107        ..      BNE      0x21e4 ; DrvSYS_GetPLLContent + 140
        0x000021d4:    07f0        ..      LSLS     r0,r6,#31
        0x000021d6:    0fc0        ..      LSRS     r0,r0,#31
        0x000021d8:    2800        .(      CMP      r0,#0
        0x000021da:    d103        ..      BNE      0x21e4 ; DrvSYS_GetPLLContent + 140
        0x000021dc:    2d02        .-      CMP      r5,#2
        0x000021de:    d001        ..      BEQ      0x21e4 ; DrvSYS_GetPLLContent + 140
        0x000021e0:    2e02        ..      CMP      r6,#2
        0x000021e2:    d100        ..      BNE      0x21e6 ; DrvSYS_GetPLLContent + 142
        0x000021e4:    e002        ..      B        0x21ec ; DrvSYS_GetPLLContent + 148
        0x000021e6:    086d        m.      LSRS     r5,r5,#1
        0x000021e8:    0876        v.      LSRS     r6,r6,#1
        0x000021ea:    e7ef        ..      B        0x21cc ; DrvSYS_GetPLLContent + 116
        0x000021ec:    bf00        ..      NOP      
        0x000021ee:    03b8        ..      LSLS     r0,r7,#14
        0x000021f0:    1ea9        ..      SUBS     r1,r5,#2
        0x000021f2:    0249        I.      LSLS     r1,r1,#9
        0x000021f4:    4308        .C      ORRS     r0,r0,r1
        0x000021f6:    1eb1        ..      SUBS     r1,r6,#2
        0x000021f8:    4308        .C      ORRS     r0,r0,r1
        0x000021fa:    9001        ..      STR      r0,[sp,#4]
        0x000021fc:    9801        ..      LDR      r0,[sp,#4]
        0x000021fe:    e7cd        ..      B        0x219c ; DrvSYS_GetPLLContent + 68
    $d
        0x00002200:    00b71b00    ....    DCD    12000000
        0x00002204:    0bebc200    ....    DCD    200000000
        0x00002208:    05f5e100    ....    DCD    100000000
        0x0000220c:    02faf080    ....    DCD    50000000
        0x00002210:    0000c22e    ....    DCD    49710
        0x00002214:    01518000    ..Q.    DCD    22118400
        0x00002218:    000f4240    @B..    DCD    1000000
    $t
    i.DrvSYS_IsProtectedRegLocked
    DrvSYS_IsProtectedRegLocked
        0x0000221c:    4802        .H      LDR      r0,[pc,#8] ; [0x2228] = 0x50000100
        0x0000221e:    6800        .h      LDR      r0,[r0,#0]
        0x00002220:    07c0        ..      LSLS     r0,r0,#31
        0x00002222:    0fc0        ..      LSRS     r0,r0,#31
        0x00002224:    4770        pG      BX       lr
    $d
        0x00002226:    0000        ..      DCW    0
        0x00002228:    50000100    ...P    DCD    1342177536
    $t
    i.DrvSYS_Open
    DrvSYS_Open
        0x0000222c:    b5f8        ..      PUSH     {r3-r7,lr}
        0x0000222e:    4604        .F      MOV      r4,r0
        0x00002230:    2500        .%      MOVS     r5,#0
        0x00002232:    482a        *H      LDR      r0,[pc,#168] ; [0x22dc] = 0x2faf080
        0x00002234:    4284        .B      CMP      r4,r0
        0x00002236:    d802        ..      BHI      0x223e ; DrvSYS_Open + 18
        0x00002238:    1040        @.      ASRS     r0,r0,#1
        0x0000223a:    4284        .B      CMP      r4,r0
        0x0000223c:    d201        ..      BCS      0x2242 ; DrvSYS_Open + 22
        0x0000223e:    4828        (H      LDR      r0,[pc,#160] ; [0x22e0] = 0xffff9606
        0x00002240:    bdf8        ..      POP      {r3-r7,pc}
        0x00002242:    f7ffffeb    ....    BL       DrvSYS_IsProtectedRegLocked ; 0x221c
        0x00002246:    2800        .(      CMP      r0,#0
        0x00002248:    d102        ..      BNE      0x2250 ; DrvSYS_Open + 36
        0x0000224a:    4825        %H      LDR      r0,[pc,#148] ; [0x22e0] = 0xffff9606
        0x0000224c:    1c40        @.      ADDS     r0,r0,#1
        0x0000224e:    e7f7        ..      B        0x2240 ; DrvSYS_Open + 20
        0x00002250:    4824        $H      LDR      r0,[pc,#144] ; [0x22e4] = 0x50000200
        0x00002252:    6a00        .j      LDR      r0,[r0,#0x20]
        0x00002254:    0300        ..      LSLS     r0,r0,#12
        0x00002256:    0fc0        ..      LSRS     r0,r0,#31
        0x00002258:    2800        .(      CMP      r0,#0
        0x0000225a:    d108        ..      BNE      0x226e ; DrvSYS_Open + 66
        0x0000225c:    4821        !H      LDR      r0,[pc,#132] ; [0x22e4] = 0x50000200
        0x0000225e:    6800        .h      LDR      r0,[r0,#0]
        0x00002260:    0840        @.      LSRS     r0,r0,#1
        0x00002262:    0040        @.      LSLS     r0,r0,#1
        0x00002264:    1c40        @.      ADDS     r0,r0,#1
        0x00002266:    491f        .I      LDR      r1,[pc,#124] ; [0x22e4] = 0x50000200
        0x00002268:    6008        .`      STR      r0,[r1,#0]
        0x0000226a:    2500        .%      MOVS     r5,#0
        0x0000226c:    e007        ..      B        0x227e ; DrvSYS_Open + 82
        0x0000226e:    481d        .H      LDR      r0,[pc,#116] ; [0x22e4] = 0x50000200
        0x00002270:    6800        .h      LDR      r0,[r0,#0]
        0x00002272:    2104        .!      MOVS     r1,#4
        0x00002274:    4388        .C      BICS     r0,r0,r1
        0x00002276:    1d00        ..      ADDS     r0,r0,#4
        0x00002278:    491a        .I      LDR      r1,[pc,#104] ; [0x22e4] = 0x50000200
        0x0000227a:    6008        .`      STR      r0,[r1,#0]
        0x0000227c:    2501        .%      MOVS     r5,#1
        0x0000227e:    4621        !F      MOV      r1,r4
        0x00002280:    4628        (F      MOV      r0,r5
        0x00002282:    f7ffff69    ..i.    BL       DrvSYS_GetPLLContent ; 0x2158
        0x00002286:    4606        .F      MOV      r6,r0
        0x00002288:    2000        .       MOVS     r0,#0
        0x0000228a:    9000        ..      STR      r0,[sp,#0]
        0x0000228c:    e002        ..      B        0x2294 ; DrvSYS_Open + 104
        0x0000228e:    9800        ..      LDR      r0,[sp,#0]
        0x00002290:    1c40        @.      ADDS     r0,r0,#1
        0x00002292:    9000        ..      STR      r0,[sp,#0]
        0x00002294:    4914        .I      LDR      r1,[pc,#80] ; [0x22e8] = 0x2710
        0x00002296:    9800        ..      LDR      r0,[sp,#0]
        0x00002298:    4288        .B      CMP      r0,r1
        0x0000229a:    d3f8        ..      BCC      0x228e ; DrvSYS_Open + 98
        0x0000229c:    4630        0F      MOV      r0,r6
        0x0000229e:    f000f881    ....    BL       DrvSYS_SetPLLContent ; 0x23a4
        0x000022a2:    4810        .H      LDR      r0,[pc,#64] ; [0x22e4] = 0x50000200
        0x000022a4:    6a00        .j      LDR      r0,[r0,#0x20]
        0x000022a6:    2101        .!      MOVS     r1,#1
        0x000022a8:    0489        ..      LSLS     r1,r1,#18
        0x000022aa:    4388        .C      BICS     r0,r0,r1
        0x000022ac:    490d        .I      LDR      r1,[pc,#52] ; [0x22e4] = 0x50000200
        0x000022ae:    6208        .b      STR      r0,[r1,#0x20]
        0x000022b0:    4608        .F      MOV      r0,r1
        0x000022b2:    6a00        .j      LDR      r0,[r0,#0x20]
        0x000022b4:    01c9        ..      LSLS     r1,r1,#7
        0x000022b6:    4388        .C      BICS     r0,r0,r1
        0x000022b8:    490a        .I      LDR      r1,[pc,#40] ; [0x22e4] = 0x50000200
        0x000022ba:    6208        .b      STR      r0,[r1,#0x20]
        0x000022bc:    2000        .       MOVS     r0,#0
        0x000022be:    9000        ..      STR      r0,[sp,#0]
        0x000022c0:    e002        ..      B        0x22c8 ; DrvSYS_Open + 156
        0x000022c2:    9800        ..      LDR      r0,[sp,#0]
        0x000022c4:    1c40        @.      ADDS     r0,r0,#1
        0x000022c6:    9000        ..      STR      r0,[sp,#0]
        0x000022c8:    4907        .I      LDR      r1,[pc,#28] ; [0x22e8] = 0x2710
        0x000022ca:    9800        ..      LDR      r0,[sp,#0]
        0x000022cc:    4288        .B      CMP      r0,r1
        0x000022ce:    d3f8        ..      BCC      0x22c2 ; DrvSYS_Open + 150
        0x000022d0:    2002        .       MOVS     r0,#2
        0x000022d2:    f000f80b    ....    BL       DrvSYS_SelectHCLKSource ; 0x22ec
        0x000022d6:    2000        .       MOVS     r0,#0
        0x000022d8:    e7b2        ..      B        0x2240 ; DrvSYS_Open + 20
    $d
        0x000022da:    0000        ..      DCW    0
        0x000022dc:    02faf080    ....    DCD    50000000
        0x000022e0:    ffff9606    ....    DCD    4294940166
        0x000022e4:    50000200    ...P    DCD    1342177792
        0x000022e8:    00002710    .'..    DCD    10000
    $t
    i.DrvSYS_SelectHCLKSource
    DrvSYS_SelectHCLKSource
        0x000022ec:    b510        ..      PUSH     {r4,lr}
        0x000022ee:    4604        .F      MOV      r4,r0
        0x000022f0:    2c07        .,      CMP      r4,#7
        0x000022f2:    dc03        ..      BGT      0x22fc ; DrvSYS_SelectHCLKSource + 16
        0x000022f4:    2c03        .,      CMP      r4,#3
        0x000022f6:    dd03        ..      BLE      0x2300 ; DrvSYS_SelectHCLKSource + 20
        0x000022f8:    2c07        .,      CMP      r4,#7
        0x000022fa:    da01        ..      BGE      0x2300 ; DrvSYS_SelectHCLKSource + 20
        0x000022fc:    4807        .H      LDR      r0,[pc,#28] ; [0x231c] = 0xffff9603
        0x000022fe:    bd10        ..      POP      {r4,pc}
        0x00002300:    4807        .H      LDR      r0,[pc,#28] ; [0x2320] = 0x50000200
        0x00002302:    6900        .i      LDR      r0,[r0,#0x10]
        0x00002304:    08c0        ..      LSRS     r0,r0,#3
        0x00002306:    00c0        ..      LSLS     r0,r0,#3
        0x00002308:    0761        a.      LSLS     r1,r4,#29
        0x0000230a:    0f49        I.      LSRS     r1,r1,#29
        0x0000230c:    4308        .C      ORRS     r0,r0,r1
        0x0000230e:    4904        .I      LDR      r1,[pc,#16] ; [0x2320] = 0x50000200
        0x00002310:    6108        .a      STR      r0,[r1,#0x10]
        0x00002312:    f000fbdb    ....    BL       SystemCoreClockUpdate ; 0x2acc
        0x00002316:    2000        .       MOVS     r0,#0
        0x00002318:    e7f1        ..      B        0x22fe ; DrvSYS_SelectHCLKSource + 18
    $d
        0x0000231a:    0000        ..      DCW    0
        0x0000231c:    ffff9603    ....    DCD    4294940163
        0x00002320:    50000200    ...P    DCD    1342177792
    $t
    i.DrvSYS_SetOscCtrl
    DrvSYS_SetOscCtrl
        0x00002324:    b510        ..      PUSH     {r4,lr}
        0x00002326:    4602        .F      MOV      r2,r0
        0x00002328:    2a00        .*      CMP      r2,#0
        0x0000232a:    d006        ..      BEQ      0x233a ; DrvSYS_SetOscCtrl + 22
        0x0000232c:    2a01        .*      CMP      r2,#1
        0x0000232e:    d00e        ..      BEQ      0x234e ; DrvSYS_SetOscCtrl + 42
        0x00002330:    2a02        .*      CMP      r2,#2
        0x00002332:    d017        ..      BEQ      0x2364 ; DrvSYS_SetOscCtrl + 64
        0x00002334:    2a03        .*      CMP      r2,#3
        0x00002336:    d12b        +.      BNE      0x2390 ; DrvSYS_SetOscCtrl + 108
        0x00002338:    e01f        ..      B        0x237a ; DrvSYS_SetOscCtrl + 86
        0x0000233a:    4818        .H      LDR      r0,[pc,#96] ; [0x239c] = 0x50000200
        0x0000233c:    6800        .h      LDR      r0,[r0,#0]
        0x0000233e:    0840        @.      LSRS     r0,r0,#1
        0x00002340:    0040        @.      LSLS     r0,r0,#1
        0x00002342:    07cb        ..      LSLS     r3,r1,#31
        0x00002344:    0fdb        ..      LSRS     r3,r3,#31
        0x00002346:    4318        .C      ORRS     r0,r0,r3
        0x00002348:    4b14        .K      LDR      r3,[pc,#80] ; [0x239c] = 0x50000200
        0x0000234a:    6018        .`      STR      r0,[r3,#0]
        0x0000234c:    e022        ".      B        0x2394 ; DrvSYS_SetOscCtrl + 112
        0x0000234e:    4813        .H      LDR      r0,[pc,#76] ; [0x239c] = 0x50000200
        0x00002350:    6800        .h      LDR      r0,[r0,#0]
        0x00002352:    2302        .#      MOVS     r3,#2
        0x00002354:    4398        .C      BICS     r0,r0,r3
        0x00002356:    004b        K.      LSLS     r3,r1,#1
        0x00002358:    2402        .$      MOVS     r4,#2
        0x0000235a:    4023        #@      ANDS     r3,r3,r4
        0x0000235c:    4318        .C      ORRS     r0,r0,r3
        0x0000235e:    4b0f        .K      LDR      r3,[pc,#60] ; [0x239c] = 0x50000200
        0x00002360:    6018        .`      STR      r0,[r3,#0]
        0x00002362:    e017        ..      B        0x2394 ; DrvSYS_SetOscCtrl + 112
        0x00002364:    480d        .H      LDR      r0,[pc,#52] ; [0x239c] = 0x50000200
        0x00002366:    6800        .h      LDR      r0,[r0,#0]
        0x00002368:    2304        .#      MOVS     r3,#4
        0x0000236a:    4398        .C      BICS     r0,r0,r3
        0x0000236c:    008b        ..      LSLS     r3,r1,#2
        0x0000236e:    2404        .$      MOVS     r4,#4
        0x00002370:    4023        #@      ANDS     r3,r3,r4
        0x00002372:    4318        .C      ORRS     r0,r0,r3
        0x00002374:    4b09        .K      LDR      r3,[pc,#36] ; [0x239c] = 0x50000200
        0x00002376:    6018        .`      STR      r0,[r3,#0]
        0x00002378:    e00c        ..      B        0x2394 ; DrvSYS_SetOscCtrl + 112
        0x0000237a:    4808        .H      LDR      r0,[pc,#32] ; [0x239c] = 0x50000200
        0x0000237c:    6800        .h      LDR      r0,[r0,#0]
        0x0000237e:    2308        .#      MOVS     r3,#8
        0x00002380:    4398        .C      BICS     r0,r0,r3
        0x00002382:    00cb        ..      LSLS     r3,r1,#3
        0x00002384:    2408        .$      MOVS     r4,#8
        0x00002386:    4023        #@      ANDS     r3,r3,r4
        0x00002388:    4318        .C      ORRS     r0,r0,r3
        0x0000238a:    4b04        .K      LDR      r3,[pc,#16] ; [0x239c] = 0x50000200
        0x0000238c:    6018        .`      STR      r0,[r3,#0]
        0x0000238e:    e001        ..      B        0x2394 ; DrvSYS_SetOscCtrl + 112
        0x00002390:    4803        .H      LDR      r0,[pc,#12] ; [0x23a0] = 0xffff9603
        0x00002392:    bd10        ..      POP      {r4,pc}
        0x00002394:    bf00        ..      NOP      
        0x00002396:    2000        .       MOVS     r0,#0
        0x00002398:    e7fb        ..      B        0x2392 ; DrvSYS_SetOscCtrl + 110
    $d
        0x0000239a:    0000        ..      DCW    0
        0x0000239c:    50000200    ...P    DCD    1342177792
        0x000023a0:    ffff9603    ....    DCD    4294940163
    $t
    i.DrvSYS_SetPLLContent
    DrvSYS_SetPLLContent
        0x000023a4:    4911        .I      LDR      r1,[pc,#68] ; [0x23ec] = 0x50000200
        0x000023a6:    6a09        .j      LDR      r1,[r1,#0x20]
        0x000023a8:    0a49        I.      LSRS     r1,r1,#9
        0x000023aa:    0249        I.      LSLS     r1,r1,#9
        0x000023ac:    05c2        ..      LSLS     r2,r0,#23
        0x000023ae:    0dd2        ..      LSRS     r2,r2,#23
        0x000023b0:    4311        .C      ORRS     r1,r1,r2
        0x000023b2:    4a0e        .J      LDR      r2,[pc,#56] ; [0x23ec] = 0x50000200
        0x000023b4:    6211        .b      STR      r1,[r2,#0x20]
        0x000023b6:    4611        .F      MOV      r1,r2
        0x000023b8:    6a09        .j      LDR      r1,[r1,#0x20]
        0x000023ba:    221f        ."      MOVS     r2,#0x1f
        0x000023bc:    0252        R.      LSLS     r2,r2,#9
        0x000023be:    4391        .C      BICS     r1,r1,r2
        0x000023c0:    0a42        B.      LSRS     r2,r0,#9
        0x000023c2:    0252        R.      LSLS     r2,r2,#9
        0x000023c4:    231f        .#      MOVS     r3,#0x1f
        0x000023c6:    025b        [.      LSLS     r3,r3,#9
        0x000023c8:    401a        .@      ANDS     r2,r2,r3
        0x000023ca:    4311        .C      ORRS     r1,r1,r2
        0x000023cc:    4a07        .J      LDR      r2,[pc,#28] ; [0x23ec] = 0x50000200
        0x000023ce:    6211        .b      STR      r1,[r2,#0x20]
        0x000023d0:    4611        .F      MOV      r1,r2
        0x000023d2:    6a09        .j      LDR      r1,[r1,#0x20]
        0x000023d4:    2203        ."      MOVS     r2,#3
        0x000023d6:    0392        ..      LSLS     r2,r2,#14
        0x000023d8:    4391        .C      BICS     r1,r1,r2
        0x000023da:    0b82        ..      LSRS     r2,r0,#14
        0x000023dc:    0392        ..      LSLS     r2,r2,#14
        0x000023de:    2303        .#      MOVS     r3,#3
        0x000023e0:    039b        ..      LSLS     r3,r3,#14
        0x000023e2:    401a        .@      ANDS     r2,r2,r3
        0x000023e4:    4311        .C      ORRS     r1,r1,r2
        0x000023e6:    4a01        .J      LDR      r2,[pc,#4] ; [0x23ec] = 0x50000200
        0x000023e8:    6211        .b      STR      r1,[r2,#0x20]
        0x000023ea:    4770        pG      BX       lr
    $d
        0x000023ec:    50000200    ...P    DCD    1342177792
    $t
    i.DrvUART_Open
    DrvUART_Open
        0x000023f0:    b5f8        ..      PUSH     {r3-r7,lr}
        0x000023f2:    4606        .F      MOV      r6,r0
        0x000023f4:    460c        .F      MOV      r4,r1
        0x000023f6:    2e00        ..      CMP      r6,#0
        0x000023f8:    d009        ..      BEQ      0x240e ; DrvUART_Open + 30
        0x000023fa:    2001        .       MOVS     r0,#1
        0x000023fc:    0500        ..      LSLS     r0,r0,#20
        0x000023fe:    4286        .B      CMP      r6,r0
        0x00002400:    d005        ..      BEQ      0x240e ; DrvUART_Open + 30
        0x00002402:    2041        A       MOVS     r0,#0x41
        0x00002404:    0380        ..      LSLS     r0,r0,#14
        0x00002406:    4286        .B      CMP      r6,r0
        0x00002408:    d001        ..      BEQ      0x240e ; DrvUART_Open + 30
        0x0000240a:    4890        .H      LDR      r0,[pc,#576] ; [0x264c] = 0xffff9802
        0x0000240c:    bdf8        ..      POP      {r3-r7,pc}
        0x0000240e:    79a0        .y      LDRB     r0,[r4,#6]
        0x00002410:    2800        .(      CMP      r0,#0
        0x00002412:    d00e        ..      BEQ      0x2432 ; DrvUART_Open + 66
        0x00002414:    79a0        .y      LDRB     r0,[r4,#6]
        0x00002416:    2803        .(      CMP      r0,#3
        0x00002418:    d00b        ..      BEQ      0x2432 ; DrvUART_Open + 66
        0x0000241a:    79a0        .y      LDRB     r0,[r4,#6]
        0x0000241c:    2801        .(      CMP      r0,#1
        0x0000241e:    d008        ..      BEQ      0x2432 ; DrvUART_Open + 66
        0x00002420:    79a0        .y      LDRB     r0,[r4,#6]
        0x00002422:    2805        .(      CMP      r0,#5
        0x00002424:    d005        ..      BEQ      0x2432 ; DrvUART_Open + 66
        0x00002426:    79a0        .y      LDRB     r0,[r4,#6]
        0x00002428:    2807        .(      CMP      r0,#7
        0x0000242a:    d002        ..      BEQ      0x2432 ; DrvUART_Open + 66
        0x0000242c:    4887        .H      LDR      r0,[pc,#540] ; [0x264c] = 0xffff9802
        0x0000242e:    1c40        @.      ADDS     r0,r0,#1
        0x00002430:    e7ec        ..      B        0x240c ; DrvUART_Open + 28
        0x00002432:    7920         y      LDRB     r0,[r4,#4]
        0x00002434:    2800        .(      CMP      r0,#0
        0x00002436:    d00b        ..      BEQ      0x2450 ; DrvUART_Open + 96
        0x00002438:    7920         y      LDRB     r0,[r4,#4]
        0x0000243a:    2801        .(      CMP      r0,#1
        0x0000243c:    d008        ..      BEQ      0x2450 ; DrvUART_Open + 96
        0x0000243e:    7920         y      LDRB     r0,[r4,#4]
        0x00002440:    2802        .(      CMP      r0,#2
        0x00002442:    d005        ..      BEQ      0x2450 ; DrvUART_Open + 96
        0x00002444:    7920         y      LDRB     r0,[r4,#4]
        0x00002446:    2803        .(      CMP      r0,#3
        0x00002448:    d002        ..      BEQ      0x2450 ; DrvUART_Open + 96
        0x0000244a:    4880        .H      LDR      r0,[pc,#512] ; [0x264c] = 0xffff9802
        0x0000244c:    1c80        ..      ADDS     r0,r0,#2
        0x0000244e:    e7dd        ..      B        0x240c ; DrvUART_Open + 28
        0x00002450:    7960        `y      LDRB     r0,[r4,#5]
        0x00002452:    2800        .(      CMP      r0,#0
        0x00002454:    d008        ..      BEQ      0x2468 ; DrvUART_Open + 120
        0x00002456:    7960        `y      LDRB     r0,[r4,#5]
        0x00002458:    2801        .(      CMP      r0,#1
        0x0000245a:    d005        ..      BEQ      0x2468 ; DrvUART_Open + 120
        0x0000245c:    7960        `y      LDRB     r0,[r4,#5]
        0x0000245e:    2801        .(      CMP      r0,#1
        0x00002460:    d002        ..      BEQ      0x2468 ; DrvUART_Open + 120
        0x00002462:    487a        zH      LDR      r0,[pc,#488] ; [0x264c] = 0xffff9802
        0x00002464:    1cc0        ..      ADDS     r0,r0,#3
        0x00002466:    e7d1        ..      B        0x240c ; DrvUART_Open + 28
        0x00002468:    79e0        .y      LDRB     r0,[r4,#7]
        0x0000246a:    2800        .(      CMP      r0,#0
        0x0000246c:    d014        ..      BEQ      0x2498 ; DrvUART_Open + 168
        0x0000246e:    79e0        .y      LDRB     r0,[r4,#7]
        0x00002470:    2801        .(      CMP      r0,#1
        0x00002472:    d011        ..      BEQ      0x2498 ; DrvUART_Open + 168
        0x00002474:    79e0        .y      LDRB     r0,[r4,#7]
        0x00002476:    2802        .(      CMP      r0,#2
        0x00002478:    d00e        ..      BEQ      0x2498 ; DrvUART_Open + 168
        0x0000247a:    79e0        .y      LDRB     r0,[r4,#7]
        0x0000247c:    2803        .(      CMP      r0,#3
        0x0000247e:    d00b        ..      BEQ      0x2498 ; DrvUART_Open + 168
        0x00002480:    79e0        .y      LDRB     r0,[r4,#7]
        0x00002482:    2804        .(      CMP      r0,#4
        0x00002484:    d008        ..      BEQ      0x2498 ; DrvUART_Open + 168
        0x00002486:    79e0        .y      LDRB     r0,[r4,#7]
        0x00002488:    2805        .(      CMP      r0,#5
        0x0000248a:    d005        ..      BEQ      0x2498 ; DrvUART_Open + 168
        0x0000248c:    79e0        .y      LDRB     r0,[r4,#7]
        0x0000248e:    2806        .(      CMP      r0,#6
        0x00002490:    d002        ..      BEQ      0x2498 ; DrvUART_Open + 168
        0x00002492:    486e        nH      LDR      r0,[pc,#440] ; [0x264c] = 0xffff9802
        0x00002494:    1d00        ..      ADDS     r0,r0,#4
        0x00002496:    e7b9        ..      B        0x240c ; DrvUART_Open + 28
        0x00002498:    2e00        ..      CMP      r6,#0
        0x0000249a:    d11a        ..      BNE      0x24d2 ; DrvUART_Open + 226
        0x0000249c:    2005        .       MOVS     r0,#5
        0x0000249e:    0700        ..      LSLS     r0,r0,#28
        0x000024a0:    68c0        .h      LDR      r0,[r0,#0xc]
        0x000024a2:    2101        .!      MOVS     r1,#1
        0x000024a4:    0409        ..      LSLS     r1,r1,#16
        0x000024a6:    4388        .C      BICS     r0,r0,r1
        0x000024a8:    1840        @.      ADDS     r0,r0,r1
        0x000024aa:    2105        .!      MOVS     r1,#5
        0x000024ac:    0709        ..      LSLS     r1,r1,#28
        0x000024ae:    60c8        .`      STR      r0,[r1,#0xc]
        0x000024b0:    4608        .F      MOV      r0,r1
        0x000024b2:    68c0        .h      LDR      r0,[r0,#0xc]
        0x000024b4:    2101        .!      MOVS     r1,#1
        0x000024b6:    0409        ..      LSLS     r1,r1,#16
        0x000024b8:    4388        .C      BICS     r0,r0,r1
        0x000024ba:    2105        .!      MOVS     r1,#5
        0x000024bc:    0709        ..      LSLS     r1,r1,#28
        0x000024be:    60c8        .`      STR      r0,[r1,#0xc]
        0x000024c0:    4863        cH      LDR      r0,[pc,#396] ; [0x2650] = 0x50000200
        0x000024c2:    6880        .h      LDR      r0,[r0,#8]
        0x000024c4:    2101        .!      MOVS     r1,#1
        0x000024c6:    0409        ..      LSLS     r1,r1,#16
        0x000024c8:    4388        .C      BICS     r0,r0,r1
        0x000024ca:    1840        @.      ADDS     r0,r0,r1
        0x000024cc:    4960        `I      LDR      r1,[pc,#384] ; [0x2650] = 0x50000200
        0x000024ce:    6088        .`      STR      r0,[r1,#8]
        0x000024d0:    e035        5.      B        0x253e ; DrvUART_Open + 334
        0x000024d2:    2001        .       MOVS     r0,#1
        0x000024d4:    0500        ..      LSLS     r0,r0,#20
        0x000024d6:    4286        .B      CMP      r6,r0
        0x000024d8:    d117        ..      BNE      0x250a ; DrvUART_Open + 282
        0x000024da:    2005        .       MOVS     r0,#5
        0x000024dc:    0700        ..      LSLS     r0,r0,#28
        0x000024de:    68c0        .h      LDR      r0,[r0,#0xc]
        0x000024e0:    10f1        ..      ASRS     r1,r6,#3
        0x000024e2:    4388        .C      BICS     r0,r0,r1
        0x000024e4:    1840        @.      ADDS     r0,r0,r1
        0x000024e6:    2105        .!      MOVS     r1,#5
        0x000024e8:    0709        ..      LSLS     r1,r1,#28
        0x000024ea:    60c8        .`      STR      r0,[r1,#0xc]
        0x000024ec:    4608        .F      MOV      r0,r1
        0x000024ee:    68c0        .h      LDR      r0,[r0,#0xc]
        0x000024f0:    10f1        ..      ASRS     r1,r6,#3
        0x000024f2:    4388        .C      BICS     r0,r0,r1
        0x000024f4:    2105        .!      MOVS     r1,#5
        0x000024f6:    0709        ..      LSLS     r1,r1,#28
        0x000024f8:    60c8        .`      STR      r0,[r1,#0xc]
        0x000024fa:    4855        UH      LDR      r0,[pc,#340] ; [0x2650] = 0x50000200
        0x000024fc:    6880        .h      LDR      r0,[r0,#8]
        0x000024fe:    10f1        ..      ASRS     r1,r6,#3
        0x00002500:    4388        .C      BICS     r0,r0,r1
        0x00002502:    1840        @.      ADDS     r0,r0,r1
        0x00002504:    4952        RI      LDR      r1,[pc,#328] ; [0x2650] = 0x50000200
        0x00002506:    6088        .`      STR      r0,[r1,#8]
        0x00002508:    e019        ..      B        0x253e ; DrvUART_Open + 334
        0x0000250a:    2005        .       MOVS     r0,#5
        0x0000250c:    0700        ..      LSLS     r0,r0,#28
        0x0000250e:    68c0        .h      LDR      r0,[r0,#0xc]
        0x00002510:    2101        .!      MOVS     r1,#1
        0x00002512:    0489        ..      LSLS     r1,r1,#18
        0x00002514:    4388        .C      BICS     r0,r0,r1
        0x00002516:    1840        @.      ADDS     r0,r0,r1
        0x00002518:    2105        .!      MOVS     r1,#5
        0x0000251a:    0709        ..      LSLS     r1,r1,#28
        0x0000251c:    60c8        .`      STR      r0,[r1,#0xc]
        0x0000251e:    4608        .F      MOV      r0,r1
        0x00002520:    68c0        .h      LDR      r0,[r0,#0xc]
        0x00002522:    2101        .!      MOVS     r1,#1
        0x00002524:    0489        ..      LSLS     r1,r1,#18
        0x00002526:    4388        .C      BICS     r0,r0,r1
        0x00002528:    2105        .!      MOVS     r1,#5
        0x0000252a:    0709        ..      LSLS     r1,r1,#28
        0x0000252c:    60c8        .`      STR      r0,[r1,#0xc]
        0x0000252e:    4848        HH      LDR      r0,[pc,#288] ; [0x2650] = 0x50000200
        0x00002530:    6880        .h      LDR      r0,[r0,#8]
        0x00002532:    2101        .!      MOVS     r1,#1
        0x00002534:    0489        ..      LSLS     r1,r1,#18
        0x00002536:    4388        .C      BICS     r0,r0,r1
        0x00002538:    1840        @.      ADDS     r0,r0,r1
        0x0000253a:    4945        EI      LDR      r1,[pc,#276] ; [0x2650] = 0x50000200
        0x0000253c:    6088        .`      STR      r0,[r1,#8]
        0x0000253e:    4845        EH      LDR      r0,[pc,#276] ; [0x2654] = 0x40050000
        0x00002540:    1835        5.      ADDS     r5,r6,r0
        0x00002542:    68a8        .h      LDR      r0,[r5,#8]
        0x00002544:    2104        .!      MOVS     r1,#4
        0x00002546:    4388        .C      BICS     r0,r0,r1
        0x00002548:    1d00        ..      ADDS     r0,r0,#4
        0x0000254a:    60a8        .`      STR      r0,[r5,#8]
        0x0000254c:    68a8        .h      LDR      r0,[r5,#8]
        0x0000254e:    2102        .!      MOVS     r1,#2
        0x00002550:    4388        .C      BICS     r0,r0,r1
        0x00002552:    1c80        ..      ADDS     r0,r0,#2
        0x00002554:    60a8        .`      STR      r0,[r5,#8]
        0x00002556:    68a8        .h      LDR      r0,[r5,#8]
        0x00002558:    21f0        .!      MOVS     r1,#0xf0
        0x0000255a:    4388        .C      BICS     r0,r0,r1
        0x0000255c:    79e1        .y      LDRB     r1,[r4,#7]
        0x0000255e:    0109        ..      LSLS     r1,r1,#4
        0x00002560:    22f0        ."      MOVS     r2,#0xf0
        0x00002562:    4011        .@      ANDS     r1,r1,r2
        0x00002564:    4308        .C      ORRS     r0,r0,r1
        0x00002566:    60a8        .`      STR      r0,[r5,#8]
        0x00002568:    68e8        .h      LDR      r0,[r5,#0xc]
        0x0000256a:    2120         !      MOVS     r1,#0x20
        0x0000256c:    4388        .C      BICS     r0,r0,r1
        0x0000256e:    79a1        .y      LDRB     r1,[r4,#6]
        0x00002570:    2204        ."      MOVS     r2,#4
        0x00002572:    4011        .@      ANDS     r1,r1,r2
        0x00002574:    0889        ..      LSRS     r1,r1,#2
        0x00002576:    0149        I.      LSLS     r1,r1,#5
        0x00002578:    2220         "      MOVS     r2,#0x20
        0x0000257a:    4011        .@      ANDS     r1,r1,r2
        0x0000257c:    4308        .C      ORRS     r0,r0,r1
        0x0000257e:    60e8        .`      STR      r0,[r5,#0xc]
        0x00002580:    68e8        .h      LDR      r0,[r5,#0xc]
        0x00002582:    2110        .!      MOVS     r1,#0x10
        0x00002584:    4388        .C      BICS     r0,r0,r1
        0x00002586:    79a1        .y      LDRB     r1,[r4,#6]
        0x00002588:    2202        ."      MOVS     r2,#2
        0x0000258a:    4011        .@      ANDS     r1,r1,r2
        0x0000258c:    0849        I.      LSRS     r1,r1,#1
        0x0000258e:    0109        ..      LSLS     r1,r1,#4
        0x00002590:    2210        ."      MOVS     r2,#0x10
        0x00002592:    4011        .@      ANDS     r1,r1,r2
        0x00002594:    4308        .C      ORRS     r0,r0,r1
        0x00002596:    60e8        .`      STR      r0,[r5,#0xc]
        0x00002598:    68e8        .h      LDR      r0,[r5,#0xc]
        0x0000259a:    2108        .!      MOVS     r1,#8
        0x0000259c:    4388        .C      BICS     r0,r0,r1
        0x0000259e:    79a1        .y      LDRB     r1,[r4,#6]
        0x000025a0:    00c9        ..      LSLS     r1,r1,#3
        0x000025a2:    2208        ."      MOVS     r2,#8
        0x000025a4:    4011        .@      ANDS     r1,r1,r2
        0x000025a6:    4308        .C      ORRS     r0,r0,r1
        0x000025a8:    60e8        .`      STR      r0,[r5,#0xc]
        0x000025aa:    68e8        .h      LDR      r0,[r5,#0xc]
        0x000025ac:    0880        ..      LSRS     r0,r0,#2
        0x000025ae:    0080        ..      LSLS     r0,r0,#2
        0x000025b0:    7921        !y      LDRB     r1,[r4,#4]
        0x000025b2:    0789        ..      LSLS     r1,r1,#30
        0x000025b4:    0f89        ..      LSRS     r1,r1,#30
        0x000025b6:    4308        .C      ORRS     r0,r0,r1
        0x000025b8:    60e8        .`      STR      r0,[r5,#0xc]
        0x000025ba:    68e8        .h      LDR      r0,[r5,#0xc]
        0x000025bc:    2104        .!      MOVS     r1,#4
        0x000025be:    4388        .C      BICS     r0,r0,r1
        0x000025c0:    7961        ay      LDRB     r1,[r4,#5]
        0x000025c2:    0089        ..      LSLS     r1,r1,#2
        0x000025c4:    2204        ."      MOVS     r2,#4
        0x000025c6:    4011        .@      ANDS     r1,r1,r2
        0x000025c8:    4308        .C      ORRS     r0,r0,r1
        0x000025ca:    60e8        .`      STR      r0,[r5,#0xc]
        0x000025cc:    6a28        (j      LDR      r0,[r5,#0x20]
        0x000025ce:    0a00        ..      LSRS     r0,r0,#8
        0x000025d0:    0200        ..      LSLS     r0,r0,#8
        0x000025d2:    7a21        !z      LDRB     r1,[r4,#8]
        0x000025d4:    4308        .C      ORRS     r0,r0,r1
        0x000025d6:    6228        (b      STR      r0,[r5,#0x20]
        0x000025d8:    481d        .H      LDR      r0,[pc,#116] ; [0x2650] = 0x50000200
        0x000025da:    6800        .h      LDR      r0,[r0,#0]
        0x000025dc:    07c0        ..      LSLS     r0,r0,#31
        0x000025de:    0fc0        ..      LSRS     r0,r0,#31
        0x000025e0:    2800        .(      CMP      r0,#0
        0x000025e2:    d007        ..      BEQ      0x25f4 ; DrvUART_Open + 516
        0x000025e4:    481a        .H      LDR      r0,[pc,#104] ; [0x2650] = 0x50000200
        0x000025e6:    6940        @i      LDR      r0,[r0,#0x14]
        0x000025e8:    2103        .!      MOVS     r1,#3
        0x000025ea:    0609        ..      LSLS     r1,r1,#24
        0x000025ec:    4388        .C      BICS     r0,r0,r1
        0x000025ee:    4918        .I      LDR      r1,[pc,#96] ; [0x2650] = 0x50000200
        0x000025f0:    6148        Ha      STR      r0,[r1,#0x14]
        0x000025f2:    e022        ".      B        0x263a ; DrvUART_Open + 586
        0x000025f4:    4816        .H      LDR      r0,[pc,#88] ; [0x2650] = 0x50000200
        0x000025f6:    6a00        .j      LDR      r0,[r0,#0x20]
        0x000025f8:    03c0        ..      LSLS     r0,r0,#15
        0x000025fa:    0fc0        ..      LSRS     r0,r0,#31
        0x000025fc:    2800        .(      CMP      r0,#0
        0x000025fe:    d10a        ..      BNE      0x2616 ; DrvUART_Open + 550
        0x00002600:    4813        .H      LDR      r0,[pc,#76] ; [0x2650] = 0x50000200
        0x00002602:    6940        @i      LDR      r0,[r0,#0x14]
        0x00002604:    2103        .!      MOVS     r1,#3
        0x00002606:    0609        ..      LSLS     r1,r1,#24
        0x00002608:    4388        .C      BICS     r0,r0,r1
        0x0000260a:    2101        .!      MOVS     r1,#1
        0x0000260c:    0609        ..      LSLS     r1,r1,#24
        0x0000260e:    1840        @.      ADDS     r0,r0,r1
        0x00002610:    490f        .I      LDR      r1,[pc,#60] ; [0x2650] = 0x50000200
        0x00002612:    6148        Ha      STR      r0,[r1,#0x14]
        0x00002614:    e011        ..      B        0x263a ; DrvUART_Open + 586
        0x00002616:    480e        .H      LDR      r0,[pc,#56] ; [0x2650] = 0x50000200
        0x00002618:    6800        .h      LDR      r0,[r0,#0]
        0x0000261a:    0740        @.      LSLS     r0,r0,#29
        0x0000261c:    0fc0        ..      LSRS     r0,r0,#31
        0x0000261e:    2800        .(      CMP      r0,#0
        0x00002620:    d008        ..      BEQ      0x2634 ; DrvUART_Open + 580
        0x00002622:    480b        .H      LDR      r0,[pc,#44] ; [0x2650] = 0x50000200
        0x00002624:    6940        @i      LDR      r0,[r0,#0x14]
        0x00002626:    2103        .!      MOVS     r1,#3
        0x00002628:    0609        ..      LSLS     r1,r1,#24
        0x0000262a:    4388        .C      BICS     r0,r0,r1
        0x0000262c:    1840        @.      ADDS     r0,r0,r1
        0x0000262e:    4908        .I      LDR      r1,[pc,#32] ; [0x2650] = 0x50000200
        0x00002630:    6148        Ha      STR      r0,[r1,#0x14]
        0x00002632:    e002        ..      B        0x263a ; DrvUART_Open + 586
        0x00002634:    4805        .H      LDR      r0,[pc,#20] ; [0x264c] = 0xffff9802
        0x00002636:    1d80        ..      ADDS     r0,r0,#6
        0x00002638:    e6e8        ..      B        0x240c ; DrvUART_Open + 28
        0x0000263a:    f000f8ad    ....    BL       GetUartClk ; 0x2798
        0x0000263e:    4607        .F      MOV      r7,r0
        0x00002640:    4632        2F      MOV      r2,r6
        0x00002642:    6821        !h      LDR      r1,[r4,#0]
        0x00002644:    f7feff38    ..8.    BL       BaudRateCalculator ; 0x14b8
        0x00002648:    2000        .       MOVS     r0,#0
        0x0000264a:    e6df        ..      B        0x240c ; DrvUART_Open + 28
    $d
        0x0000264c:    ffff9802    ....    DCD    4294940674
        0x00002650:    50000200    ...P    DCD    1342177792
        0x00002654:    40050000    ...@    DCD    1074069504
    $t
    i.DrvUART_Write
    DrvUART_Write
        0x00002658:    b570        p.      PUSH     {r4-r6,lr}
        0x0000265a:    4603        .F      MOV      r3,r0
        0x0000265c:    460c        .F      MOV      r4,r1
        0x0000265e:    480c        .H      LDR      r0,[pc,#48] ; [0x2690] = 0x40050000
        0x00002660:    181d        ..      ADDS     r5,r3,r0
        0x00002662:    2100        .!      MOVS     r1,#0
        0x00002664:    e010        ..      B        0x2688 ; DrvUART_Write + 48
        0x00002666:    2600        .&      MOVS     r6,#0
        0x00002668:    e006        ..      B        0x2678 ; DrvUART_Write + 32
        0x0000266a:    1c76        v.      ADDS     r6,r6,#1
        0x0000266c:    2001        .       MOVS     r0,#1
        0x0000266e:    0780        ..      LSLS     r0,r0,#30
        0x00002670:    4286        .B      CMP      r6,r0
        0x00002672:    d301        ..      BCC      0x2678 ; DrvUART_Write + 32
        0x00002674:    4807        .H      LDR      r0,[pc,#28] ; [0x2694] = 0xffff9801
        0x00002676:    bd70        p.      POP      {r4-r6,pc}
        0x00002678:    69a8        .i      LDR      r0,[r5,#0x18]
        0x0000267a:    00c0        ..      LSLS     r0,r0,#3
        0x0000267c:    0fc0        ..      LSRS     r0,r0,#31
        0x0000267e:    2800        .(      CMP      r0,#0
        0x00002680:    d0f3        ..      BEQ      0x266a ; DrvUART_Write + 18
        0x00002682:    5c60        `\      LDRB     r0,[r4,r1]
        0x00002684:    6028        (`      STR      r0,[r5,#0]
        0x00002686:    1c49        I.      ADDS     r1,r1,#1
        0x00002688:    4291        .B      CMP      r1,r2
        0x0000268a:    d3ec        ..      BCC      0x2666 ; DrvUART_Write + 14
        0x0000268c:    2000        .       MOVS     r0,#0
        0x0000268e:    e7f2        ..      B        0x2676 ; DrvUART_Write + 30
    $d
        0x00002690:    40050000    ...@    DCD    1074069504
        0x00002694:    ffff9801    ....    DCD    4294940673
    $t
    i.EINT0_IRQHandler
    EINT0_IRQHandler
        0x00002698:    b510        ..      PUSH     {r4,lr}
        0x0000269a:    2001        .       MOVS     r0,#1
        0x0000269c:    0380        ..      LSLS     r0,r0,#14
        0x0000269e:    4905        .I      LDR      r1,[pc,#20] ; [0x26b4] = 0x50004040
        0x000026a0:    6208        .b      STR      r0,[r1,#0x20]
        0x000026a2:    4805        .H      LDR      r0,[pc,#20] ; [0x26b8] = 0x20000090
        0x000026a4:    6800        .h      LDR      r0,[r0,#0]
        0x000026a6:    2800        .(      CMP      r0,#0
        0x000026a8:    d002        ..      BEQ      0x26b0 ; EINT0_IRQHandler + 24
        0x000026aa:    4803        .H      LDR      r0,[pc,#12] ; [0x26b8] = 0x20000090
        0x000026ac:    6800        .h      LDR      r0,[r0,#0]
        0x000026ae:    4780        .G      BLX      r0
        0x000026b0:    bd10        ..      POP      {r4,pc}
    $d
        0x000026b2:    0000        ..      DCW    0
        0x000026b4:    50004040    @@.P    DCD    1342193728
        0x000026b8:    20000090    ...     DCD    536871056
    $t
    i.EINT1_IRQHandler
    EINT1_IRQHandler
        0x000026bc:    b510        ..      PUSH     {r4,lr}
        0x000026be:    2001        .       MOVS     r0,#1
        0x000026c0:    03c0        ..      LSLS     r0,r0,#15
        0x000026c2:    4905        .I      LDR      r1,[pc,#20] ; [0x26d8] = 0x50004040
        0x000026c4:    6208        .b      STR      r0,[r1,#0x20]
        0x000026c6:    4805        .H      LDR      r0,[pc,#20] ; [0x26dc] = 0x20000094
        0x000026c8:    6800        .h      LDR      r0,[r0,#0]
        0x000026ca:    2800        .(      CMP      r0,#0
        0x000026cc:    d002        ..      BEQ      0x26d4 ; EINT1_IRQHandler + 24
        0x000026ce:    4803        .H      LDR      r0,[pc,#12] ; [0x26dc] = 0x20000094
        0x000026d0:    6800        .h      LDR      r0,[r0,#0]
        0x000026d2:    4780        .G      BLX      r0
        0x000026d4:    bd10        ..      POP      {r4,pc}
    $d
        0x000026d6:    0000        ..      DCW    0
        0x000026d8:    50004040    @@.P    DCD    1342193728
        0x000026dc:    20000094    ...     DCD    536871060
    $t
    i.GPAB_IRQHandler
    GPAB_IRQHandler
        0x000026e0:    b51c        ..      PUSH     {r2-r4,lr}
        0x000026e2:    480e        .H      LDR      r0,[pc,#56] ; [0x271c] = 0x50004000
        0x000026e4:    6a00        .j      LDR      r0,[r0,#0x20]
        0x000026e6:    9001        ..      STR      r0,[sp,#4]
        0x000026e8:    480c        .H      LDR      r0,[pc,#48] ; [0x271c] = 0x50004000
        0x000026ea:    3040        @0      ADDS     r0,r0,#0x40
        0x000026ec:    6a00        .j      LDR      r0,[r0,#0x20]
        0x000026ee:    9000        ..      STR      r0,[sp,#0]
        0x000026f0:    2103        .!      MOVS     r1,#3
        0x000026f2:    0389        ..      LSLS     r1,r1,#14
        0x000026f4:    9800        ..      LDR      r0,[sp,#0]
        0x000026f6:    4388        .C      BICS     r0,r0,r1
        0x000026f8:    9000        ..      STR      r0,[sp,#0]
        0x000026fa:    4908        .I      LDR      r1,[pc,#32] ; [0x271c] = 0x50004000
        0x000026fc:    9801        ..      LDR      r0,[sp,#4]
        0x000026fe:    6208        .b      STR      r0,[r1,#0x20]
        0x00002700:    4906        .I      LDR      r1,[pc,#24] ; [0x271c] = 0x50004000
        0x00002702:    3140        @1      ADDS     r1,r1,#0x40
        0x00002704:    9800        ..      LDR      r0,[sp,#0]
        0x00002706:    6208        .b      STR      r0,[r1,#0x20]
        0x00002708:    4805        .H      LDR      r0,[pc,#20] ; [0x2720] = 0x20000088
        0x0000270a:    6800        .h      LDR      r0,[r0,#0]
        0x0000270c:    2800        .(      CMP      r0,#0
        0x0000270e:    d004        ..      BEQ      0x271a ; GPAB_IRQHandler + 58
        0x00002710:    4a03        .J      LDR      r2,[pc,#12] ; [0x2720] = 0x20000088
        0x00002712:    9900        ..      LDR      r1,[sp,#0]
        0x00002714:    9801        ..      LDR      r0,[sp,#4]
        0x00002716:    6812        .h      LDR      r2,[r2,#0]
        0x00002718:    4790        .G      BLX      r2
        0x0000271a:    bd1c        ..      POP      {r2-r4,pc}
    $d
        0x0000271c:    50004000    .@.P    DCD    1342193664
        0x00002720:    20000088    ...     DCD    536871048
    $t
    i.GPCDE_IRQHandler
    GPCDE_IRQHandler
        0x00002724:    b50e        ..      PUSH     {r1-r3,lr}
        0x00002726:    4810        .H      LDR      r0,[pc,#64] ; [0x2768] = 0x50004080
        0x00002728:    6a00        .j      LDR      r0,[r0,#0x20]
        0x0000272a:    9002        ..      STR      r0,[sp,#8]
        0x0000272c:    480e        .H      LDR      r0,[pc,#56] ; [0x2768] = 0x50004080
        0x0000272e:    3040        @0      ADDS     r0,r0,#0x40
        0x00002730:    6a00        .j      LDR      r0,[r0,#0x20]
        0x00002732:    9001        ..      STR      r0,[sp,#4]
        0x00002734:    480c        .H      LDR      r0,[pc,#48] ; [0x2768] = 0x50004080
        0x00002736:    3080        .0      ADDS     r0,r0,#0x80
        0x00002738:    6a00        .j      LDR      r0,[r0,#0x20]
        0x0000273a:    9000        ..      STR      r0,[sp,#0]
        0x0000273c:    490a        .I      LDR      r1,[pc,#40] ; [0x2768] = 0x50004080
        0x0000273e:    9802        ..      LDR      r0,[sp,#8]
        0x00002740:    6208        .b      STR      r0,[r1,#0x20]
        0x00002742:    4909        .I      LDR      r1,[pc,#36] ; [0x2768] = 0x50004080
        0x00002744:    3140        @1      ADDS     r1,r1,#0x40
        0x00002746:    9801        ..      LDR      r0,[sp,#4]
        0x00002748:    6208        .b      STR      r0,[r1,#0x20]
        0x0000274a:    4907        .I      LDR      r1,[pc,#28] ; [0x2768] = 0x50004080
        0x0000274c:    3180        .1      ADDS     r1,r1,#0x80
        0x0000274e:    9800        ..      LDR      r0,[sp,#0]
        0x00002750:    6208        .b      STR      r0,[r1,#0x20]
        0x00002752:    4806        .H      LDR      r0,[pc,#24] ; [0x276c] = 0x2000008c
        0x00002754:    6800        .h      LDR      r0,[r0,#0]
        0x00002756:    2800        .(      CMP      r0,#0
        0x00002758:    d005        ..      BEQ      0x2766 ; GPCDE_IRQHandler + 66
        0x0000275a:    4b04        .K      LDR      r3,[pc,#16] ; [0x276c] = 0x2000008c
        0x0000275c:    9a00        ..      LDR      r2,[sp,#0]
        0x0000275e:    9901        ..      LDR      r1,[sp,#4]
        0x00002760:    9802        ..      LDR      r0,[sp,#8]
        0x00002762:    681b        .h      LDR      r3,[r3,#0]
        0x00002764:    4798        .G      BLX      r3
        0x00002766:    bd0e        ..      POP      {r1-r3,pc}
    $d
        0x00002768:    50004080    .@.P    DCD    1342193792
        0x0000276c:    2000008c    ...     DCD    536871052
    $t
    i.GetFreeIF
    GetFreeIF
        0x00002770:    4808        .H      LDR      r0,[pc,#32] ; [0x2794] = 0x40180000
        0x00002772:    6a00        .j      LDR      r0,[r0,#0x20]
        0x00002774:    0400        ..      LSLS     r0,r0,#16
        0x00002776:    0fc0        ..      LSRS     r0,r0,#31
        0x00002778:    2800        .(      CMP      r0,#0
        0x0000277a:    d100        ..      BNE      0x277e ; GetFreeIF + 14
        0x0000277c:    4770        pG      BX       lr
        0x0000277e:    4805        .H      LDR      r0,[pc,#20] ; [0x2794] = 0x40180000
        0x00002780:    3020         0      ADDS     r0,r0,#0x20
        0x00002782:    6e00        .n      LDR      r0,[r0,#0x60]
        0x00002784:    0400        ..      LSLS     r0,r0,#16
        0x00002786:    0fc0        ..      LSRS     r0,r0,#31
        0x00002788:    2800        .(      CMP      r0,#0
        0x0000278a:    d101        ..      BNE      0x2790 ; GetFreeIF + 32
        0x0000278c:    2001        .       MOVS     r0,#1
        0x0000278e:    e7f5        ..      B        0x277c ; GetFreeIF + 12
        0x00002790:    2002        .       MOVS     r0,#2
        0x00002792:    e7f3        ..      B        0x277c ; GetFreeIF + 12
    $d
        0x00002794:    40180000    ...@    DCD    1075314688
    $t
    i.GetUartClk
    GetUartClk
        0x00002798:    b570        p.      PUSH     {r4-r6,lr}
        0x0000279a:    2500        .%      MOVS     r5,#0
        0x0000279c:    480f        .H      LDR      r0,[pc,#60] ; [0x27dc] = 0x50000200
        0x0000279e:    6940        @i      LDR      r0,[r0,#0x14]
        0x000027a0:    0180        ..      LSLS     r0,r0,#6
        0x000027a2:    0f80        ..      LSRS     r0,r0,#30
        0x000027a4:    2800        .(      CMP      r0,#0
        0x000027a6:    d103        ..      BNE      0x27b0 ; GetUartClk + 24
        0x000027a8:    f7fffc5e    ..^.    BL       DrvSYS_GetExtClockFreq ; 0x2068
        0x000027ac:    4605        .F      MOV      r5,r0
        0x000027ae:    e012        ..      B        0x27d6 ; GetUartClk + 62
        0x000027b0:    480a        .H      LDR      r0,[pc,#40] ; [0x27dc] = 0x50000200
        0x000027b2:    6940        @i      LDR      r0,[r0,#0x14]
        0x000027b4:    0180        ..      LSLS     r0,r0,#6
        0x000027b6:    0f80        ..      LSRS     r0,r0,#30
        0x000027b8:    2801        .(      CMP      r0,#1
        0x000027ba:    d10b        ..      BNE      0x27d4 ; GetUartClk + 60
        0x000027bc:    4807        .H      LDR      r0,[pc,#28] ; [0x27dc] = 0x50000200
        0x000027be:    6980        .i      LDR      r0,[r0,#0x18]
        0x000027c0:    0500        ..      LSLS     r0,r0,#20
        0x000027c2:    0f04        ..      LSRS     r4,r0,#28
        0x000027c4:    f7fffc8c    ....    BL       DrvSYS_GetPLLClockFreq ; 0x20e0
        0x000027c8:    4606        .F      MOV      r6,r0
        0x000027ca:    1c61        a.      ADDS     r1,r4,#1
        0x000027cc:    f7fdfe18    ....    BL       __aeabi_uidiv ; 0x400
        0x000027d0:    4605        .F      MOV      r5,r0
        0x000027d2:    e000        ..      B        0x27d6 ; GetUartClk + 62
        0x000027d4:    4d02        .M      LDR      r5,[pc,#8] ; [0x27e0] = 0x1518000
        0x000027d6:    4628        (F      MOV      r0,r5
        0x000027d8:    bd70        p.      POP      {r4-r6,pc}
    $d
        0x000027da:    0000        ..      DCW    0
        0x000027dc:    50000200    ...P    DCD    1342177792
        0x000027e0:    01518000    ..Q.    DCD    22118400
    $t
    i.I2C0_IRQHandler
    I2C0_IRQHandler
        0x000027e4:    b510        ..      PUSH     {r4,lr}
        0x000027e6:    481c        .H      LDR      r0,[pc,#112] ; [0x2858] = 0x40020000
        0x000027e8:    68c4        .h      LDR      r4,[r0,#0xc]
        0x000027ea:    6940        @i      LDR      r0,[r0,#0x14]
        0x000027ec:    07c0        ..      LSLS     r0,r0,#31
        0x000027ee:    0fc0        ..      LSRS     r0,r0,#31
        0x000027f0:    2800        .(      CMP      r0,#0
        0x000027f2:    d00f        ..      BEQ      0x2814 ; I2C0_IRQHandler + 48
        0x000027f4:    4818        .H      LDR      r0,[pc,#96] ; [0x2858] = 0x40020000
        0x000027f6:    6940        @i      LDR      r0,[r0,#0x14]
        0x000027f8:    0840        @.      LSRS     r0,r0,#1
        0x000027fa:    0040        @.      LSLS     r0,r0,#1
        0x000027fc:    1c40        @.      ADDS     r0,r0,#1
        0x000027fe:    4916        .I      LDR      r1,[pc,#88] ; [0x2858] = 0x40020000
        0x00002800:    6148        Ha      STR      r0,[r1,#0x14]
        0x00002802:    4816        .H      LDR      r0,[pc,#88] ; [0x285c] = 0x20000130
        0x00002804:    68c0        .h      LDR      r0,[r0,#0xc]
        0x00002806:    2800        .(      CMP      r0,#0
        0x00002808:    d024        $.      BEQ      0x2854 ; I2C0_IRQHandler + 112
        0x0000280a:    4814        .H      LDR      r0,[pc,#80] ; [0x285c] = 0x20000130
        0x0000280c:    68c1        .h      LDR      r1,[r0,#0xc]
        0x0000280e:    4620         F      MOV      r0,r4
        0x00002810:    4788        .G      BLX      r1
        0x00002812:    e01f        ..      B        0x2854 ; I2C0_IRQHandler + 112
        0x00002814:    2c00        .,      CMP      r4,#0
        0x00002816:    d00a        ..      BEQ      0x282e ; I2C0_IRQHandler + 74
        0x00002818:    2c38        8,      CMP      r4,#0x38
        0x0000281a:    d111        ..      BNE      0x2840 ; I2C0_IRQHandler + 92
        0x0000281c:    480f        .H      LDR      r0,[pc,#60] ; [0x285c] = 0x20000130
        0x0000281e:    6840        @h      LDR      r0,[r0,#4]
        0x00002820:    2800        .(      CMP      r0,#0
        0x00002822:    d003        ..      BEQ      0x282c ; I2C0_IRQHandler + 72
        0x00002824:    480d        .H      LDR      r0,[pc,#52] ; [0x285c] = 0x20000130
        0x00002826:    6841        Ah      LDR      r1,[r0,#4]
        0x00002828:    4620         F      MOV      r0,r4
        0x0000282a:    4788        .G      BLX      r1
        0x0000282c:    e011        ..      B        0x2852 ; I2C0_IRQHandler + 110
        0x0000282e:    480b        .H      LDR      r0,[pc,#44] ; [0x285c] = 0x20000130
        0x00002830:    6880        .h      LDR      r0,[r0,#8]
        0x00002832:    2800        .(      CMP      r0,#0
        0x00002834:    d003        ..      BEQ      0x283e ; I2C0_IRQHandler + 90
        0x00002836:    4809        .H      LDR      r0,[pc,#36] ; [0x285c] = 0x20000130
        0x00002838:    6881        .h      LDR      r1,[r0,#8]
        0x0000283a:    4620         F      MOV      r0,r4
        0x0000283c:    4788        .G      BLX      r1
        0x0000283e:    e008        ..      B        0x2852 ; I2C0_IRQHandler + 110
        0x00002840:    4806        .H      LDR      r0,[pc,#24] ; [0x285c] = 0x20000130
        0x00002842:    6800        .h      LDR      r0,[r0,#0]
        0x00002844:    2800        .(      CMP      r0,#0
        0x00002846:    d003        ..      BEQ      0x2850 ; I2C0_IRQHandler + 108
        0x00002848:    4804        .H      LDR      r0,[pc,#16] ; [0x285c] = 0x20000130
        0x0000284a:    6801        .h      LDR      r1,[r0,#0]
        0x0000284c:    4620         F      MOV      r0,r4
        0x0000284e:    4788        .G      BLX      r1
        0x00002850:    bf00        ..      NOP      
        0x00002852:    bf00        ..      NOP      
        0x00002854:    bd10        ..      POP      {r4,pc}
    $d
        0x00002856:    0000        ..      DCW    0
        0x00002858:    40020000    ...@    DCD    1073872896
        0x0000285c:    20000130    0..     DCD    536871216
    $t
    i.I2C1_IRQHandler
    I2C1_IRQHandler
        0x00002860:    b510        ..      PUSH     {r4,lr}
        0x00002862:    481c        .H      LDR      r0,[pc,#112] ; [0x28d4] = 0x40120000
        0x00002864:    68c4        .h      LDR      r4,[r0,#0xc]
        0x00002866:    6940        @i      LDR      r0,[r0,#0x14]
        0x00002868:    07c0        ..      LSLS     r0,r0,#31
        0x0000286a:    0fc0        ..      LSRS     r0,r0,#31
        0x0000286c:    2800        .(      CMP      r0,#0
        0x0000286e:    d00f        ..      BEQ      0x2890 ; I2C1_IRQHandler + 48
        0x00002870:    4818        .H      LDR      r0,[pc,#96] ; [0x28d4] = 0x40120000
        0x00002872:    6940        @i      LDR      r0,[r0,#0x14]
        0x00002874:    0840        @.      LSRS     r0,r0,#1
        0x00002876:    0040        @.      LSLS     r0,r0,#1
        0x00002878:    1c40        @.      ADDS     r0,r0,#1
        0x0000287a:    4916        .I      LDR      r1,[pc,#88] ; [0x28d4] = 0x40120000
        0x0000287c:    6148        Ha      STR      r0,[r1,#0x14]
        0x0000287e:    4816        .H      LDR      r0,[pc,#88] ; [0x28d8] = 0x20000140
        0x00002880:    68c0        .h      LDR      r0,[r0,#0xc]
        0x00002882:    2800        .(      CMP      r0,#0
        0x00002884:    d024        $.      BEQ      0x28d0 ; I2C1_IRQHandler + 112
        0x00002886:    4814        .H      LDR      r0,[pc,#80] ; [0x28d8] = 0x20000140
        0x00002888:    68c1        .h      LDR      r1,[r0,#0xc]
        0x0000288a:    4620         F      MOV      r0,r4
        0x0000288c:    4788        .G      BLX      r1
        0x0000288e:    e01f        ..      B        0x28d0 ; I2C1_IRQHandler + 112
        0x00002890:    2c00        .,      CMP      r4,#0
        0x00002892:    d00a        ..      BEQ      0x28aa ; I2C1_IRQHandler + 74
        0x00002894:    2c38        8,      CMP      r4,#0x38
        0x00002896:    d111        ..      BNE      0x28bc ; I2C1_IRQHandler + 92
        0x00002898:    480f        .H      LDR      r0,[pc,#60] ; [0x28d8] = 0x20000140
        0x0000289a:    6840        @h      LDR      r0,[r0,#4]
        0x0000289c:    2800        .(      CMP      r0,#0
        0x0000289e:    d003        ..      BEQ      0x28a8 ; I2C1_IRQHandler + 72
        0x000028a0:    480d        .H      LDR      r0,[pc,#52] ; [0x28d8] = 0x20000140
        0x000028a2:    6841        Ah      LDR      r1,[r0,#4]
        0x000028a4:    4620         F      MOV      r0,r4
        0x000028a6:    4788        .G      BLX      r1
        0x000028a8:    e011        ..      B        0x28ce ; I2C1_IRQHandler + 110
        0x000028aa:    480b        .H      LDR      r0,[pc,#44] ; [0x28d8] = 0x20000140
        0x000028ac:    6880        .h      LDR      r0,[r0,#8]
        0x000028ae:    2800        .(      CMP      r0,#0
        0x000028b0:    d003        ..      BEQ      0x28ba ; I2C1_IRQHandler + 90
        0x000028b2:    4809        .H      LDR      r0,[pc,#36] ; [0x28d8] = 0x20000140
        0x000028b4:    6881        .h      LDR      r1,[r0,#8]
        0x000028b6:    4620         F      MOV      r0,r4
        0x000028b8:    4788        .G      BLX      r1
        0x000028ba:    e008        ..      B        0x28ce ; I2C1_IRQHandler + 110
        0x000028bc:    4806        .H      LDR      r0,[pc,#24] ; [0x28d8] = 0x20000140
        0x000028be:    6800        .h      LDR      r0,[r0,#0]
        0x000028c0:    2800        .(      CMP      r0,#0
        0x000028c2:    d003        ..      BEQ      0x28cc ; I2C1_IRQHandler + 108
        0x000028c4:    4804        .H      LDR      r0,[pc,#16] ; [0x28d8] = 0x20000140
        0x000028c6:    6801        .h      LDR      r1,[r0,#0]
        0x000028c8:    4620         F      MOV      r0,r4
        0x000028ca:    4788        .G      BLX      r1
        0x000028cc:    bf00        ..      NOP      
        0x000028ce:    bf00        ..      NOP      
        0x000028d0:    bd10        ..      POP      {r4,pc}
    $d
        0x000028d2:    0000        ..      DCW    0
        0x000028d4:    40120000    ...@    DCD    1074921472
        0x000028d8:    20000140    @..     DCD    536871232
    $t
    i.InitHCLK12M
    InitHCLK12M
        0x000028dc:    2059        Y       MOVS     r0,#0x59
        0x000028de:    490b        .I      LDR      r1,[pc,#44] ; [0x290c] = 0x50000100
        0x000028e0:    6008        .`      STR      r0,[r1,#0]
        0x000028e2:    2016        .       MOVS     r0,#0x16
        0x000028e4:    6008        .`      STR      r0,[r1,#0]
        0x000028e6:    2088        .       MOVS     r0,#0x88
        0x000028e8:    6008        .`      STR      r0,[r1,#0]
        0x000028ea:    4809        .H      LDR      r0,[pc,#36] ; [0x2910] = 0x50000200
        0x000028ec:    6800        .h      LDR      r0,[r0,#0]
        0x000028ee:    0840        @.      LSRS     r0,r0,#1
        0x000028f0:    0040        @.      LSLS     r0,r0,#1
        0x000028f2:    1c40        @.      ADDS     r0,r0,#1
        0x000028f4:    4906        .I      LDR      r1,[pc,#24] ; [0x2910] = 0x50000200
        0x000028f6:    6008        .`      STR      r0,[r1,#0]
        0x000028f8:    4608        .F      MOV      r0,r1
        0x000028fa:    6900        .i      LDR      r0,[r0,#0x10]
        0x000028fc:    08c0        ..      LSRS     r0,r0,#3
        0x000028fe:    00c0        ..      LSLS     r0,r0,#3
        0x00002900:    6108        .a      STR      r0,[r1,#0x10]
        0x00002902:    2000        .       MOVS     r0,#0
        0x00002904:    4901        .I      LDR      r1,[pc,#4] ; [0x290c] = 0x50000100
        0x00002906:    6008        .`      STR      r0,[r1,#0]
        0x00002908:    4770        pG      BX       lr
    $d
        0x0000290a:    0000        ..      DCW    0
        0x0000290c:    50000100    ...P    DCD    1342177536
        0x00002910:    50000200    ...P    DCD    1342177792
    $t
    i.PWRWU_IRQHandler
    PWRWU_IRQHandler
        0x00002914:    b510        ..      PUSH     {r4,lr}
        0x00002916:    4807        .H      LDR      r0,[pc,#28] ; [0x2934] = 0x50000200
        0x00002918:    6800        .h      LDR      r0,[r0,#0]
        0x0000291a:    2140        @!      MOVS     r1,#0x40
        0x0000291c:    4388        .C      BICS     r0,r0,r1
        0x0000291e:    3040        @0      ADDS     r0,r0,#0x40
        0x00002920:    4904        .I      LDR      r1,[pc,#16] ; [0x2934] = 0x50000200
        0x00002922:    6008        .`      STR      r0,[r1,#0]
        0x00002924:    4804        .H      LDR      r0,[pc,#16] ; [0x2938] = 0x2000009c
        0x00002926:    6800        .h      LDR      r0,[r0,#0]
        0x00002928:    2800        .(      CMP      r0,#0
        0x0000292a:    d002        ..      BEQ      0x2932 ; PWRWU_IRQHandler + 30
        0x0000292c:    4802        .H      LDR      r0,[pc,#8] ; [0x2938] = 0x2000009c
        0x0000292e:    6800        .h      LDR      r0,[r0,#0]
        0x00002930:    4780        .G      BLX      r0
        0x00002932:    bd10        ..      POP      {r4,pc}
    $d
        0x00002934:    50000200    ...P    DCD    1342177792
        0x00002938:    2000009c    ...     DCD    536871068
    $t
    i.SPI0_IRQHandler
    SPI0_IRQHandler
        0x0000293c:    b510        ..      PUSH     {r4,lr}
        0x0000293e:    4816        .H      LDR      r0,[pc,#88] ; [0x2998] = 0x40030000
        0x00002940:    6800        .h      LDR      r0,[r0,#0]
        0x00002942:    03c0        ..      LSLS     r0,r0,#15
        0x00002944:    0fc0        ..      LSRS     r0,r0,#31
        0x00002946:    2800        .(      CMP      r0,#0
        0x00002948:    d00f        ..      BEQ      0x296a ; SPI0_IRQHandler + 46
        0x0000294a:    4813        .H      LDR      r0,[pc,#76] ; [0x2998] = 0x40030000
        0x0000294c:    6800        .h      LDR      r0,[r0,#0]
        0x0000294e:    2101        .!      MOVS     r1,#1
        0x00002950:    0409        ..      LSLS     r1,r1,#16
        0x00002952:    4388        .C      BICS     r0,r0,r1
        0x00002954:    1840        @.      ADDS     r0,r0,r1
        0x00002956:    4910        .I      LDR      r1,[pc,#64] ; [0x2998] = 0x40030000
        0x00002958:    6008        .`      STR      r0,[r1,#0]
        0x0000295a:    4810        .H      LDR      r0,[pc,#64] ; [0x299c] = 0x20000168
        0x0000295c:    6840        @h      LDR      r0,[r0,#4]
        0x0000295e:    2800        .(      CMP      r0,#0
        0x00002960:    d003        ..      BEQ      0x296a ; SPI0_IRQHandler + 46
        0x00002962:    4a0e        .J      LDR      r2,[pc,#56] ; [0x299c] = 0x20000168
        0x00002964:    6890        .h      LDR      r0,[r2,#8]
        0x00002966:    6851        Qh      LDR      r1,[r2,#4]
        0x00002968:    4788        .G      BLX      r1
        0x0000296a:    480b        .H      LDR      r0,[pc,#44] ; [0x2998] = 0x40030000
        0x0000296c:    6bc0        .k      LDR      r0,[r0,#0x3c]
        0x0000296e:    0500        ..      LSLS     r0,r0,#20
        0x00002970:    0fc0        ..      LSRS     r0,r0,#31
        0x00002972:    2800        .(      CMP      r0,#0
        0x00002974:    d00f        ..      BEQ      0x2996 ; SPI0_IRQHandler + 90
        0x00002976:    4808        .H      LDR      r0,[pc,#32] ; [0x2998] = 0x40030000
        0x00002978:    6bc0        .k      LDR      r0,[r0,#0x3c]
        0x0000297a:    2101        .!      MOVS     r1,#1
        0x0000297c:    02c9        ..      LSLS     r1,r1,#11
        0x0000297e:    4388        .C      BICS     r0,r0,r1
        0x00002980:    1840        @.      ADDS     r0,r0,r1
        0x00002982:    4905        .I      LDR      r1,[pc,#20] ; [0x2998] = 0x40030000
        0x00002984:    63c8        .c      STR      r0,[r1,#0x3c]
        0x00002986:    4805        .H      LDR      r0,[pc,#20] ; [0x299c] = 0x20000168
        0x00002988:    68c0        .h      LDR      r0,[r0,#0xc]
        0x0000298a:    2800        .(      CMP      r0,#0
        0x0000298c:    d003        ..      BEQ      0x2996 ; SPI0_IRQHandler + 90
        0x0000298e:    4a03        .J      LDR      r2,[pc,#12] ; [0x299c] = 0x20000168
        0x00002990:    6910        .i      LDR      r0,[r2,#0x10]
        0x00002992:    68d1        .h      LDR      r1,[r2,#0xc]
        0x00002994:    4788        .G      BLX      r1
        0x00002996:    bd10        ..      POP      {r4,pc}
    $d
        0x00002998:    40030000    ...@    DCD    1073938432
        0x0000299c:    20000168    h..     DCD    536871272
    $t
    i.SPI1_IRQHandler
    SPI1_IRQHandler
        0x000029a0:    b510        ..      PUSH     {r4,lr}
        0x000029a2:    4816        .H      LDR      r0,[pc,#88] ; [0x29fc] = 0x40034000
        0x000029a4:    6800        .h      LDR      r0,[r0,#0]
        0x000029a6:    03c0        ..      LSLS     r0,r0,#15
        0x000029a8:    0fc0        ..      LSRS     r0,r0,#31
        0x000029aa:    2800        .(      CMP      r0,#0
        0x000029ac:    d00f        ..      BEQ      0x29ce ; SPI1_IRQHandler + 46
        0x000029ae:    4813        .H      LDR      r0,[pc,#76] ; [0x29fc] = 0x40034000
        0x000029b0:    6800        .h      LDR      r0,[r0,#0]
        0x000029b2:    2101        .!      MOVS     r1,#1
        0x000029b4:    0409        ..      LSLS     r1,r1,#16
        0x000029b6:    4388        .C      BICS     r0,r0,r1
        0x000029b8:    1840        @.      ADDS     r0,r0,r1
        0x000029ba:    4910        .I      LDR      r1,[pc,#64] ; [0x29fc] = 0x40034000
        0x000029bc:    6008        .`      STR      r0,[r1,#0]
        0x000029be:    4810        .H      LDR      r0,[pc,#64] ; [0x2a00] = 0x20000168
        0x000029c0:    6980        .i      LDR      r0,[r0,#0x18]
        0x000029c2:    2800        .(      CMP      r0,#0
        0x000029c4:    d003        ..      BEQ      0x29ce ; SPI1_IRQHandler + 46
        0x000029c6:    4a0e        .J      LDR      r2,[pc,#56] ; [0x2a00] = 0x20000168
        0x000029c8:    69d0        .i      LDR      r0,[r2,#0x1c]
        0x000029ca:    6991        .i      LDR      r1,[r2,#0x18]
        0x000029cc:    4788        .G      BLX      r1
        0x000029ce:    480b        .H      LDR      r0,[pc,#44] ; [0x29fc] = 0x40034000
        0x000029d0:    6bc0        .k      LDR      r0,[r0,#0x3c]
        0x000029d2:    0500        ..      LSLS     r0,r0,#20
        0x000029d4:    0fc0        ..      LSRS     r0,r0,#31
        0x000029d6:    2800        .(      CMP      r0,#0
        0x000029d8:    d00f        ..      BEQ      0x29fa ; SPI1_IRQHandler + 90
        0x000029da:    4808        .H      LDR      r0,[pc,#32] ; [0x29fc] = 0x40034000
        0x000029dc:    6bc0        .k      LDR      r0,[r0,#0x3c]
        0x000029de:    2101        .!      MOVS     r1,#1
        0x000029e0:    02c9        ..      LSLS     r1,r1,#11
        0x000029e2:    4388        .C      BICS     r0,r0,r1
        0x000029e4:    1840        @.      ADDS     r0,r0,r1
        0x000029e6:    4905        .I      LDR      r1,[pc,#20] ; [0x29fc] = 0x40034000
        0x000029e8:    63c8        .c      STR      r0,[r1,#0x3c]
        0x000029ea:    4805        .H      LDR      r0,[pc,#20] ; [0x2a00] = 0x20000168
        0x000029ec:    6a00        .j      LDR      r0,[r0,#0x20]
        0x000029ee:    2800        .(      CMP      r0,#0
        0x000029f0:    d003        ..      BEQ      0x29fa ; SPI1_IRQHandler + 90
        0x000029f2:    4a03        .J      LDR      r2,[pc,#12] ; [0x2a00] = 0x20000168
        0x000029f4:    6a50        Pj      LDR      r0,[r2,#0x24]
        0x000029f6:    6a11        .j      LDR      r1,[r2,#0x20]
        0x000029f8:    4788        .G      BLX      r1
        0x000029fa:    bd10        ..      POP      {r4,pc}
    $d
        0x000029fc:    40034000    .@.@    DCD    1073954816
        0x00002a00:    20000168    h..     DCD    536871272
    $t
    i.SPI2_IRQHandler
    SPI2_IRQHandler
        0x00002a04:    b510        ..      PUSH     {r4,lr}
        0x00002a06:    4816        .H      LDR      r0,[pc,#88] ; [0x2a60] = 0x40130000
        0x00002a08:    6800        .h      LDR      r0,[r0,#0]
        0x00002a0a:    03c0        ..      LSLS     r0,r0,#15
        0x00002a0c:    0fc0        ..      LSRS     r0,r0,#31
        0x00002a0e:    2800        .(      CMP      r0,#0
        0x00002a10:    d00f        ..      BEQ      0x2a32 ; SPI2_IRQHandler + 46
        0x00002a12:    4813        .H      LDR      r0,[pc,#76] ; [0x2a60] = 0x40130000
        0x00002a14:    6800        .h      LDR      r0,[r0,#0]
        0x00002a16:    2101        .!      MOVS     r1,#1
        0x00002a18:    0409        ..      LSLS     r1,r1,#16
        0x00002a1a:    4388        .C      BICS     r0,r0,r1
        0x00002a1c:    1840        @.      ADDS     r0,r0,r1
        0x00002a1e:    4910        .I      LDR      r1,[pc,#64] ; [0x2a60] = 0x40130000
        0x00002a20:    6008        .`      STR      r0,[r1,#0]
        0x00002a22:    4810        .H      LDR      r0,[pc,#64] ; [0x2a64] = 0x20000168
        0x00002a24:    6ac0        .j      LDR      r0,[r0,#0x2c]
        0x00002a26:    2800        .(      CMP      r0,#0
        0x00002a28:    d003        ..      BEQ      0x2a32 ; SPI2_IRQHandler + 46
        0x00002a2a:    4a0e        .J      LDR      r2,[pc,#56] ; [0x2a64] = 0x20000168
        0x00002a2c:    6b10        .k      LDR      r0,[r2,#0x30]
        0x00002a2e:    6ad1        .j      LDR      r1,[r2,#0x2c]
        0x00002a30:    4788        .G      BLX      r1
        0x00002a32:    480b        .H      LDR      r0,[pc,#44] ; [0x2a60] = 0x40130000
        0x00002a34:    6bc0        .k      LDR      r0,[r0,#0x3c]
        0x00002a36:    0500        ..      LSLS     r0,r0,#20
        0x00002a38:    0fc0        ..      LSRS     r0,r0,#31
        0x00002a3a:    2800        .(      CMP      r0,#0
        0x00002a3c:    d00f        ..      BEQ      0x2a5e ; SPI2_IRQHandler + 90
        0x00002a3e:    4808        .H      LDR      r0,[pc,#32] ; [0x2a60] = 0x40130000
        0x00002a40:    6bc0        .k      LDR      r0,[r0,#0x3c]
        0x00002a42:    2101        .!      MOVS     r1,#1
        0x00002a44:    02c9        ..      LSLS     r1,r1,#11
        0x00002a46:    4388        .C      BICS     r0,r0,r1
        0x00002a48:    1840        @.      ADDS     r0,r0,r1
        0x00002a4a:    4905        .I      LDR      r1,[pc,#20] ; [0x2a60] = 0x40130000
        0x00002a4c:    63c8        .c      STR      r0,[r1,#0x3c]
        0x00002a4e:    4805        .H      LDR      r0,[pc,#20] ; [0x2a64] = 0x20000168
        0x00002a50:    6b40        @k      LDR      r0,[r0,#0x34]
        0x00002a52:    2800        .(      CMP      r0,#0
        0x00002a54:    d003        ..      BEQ      0x2a5e ; SPI2_IRQHandler + 90
        0x00002a56:    4a03        .J      LDR      r2,[pc,#12] ; [0x2a64] = 0x20000168
        0x00002a58:    6b90        .k      LDR      r0,[r2,#0x38]
        0x00002a5a:    6b51        Qk      LDR      r1,[r2,#0x34]
        0x00002a5c:    4788        .G      BLX      r1
        0x00002a5e:    bd10        ..      POP      {r4,pc}
    $d
        0x00002a60:    40130000    ...@    DCD    1074987008
        0x00002a64:    20000168    h..     DCD    536871272
    $t
    i.SPI3_IRQHandler
    SPI3_IRQHandler
        0x00002a68:    b510        ..      PUSH     {r4,lr}
        0x00002a6a:    4816        .H      LDR      r0,[pc,#88] ; [0x2ac4] = 0x40134000
        0x00002a6c:    6800        .h      LDR      r0,[r0,#0]
        0x00002a6e:    03c0        ..      LSLS     r0,r0,#15
        0x00002a70:    0fc0        ..      LSRS     r0,r0,#31
        0x00002a72:    2800        .(      CMP      r0,#0
        0x00002a74:    d00f        ..      BEQ      0x2a96 ; SPI3_IRQHandler + 46
        0x00002a76:    4813        .H      LDR      r0,[pc,#76] ; [0x2ac4] = 0x40134000
        0x00002a78:    6800        .h      LDR      r0,[r0,#0]
        0x00002a7a:    2101        .!      MOVS     r1,#1
        0x00002a7c:    0409        ..      LSLS     r1,r1,#16
        0x00002a7e:    4388        .C      BICS     r0,r0,r1
        0x00002a80:    1840        @.      ADDS     r0,r0,r1
        0x00002a82:    4910        .I      LDR      r1,[pc,#64] ; [0x2ac4] = 0x40134000
        0x00002a84:    6008        .`      STR      r0,[r1,#0]
        0x00002a86:    4810        .H      LDR      r0,[pc,#64] ; [0x2ac8] = 0x20000168
        0x00002a88:    6c00        .l      LDR      r0,[r0,#0x40]
        0x00002a8a:    2800        .(      CMP      r0,#0
        0x00002a8c:    d003        ..      BEQ      0x2a96 ; SPI3_IRQHandler + 46
        0x00002a8e:    4a0e        .J      LDR      r2,[pc,#56] ; [0x2ac8] = 0x20000168
        0x00002a90:    6c50        Pl      LDR      r0,[r2,#0x44]
        0x00002a92:    6c11        .l      LDR      r1,[r2,#0x40]
        0x00002a94:    4788        .G      BLX      r1
        0x00002a96:    480b        .H      LDR      r0,[pc,#44] ; [0x2ac4] = 0x40134000
        0x00002a98:    6bc0        .k      LDR      r0,[r0,#0x3c]
        0x00002a9a:    0500        ..      LSLS     r0,r0,#20
        0x00002a9c:    0fc0        ..      LSRS     r0,r0,#31
        0x00002a9e:    2800        .(      CMP      r0,#0
        0x00002aa0:    d00f        ..      BEQ      0x2ac2 ; SPI3_IRQHandler + 90
        0x00002aa2:    4808        .H      LDR      r0,[pc,#32] ; [0x2ac4] = 0x40134000
        0x00002aa4:    6bc0        .k      LDR      r0,[r0,#0x3c]
        0x00002aa6:    2101        .!      MOVS     r1,#1
        0x00002aa8:    02c9        ..      LSLS     r1,r1,#11
        0x00002aaa:    4388        .C      BICS     r0,r0,r1
        0x00002aac:    1840        @.      ADDS     r0,r0,r1
        0x00002aae:    4905        .I      LDR      r1,[pc,#20] ; [0x2ac4] = 0x40134000
        0x00002ab0:    63c8        .c      STR      r0,[r1,#0x3c]
        0x00002ab2:    4805        .H      LDR      r0,[pc,#20] ; [0x2ac8] = 0x20000168
        0x00002ab4:    6c80        .l      LDR      r0,[r0,#0x48]
        0x00002ab6:    2800        .(      CMP      r0,#0
        0x00002ab8:    d003        ..      BEQ      0x2ac2 ; SPI3_IRQHandler + 90
        0x00002aba:    4a03        .J      LDR      r2,[pc,#12] ; [0x2ac8] = 0x20000168
        0x00002abc:    6cd0        .l      LDR      r0,[r2,#0x4c]
        0x00002abe:    6c91        .l      LDR      r1,[r2,#0x48]
        0x00002ac0:    4788        .G      BLX      r1
        0x00002ac2:    bd10        ..      POP      {r4,pc}
    $d
        0x00002ac4:    40134000    .@.@    DCD    1075003392
        0x00002ac8:    20000168    h..     DCD    536871272
    $t
    i.SystemCoreClockUpdate
    SystemCoreClockUpdate
        0x00002acc:    b570        p.      PUSH     {r4-r6,lr}
        0x00002ace:    4820         H      LDR      r0,[pc,#128] ; [0x2b50] = 0x50000200
        0x00002ad0:    6900        .i      LDR      r0,[r0,#0x10]
        0x00002ad2:    0746        F.      LSLS     r6,r0,#29
        0x00002ad4:    0f76        v.      LSRS     r6,r6,#29
        0x00002ad6:    2e05        ..      CMP      r6,#5
        0x00002ad8:    d900        ..      BLS      0x2adc ; SystemCoreClockUpdate + 16
        0x00002ada:    2604        .&      MOVS     r6,#4
        0x00002adc:    2e02        ..      CMP      r6,#2
        0x00002ade:    d003        ..      BEQ      0x2ae8 ; SystemCoreClockUpdate + 28
        0x00002ae0:    00b0        ..      LSLS     r0,r6,#2
        0x00002ae2:    491c        .I      LDR      r1,[pc,#112] ; [0x2b54] = 0x20000008
        0x00002ae4:    580d        .X      LDR      r5,[r1,r0]
        0x00002ae6:    e01f        ..      B        0x2b28 ; SystemCoreClockUpdate + 92
        0x00002ae8:    4819        .H      LDR      r0,[pc,#100] ; [0x2b50] = 0x50000200
        0x00002aea:    6a00        .j      LDR      r0,[r0,#0x20]
        0x00002aec:    0400        ..      LSLS     r0,r0,#16
        0x00002aee:    0f84        ..      LSRS     r4,r0,#30
        0x00002af0:    2c01        .,      CMP      r4,#1
        0x00002af2:    d900        ..      BLS      0x2af6 ; SystemCoreClockUpdate + 42
        0x00002af4:    1e64        d.      SUBS     r4,r4,#1
        0x00002af6:    4a16        .J      LDR      r2,[pc,#88] ; [0x2b50] = 0x50000200
        0x00002af8:    6a12        .j      LDR      r2,[r2,#0x20]
        0x00002afa:    0312        ..      LSLS     r2,r2,#12
        0x00002afc:    0fd2        ..      LSRS     r2,r2,#31
        0x00002afe:    2a00        .*      CMP      r2,#0
        0x00002b00:    d001        ..      BEQ      0x2b06 ; SystemCoreClockUpdate + 58
        0x00002b02:    4a15        .J      LDR      r2,[pc,#84] ; [0x2b58] = 0x1518000
        0x00002b04:    e000        ..      B        0x2b08 ; SystemCoreClockUpdate + 60
        0x00002b06:    4a15        .J      LDR      r2,[pc,#84] ; [0x2b5c] = 0xb71b00
        0x00002b08:    4b11        .K      LDR      r3,[pc,#68] ; [0x2b50] = 0x50000200
        0x00002b0a:    6a1b        .j      LDR      r3,[r3,#0x20]
        0x00002b0c:    05db        ..      LSLS     r3,r3,#23
        0x00002b0e:    0ddb        ..      LSRS     r3,r3,#23
        0x00002b10:    1c9b        ..      ADDS     r3,r3,#2
        0x00002b12:    4610        .F      MOV      r0,r2
        0x00002b14:    4358        XC      MULS     r0,r3,r0
        0x00002b16:    4a0e        .J      LDR      r2,[pc,#56] ; [0x2b50] = 0x50000200
        0x00002b18:    6a12        .j      LDR      r2,[r2,#0x20]
        0x00002b1a:    0492        ..      LSLS     r2,r2,#18
        0x00002b1c:    0ed2        ..      LSRS     r2,r2,#27
        0x00002b1e:    1c91        ..      ADDS     r1,r2,#2
        0x00002b20:    f7fdfc6e    ..n.    BL       __aeabi_uidiv ; 0x400
        0x00002b24:    40e0        .@      LSRS     r0,r0,r4
        0x00002b26:    4605        .F      MOV      r5,r0
        0x00002b28:    4809        .H      LDR      r0,[pc,#36] ; [0x2b50] = 0x50000200
        0x00002b2a:    6980        .i      LDR      r0,[r0,#0x18]
        0x00002b2c:    0700        ..      LSLS     r0,r0,#28
        0x00002b2e:    0f00        ..      LSRS     r0,r0,#28
        0x00002b30:    1c41        A.      ADDS     r1,r0,#1
        0x00002b32:    4628        (F      MOV      r0,r5
        0x00002b34:    f7fdfc64    ..d.    BL       __aeabi_uidiv ; 0x400
        0x00002b38:    4909        .I      LDR      r1,[pc,#36] ; [0x2b60] = 0x20000000
        0x00002b3a:    6008        .`      STR      r0,[r1,#0]
        0x00002b3c:    4909        .I      LDR      r1,[pc,#36] ; [0x2b64] = 0xf4240
        0x00002b3e:    4808        .H      LDR      r0,[pc,#32] ; [0x2b60] = 0x20000000
        0x00002b40:    6800        .h      LDR      r0,[r0,#0]
        0x00002b42:    104a        J.      ASRS     r2,r1,#1
        0x00002b44:    1880        ..      ADDS     r0,r0,r2
        0x00002b46:    f7fdfc5b    ..[.    BL       __aeabi_uidiv ; 0x400
        0x00002b4a:    4907        .I      LDR      r1,[pc,#28] ; [0x2b68] = 0x20000004
        0x00002b4c:    6008        .`      STR      r0,[r1,#0]
        0x00002b4e:    bd70        p.      POP      {r4-r6,pc}
    $d
        0x00002b50:    50000200    ...P    DCD    1342177792
        0x00002b54:    20000008    ...     DCD    536870920
        0x00002b58:    01518000    ..Q.    DCD    22118400
        0x00002b5c:    00b71b00    ....    DCD    12000000
        0x00002b60:    20000000    ...     DCD    536870912
        0x00002b64:    000f4240    @B..    DCD    1000000
        0x00002b68:    20000004    ...     DCD    536870916
    $t
    i.SystemInit
    SystemInit
        0x00002b6c:    4770        pG      BX       lr
        0x00002b6e:    0000        ..      MOVS     r0,r0
    i.UART02_IRQHandler
    UART02_IRQHandler
        0x00002b70:    b570        p.      PUSH     {r4-r6,lr}
        0x00002b72:    480a        .H      LDR      r0,[pc,#40] ; [0x2b9c] = 0x40050000
        0x00002b74:    69c4        .i      LDR      r4,[r0,#0x1c]
        0x00002b76:    480a        .H      LDR      r0,[pc,#40] ; [0x2ba0] = 0x40154000
        0x00002b78:    69c5        .i      LDR      r5,[r0,#0x1c]
        0x00002b7a:    480a        .H      LDR      r0,[pc,#40] ; [0x2ba4] = 0x200000a0
        0x00002b7c:    6800        .h      LDR      r0,[r0,#0]
        0x00002b7e:    2800        .(      CMP      r0,#0
        0x00002b80:    d003        ..      BEQ      0x2b8a ; UART02_IRQHandler + 26
        0x00002b82:    4620         F      MOV      r0,r4
        0x00002b84:    4907        .I      LDR      r1,[pc,#28] ; [0x2ba4] = 0x200000a0
        0x00002b86:    6809        .h      LDR      r1,[r1,#0]
        0x00002b88:    4788        .G      BLX      r1
        0x00002b8a:    4807        .H      LDR      r0,[pc,#28] ; [0x2ba8] = 0x200000a8
        0x00002b8c:    6800        .h      LDR      r0,[r0,#0]
        0x00002b8e:    2800        .(      CMP      r0,#0
        0x00002b90:    d003        ..      BEQ      0x2b9a ; UART02_IRQHandler + 42
        0x00002b92:    4628        (F      MOV      r0,r5
        0x00002b94:    4904        .I      LDR      r1,[pc,#16] ; [0x2ba8] = 0x200000a8
        0x00002b96:    6809        .h      LDR      r1,[r1,#0]
        0x00002b98:    4788        .G      BLX      r1
        0x00002b9a:    bd70        p.      POP      {r4-r6,pc}
    $d
        0x00002b9c:    40050000    ...@    DCD    1074069504
        0x00002ba0:    40154000    .@.@    DCD    1075134464
        0x00002ba4:    200000a0    ...     DCD    536871072
        0x00002ba8:    200000a8    ...     DCD    536871080
    $t
    i.UART1_IRQHandler
    UART1_IRQHandler
        0x00002bac:    b510        ..      PUSH     {r4,lr}
        0x00002bae:    4805        .H      LDR      r0,[pc,#20] ; [0x2bc4] = 0x40150000
        0x00002bb0:    69c4        .i      LDR      r4,[r0,#0x1c]
        0x00002bb2:    4805        .H      LDR      r0,[pc,#20] ; [0x2bc8] = 0x200000a4
        0x00002bb4:    6800        .h      LDR      r0,[r0,#0]
        0x00002bb6:    2800        .(      CMP      r0,#0
        0x00002bb8:    d003        ..      BEQ      0x2bc2 ; UART1_IRQHandler + 22
        0x00002bba:    4620         F      MOV      r0,r4
        0x00002bbc:    4902        .I      LDR      r1,[pc,#8] ; [0x2bc8] = 0x200000a4
        0x00002bbe:    6809        .h      LDR      r1,[r1,#0]
        0x00002bc0:    4788        .G      BLX      r1
        0x00002bc2:    bd10        ..      POP      {r4,pc}
    $d
        0x00002bc4:    40150000    ...@    DCD    1075118080
        0x00002bc8:    200000a4    ...     DCD    536871076
    $t
    i.__ARM_common_switch8
    __ARM_common_switch8
        0x00002bcc:    b430        0.      PUSH     {r4,r5}
        0x00002bce:    4674        tF      MOV      r4,lr
        0x00002bd0:    1e64        d.      SUBS     r4,r4,#1
        0x00002bd2:    7825        %x      LDRB     r5,[r4,#0]
        0x00002bd4:    1c64        d.      ADDS     r4,r4,#1
        0x00002bd6:    42ab        .B      CMP      r3,r5
        0x00002bd8:    d304        ..      BCC      0x2be4 ; __ARM_common_switch8 + 24
        0x00002bda:    5d63        c]      LDRB     r3,[r4,r5]
        0x00002bdc:    005b        [.      LSLS     r3,r3,#1
        0x00002bde:    18e3        ..      ADDS     r3,r4,r3
        0x00002be0:    bc30        0.      POP      {r4,r5}
        0x00002be2:    4718        .G      BX       r3
        0x00002be4:    461d        .F      MOV      r5,r3
        0x00002be6:    e7f8        ..      B        0x2bda ; __ARM_common_switch8 + 14
    i._is_digit
    _is_digit
        0x00002be8:    3830        08      SUBS     r0,r0,#0x30
        0x00002bea:    280a        .(      CMP      r0,#0xa
        0x00002bec:    d201        ..      BCS      0x2bf2 ; _is_digit + 10
        0x00002bee:    2001        .       MOVS     r0,#1
        0x00002bf0:    4770        pG      BX       lr
        0x00002bf2:    2000        .       MOVS     r0,#0
        0x00002bf4:    4770        pG      BX       lr
        0x00002bf6:    0000        ..      MOVS     r0,r0
    i.calibrateMPU9250
    calibrateMPU9250
        0x00002bf8:    b5f0        ..      PUSH     {r4-r7,lr}
        0x00002bfa:    b095        ..      SUB      sp,sp,#0x54
        0x00002bfc:    4605        .F      MOV      r5,r0
        0x00002bfe:    460e        .F      MOV      r6,r1
        0x00002c00:    2000        .       MOVS     r0,#0
        0x00002c02:    900d        ..      STR      r0,[sp,#0x34]
        0x00002c04:    900e        ..      STR      r0,[sp,#0x38]
        0x00002c06:    900f        ..      STR      r0,[sp,#0x3c]
        0x00002c08:    900a        ..      STR      r0,[sp,#0x28]
        0x00002c0a:    900b        ..      STR      r0,[sp,#0x2c]
        0x00002c0c:    900c        ..      STR      r0,[sp,#0x30]
        0x00002c0e:    2001        .       MOVS     r0,#1
        0x00002c10:    9009        ..      STR      r0,[sp,#0x24]
        0x00002c12:    2000        .       MOVS     r0,#0
        0x00002c14:    9008        ..      STR      r0,[sp,#0x20]
        0x00002c16:    2083        .       MOVS     r0,#0x83
        0x00002c18:    9007        ..      STR      r0,[sp,#0x1c]
        0x00002c1a:    2701        .'      MOVS     r7,#1
        0x00002c1c:    03bf        ..      LSLS     r7,r7,#14
        0x00002c1e:    2000        .       MOVS     r0,#0
        0x00002c20:    9004        ..      STR      r0,[sp,#0x10]
        0x00002c22:    9005        ..      STR      r0,[sp,#0x14]
        0x00002c24:    9006        ..      STR      r0,[sp,#0x18]
        0x00002c26:    2280        ."      MOVS     r2,#0x80
        0x00002c28:    216b        k!      MOVS     r1,#0x6b
        0x00002c2a:    2068        h       MOVS     r0,#0x68
        0x00002c2c:    f000fe20    .. .    BL       writeByte ; 0x3870
        0x00002c30:    48fe        .H      LDR      r0,[pc,#1016] ; [0x302c] = 0x186a0
        0x00002c32:    f7fffa03    ....    BL       DrvSYS_Delay ; 0x203c
        0x00002c36:    2201        ."      MOVS     r2,#1
        0x00002c38:    216b        k!      MOVS     r1,#0x6b
        0x00002c3a:    2068        h       MOVS     r0,#0x68
        0x00002c3c:    f000fe18    ....    BL       writeByte ; 0x3870
        0x00002c40:    2200        ."      MOVS     r2,#0
        0x00002c42:    216c        l!      MOVS     r1,#0x6c
        0x00002c44:    2068        h       MOVS     r0,#0x68
        0x00002c46:    f000fe13    ....    BL       writeByte ; 0x3870
        0x00002c4a:    48f9        .H      LDR      r0,[pc,#996] ; [0x3030] = 0x30d40
        0x00002c4c:    f7fff9f6    ....    BL       DrvSYS_Delay ; 0x203c
        0x00002c50:    2200        ."      MOVS     r2,#0
        0x00002c52:    2138        8!      MOVS     r1,#0x38
        0x00002c54:    2068        h       MOVS     r0,#0x68
        0x00002c56:    f000fe0b    ....    BL       writeByte ; 0x3870
        0x00002c5a:    2200        ."      MOVS     r2,#0
        0x00002c5c:    2123        #!      MOVS     r1,#0x23
        0x00002c5e:    2068        h       MOVS     r0,#0x68
        0x00002c60:    f000fe06    ....    BL       writeByte ; 0x3870
        0x00002c64:    2200        ."      MOVS     r2,#0
        0x00002c66:    216b        k!      MOVS     r1,#0x6b
        0x00002c68:    2068        h       MOVS     r0,#0x68
        0x00002c6a:    f000fe01    ....    BL       writeByte ; 0x3870
        0x00002c6e:    2200        ."      MOVS     r2,#0
        0x00002c70:    2124        $!      MOVS     r1,#0x24
        0x00002c72:    2068        h       MOVS     r0,#0x68
        0x00002c74:    f000fdfc    ....    BL       writeByte ; 0x3870
        0x00002c78:    2200        ."      MOVS     r2,#0
        0x00002c7a:    216a        j!      MOVS     r1,#0x6a
        0x00002c7c:    2068        h       MOVS     r0,#0x68
        0x00002c7e:    f000fdf7    ....    BL       writeByte ; 0x3870
        0x00002c82:    220c        ."      MOVS     r2,#0xc
        0x00002c84:    216a        j!      MOVS     r1,#0x6a
        0x00002c86:    2068        h       MOVS     r0,#0x68
        0x00002c88:    f000fdf2    ....    BL       writeByte ; 0x3870
        0x00002c8c:    48e9        .H      LDR      r0,[pc,#932] ; [0x3034] = 0x2710
        0x00002c8e:    f7fff9d5    ....    BL       DrvSYS_Delay ; 0x203c
        0x00002c92:    2201        ."      MOVS     r2,#1
        0x00002c94:    211a        .!      MOVS     r1,#0x1a
        0x00002c96:    2068        h       MOVS     r0,#0x68
        0x00002c98:    f000fdea    ....    BL       writeByte ; 0x3870
        0x00002c9c:    2200        ."      MOVS     r2,#0
        0x00002c9e:    2119        .!      MOVS     r1,#0x19
        0x00002ca0:    2068        h       MOVS     r0,#0x68
        0x00002ca2:    f000fde5    ....    BL       writeByte ; 0x3870
        0x00002ca6:    2200        ."      MOVS     r2,#0
        0x00002ca8:    211b        .!      MOVS     r1,#0x1b
        0x00002caa:    2068        h       MOVS     r0,#0x68
        0x00002cac:    f000fde0    ....    BL       writeByte ; 0x3870
        0x00002cb0:    2200        ."      MOVS     r2,#0
        0x00002cb2:    211c        .!      MOVS     r1,#0x1c
        0x00002cb4:    2068        h       MOVS     r0,#0x68
        0x00002cb6:    f000fddb    ....    BL       writeByte ; 0x3870
        0x00002cba:    2240        @"      MOVS     r2,#0x40
        0x00002cbc:    216a        j!      MOVS     r1,#0x6a
        0x00002cbe:    2068        h       MOVS     r0,#0x68
        0x00002cc0:    f000fdd6    ....    BL       writeByte ; 0x3870
        0x00002cc4:    2278        x"      MOVS     r2,#0x78
        0x00002cc6:    2123        #!      MOVS     r1,#0x23
        0x00002cc8:    2068        h       MOVS     r0,#0x68
        0x00002cca:    f000fdd1    ....    BL       writeByte ; 0x3870
        0x00002cce:    48da        .H      LDR      r0,[pc,#872] ; [0x3038] = 0x9c40
        0x00002cd0:    f7fff9b4    ....    BL       DrvSYS_Delay ; 0x203c
        0x00002cd4:    2200        ."      MOVS     r2,#0
        0x00002cd6:    2123        #!      MOVS     r1,#0x23
        0x00002cd8:    2068        h       MOVS     r0,#0x68
        0x00002cda:    f000fdc9    ....    BL       writeByte ; 0x3870
        0x00002cde:    2172        r!      MOVS     r1,#0x72
        0x00002ce0:    2068        h       MOVS     r0,#0x68
        0x00002ce2:    f000fce5    ....    BL       readByte ; 0x36b0
        0x00002ce6:    a910        ..      ADD      r1,sp,#0x40
        0x00002ce8:    7208        .r      STRB     r0,[r1,#8]
        0x00002cea:    2173        s!      MOVS     r1,#0x73
        0x00002cec:    2068        h       MOVS     r0,#0x68
        0x00002cee:    f000fcdf    ....    BL       readByte ; 0x36b0
        0x00002cf2:    4601        .F      MOV      r1,r0
        0x00002cf4:    a810        ..      ADD      r0,sp,#0x40
        0x00002cf6:    7241        Ar      STRB     r1,[r0,#9]
        0x00002cf8:    7a00        .z      LDRB     r0,[r0,#8]
        0x00002cfa:    0200        ..      LSLS     r0,r0,#8
        0x00002cfc:    a910        ..      ADD      r1,sp,#0x40
        0x00002cfe:    7a49        Iz      LDRB     r1,[r1,#9]
        0x00002d00:    4308        .C      ORRS     r0,r0,r1
        0x00002d02:    9010        ..      STR      r0,[sp,#0x40]
        0x00002d04:    210c        .!      MOVS     r1,#0xc
        0x00002d06:    9810        ..      LDR      r0,[sp,#0x40]
        0x00002d08:    f7fdfb84    ....    BL       __aeabi_idiv ; 0x414
        0x00002d0c:    b280        ..      UXTH     r0,r0
        0x00002d0e:    9011        ..      STR      r0,[sp,#0x44]
        0x00002d10:    2400        .$      MOVS     r4,#0
        0x00002d12:    e0b1        ..      B        0x2e78 ; calibrateMPU9250 + 640
        0x00002d14:    2000        .       MOVS     r0,#0
        0x00002d16:    9002        ..      STR      r0,[sp,#8]
        0x00002d18:    9003        ..      STR      r0,[sp,#0xc]
        0x00002d1a:    9000        ..      STR      r0,[sp,#0]
        0x00002d1c:    9001        ..      STR      r0,[sp,#4]
        0x00002d1e:    213b        ;!      MOVS     r1,#0x3b
        0x00002d20:    2068        h       MOVS     r0,#0x68
        0x00002d22:    f000fcc5    ....    BL       readByte ; 0x36b0
        0x00002d26:    a910        ..      ADD      r1,sp,#0x40
        0x00002d28:    7208        .r      STRB     r0,[r1,#8]
        0x00002d2a:    213c        <!      MOVS     r1,#0x3c
        0x00002d2c:    2068        h       MOVS     r0,#0x68
        0x00002d2e:    f000fcbf    ....    BL       readByte ; 0x36b0
        0x00002d32:    4601        .F      MOV      r1,r0
        0x00002d34:    a810        ..      ADD      r0,sp,#0x40
        0x00002d36:    7241        Ar      STRB     r1,[r0,#9]
        0x00002d38:    213d        =!      MOVS     r1,#0x3d
        0x00002d3a:    2068        h       MOVS     r0,#0x68
        0x00002d3c:    f000fcb8    ....    BL       readByte ; 0x36b0
        0x00002d40:    4601        .F      MOV      r1,r0
        0x00002d42:    a810        ..      ADD      r0,sp,#0x40
        0x00002d44:    7281        .r      STRB     r1,[r0,#0xa]
        0x00002d46:    213e        >!      MOVS     r1,#0x3e
        0x00002d48:    2068        h       MOVS     r0,#0x68
        0x00002d4a:    f000fcb1    ....    BL       readByte ; 0x36b0
        0x00002d4e:    4601        .F      MOV      r1,r0
        0x00002d50:    a810        ..      ADD      r0,sp,#0x40
        0x00002d52:    72c1        .r      STRB     r1,[r0,#0xb]
        0x00002d54:    213f        ?!      MOVS     r1,#0x3f
        0x00002d56:    2068        h       MOVS     r0,#0x68
        0x00002d58:    f000fcaa    ....    BL       readByte ; 0x36b0
        0x00002d5c:    4601        .F      MOV      r1,r0
        0x00002d5e:    a810        ..      ADD      r0,sp,#0x40
        0x00002d60:    7301        .s      STRB     r1,[r0,#0xc]
        0x00002d62:    2140        @!      MOVS     r1,#0x40
        0x00002d64:    2068        h       MOVS     r0,#0x68
        0x00002d66:    f000fca3    ....    BL       readByte ; 0x36b0
        0x00002d6a:    4601        .F      MOV      r1,r0
        0x00002d6c:    a810        ..      ADD      r0,sp,#0x40
        0x00002d6e:    7341        As      STRB     r1,[r0,#0xd]
        0x00002d70:    2143        C!      MOVS     r1,#0x43
        0x00002d72:    2068        h       MOVS     r0,#0x68
        0x00002d74:    f000fc9c    ....    BL       readByte ; 0x36b0
        0x00002d78:    4601        .F      MOV      r1,r0
        0x00002d7a:    a810        ..      ADD      r0,sp,#0x40
        0x00002d7c:    7381        .s      STRB     r1,[r0,#0xe]
        0x00002d7e:    2144        D!      MOVS     r1,#0x44
        0x00002d80:    2068        h       MOVS     r0,#0x68
        0x00002d82:    f000fc95    ....    BL       readByte ; 0x36b0
        0x00002d86:    4601        .F      MOV      r1,r0
        0x00002d88:    a810        ..      ADD      r0,sp,#0x40
        0x00002d8a:    73c1        .s      STRB     r1,[r0,#0xf]
        0x00002d8c:    2145        E!      MOVS     r1,#0x45
        0x00002d8e:    2068        h       MOVS     r0,#0x68
        0x00002d90:    f000fc8e    ....    BL       readByte ; 0x36b0
        0x00002d94:    4601        .F      MOV      r1,r0
        0x00002d96:    a810        ..      ADD      r0,sp,#0x40
        0x00002d98:    7401        .t      STRB     r1,[r0,#0x10]
        0x00002d9a:    2146        F!      MOVS     r1,#0x46
        0x00002d9c:    2068        h       MOVS     r0,#0x68
        0x00002d9e:    f000fc87    ....    BL       readByte ; 0x36b0
        0x00002da2:    4601        .F      MOV      r1,r0
        0x00002da4:    a810        ..      ADD      r0,sp,#0x40
        0x00002da6:    7441        At      STRB     r1,[r0,#0x11]
        0x00002da8:    2147        G!      MOVS     r1,#0x47
        0x00002daa:    2068        h       MOVS     r0,#0x68
        0x00002dac:    f000fc80    ....    BL       readByte ; 0x36b0
        0x00002db0:    4601        .F      MOV      r1,r0
        0x00002db2:    a810        ..      ADD      r0,sp,#0x40
        0x00002db4:    7481        .t      STRB     r1,[r0,#0x12]
        0x00002db6:    2148        H!      MOVS     r1,#0x48
        0x00002db8:    2068        h       MOVS     r0,#0x68
        0x00002dba:    f000fc79    ..y.    BL       readByte ; 0x36b0
        0x00002dbe:    4601        .F      MOV      r1,r0
        0x00002dc0:    a810        ..      ADD      r0,sp,#0x40
        0x00002dc2:    74c1        .t      STRB     r1,[r0,#0x13]
        0x00002dc4:    7a00        .z      LDRB     r0,[r0,#8]
        0x00002dc6:    0201        ..      LSLS     r1,r0,#8
        0x00002dc8:    a810        ..      ADD      r0,sp,#0x40
        0x00002dca:    7a40        @z      LDRB     r0,[r0,#9]
        0x00002dcc:    4301        .C      ORRS     r1,r1,r0
        0x00002dce:    b209        ..      SXTH     r1,r1
        0x00002dd0:    4668        hF      MOV      r0,sp
        0x00002dd2:    8101        ..      STRH     r1,[r0,#8]
        0x00002dd4:    a810        ..      ADD      r0,sp,#0x40
        0x00002dd6:    7a80        .z      LDRB     r0,[r0,#0xa]
        0x00002dd8:    0201        ..      LSLS     r1,r0,#8
        0x00002dda:    a810        ..      ADD      r0,sp,#0x40
        0x00002ddc:    7ac0        .z      LDRB     r0,[r0,#0xb]
        0x00002dde:    4301        .C      ORRS     r1,r1,r0
        0x00002de0:    b209        ..      SXTH     r1,r1
        0x00002de2:    4668        hF      MOV      r0,sp
        0x00002de4:    8141        A.      STRH     r1,[r0,#0xa]
        0x00002de6:    a810        ..      ADD      r0,sp,#0x40
        0x00002de8:    7b00        .{      LDRB     r0,[r0,#0xc]
        0x00002dea:    0201        ..      LSLS     r1,r0,#8
        0x00002dec:    a810        ..      ADD      r0,sp,#0x40
        0x00002dee:    7b40        @{      LDRB     r0,[r0,#0xd]
        0x00002df0:    4301        .C      ORRS     r1,r1,r0
        0x00002df2:    b209        ..      SXTH     r1,r1
        0x00002df4:    4668        hF      MOV      r0,sp
        0x00002df6:    8181        ..      STRH     r1,[r0,#0xc]
        0x00002df8:    a810        ..      ADD      r0,sp,#0x40
        0x00002dfa:    7b80        .{      LDRB     r0,[r0,#0xe]
        0x00002dfc:    0201        ..      LSLS     r1,r0,#8
        0x00002dfe:    a810        ..      ADD      r0,sp,#0x40
        0x00002e00:    7bc0        .{      LDRB     r0,[r0,#0xf]
        0x00002e02:    4301        .C      ORRS     r1,r1,r0
        0x00002e04:    b209        ..      SXTH     r1,r1
        0x00002e06:    4668        hF      MOV      r0,sp
        0x00002e08:    8001        ..      STRH     r1,[r0,#0]
        0x00002e0a:    a810        ..      ADD      r0,sp,#0x40
        0x00002e0c:    7c00        .|      LDRB     r0,[r0,#0x10]
        0x00002e0e:    0201        ..      LSLS     r1,r0,#8
        0x00002e10:    a810        ..      ADD      r0,sp,#0x40
        0x00002e12:    7c40        @|      LDRB     r0,[r0,#0x11]
        0x00002e14:    4301        .C      ORRS     r1,r1,r0
        0x00002e16:    b209        ..      SXTH     r1,r1
        0x00002e18:    4668        hF      MOV      r0,sp
        0x00002e1a:    8041        A.      STRH     r1,[r0,#2]
        0x00002e1c:    a810        ..      ADD      r0,sp,#0x40
        0x00002e1e:    7c80        .|      LDRB     r0,[r0,#0x12]
        0x00002e20:    0201        ..      LSLS     r1,r0,#8
        0x00002e22:    a810        ..      ADD      r0,sp,#0x40
        0x00002e24:    7cc0        .|      LDRB     r0,[r0,#0x13]
        0x00002e26:    4301        .C      ORRS     r1,r1,r0
        0x00002e28:    b209        ..      SXTH     r1,r1
        0x00002e2a:    4668        hF      MOV      r0,sp
        0x00002e2c:    8081        ..      STRH     r1,[r0,#4]
        0x00002e2e:    2208        ."      MOVS     r2,#8
        0x00002e30:    5e82        .^      LDRSH    r2,[r0,r2]
        0x00002e32:    990a        ..      LDR      r1,[sp,#0x28]
        0x00002e34:    1888        ..      ADDS     r0,r1,r2
        0x00002e36:    900a        ..      STR      r0,[sp,#0x28]
        0x00002e38:    4668        hF      MOV      r0,sp
        0x00002e3a:    220a        ."      MOVS     r2,#0xa
        0x00002e3c:    5e82        .^      LDRSH    r2,[r0,r2]
        0x00002e3e:    990b        ..      LDR      r1,[sp,#0x2c]
        0x00002e40:    1888        ..      ADDS     r0,r1,r2
        0x00002e42:    900b        ..      STR      r0,[sp,#0x2c]
        0x00002e44:    4668        hF      MOV      r0,sp
        0x00002e46:    220c        ."      MOVS     r2,#0xc
        0x00002e48:    5e82        .^      LDRSH    r2,[r0,r2]
        0x00002e4a:    990c        ..      LDR      r1,[sp,#0x30]
        0x00002e4c:    1888        ..      ADDS     r0,r1,r2
        0x00002e4e:    900c        ..      STR      r0,[sp,#0x30]
        0x00002e50:    4668        hF      MOV      r0,sp
        0x00002e52:    2200        ."      MOVS     r2,#0
        0x00002e54:    5e82        .^      LDRSH    r2,[r0,r2]
        0x00002e56:    990d        ..      LDR      r1,[sp,#0x34]
        0x00002e58:    1888        ..      ADDS     r0,r1,r2
        0x00002e5a:    900d        ..      STR      r0,[sp,#0x34]
        0x00002e5c:    4668        hF      MOV      r0,sp
        0x00002e5e:    2202        ."      MOVS     r2,#2
        0x00002e60:    5e82        .^      LDRSH    r2,[r0,r2]
        0x00002e62:    990e        ..      LDR      r1,[sp,#0x38]
        0x00002e64:    1888        ..      ADDS     r0,r1,r2
        0x00002e66:    900e        ..      STR      r0,[sp,#0x38]
        0x00002e68:    4668        hF      MOV      r0,sp
        0x00002e6a:    2204        ."      MOVS     r2,#4
        0x00002e6c:    5e82        .^      LDRSH    r2,[r0,r2]
        0x00002e6e:    990f        ..      LDR      r1,[sp,#0x3c]
        0x00002e70:    1888        ..      ADDS     r0,r1,r2
        0x00002e72:    900f        ..      STR      r0,[sp,#0x3c]
        0x00002e74:    1c60        `.      ADDS     r0,r4,#1
        0x00002e76:    b284        ..      UXTH     r4,r0
        0x00002e78:    9811        ..      LDR      r0,[sp,#0x44]
        0x00002e7a:    4284        .B      CMP      r4,r0
        0x00002e7c:    da00        ..      BGE      0x2e80 ; calibrateMPU9250 + 648
        0x00002e7e:    e749        I.      B        0x2d14 ; calibrateMPU9250 + 284
        0x00002e80:    9911        ..      LDR      r1,[sp,#0x44]
        0x00002e82:    980a        ..      LDR      r0,[sp,#0x28]
        0x00002e84:    f7fdfac6    ....    BL       __aeabi_idiv ; 0x414
        0x00002e88:    900a        ..      STR      r0,[sp,#0x28]
        0x00002e8a:    9911        ..      LDR      r1,[sp,#0x44]
        0x00002e8c:    980b        ..      LDR      r0,[sp,#0x2c]
        0x00002e8e:    f7fdfac1    ....    BL       __aeabi_idiv ; 0x414
        0x00002e92:    900b        ..      STR      r0,[sp,#0x2c]
        0x00002e94:    9911        ..      LDR      r1,[sp,#0x44]
        0x00002e96:    980c        ..      LDR      r0,[sp,#0x30]
        0x00002e98:    f7fdfabc    ....    BL       __aeabi_idiv ; 0x414
        0x00002e9c:    900c        ..      STR      r0,[sp,#0x30]
        0x00002e9e:    9911        ..      LDR      r1,[sp,#0x44]
        0x00002ea0:    980d        ..      LDR      r0,[sp,#0x34]
        0x00002ea2:    f7fdfab7    ....    BL       __aeabi_idiv ; 0x414
        0x00002ea6:    900d        ..      STR      r0,[sp,#0x34]
        0x00002ea8:    9911        ..      LDR      r1,[sp,#0x44]
        0x00002eaa:    980e        ..      LDR      r0,[sp,#0x38]
        0x00002eac:    f7fdfab2    ....    BL       __aeabi_idiv ; 0x414
        0x00002eb0:    900e        ..      STR      r0,[sp,#0x38]
        0x00002eb2:    9911        ..      LDR      r1,[sp,#0x44]
        0x00002eb4:    980f        ..      LDR      r0,[sp,#0x3c]
        0x00002eb6:    f7fdfaad    ....    BL       __aeabi_idiv ; 0x414
        0x00002eba:    900f        ..      STR      r0,[sp,#0x3c]
        0x00002ebc:    980c        ..      LDR      r0,[sp,#0x30]
        0x00002ebe:    2800        .(      CMP      r0,#0
        0x00002ec0:    dd03        ..      BLE      0x2eca ; calibrateMPU9250 + 722
        0x00002ec2:    980c        ..      LDR      r0,[sp,#0x30]
        0x00002ec4:    1bc0        ..      SUBS     r0,r0,r7
        0x00002ec6:    900c        ..      STR      r0,[sp,#0x30]
        0x00002ec8:    e002        ..      B        0x2ed0 ; calibrateMPU9250 + 728
        0x00002eca:    980c        ..      LDR      r0,[sp,#0x30]
        0x00002ecc:    19c0        ..      ADDS     r0,r0,r7
        0x00002ece:    900c        ..      STR      r0,[sp,#0x30]
        0x00002ed0:    990d        ..      LDR      r1,[sp,#0x34]
        0x00002ed2:    4248        HB      RSBS     r0,r1,#0
        0x00002ed4:    17c1        ..      ASRS     r1,r0,#31
        0x00002ed6:    0f89        ..      LSRS     r1,r1,#30
        0x00002ed8:    1809        ..      ADDS     r1,r1,r0
        0x00002eda:    0389        ..      LSLS     r1,r1,#14
        0x00002edc:    0e0a        ..      LSRS     r2,r1,#24
        0x00002ede:    a910        ..      ADD      r1,sp,#0x40
        0x00002ee0:    720a        .r      STRB     r2,[r1,#8]
        0x00002ee2:    990d        ..      LDR      r1,[sp,#0x34]
        0x00002ee4:    4248        HB      RSBS     r0,r1,#0
        0x00002ee6:    17c1        ..      ASRS     r1,r0,#31
        0x00002ee8:    0f89        ..      LSRS     r1,r1,#30
        0x00002eea:    1809        ..      ADDS     r1,r1,r0
        0x00002eec:    0589        ..      LSLS     r1,r1,#22
        0x00002eee:    0e0a        ..      LSRS     r2,r1,#24
        0x00002ef0:    a910        ..      ADD      r1,sp,#0x40
        0x00002ef2:    724a        Jr      STRB     r2,[r1,#9]
        0x00002ef4:    990e        ..      LDR      r1,[sp,#0x38]
        0x00002ef6:    4248        HB      RSBS     r0,r1,#0
        0x00002ef8:    17c1        ..      ASRS     r1,r0,#31
        0x00002efa:    0f89        ..      LSRS     r1,r1,#30
        0x00002efc:    1809        ..      ADDS     r1,r1,r0
        0x00002efe:    0389        ..      LSLS     r1,r1,#14
        0x00002f00:    0e0a        ..      LSRS     r2,r1,#24
        0x00002f02:    a910        ..      ADD      r1,sp,#0x40
        0x00002f04:    728a        .r      STRB     r2,[r1,#0xa]
        0x00002f06:    990e        ..      LDR      r1,[sp,#0x38]
        0x00002f08:    4248        HB      RSBS     r0,r1,#0
        0x00002f0a:    17c1        ..      ASRS     r1,r0,#31
        0x00002f0c:    0f89        ..      LSRS     r1,r1,#30
        0x00002f0e:    1809        ..      ADDS     r1,r1,r0
        0x00002f10:    0589        ..      LSLS     r1,r1,#22
        0x00002f12:    0e0a        ..      LSRS     r2,r1,#24
        0x00002f14:    a910        ..      ADD      r1,sp,#0x40
        0x00002f16:    72ca        .r      STRB     r2,[r1,#0xb]
        0x00002f18:    990f        ..      LDR      r1,[sp,#0x3c]
        0x00002f1a:    4248        HB      RSBS     r0,r1,#0
        0x00002f1c:    17c1        ..      ASRS     r1,r0,#31
        0x00002f1e:    0f89        ..      LSRS     r1,r1,#30
        0x00002f20:    1809        ..      ADDS     r1,r1,r0
        0x00002f22:    0389        ..      LSLS     r1,r1,#14
        0x00002f24:    0e0a        ..      LSRS     r2,r1,#24
        0x00002f26:    a910        ..      ADD      r1,sp,#0x40
        0x00002f28:    730a        .s      STRB     r2,[r1,#0xc]
        0x00002f2a:    990f        ..      LDR      r1,[sp,#0x3c]
        0x00002f2c:    4248        HB      RSBS     r0,r1,#0
        0x00002f2e:    17c1        ..      ASRS     r1,r0,#31
        0x00002f30:    0f89        ..      LSRS     r1,r1,#30
        0x00002f32:    1809        ..      ADDS     r1,r1,r0
        0x00002f34:    0589        ..      LSLS     r1,r1,#22
        0x00002f36:    0e0a        ..      LSRS     r2,r1,#24
        0x00002f38:    a910        ..      ADD      r1,sp,#0x40
        0x00002f3a:    734a        Js      STRB     r2,[r1,#0xd]
        0x00002f3c:    9807        ..      LDR      r0,[sp,#0x1c]
        0x00002f3e:    f7fef999    ....    BL       __aeabi_ui2f ; 0x1274
        0x00002f42:    9003        ..      STR      r0,[sp,#0xc]
        0x00002f44:    980d        ..      LDR      r0,[sp,#0x34]
        0x00002f46:    f7fef98d    ....    BL       __aeabi_i2f ; 0x1264
        0x00002f4a:    9002        ..      STR      r0,[sp,#8]
        0x00002f4c:    9903        ..      LDR      r1,[sp,#0xc]
        0x00002f4e:    f7fef88f    ....    BL       __aeabi_fdiv ; 0x1070
        0x00002f52:    6028        (`      STR      r0,[r5,#0]
        0x00002f54:    9807        ..      LDR      r0,[sp,#0x1c]
        0x00002f56:    f7fef98d    ....    BL       __aeabi_ui2f ; 0x1274
        0x00002f5a:    9003        ..      STR      r0,[sp,#0xc]
        0x00002f5c:    980e        ..      LDR      r0,[sp,#0x38]
        0x00002f5e:    f7fef981    ....    BL       __aeabi_i2f ; 0x1264
        0x00002f62:    9002        ..      STR      r0,[sp,#8]
        0x00002f64:    9903        ..      LDR      r1,[sp,#0xc]
        0x00002f66:    f7fef883    ....    BL       __aeabi_fdiv ; 0x1070
        0x00002f6a:    6068        h`      STR      r0,[r5,#4]
        0x00002f6c:    9807        ..      LDR      r0,[sp,#0x1c]
        0x00002f6e:    f7fef981    ....    BL       __aeabi_ui2f ; 0x1274
        0x00002f72:    9003        ..      STR      r0,[sp,#0xc]
        0x00002f74:    980f        ..      LDR      r0,[sp,#0x3c]
        0x00002f76:    f7fef975    ..u.    BL       __aeabi_i2f ; 0x1264
        0x00002f7a:    9002        ..      STR      r0,[sp,#8]
        0x00002f7c:    9903        ..      LDR      r1,[sp,#0xc]
        0x00002f7e:    f7fef877    ..w.    BL       __aeabi_fdiv ; 0x1070
        0x00002f82:    60a8        .`      STR      r0,[r5,#8]
        0x00002f84:    2177        w!      MOVS     r1,#0x77
        0x00002f86:    2068        h       MOVS     r0,#0x68
        0x00002f88:    f000fb92    ....    BL       readByte ; 0x36b0
        0x00002f8c:    a910        ..      ADD      r1,sp,#0x40
        0x00002f8e:    7208        .r      STRB     r0,[r1,#8]
        0x00002f90:    2178        x!      MOVS     r1,#0x78
        0x00002f92:    2068        h       MOVS     r0,#0x68
        0x00002f94:    f000fb8c    ....    BL       readByte ; 0x36b0
        0x00002f98:    a910        ..      ADD      r1,sp,#0x40
        0x00002f9a:    7248        Hr      STRB     r0,[r1,#9]
        0x00002f9c:    a810        ..      ADD      r0,sp,#0x40
        0x00002f9e:    7a00        .z      LDRB     r0,[r0,#8]
        0x00002fa0:    0200        ..      LSLS     r0,r0,#8
        0x00002fa2:    b201        ..      SXTH     r1,r0
        0x00002fa4:    a810        ..      ADD      r0,sp,#0x40
        0x00002fa6:    7a40        @z      LDRB     r0,[r0,#9]
        0x00002fa8:    4301        .C      ORRS     r1,r1,r0
        0x00002faa:    9104        ..      STR      r1,[sp,#0x10]
        0x00002fac:    217a        z!      MOVS     r1,#0x7a
        0x00002fae:    2068        h       MOVS     r0,#0x68
        0x00002fb0:    f000fb7e    ..~.    BL       readByte ; 0x36b0
        0x00002fb4:    4601        .F      MOV      r1,r0
        0x00002fb6:    a810        ..      ADD      r0,sp,#0x40
        0x00002fb8:    7201        .r      STRB     r1,[r0,#8]
        0x00002fba:    217b        {!      MOVS     r1,#0x7b
        0x00002fbc:    2068        h       MOVS     r0,#0x68
        0x00002fbe:    f000fb77    ..w.    BL       readByte ; 0x36b0
        0x00002fc2:    4601        .F      MOV      r1,r0
        0x00002fc4:    a810        ..      ADD      r0,sp,#0x40
        0x00002fc6:    7241        Ar      STRB     r1,[r0,#9]
        0x00002fc8:    7a00        .z      LDRB     r0,[r0,#8]
        0x00002fca:    0200        ..      LSLS     r0,r0,#8
        0x00002fcc:    b201        ..      SXTH     r1,r0
        0x00002fce:    a810        ..      ADD      r0,sp,#0x40
        0x00002fd0:    7a40        @z      LDRB     r0,[r0,#9]
        0x00002fd2:    4301        .C      ORRS     r1,r1,r0
        0x00002fd4:    9105        ..      STR      r1,[sp,#0x14]
        0x00002fd6:    217d        }!      MOVS     r1,#0x7d
        0x00002fd8:    2068        h       MOVS     r0,#0x68
        0x00002fda:    f000fb69    ..i.    BL       readByte ; 0x36b0
        0x00002fde:    4601        .F      MOV      r1,r0
        0x00002fe0:    a810        ..      ADD      r0,sp,#0x40
        0x00002fe2:    7201        .r      STRB     r1,[r0,#8]
        0x00002fe4:    217e        ~!      MOVS     r1,#0x7e
        0x00002fe6:    2068        h       MOVS     r0,#0x68
        0x00002fe8:    f000fb62    ..b.    BL       readByte ; 0x36b0
        0x00002fec:    4601        .F      MOV      r1,r0
        0x00002fee:    a810        ..      ADD      r0,sp,#0x40
        0x00002ff0:    7241        Ar      STRB     r1,[r0,#9]
        0x00002ff2:    7a00        .z      LDRB     r0,[r0,#8]
        0x00002ff4:    0200        ..      LSLS     r0,r0,#8
        0x00002ff6:    b200        ..      SXTH     r0,r0
        0x00002ff8:    a910        ..      ADD      r1,sp,#0x40
        0x00002ffa:    7a49        Iz      LDRB     r1,[r1,#9]
        0x00002ffc:    4308        .C      ORRS     r0,r0,r1
        0x00002ffe:    9006        ..      STR      r0,[sp,#0x18]
        0x00003000:    2400        .$      MOVS     r4,#0
        0x00003002:    e00b        ..      B        0x301c ; calibrateMPU9250 + 1060
        0x00003004:    00a0        ..      LSLS     r0,r4,#2
        0x00003006:    a904        ..      ADD      r1,sp,#0x10
        0x00003008:    5808        .X      LDR      r0,[r1,r0]
        0x0000300a:    9909        ..      LDR      r1,[sp,#0x24]
        0x0000300c:    4008        .@      ANDS     r0,r0,r1
        0x0000300e:    2800        .(      CMP      r0,#0
        0x00003010:    d002        ..      BEQ      0x3018 ; calibrateMPU9250 + 1056
        0x00003012:    2001        .       MOVS     r0,#1
        0x00003014:    a908        ..      ADD      r1,sp,#0x20
        0x00003016:    5508        .U      STRB     r0,[r1,r4]
        0x00003018:    1c60        `.      ADDS     r0,r4,#1
        0x0000301a:    b284        ..      UXTH     r4,r0
        0x0000301c:    2c03        .,      CMP      r4,#3
        0x0000301e:    dbf1        ..      BLT      0x3004 ; calibrateMPU9250 + 1036
        0x00003020:    980a        ..      LDR      r0,[sp,#0x28]
        0x00003022:    17c1        ..      ASRS     r1,r0,#31
        0x00003024:    0f49        I.      LSRS     r1,r1,#29
        0x00003026:    1809        ..      ADDS     r1,r1,r0
        0x00003028:    10c9        ..      ASRS     r1,r1,#3
        0x0000302a:    e007        ..      B        0x303c ; calibrateMPU9250 + 1092
    $d
        0x0000302c:    000186a0    ....    DCD    100000
        0x00003030:    00030d40    @...    DCD    200000
        0x00003034:    00002710    .'..    DCD    10000
        0x00003038:    00009c40    @...    DCD    40000
    $t
        0x0000303c:    9a04        ..      LDR      r2,[sp,#0x10]
        0x0000303e:    1a51        Q.      SUBS     r1,r2,r1
        0x00003040:    9104        ..      STR      r1,[sp,#0x10]
        0x00003042:    980b        ..      LDR      r0,[sp,#0x2c]
        0x00003044:    17c1        ..      ASRS     r1,r0,#31
        0x00003046:    0f49        I.      LSRS     r1,r1,#29
        0x00003048:    1809        ..      ADDS     r1,r1,r0
        0x0000304a:    10c9        ..      ASRS     r1,r1,#3
        0x0000304c:    9a05        ..      LDR      r2,[sp,#0x14]
        0x0000304e:    1a51        Q.      SUBS     r1,r2,r1
        0x00003050:    9105        ..      STR      r1,[sp,#0x14]
        0x00003052:    980c        ..      LDR      r0,[sp,#0x30]
        0x00003054:    17c1        ..      ASRS     r1,r0,#31
        0x00003056:    0f49        I.      LSRS     r1,r1,#29
        0x00003058:    1809        ..      ADDS     r1,r1,r0
        0x0000305a:    10c9        ..      ASRS     r1,r1,#3
        0x0000305c:    9a06        ..      LDR      r2,[sp,#0x18]
        0x0000305e:    1a51        Q.      SUBS     r1,r2,r1
        0x00003060:    9106        ..      STR      r1,[sp,#0x18]
        0x00003062:    9804        ..      LDR      r0,[sp,#0x10]
        0x00003064:    0400        ..      LSLS     r0,r0,#16
        0x00003066:    0e01        ..      LSRS     r1,r0,#24
        0x00003068:    a810        ..      ADD      r0,sp,#0x40
        0x0000306a:    7201        .r      STRB     r1,[r0,#8]
        0x0000306c:    9804        ..      LDR      r0,[sp,#0x10]
        0x0000306e:    b2c1        ..      UXTB     r1,r0
        0x00003070:    a810        ..      ADD      r0,sp,#0x40
        0x00003072:    7241        Ar      STRB     r1,[r0,#9]
        0x00003074:    7a41        Az      LDRB     r1,[r0,#9]
        0x00003076:    a808        ..      ADD      r0,sp,#0x20
        0x00003078:    7800        .x      LDRB     r0,[r0,#0]
        0x0000307a:    4301        .C      ORRS     r1,r1,r0
        0x0000307c:    a810        ..      ADD      r0,sp,#0x40
        0x0000307e:    7241        Ar      STRB     r1,[r0,#9]
        0x00003080:    9805        ..      LDR      r0,[sp,#0x14]
        0x00003082:    0400        ..      LSLS     r0,r0,#16
        0x00003084:    0e01        ..      LSRS     r1,r0,#24
        0x00003086:    a810        ..      ADD      r0,sp,#0x40
        0x00003088:    7281        .r      STRB     r1,[r0,#0xa]
        0x0000308a:    9805        ..      LDR      r0,[sp,#0x14]
        0x0000308c:    b2c1        ..      UXTB     r1,r0
        0x0000308e:    a810        ..      ADD      r0,sp,#0x40
        0x00003090:    72c1        .r      STRB     r1,[r0,#0xb]
        0x00003092:    7ac1        .z      LDRB     r1,[r0,#0xb]
        0x00003094:    a808        ..      ADD      r0,sp,#0x20
        0x00003096:    7840        @x      LDRB     r0,[r0,#1]
        0x00003098:    4301        .C      ORRS     r1,r1,r0
        0x0000309a:    a810        ..      ADD      r0,sp,#0x40
        0x0000309c:    72c1        .r      STRB     r1,[r0,#0xb]
        0x0000309e:    9806        ..      LDR      r0,[sp,#0x18]
        0x000030a0:    0400        ..      LSLS     r0,r0,#16
        0x000030a2:    0e01        ..      LSRS     r1,r0,#24
        0x000030a4:    a810        ..      ADD      r0,sp,#0x40
        0x000030a6:    7301        .s      STRB     r1,[r0,#0xc]
        0x000030a8:    9806        ..      LDR      r0,[sp,#0x18]
        0x000030aa:    b2c1        ..      UXTB     r1,r0
        0x000030ac:    a810        ..      ADD      r0,sp,#0x40
        0x000030ae:    7341        As      STRB     r1,[r0,#0xd]
        0x000030b0:    7b41        A{      LDRB     r1,[r0,#0xd]
        0x000030b2:    a808        ..      ADD      r0,sp,#0x20
        0x000030b4:    7880        .x      LDRB     r0,[r0,#2]
        0x000030b6:    4301        .C      ORRS     r1,r1,r0
        0x000030b8:    a810        ..      ADD      r0,sp,#0x40
        0x000030ba:    7341        As      STRB     r1,[r0,#0xd]
        0x000030bc:    4638        8F      MOV      r0,r7
        0x000030be:    f7fef8d9    ....    BL       __aeabi_ui2f ; 0x1274
        0x000030c2:    9003        ..      STR      r0,[sp,#0xc]
        0x000030c4:    980a        ..      LDR      r0,[sp,#0x28]
        0x000030c6:    f7fef8cd    ....    BL       __aeabi_i2f ; 0x1264
        0x000030ca:    9002        ..      STR      r0,[sp,#8]
        0x000030cc:    9903        ..      LDR      r1,[sp,#0xc]
        0x000030ce:    f7fdffcf    ....    BL       __aeabi_fdiv ; 0x1070
        0x000030d2:    6030        0`      STR      r0,[r6,#0]
        0x000030d4:    4638        8F      MOV      r0,r7
        0x000030d6:    f7fef8cd    ....    BL       __aeabi_ui2f ; 0x1274
        0x000030da:    9003        ..      STR      r0,[sp,#0xc]
        0x000030dc:    980b        ..      LDR      r0,[sp,#0x2c]
        0x000030de:    f7fef8c1    ....    BL       __aeabi_i2f ; 0x1264
        0x000030e2:    9002        ..      STR      r0,[sp,#8]
        0x000030e4:    9903        ..      LDR      r1,[sp,#0xc]
        0x000030e6:    f7fdffc3    ....    BL       __aeabi_fdiv ; 0x1070
        0x000030ea:    6070        p`      STR      r0,[r6,#4]
        0x000030ec:    4638        8F      MOV      r0,r7
        0x000030ee:    f7fef8c1    ....    BL       __aeabi_ui2f ; 0x1274
        0x000030f2:    9003        ..      STR      r0,[sp,#0xc]
        0x000030f4:    980c        ..      LDR      r0,[sp,#0x30]
        0x000030f6:    f7fef8b5    ....    BL       __aeabi_i2f ; 0x1264
        0x000030fa:    9002        ..      STR      r0,[sp,#8]
        0x000030fc:    9903        ..      LDR      r1,[sp,#0xc]
        0x000030fe:    f7fdffb7    ....    BL       __aeabi_fdiv ; 0x1070
        0x00003102:    60b0        .`      STR      r0,[r6,#8]
        0x00003104:    b015        ..      ADD      sp,sp,#0x54
        0x00003106:    bdf0        ..      POP      {r4-r7,pc}
    i.initAK8963
    initAK8963
        0x00003108:    b5f8        ..      PUSH     {r3-r7,lr}
        0x0000310a:    4604        .F      MOV      r4,r0
        0x0000310c:    2200        ."      MOVS     r2,#0
        0x0000310e:    210a        .!      MOVS     r1,#0xa
        0x00003110:    200c        .       MOVS     r0,#0xc
        0x00003112:    f000fbad    ....    BL       writeByte ; 0x3870
        0x00003116:    4831        1H      LDR      r0,[pc,#196] ; [0x31dc] = 0x2710
        0x00003118:    f7feff90    ....    BL       DrvSYS_Delay ; 0x203c
        0x0000311c:    220f        ."      MOVS     r2,#0xf
        0x0000311e:    210a        .!      MOVS     r1,#0xa
        0x00003120:    200c        .       MOVS     r0,#0xc
        0x00003122:    f000fba5    ....    BL       writeByte ; 0x3870
        0x00003126:    482d        -H      LDR      r0,[pc,#180] ; [0x31dc] = 0x2710
        0x00003128:    f7feff88    ....    BL       DrvSYS_Delay ; 0x203c
        0x0000312c:    2110        .!      MOVS     r1,#0x10
        0x0000312e:    200c        .       MOVS     r0,#0xc
        0x00003130:    f000fabe    ....    BL       readByte ; 0x36b0
        0x00003134:    4669        iF      MOV      r1,sp
        0x00003136:    7008        .p      STRB     r0,[r1,#0]
        0x00003138:    2111        .!      MOVS     r1,#0x11
        0x0000313a:    200c        .       MOVS     r0,#0xc
        0x0000313c:    f000fab8    ....    BL       readByte ; 0x36b0
        0x00003140:    4601        .F      MOV      r1,r0
        0x00003142:    4668        hF      MOV      r0,sp
        0x00003144:    7041        Ap      STRB     r1,[r0,#1]
        0x00003146:    2112        .!      MOVS     r1,#0x12
        0x00003148:    200c        .       MOVS     r0,#0xc
        0x0000314a:    f000fab1    ....    BL       readByte ; 0x36b0
        0x0000314e:    4601        .F      MOV      r1,r0
        0x00003150:    4668        hF      MOV      r0,sp
        0x00003152:    7081        .p      STRB     r1,[r0,#2]
        0x00003154:    4669        iF      MOV      r1,sp
        0x00003156:    7809        .x      LDRB     r1,[r1,#0]
        0x00003158:    4608        .F      MOV      r0,r1
        0x0000315a:    3880        .8      SUBS     r0,r0,#0x80
        0x0000315c:    f7fef882    ....    BL       __aeabi_i2f ; 0x1264
        0x00003160:    4606        .F      MOV      r6,r0
        0x00003162:    2187        .!      MOVS     r1,#0x87
        0x00003164:    05c9        ..      LSLS     r1,r1,#23
        0x00003166:    f7fdff83    ....    BL       __aeabi_fdiv ; 0x1070
        0x0000316a:    4605        .F      MOV      r5,r0
        0x0000316c:    217f        .!      MOVS     r1,#0x7f
        0x0000316e:    05c9        ..      LSLS     r1,r1,#23
        0x00003170:    f000fbf2    ....    BL       __aeabi_fadd ; 0x3958
        0x00003174:    6020         `      STR      r0,[r4,#0]
        0x00003176:    4669        iF      MOV      r1,sp
        0x00003178:    7849        Ix      LDRB     r1,[r1,#1]
        0x0000317a:    4608        .F      MOV      r0,r1
        0x0000317c:    3880        .8      SUBS     r0,r0,#0x80
        0x0000317e:    f7fef871    ..q.    BL       __aeabi_i2f ; 0x1264
        0x00003182:    4606        .F      MOV      r6,r0
        0x00003184:    2187        .!      MOVS     r1,#0x87
        0x00003186:    05c9        ..      LSLS     r1,r1,#23
        0x00003188:    f7fdff72    ..r.    BL       __aeabi_fdiv ; 0x1070
        0x0000318c:    4605        .F      MOV      r5,r0
        0x0000318e:    217f        .!      MOVS     r1,#0x7f
        0x00003190:    05c9        ..      LSLS     r1,r1,#23
        0x00003192:    f000fbe1    ....    BL       __aeabi_fadd ; 0x3958
        0x00003196:    6060        ``      STR      r0,[r4,#4]
        0x00003198:    4669        iF      MOV      r1,sp
        0x0000319a:    7889        .x      LDRB     r1,[r1,#2]
        0x0000319c:    4608        .F      MOV      r0,r1
        0x0000319e:    3880        .8      SUBS     r0,r0,#0x80
        0x000031a0:    f7fef860    ..`.    BL       __aeabi_i2f ; 0x1264
        0x000031a4:    4606        .F      MOV      r6,r0
        0x000031a6:    2187        .!      MOVS     r1,#0x87
        0x000031a8:    05c9        ..      LSLS     r1,r1,#23
        0x000031aa:    f7fdff61    ..a.    BL       __aeabi_fdiv ; 0x1070
        0x000031ae:    4605        .F      MOV      r5,r0
        0x000031b0:    217f        .!      MOVS     r1,#0x7f
        0x000031b2:    05c9        ..      LSLS     r1,r1,#23
        0x000031b4:    f000fbd0    ....    BL       __aeabi_fadd ; 0x3958
        0x000031b8:    60a0        .`      STR      r0,[r4,#8]
        0x000031ba:    2200        ."      MOVS     r2,#0
        0x000031bc:    210a        .!      MOVS     r1,#0xa
        0x000031be:    200c        .       MOVS     r0,#0xc
        0x000031c0:    f000fb56    ..V.    BL       writeByte ; 0x3870
        0x000031c4:    4805        .H      LDR      r0,[pc,#20] ; [0x31dc] = 0x2710
        0x000031c6:    f7feff39    ..9.    BL       DrvSYS_Delay ; 0x203c
        0x000031ca:    2212        ."      MOVS     r2,#0x12
        0x000031cc:    210a        .!      MOVS     r1,#0xa
        0x000031ce:    200c        .       MOVS     r0,#0xc
        0x000031d0:    f000fb4e    ..N.    BL       writeByte ; 0x3870
        0x000031d4:    4801        .H      LDR      r0,[pc,#4] ; [0x31dc] = 0x2710
        0x000031d6:    f7feff31    ..1.    BL       DrvSYS_Delay ; 0x203c
        0x000031da:    bdf8        ..      POP      {r3-r7,pc}
    $d
        0x000031dc:    00002710    .'..    DCD    10000
    $t
    i.initMPU9250
    initMPU9250
        0x000031e0:    b510        ..      PUSH     {r4,lr}
        0x000031e2:    2200        ."      MOVS     r2,#0
        0x000031e4:    216b        k!      MOVS     r1,#0x6b
        0x000031e6:    2068        h       MOVS     r0,#0x68
        0x000031e8:    f000fb42    ..B.    BL       writeByte ; 0x3870
        0x000031ec:    4825        %H      LDR      r0,[pc,#148] ; [0x3284] = 0x186a0
        0x000031ee:    f7feff25    ..%.    BL       DrvSYS_Delay ; 0x203c
        0x000031f2:    2201        ."      MOVS     r2,#1
        0x000031f4:    216b        k!      MOVS     r1,#0x6b
        0x000031f6:    2068        h       MOVS     r0,#0x68
        0x000031f8:    f000fb3a    ..:.    BL       writeByte ; 0x3870
        0x000031fc:    2203        ."      MOVS     r2,#3
        0x000031fe:    211a        .!      MOVS     r1,#0x1a
        0x00003200:    2068        h       MOVS     r0,#0x68
        0x00003202:    f000fb35    ..5.    BL       writeByte ; 0x3870
        0x00003206:    2204        ."      MOVS     r2,#4
        0x00003208:    2119        .!      MOVS     r1,#0x19
        0x0000320a:    2068        h       MOVS     r0,#0x68
        0x0000320c:    f000fb30    ..0.    BL       writeByte ; 0x3870
        0x00003210:    211b        .!      MOVS     r1,#0x1b
        0x00003212:    2068        h       MOVS     r0,#0x68
        0x00003214:    f000fa4c    ..L.    BL       readByte ; 0x36b0
        0x00003218:    4604        .F      MOV      r4,r0
        0x0000321a:    2102        .!      MOVS     r1,#2
        0x0000321c:    4620         F      MOV      r0,r4
        0x0000321e:    4388        .C      BICS     r0,r0,r1
        0x00003220:    4604        .F      MOV      r4,r0
        0x00003222:    2118        .!      MOVS     r1,#0x18
        0x00003224:    4620         F      MOV      r0,r4
        0x00003226:    4388        .C      BICS     r0,r0,r1
        0x00003228:    4604        .F      MOV      r4,r0
        0x0000322a:    4622        "F      MOV      r2,r4
        0x0000322c:    211b        .!      MOVS     r1,#0x1b
        0x0000322e:    2068        h       MOVS     r0,#0x68
        0x00003230:    f000fb1e    ....    BL       writeByte ; 0x3870
        0x00003234:    211c        .!      MOVS     r1,#0x1c
        0x00003236:    2068        h       MOVS     r0,#0x68
        0x00003238:    f000fa3a    ..:.    BL       readByte ; 0x36b0
        0x0000323c:    4604        .F      MOV      r4,r0
        0x0000323e:    2118        .!      MOVS     r1,#0x18
        0x00003240:    4620         F      MOV      r0,r4
        0x00003242:    4388        .C      BICS     r0,r0,r1
        0x00003244:    4604        .F      MOV      r4,r0
        0x00003246:    4622        "F      MOV      r2,r4
        0x00003248:    211c        .!      MOVS     r1,#0x1c
        0x0000324a:    2068        h       MOVS     r0,#0x68
        0x0000324c:    f000fb10    ....    BL       writeByte ; 0x3870
        0x00003250:    211d        .!      MOVS     r1,#0x1d
        0x00003252:    2068        h       MOVS     r0,#0x68
        0x00003254:    f000fa2c    ..,.    BL       readByte ; 0x36b0
        0x00003258:    4604        .F      MOV      r4,r0
        0x0000325a:    0924        $.      LSRS     r4,r4,#4
        0x0000325c:    0124        $.      LSLS     r4,r4,#4
        0x0000325e:    2003        .       MOVS     r0,#3
        0x00003260:    4304        .C      ORRS     r4,r4,r0
        0x00003262:    4622        "F      MOV      r2,r4
        0x00003264:    211d        .!      MOVS     r1,#0x1d
        0x00003266:    2068        h       MOVS     r0,#0x68
        0x00003268:    f000fb02    ....    BL       writeByte ; 0x3870
        0x0000326c:    2222        ""      MOVS     r2,#0x22
        0x0000326e:    2137        7!      MOVS     r1,#0x37
        0x00003270:    2068        h       MOVS     r0,#0x68
        0x00003272:    f000fafd    ....    BL       writeByte ; 0x3870
        0x00003276:    2201        ."      MOVS     r2,#1
        0x00003278:    2138        8!      MOVS     r1,#0x38
        0x0000327a:    2068        h       MOVS     r0,#0x68
        0x0000327c:    f000faf8    ....    BL       writeByte ; 0x3870
        0x00003280:    bd10        ..      POP      {r4,pc}
    $d
        0x00003282:    0000        ..      DCW    0
        0x00003284:    000186a0    ....    DCD    100000
    $t
    i.main
    main
        0x00003288:    b0b2        ..      SUB      sp,sp,#0xc8
        0x0000328a:    2000        .       MOVS     r0,#0
        0x0000328c:    902c        ,.      STR      r0,[sp,#0xb0]
        0x0000328e:    902b        +.      STR      r0,[sp,#0xac]
        0x00003290:    902a        *.      STR      r0,[sp,#0xa8]
        0x00003292:    bf00        ..      NOP      
        0x00003294:    bf00        ..      NOP      
        0x00003296:    bf00        ..      NOP      
        0x00003298:    bf00        ..      NOP      
        0x0000329a:    bf00        ..      NOP      
        0x0000329c:    bf00        ..      NOP      
        0x0000329e:    bf00        ..      NOP      
        0x000032a0:    bf00        ..      NOP      
        0x000032a2:    2160        `!      MOVS     r1,#0x60
        0x000032a4:    a812        ..      ADD      r0,sp,#0x48
        0x000032a6:    f7fdf8a9    ....    BL       __aeabi_memclr4 ; 0x3fc
        0x000032aa:    48c7        .H      LDR      r0,[pc,#796] ; [0x35c8] = 0x3b64
        0x000032ac:    6800        .h      LDR      r0,[r0,#0]
        0x000032ae:    9011        ..      STR      r0,[sp,#0x44]
        0x000032b0:    f7fffb14    ....    BL       InitHCLK12M ; 0x28dc
        0x000032b4:    2059        Y       MOVS     r0,#0x59
        0x000032b6:    49c5        .I      LDR      r1,[pc,#788] ; [0x35cc] = 0x50000100
        0x000032b8:    6008        .`      STR      r0,[r1,#0]
        0x000032ba:    2016        .       MOVS     r0,#0x16
        0x000032bc:    6008        .`      STR      r0,[r1,#0]
        0x000032be:    2088        .       MOVS     r0,#0x88
        0x000032c0:    6008        .`      STR      r0,[r1,#0]
        0x000032c2:    48c3        .H      LDR      r0,[pc,#780] ; [0x35d0] = 0x2dc6c00
        0x000032c4:    f7feffb2    ....    BL       DrvSYS_Open ; 0x222c
        0x000032c8:    2101        .!      MOVS     r1,#1
        0x000032ca:    2000        .       MOVS     r0,#0
        0x000032cc:    f7fff82a    ..*.    BL       DrvSYS_SetOscCtrl ; 0x2324
        0x000032d0:    48c0        .H      LDR      r0,[pc,#768] ; [0x35d4] = 0x4e20
        0x000032d2:    f7fefeb3    ....    BL       DrvSYS_Delay ; 0x203c
        0x000032d6:    bf00        ..      NOP      
        0x000032d8:    48bf        .H      LDR      r0,[pc,#764] ; [0x35d8] = 0x50000200
        0x000032da:    68c0        .h      LDR      r0,[r0,#0xc]
        0x000032dc:    07c0        ..      LSLS     r0,r0,#31
        0x000032de:    0fc0        ..      LSRS     r0,r0,#31
        0x000032e0:    2800        .(      CMP      r0,#0
        0x000032e2:    d0f9        ..      BEQ      0x32d8 ; main + 80
        0x000032e4:    2000        .       MOVS     r0,#0
        0x000032e6:    f7fff801    ....    BL       DrvSYS_SelectHCLKSource ; 0x22ec
        0x000032ea:    2000        .       MOVS     r0,#0
        0x000032ec:    49b7        .I      LDR      r1,[pc,#732] ; [0x35cc] = 0x50000100
        0x000032ee:    6008        .`      STR      r0,[r1,#0]
        0x000032f0:    2003        .       MOVS     r0,#3
        0x000032f2:    f7fefa0b    ....    BL       DrvGPIO_InitFunction ; 0x170c
        0x000032f6:    2029        )       MOVS     r0,#0x29
        0x000032f8:    f7fefa08    ....    BL       DrvGPIO_InitFunction ; 0x170c
        0x000032fc:    20e1        .       MOVS     r0,#0xe1
        0x000032fe:    0240        @.      LSLS     r0,r0,#9
        0x00003300:    902f        /.      STR      r0,[sp,#0xbc]
        0x00003302:    2103        .!      MOVS     r1,#3
        0x00003304:    a830        0.      ADD      r0,sp,#0xc0
        0x00003306:    7001        .p      STRB     r1,[r0,#0]
        0x00003308:    2100        .!      MOVS     r1,#0
        0x0000330a:    7041        Ap      STRB     r1,[r0,#1]
        0x0000330c:    7081        .p      STRB     r1,[r0,#2]
        0x0000330e:    70c1        .p      STRB     r1,[r0,#3]
        0x00003310:    a92f        /.      ADD      r1,sp,#0xbc
        0x00003312:    2000        .       MOVS     r0,#0
        0x00003314:    f7fff86c    ..l.    BL       DrvUART_Open ; 0x23f0
        0x00003318:    f000faa3    ....    BL       resetMPU9250 ; 0x3862
        0x0000331c:    49af        .I      LDR      r1,[pc,#700] ; [0x35dc] = 0x200000dc
        0x0000331e:    48b0        .H      LDR      r0,[pc,#704] ; [0x35e0] = 0x200000d0
        0x00003320:    f7fffc6a    ..j.    BL       calibrateMPU9250 ; 0x2bf8
        0x00003324:    f7ffff5c    ..\.    BL       initMPU9250 ; 0x31e0
        0x00003328:    48ae        .H      LDR      r0,[pc,#696] ; [0x35e4] = 0x200000b8
        0x0000332a:    f7fffeed    ....    BL       initAK8963 ; 0x3108
        0x0000332e:    48ae        .H      LDR      r0,[pc,#696] ; [0x35e8] = 0x493e0
        0x00003330:    f7fefe84    ....    BL       DrvSYS_Delay ; 0x203c
        0x00003334:    e146        F.      B        0x35c4 ; main + 828
        0x00003336:    2202        ."      MOVS     r2,#2
        0x00003338:    2137        7!      MOVS     r1,#0x37
        0x0000333a:    2068        h       MOVS     r0,#0x68
        0x0000333c:    f000fa98    ....    BL       writeByte ; 0x3870
        0x00003340:    2201        ."      MOVS     r2,#1
        0x00003342:    216a        j!      MOVS     r1,#0x6a
        0x00003344:    2068        h       MOVS     r0,#0x68
        0x00003346:    f000fa93    ....    BL       writeByte ; 0x3870
        0x0000334a:    48a8        .H      LDR      r0,[pc,#672] ; [0x35ec] = 0x2710
        0x0000334c:    f7fefe76    ..v.    BL       DrvSYS_Delay ; 0x203c
        0x00003350:    48a7        .H      LDR      r0,[pc,#668] ; [0x35f0] = 0x2000001c
        0x00003352:    f000f969    ..i.    BL       readAccelData ; 0x3628
        0x00003356:    48a7        .H      LDR      r0,[pc,#668] ; [0x35f4] = 0x20000022
        0x00003358:    f000fa40    ..@.    BL       readGyroData ; 0x37dc
        0x0000335c:    499f        .I      LDR      r1,[pc,#636] ; [0x35dc] = 0x200000dc
        0x0000335e:    6808        .h      LDR      r0,[r1,#0]
        0x00003360:    f7fdfe5c    ..\.    BL       __aeabi_f2d ; 0x101c
        0x00003364:    910d        ..      STR      r1,[sp,#0x34]
        0x00003366:    900c        ..      STR      r0,[sp,#0x30]
        0x00003368:    49a1        .I      LDR      r1,[pc,#644] ; [0x35f0] = 0x2000001c
        0x0000336a:    2000        .       MOVS     r0,#0
        0x0000336c:    5e08        .^      LDRSH    r0,[r1,r0]
        0x0000336e:    f7fdfd26    ..&.    BL       __aeabi_i2d ; 0xdbe
        0x00003372:    2200        ."      MOVS     r2,#0
        0x00003374:    2301        .#      MOVS     r3,#1
        0x00003376:    079b        ..      LSLS     r3,r3,#30
        0x00003378:    9107        ..      STR      r1,[sp,#0x1c]
        0x0000337a:    9006        ..      STR      r0,[sp,#0x18]
        0x0000337c:    f7fdfd2a    ..*.    BL       __aeabi_dmul ; 0xdd4
        0x00003380:    2200        ."      MOVS     r2,#0
        0x00003382:    4b9d        .K      LDR      r3,[pc,#628] ; [0x35f8] = 0x40e00000
        0x00003384:    9109        ..      STR      r1,[sp,#0x24]
        0x00003386:    9008        ..      STR      r0,[sp,#0x20]
        0x00003388:    f7fdfad4    ....    BL       __aeabi_ddiv ; 0x934
        0x0000338c:    910b        ..      STR      r1,[sp,#0x2c]
        0x0000338e:    900a        ..      STR      r0,[sp,#0x28]
        0x00003390:    9b0d        ..      LDR      r3,[sp,#0x34]
        0x00003392:    9a0c        ..      LDR      r2,[sp,#0x30]
        0x00003394:    f7fdfaab    ....    BL       __aeabi_dsub ; 0x8ee
        0x00003398:    910f        ..      STR      r1,[sp,#0x3c]
        0x0000339a:    900e        ..      STR      r0,[sp,#0x38]
        0x0000339c:    f7fdf8e0    ....    BL       __aeabi_d2f ; 0x560
        0x000033a0:    4604        .F      MOV      r4,r0
        0x000033a2:    498e        .I      LDR      r1,[pc,#568] ; [0x35dc] = 0x200000dc
        0x000033a4:    6848        Hh      LDR      r0,[r1,#4]
        0x000033a6:    f7fdfe39    ..9.    BL       __aeabi_f2d ; 0x101c
        0x000033aa:    910d        ..      STR      r1,[sp,#0x34]
        0x000033ac:    900c        ..      STR      r0,[sp,#0x30]
        0x000033ae:    4990        .I      LDR      r1,[pc,#576] ; [0x35f0] = 0x2000001c
        0x000033b0:    2002        .       MOVS     r0,#2
        0x000033b2:    5e08        .^      LDRSH    r0,[r1,r0]
        0x000033b4:    f7fdfd03    ....    BL       __aeabi_i2d ; 0xdbe
        0x000033b8:    2200        ."      MOVS     r2,#0
        0x000033ba:    2301        .#      MOVS     r3,#1
        0x000033bc:    079b        ..      LSLS     r3,r3,#30
        0x000033be:    9107        ..      STR      r1,[sp,#0x1c]
        0x000033c0:    9006        ..      STR      r0,[sp,#0x18]
        0x000033c2:    f7fdfd07    ....    BL       __aeabi_dmul ; 0xdd4
        0x000033c6:    2200        ."      MOVS     r2,#0
        0x000033c8:    4b8b        .K      LDR      r3,[pc,#556] ; [0x35f8] = 0x40e00000
        0x000033ca:    9109        ..      STR      r1,[sp,#0x24]
        0x000033cc:    9008        ..      STR      r0,[sp,#0x20]
        0x000033ce:    f7fdfab1    ....    BL       __aeabi_ddiv ; 0x934
        0x000033d2:    910b        ..      STR      r1,[sp,#0x2c]
        0x000033d4:    900a        ..      STR      r0,[sp,#0x28]
        0x000033d6:    9b0d        ..      LDR      r3,[sp,#0x34]
        0x000033d8:    9a0c        ..      LDR      r2,[sp,#0x30]
        0x000033da:    f7fdfa88    ....    BL       __aeabi_dsub ; 0x8ee
        0x000033de:    910f        ..      STR      r1,[sp,#0x3c]
        0x000033e0:    900e        ..      STR      r0,[sp,#0x38]
        0x000033e2:    f7fdf8bd    ....    BL       __aeabi_d2f ; 0x560
        0x000033e6:    4605        .F      MOV      r5,r0
        0x000033e8:    497c        |I      LDR      r1,[pc,#496] ; [0x35dc] = 0x200000dc
        0x000033ea:    6888        .h      LDR      r0,[r1,#8]
        0x000033ec:    f7fdfe16    ....    BL       __aeabi_f2d ; 0x101c
        0x000033f0:    910d        ..      STR      r1,[sp,#0x34]
        0x000033f2:    900c        ..      STR      r0,[sp,#0x30]
        0x000033f4:    497e        ~I      LDR      r1,[pc,#504] ; [0x35f0] = 0x2000001c
        0x000033f6:    2004        .       MOVS     r0,#4
        0x000033f8:    5e08        .^      LDRSH    r0,[r1,r0]
        0x000033fa:    f7fdfce0    ....    BL       __aeabi_i2d ; 0xdbe
        0x000033fe:    2200        ."      MOVS     r2,#0
        0x00003400:    2301        .#      MOVS     r3,#1
        0x00003402:    079b        ..      LSLS     r3,r3,#30
        0x00003404:    9107        ..      STR      r1,[sp,#0x1c]
        0x00003406:    9006        ..      STR      r0,[sp,#0x18]
        0x00003408:    f7fdfce4    ....    BL       __aeabi_dmul ; 0xdd4
        0x0000340c:    2200        ."      MOVS     r2,#0
        0x0000340e:    4b7a        zK      LDR      r3,[pc,#488] ; [0x35f8] = 0x40e00000
        0x00003410:    9109        ..      STR      r1,[sp,#0x24]
        0x00003412:    9008        ..      STR      r0,[sp,#0x20]
        0x00003414:    f7fdfa8e    ....    BL       __aeabi_ddiv ; 0x934
        0x00003418:    910b        ..      STR      r1,[sp,#0x2c]
        0x0000341a:    900a        ..      STR      r0,[sp,#0x28]
        0x0000341c:    9b0d        ..      LDR      r3,[sp,#0x34]
        0x0000341e:    9a0c        ..      LDR      r2,[sp,#0x30]
        0x00003420:    f7fdfa65    ..e.    BL       __aeabi_dsub ; 0x8ee
        0x00003424:    910f        ..      STR      r1,[sp,#0x3c]
        0x00003426:    900e        ..      STR      r0,[sp,#0x38]
        0x00003428:    f7fdf89a    ....    BL       __aeabi_d2f ; 0x560
        0x0000342c:    4606        .F      MOV      r6,r0
        0x0000342e:    496c        lI      LDR      r1,[pc,#432] ; [0x35e0] = 0x200000d0
        0x00003430:    6808        .h      LDR      r0,[r1,#0]
        0x00003432:    f7fdfdf3    ....    BL       __aeabi_f2d ; 0x101c
        0x00003436:    910d        ..      STR      r1,[sp,#0x34]
        0x00003438:    900c        ..      STR      r0,[sp,#0x30]
        0x0000343a:    496e        nI      LDR      r1,[pc,#440] ; [0x35f4] = 0x20000022
        0x0000343c:    2000        .       MOVS     r0,#0
        0x0000343e:    5e08        .^      LDRSH    r0,[r1,r0]
        0x00003440:    f7fdfcbd    ....    BL       __aeabi_i2d ; 0xdbe
        0x00003444:    2200        ."      MOVS     r2,#0
        0x00003446:    4b6d        mK      LDR      r3,[pc,#436] ; [0x35fc] = 0x406f4000
        0x00003448:    9107        ..      STR      r1,[sp,#0x1c]
        0x0000344a:    9006        ..      STR      r0,[sp,#0x18]
        0x0000344c:    f7fdfcc2    ....    BL       __aeabi_dmul ; 0xdd4
        0x00003450:    2200        ."      MOVS     r2,#0
        0x00003452:    4b69        iK      LDR      r3,[pc,#420] ; [0x35f8] = 0x40e00000
        0x00003454:    9109        ..      STR      r1,[sp,#0x24]
        0x00003456:    9008        ..      STR      r0,[sp,#0x20]
        0x00003458:    f7fdfa6c    ..l.    BL       __aeabi_ddiv ; 0x934
        0x0000345c:    910b        ..      STR      r1,[sp,#0x2c]
        0x0000345e:    900a        ..      STR      r0,[sp,#0x28]
        0x00003460:    9b0d        ..      LDR      r3,[sp,#0x34]
        0x00003462:    9a0c        ..      LDR      r2,[sp,#0x30]
        0x00003464:    f7fdfa43    ..C.    BL       __aeabi_dsub ; 0x8ee
        0x00003468:    910f        ..      STR      r1,[sp,#0x3c]
        0x0000346a:    900e        ..      STR      r0,[sp,#0x38]
        0x0000346c:    f7fdf878    ..x.    BL       __aeabi_d2f ; 0x560
        0x00003470:    4607        .F      MOV      r7,r0
        0x00003472:    495b        [I      LDR      r1,[pc,#364] ; [0x35e0] = 0x200000d0
        0x00003474:    6848        Hh      LDR      r0,[r1,#4]
        0x00003476:    f7fdfdd1    ....    BL       __aeabi_f2d ; 0x101c
        0x0000347a:    910d        ..      STR      r1,[sp,#0x34]
        0x0000347c:    900c        ..      STR      r0,[sp,#0x30]
        0x0000347e:    495d        ]I      LDR      r1,[pc,#372] ; [0x35f4] = 0x20000022
        0x00003480:    2002        .       MOVS     r0,#2
        0x00003482:    5e08        .^      LDRSH    r0,[r1,r0]
        0x00003484:    f7fdfc9b    ....    BL       __aeabi_i2d ; 0xdbe
        0x00003488:    2200        ."      MOVS     r2,#0
        0x0000348a:    4b5c        \K      LDR      r3,[pc,#368] ; [0x35fc] = 0x406f4000
        0x0000348c:    9107        ..      STR      r1,[sp,#0x1c]
        0x0000348e:    9006        ..      STR      r0,[sp,#0x18]
        0x00003490:    f7fdfca0    ....    BL       __aeabi_dmul ; 0xdd4
        0x00003494:    2200        ."      MOVS     r2,#0
        0x00003496:    4b58        XK      LDR      r3,[pc,#352] ; [0x35f8] = 0x40e00000
        0x00003498:    9109        ..      STR      r1,[sp,#0x24]
        0x0000349a:    9008        ..      STR      r0,[sp,#0x20]
        0x0000349c:    f7fdfa4a    ..J.    BL       __aeabi_ddiv ; 0x934
        0x000034a0:    910b        ..      STR      r1,[sp,#0x2c]
        0x000034a2:    900a        ..      STR      r0,[sp,#0x28]
        0x000034a4:    9b0d        ..      LDR      r3,[sp,#0x34]
        0x000034a6:    9a0c        ..      LDR      r2,[sp,#0x30]
        0x000034a8:    f7fdfa21    ..!.    BL       __aeabi_dsub ; 0x8ee
        0x000034ac:    910f        ..      STR      r1,[sp,#0x3c]
        0x000034ae:    900e        ..      STR      r0,[sp,#0x38]
        0x000034b0:    f7fdf856    ..V.    BL       __aeabi_d2f ; 0x560
        0x000034b4:    902e        ..      STR      r0,[sp,#0xb8]
        0x000034b6:    494a        JI      LDR      r1,[pc,#296] ; [0x35e0] = 0x200000d0
        0x000034b8:    6888        .h      LDR      r0,[r1,#8]
        0x000034ba:    f7fdfdaf    ....    BL       __aeabi_f2d ; 0x101c
        0x000034be:    910d        ..      STR      r1,[sp,#0x34]
        0x000034c0:    900c        ..      STR      r0,[sp,#0x30]
        0x000034c2:    494c        LI      LDR      r1,[pc,#304] ; [0x35f4] = 0x20000022
        0x000034c4:    2004        .       MOVS     r0,#4
        0x000034c6:    5e08        .^      LDRSH    r0,[r1,r0]
        0x000034c8:    f7fdfc79    ..y.    BL       __aeabi_i2d ; 0xdbe
        0x000034cc:    2200        ."      MOVS     r2,#0
        0x000034ce:    4b4b        KK      LDR      r3,[pc,#300] ; [0x35fc] = 0x406f4000
        0x000034d0:    9107        ..      STR      r1,[sp,#0x1c]
        0x000034d2:    9006        ..      STR      r0,[sp,#0x18]
        0x000034d4:    f7fdfc7e    ..~.    BL       __aeabi_dmul ; 0xdd4
        0x000034d8:    2200        ."      MOVS     r2,#0
        0x000034da:    4b47        GK      LDR      r3,[pc,#284] ; [0x35f8] = 0x40e00000
        0x000034dc:    9109        ..      STR      r1,[sp,#0x24]
        0x000034de:    9008        ..      STR      r0,[sp,#0x20]
        0x000034e0:    f7fdfa28    ..(.    BL       __aeabi_ddiv ; 0x934
        0x000034e4:    910b        ..      STR      r1,[sp,#0x2c]
        0x000034e6:    900a        ..      STR      r0,[sp,#0x28]
        0x000034e8:    9b0d        ..      LDR      r3,[sp,#0x34]
        0x000034ea:    9a0c        ..      LDR      r2,[sp,#0x30]
        0x000034ec:    f7fdf9ff    ....    BL       __aeabi_dsub ; 0x8ee
        0x000034f0:    910f        ..      STR      r1,[sp,#0x3c]
        0x000034f2:    900e        ..      STR      r0,[sp,#0x38]
        0x000034f4:    f7fdf834    ..4.    BL       __aeabi_d2f ; 0x560
        0x000034f8:    902d        -.      STR      r0,[sp,#0xb4]
        0x000034fa:    210c        .!      MOVS     r1,#0xc
        0x000034fc:    2002        .       MOVS     r0,#2
        0x000034fe:    f7fef8ef    ....    BL       DrvGPIO_GetBit ; 0x16e0
        0x00003502:    2801        .(      CMP      r0,#1
        0x00003504:    d104        ..      BNE      0x3510 ; main + 648
        0x00003506:    2109        .!      MOVS     r1,#9
        0x00003508:    2002        .       MOVS     r0,#2
        0x0000350a:    f7fefcab    ....    BL       DrvGPIO_SetBit ; 0x1e64
        0x0000350e:    e009        ..      B        0x3524 ; main + 668
        0x00003510:    210c        .!      MOVS     r1,#0xc
        0x00003512:    2002        .       MOVS     r0,#2
        0x00003514:    f7fef8e4    ....    BL       DrvGPIO_GetBit ; 0x16e0
        0x00003518:    2800        .(      CMP      r0,#0
        0x0000351a:    d103        ..      BNE      0x3524 ; main + 668
        0x0000351c:    2109        .!      MOVS     r1,#9
        0x0000351e:    2002        .       MOVS     r0,#2
        0x00003520:    f7fef8c8    ....    BL       DrvGPIO_ClrBit ; 0x16b4
        0x00003524:    982a        *.      LDR      r0,[sp,#0xa8]
        0x00003526:    f7fdfe53    ..S.    BL       __aeabi_f2iz ; 0x11d0
        0x0000352a:    9010        ..      STR      r0,[sp,#0x40]
        0x0000352c:    982b        +.      LDR      r0,[sp,#0xac]
        0x0000352e:    f7fdfe4f    ..O.    BL       __aeabi_f2iz ; 0x11d0
        0x00003532:    900f        ..      STR      r0,[sp,#0x3c]
        0x00003534:    982c        ,.      LDR      r0,[sp,#0xb0]
        0x00003536:    f7fdfe4b    ..K.    BL       __aeabi_f2iz ; 0x11d0
        0x0000353a:    900e        ..      STR      r0,[sp,#0x38]
        0x0000353c:    982d        -.      LDR      r0,[sp,#0xb4]
        0x0000353e:    f7fdfe47    ..G.    BL       __aeabi_f2iz ; 0x11d0
        0x00003542:    900d        ..      STR      r0,[sp,#0x34]
        0x00003544:    982e        ..      LDR      r0,[sp,#0xb8]
        0x00003546:    f7fdfe43    ..C.    BL       __aeabi_f2iz ; 0x11d0
        0x0000354a:    900c        ..      STR      r0,[sp,#0x30]
        0x0000354c:    4638        8F      MOV      r0,r7
        0x0000354e:    f7fdfe3f    ..?.    BL       __aeabi_f2iz ; 0x11d0
        0x00003552:    492b        +I      LDR      r1,[pc,#172] ; [0x3600] = 0x42c80000
        0x00003554:    900b        ..      STR      r0,[sp,#0x2c]
        0x00003556:    4630        0F      MOV      r0,r6
        0x00003558:    f000fa44    ..D.    BL       __aeabi_fmul ; 0x39e4
        0x0000355c:    9007        ..      STR      r0,[sp,#0x1c]
        0x0000355e:    f7fdfe37    ..7.    BL       __aeabi_f2iz ; 0x11d0
        0x00003562:    4927        'I      LDR      r1,[pc,#156] ; [0x3600] = 0x42c80000
        0x00003564:    900a        ..      STR      r0,[sp,#0x28]
        0x00003566:    4628        (F      MOV      r0,r5
        0x00003568:    f000fa3c    ..<.    BL       __aeabi_fmul ; 0x39e4
        0x0000356c:    9007        ..      STR      r0,[sp,#0x1c]
        0x0000356e:    f7fdfe2f    ../.    BL       __aeabi_f2iz ; 0x11d0
        0x00003572:    4923        #I      LDR      r1,[pc,#140] ; [0x3600] = 0x42c80000
        0x00003574:    9009        ..      STR      r0,[sp,#0x24]
        0x00003576:    4620         F      MOV      r0,r4
        0x00003578:    f000fa34    ..4.    BL       __aeabi_fmul ; 0x39e4
        0x0000357c:    9007        ..      STR      r0,[sp,#0x1c]
        0x0000357e:    f7fdfe27    ..'.    BL       __aeabi_f2iz ; 0x11d0
        0x00003582:    9008        ..      STR      r0,[sp,#0x20]
        0x00003584:    9b0e        ..      LDR      r3,[sp,#0x38]
        0x00003586:    9a0d        ..      LDR      r2,[sp,#0x34]
        0x00003588:    990f        ..      LDR      r1,[sp,#0x3c]
        0x0000358a:    9810        ..      LDR      r0,[sp,#0x40]
        0x0000358c:    9304        ..      STR      r3,[sp,#0x10]
        0x0000358e:    9203        ..      STR      r2,[sp,#0xc]
        0x00003590:    9105        ..      STR      r1,[sp,#0x14]
        0x00003592:    9006        ..      STR      r0,[sp,#0x18]
        0x00003594:    9a0b        ..      LDR      r2,[sp,#0x2c]
        0x00003596:    990a        ..      LDR      r1,[sp,#0x28]
        0x00003598:    980c        ..      LDR      r0,[sp,#0x30]
        0x0000359a:    9201        ..      STR      r2,[sp,#4]
        0x0000359c:    9100        ..      STR      r1,[sp,#0]
        0x0000359e:    9002        ..      STR      r0,[sp,#8]
        0x000035a0:    a118        ..      ADR      r1,{pc}+0x64 ; 0x3604
        0x000035a2:    4820         H      LDR      r0,[pc,#128] ; [0x3624] = 0x200000f4
        0x000035a4:    9b09        ..      LDR      r3,[sp,#0x24]
        0x000035a6:    9a08        ..      LDR      r2,[sp,#0x20]
        0x000035a8:    f7fcfe16    ....    BL       __2sprintf ; 0x1d8
        0x000035ac:    481d        .H      LDR      r0,[pc,#116] ; [0x3624] = 0x200000f4
        0x000035ae:    f7fcfee5    ....    BL       strlen ; 0x37c
        0x000035b2:    4602        .F      MOV      r2,r0
        0x000035b4:    491b        .I      LDR      r1,[pc,#108] ; [0x3624] = 0x200000f4
        0x000035b6:    9010        ..      STR      r0,[sp,#0x40]
        0x000035b8:    2000        .       MOVS     r0,#0
        0x000035ba:    f7fff84d    ..M.    BL       DrvUART_Write ; 0x2658
        0x000035be:    480b        .H      LDR      r0,[pc,#44] ; [0x35ec] = 0x2710
        0x000035c0:    f7fefd3c    ..<.    BL       DrvSYS_Delay ; 0x203c
        0x000035c4:    e6b7        ..      B        0x3336 ; main + 174
    $d
        0x000035c6:    0000        ..      DCW    0
        0x000035c8:    00003b64    d;..    DCD    15204
        0x000035cc:    50000100    ...P    DCD    1342177536
        0x000035d0:    02dc6c00    .l..    DCD    48000000
        0x000035d4:    00004e20     N..    DCD    20000
        0x000035d8:    50000200    ...P    DCD    1342177792
        0x000035dc:    200000dc    ...     DCD    536871132
        0x000035e0:    200000d0    ...     DCD    536871120
        0x000035e4:    200000b8    ...     DCD    536871096
        0x000035e8:    000493e0    ....    DCD    300000
        0x000035ec:    00002710    .'..    DCD    10000
        0x000035f0:    2000001c    ...     DCD    536870940
        0x000035f4:    20000022    "..     DCD    536870946
        0x000035f8:    40e00000    ...@    DCD    1088421888
        0x000035fc:    406f4000    .@o@    DCD    1081032704
        0x00003600:    42c80000    ...B    DCD    1120403456
        0x00003604:    79642578    x%dy    DCD    2036606328
        0x00003608:    257a6425    %dz%    DCD    628778021
        0x0000360c:    64256164    da%d    DCD    1680171364
        0x00003610:    63642562    b%dc    DCD    1667507554
        0x00003614:    25716425    %dq%    DCD    628188197
        0x00003618:    64257764    dw%d    DCD    1680176996
        0x0000361c:    64642565    e%dd    DCD    1684284773
        0x00003620:    00000000    ....    DCD    0
        0x00003624:    200000f4    ...     DCD    536871156
    $t
    i.readAccelData
    readAccelData
        0x00003628:    b51c        ..      PUSH     {r2-r4,lr}
        0x0000362a:    4604        .F      MOV      r4,r0
        0x0000362c:    213b        ;!      MOVS     r1,#0x3b
        0x0000362e:    2068        h       MOVS     r0,#0x68
        0x00003630:    f000f83e    ..>.    BL       readByte ; 0x36b0
        0x00003634:    4669        iF      MOV      r1,sp
        0x00003636:    7008        .p      STRB     r0,[r1,#0]
        0x00003638:    213c        <!      MOVS     r1,#0x3c
        0x0000363a:    2068        h       MOVS     r0,#0x68
        0x0000363c:    f000f838    ..8.    BL       readByte ; 0x36b0
        0x00003640:    4601        .F      MOV      r1,r0
        0x00003642:    4668        hF      MOV      r0,sp
        0x00003644:    7041        Ap      STRB     r1,[r0,#1]
        0x00003646:    213d        =!      MOVS     r1,#0x3d
        0x00003648:    2068        h       MOVS     r0,#0x68
        0x0000364a:    f000f831    ..1.    BL       readByte ; 0x36b0
        0x0000364e:    4601        .F      MOV      r1,r0
        0x00003650:    4668        hF      MOV      r0,sp
        0x00003652:    7081        .p      STRB     r1,[r0,#2]
        0x00003654:    213e        >!      MOVS     r1,#0x3e
        0x00003656:    2068        h       MOVS     r0,#0x68
        0x00003658:    f000f82a    ..*.    BL       readByte ; 0x36b0
        0x0000365c:    4601        .F      MOV      r1,r0
        0x0000365e:    4668        hF      MOV      r0,sp
        0x00003660:    70c1        .p      STRB     r1,[r0,#3]
        0x00003662:    213f        ?!      MOVS     r1,#0x3f
        0x00003664:    2068        h       MOVS     r0,#0x68
        0x00003666:    f000f823    ..#.    BL       readByte ; 0x36b0
        0x0000366a:    4601        .F      MOV      r1,r0
        0x0000366c:    4668        hF      MOV      r0,sp
        0x0000366e:    7101        .q      STRB     r1,[r0,#4]
        0x00003670:    2140        @!      MOVS     r1,#0x40
        0x00003672:    2068        h       MOVS     r0,#0x68
        0x00003674:    f000f81c    ....    BL       readByte ; 0x36b0
        0x00003678:    4601        .F      MOV      r1,r0
        0x0000367a:    4668        hF      MOV      r0,sp
        0x0000367c:    7141        Aq      STRB     r1,[r0,#5]
        0x0000367e:    7800        .x      LDRB     r0,[r0,#0]
        0x00003680:    0201        ..      LSLS     r1,r0,#8
        0x00003682:    4668        hF      MOV      r0,sp
        0x00003684:    7840        @x      LDRB     r0,[r0,#1]
        0x00003686:    1808        ..      ADDS     r0,r1,r0
        0x00003688:    b200        ..      SXTH     r0,r0
        0x0000368a:    8020         .      STRH     r0,[r4,#0]
        0x0000368c:    4668        hF      MOV      r0,sp
        0x0000368e:    7880        .x      LDRB     r0,[r0,#2]
        0x00003690:    0201        ..      LSLS     r1,r0,#8
        0x00003692:    4668        hF      MOV      r0,sp
        0x00003694:    78c0        .x      LDRB     r0,[r0,#3]
        0x00003696:    1808        ..      ADDS     r0,r1,r0
        0x00003698:    b200        ..      SXTH     r0,r0
        0x0000369a:    8060        `.      STRH     r0,[r4,#2]
        0x0000369c:    4668        hF      MOV      r0,sp
        0x0000369e:    7900        .y      LDRB     r0,[r0,#4]
        0x000036a0:    0201        ..      LSLS     r1,r0,#8
        0x000036a2:    4668        hF      MOV      r0,sp
        0x000036a4:    7940        @y      LDRB     r0,[r0,#5]
        0x000036a6:    1808        ..      ADDS     r0,r1,r0
        0x000036a8:    b200        ..      SXTH     r0,r0
        0x000036aa:    80a0        ..      STRH     r0,[r4,#4]
        0x000036ac:    bd1c        ..      POP      {r2-r4,pc}
        0x000036ae:    0000        ..      MOVS     r0,r0
    i.readByte
    readByte
        0x000036b0:    b5fe        ..      PUSH     {r1-r7,lr}
        0x000036b2:    4604        .F      MOV      r4,r0
        0x000036b4:    460e        .F      MOV      r6,r1
        0x000036b6:    2700        .'      MOVS     r7,#0
        0x000036b8:    f7fefcda    ....    BL       DrvSYS_GetHCLKFreq ; 0x2070
        0x000036bc:    4944        DI      LDR      r1,[pc,#272] ; [0x37d0] = 0x20000000
        0x000036be:    6008        .`      STR      r0,[r1,#0]
        0x000036c0:    4944        DI      LDR      r1,[pc,#272] ; [0x37d4] = 0x186a0
        0x000036c2:    2001        .       MOVS     r0,#1
        0x000036c4:    f7fefc56    ..V.    BL       DrvI2C_Open ; 0x1f74
        0x000036c8:    2001        .       MOVS     r0,#1
        0x000036ca:    4603        .F      MOV      r3,r0
        0x000036cc:    2200        ."      MOVS     r2,#0
        0x000036ce:    4601        .F      MOV      r1,r0
        0x000036d0:    9000        ..      STR      r0,[sp,#0]
        0x000036d2:    f7fefc25    ..%.    BL       DrvI2C_Ctrl ; 0x1f20
        0x000036d6:    bf00        ..      NOP      
        0x000036d8:    483f        ?H      LDR      r0,[pc,#252] ; [0x37d8] = 0x40120000
        0x000036da:    6800        .h      LDR      r0,[r0,#0]
        0x000036dc:    0700        ..      LSLS     r0,r0,#28
        0x000036de:    0fc0        ..      LSRS     r0,r0,#31
        0x000036e0:    2800        .(      CMP      r0,#0
        0x000036e2:    d0f9        ..      BEQ      0x36d8 ; readByte + 40
        0x000036e4:    0060        `.      LSLS     r0,r4,#1
        0x000036e6:    493c        <I      LDR      r1,[pc,#240] ; [0x37d8] = 0x40120000
        0x000036e8:    6088        .`      STR      r0,[r1,#8]
        0x000036ea:    2001        .       MOVS     r0,#1
        0x000036ec:    4603        .F      MOV      r3,r0
        0x000036ee:    2200        ."      MOVS     r2,#0
        0x000036f0:    4611        .F      MOV      r1,r2
        0x000036f2:    9000        ..      STR      r0,[sp,#0]
        0x000036f4:    f7fefc14    ....    BL       DrvI2C_Ctrl ; 0x1f20
        0x000036f8:    bf00        ..      NOP      
        0x000036fa:    4837        7H      LDR      r0,[pc,#220] ; [0x37d8] = 0x40120000
        0x000036fc:    6800        .h      LDR      r0,[r0,#0]
        0x000036fe:    0700        ..      LSLS     r0,r0,#28
        0x00003700:    0fc0        ..      LSRS     r0,r0,#31
        0x00003702:    2800        .(      CMP      r0,#0
        0x00003704:    d0f9        ..      BEQ      0x36fa ; readByte + 74
        0x00003706:    4834        4H      LDR      r0,[pc,#208] ; [0x37d8] = 0x40120000
        0x00003708:    6086        .`      STR      r6,[r0,#8]
        0x0000370a:    2001        .       MOVS     r0,#1
        0x0000370c:    4603        .F      MOV      r3,r0
        0x0000370e:    2200        ."      MOVS     r2,#0
        0x00003710:    4611        .F      MOV      r1,r2
        0x00003712:    9000        ..      STR      r0,[sp,#0]
        0x00003714:    f7fefc04    ....    BL       DrvI2C_Ctrl ; 0x1f20
        0x00003718:    bf00        ..      NOP      
        0x0000371a:    482f        /H      LDR      r0,[pc,#188] ; [0x37d8] = 0x40120000
        0x0000371c:    6800        .h      LDR      r0,[r0,#0]
        0x0000371e:    0700        ..      LSLS     r0,r0,#28
        0x00003720:    0fc0        ..      LSRS     r0,r0,#31
        0x00003722:    2800        .(      CMP      r0,#0
        0x00003724:    d0f9        ..      BEQ      0x371a ; readByte + 106
        0x00003726:    2001        .       MOVS     r0,#1
        0x00003728:    4603        .F      MOV      r3,r0
        0x0000372a:    2200        ."      MOVS     r2,#0
        0x0000372c:    4601        .F      MOV      r1,r0
        0x0000372e:    9000        ..      STR      r0,[sp,#0]
        0x00003730:    f7fefbf6    ....    BL       DrvI2C_Ctrl ; 0x1f20
        0x00003734:    bf00        ..      NOP      
        0x00003736:    4828        (H      LDR      r0,[pc,#160] ; [0x37d8] = 0x40120000
        0x00003738:    6800        .h      LDR      r0,[r0,#0]
        0x0000373a:    0700        ..      LSLS     r0,r0,#28
        0x0000373c:    0fc0        ..      LSRS     r0,r0,#31
        0x0000373e:    2800        .(      CMP      r0,#0
        0x00003740:    d0f9        ..      BEQ      0x3736 ; readByte + 134
        0x00003742:    0060        `.      LSLS     r0,r4,#1
        0x00003744:    1c40        @.      ADDS     r0,r0,#1
        0x00003746:    4924        $I      LDR      r1,[pc,#144] ; [0x37d8] = 0x40120000
        0x00003748:    6088        .`      STR      r0,[r1,#8]
        0x0000374a:    2001        .       MOVS     r0,#1
        0x0000374c:    4603        .F      MOV      r3,r0
        0x0000374e:    2200        ."      MOVS     r2,#0
        0x00003750:    4611        .F      MOV      r1,r2
        0x00003752:    9000        ..      STR      r0,[sp,#0]
        0x00003754:    f7fefbe4    ....    BL       DrvI2C_Ctrl ; 0x1f20
        0x00003758:    bf00        ..      NOP      
        0x0000375a:    481f        .H      LDR      r0,[pc,#124] ; [0x37d8] = 0x40120000
        0x0000375c:    6800        .h      LDR      r0,[r0,#0]
        0x0000375e:    0700        ..      LSLS     r0,r0,#28
        0x00003760:    0fc0        ..      LSRS     r0,r0,#31
        0x00003762:    2800        .(      CMP      r0,#0
        0x00003764:    d0f9        ..      BEQ      0x375a ; readByte + 170
        0x00003766:    20ff        .       MOVS     r0,#0xff
        0x00003768:    491b        .I      LDR      r1,[pc,#108] ; [0x37d8] = 0x40120000
        0x0000376a:    6088        .`      STR      r0,[r1,#8]
        0x0000376c:    2001        .       MOVS     r0,#1
        0x0000376e:    4603        .F      MOV      r3,r0
        0x00003770:    2200        ."      MOVS     r2,#0
        0x00003772:    4611        .F      MOV      r1,r2
        0x00003774:    9000        ..      STR      r0,[sp,#0]
        0x00003776:    f7fefbd3    ....    BL       DrvI2C_Ctrl ; 0x1f20
        0x0000377a:    bf00        ..      NOP      
        0x0000377c:    4816        .H      LDR      r0,[pc,#88] ; [0x37d8] = 0x40120000
        0x0000377e:    6800        .h      LDR      r0,[r0,#0]
        0x00003780:    0700        ..      LSLS     r0,r0,#28
        0x00003782:    0fc0        ..      LSRS     r0,r0,#31
        0x00003784:    2800        .(      CMP      r0,#0
        0x00003786:    d0f9        ..      BEQ      0x377c ; readByte + 204
        0x00003788:    4813        .H      LDR      r0,[pc,#76] ; [0x37d8] = 0x40120000
        0x0000378a:    6880        .h      LDR      r0,[r0,#8]
        0x0000378c:    b2c0        ..      UXTB     r0,r0
        0x0000378e:    9001        ..      STR      r0,[sp,#4]
        0x00003790:    2000        .       MOVS     r0,#0
        0x00003792:    2301        .#      MOVS     r3,#1
        0x00003794:    461a        .F      MOV      r2,r3
        0x00003796:    4601        .F      MOV      r1,r0
        0x00003798:    9000        ..      STR      r0,[sp,#0]
        0x0000379a:    4618        .F      MOV      r0,r3
        0x0000379c:    f7fefbc0    ....    BL       DrvI2C_Ctrl ; 0x1f20
        0x000037a0:    e005        ..      B        0x37ae ; readByte + 254
        0x000037a2:    1c7f        ..      ADDS     r7,r7,#1
        0x000037a4:    207d        }       MOVS     r0,#0x7d
        0x000037a6:    00c0        ..      LSLS     r0,r0,#3
        0x000037a8:    4287        .B      CMP      r7,r0
        0x000037aa:    dd00        ..      BLE      0x37ae ; readByte + 254
        0x000037ac:    e005        ..      B        0x37ba ; readByte + 266
        0x000037ae:    480a        .H      LDR      r0,[pc,#40] ; [0x37d8] = 0x40120000
        0x000037b0:    6800        .h      LDR      r0,[r0,#0]
        0x000037b2:    06c0        ..      LSLS     r0,r0,#27
        0x000037b4:    0fc0        ..      LSRS     r0,r0,#31
        0x000037b6:    2800        .(      CMP      r0,#0
        0x000037b8:    d1f3        ..      BNE      0x37a2 ; readByte + 242
        0x000037ba:    bf00        ..      NOP      
        0x000037bc:    2500        .%      MOVS     r5,#0
        0x000037be:    e000        ..      B        0x37c2 ; readByte + 274
        0x000037c0:    1c6d        m.      ADDS     r5,r5,#1
        0x000037c2:    2d3c        <-      CMP      r5,#0x3c
        0x000037c4:    d3fc        ..      BCC      0x37c0 ; readByte + 272
        0x000037c6:    2001        .       MOVS     r0,#1
        0x000037c8:    f7fefb62    ..b.    BL       DrvI2C_Close ; 0x1e90
        0x000037cc:    9801        ..      LDR      r0,[sp,#4]
        0x000037ce:    bdfe        ..      POP      {r1-r7,pc}
    $d
        0x000037d0:    20000000    ...     DCD    536870912
        0x000037d4:    000186a0    ....    DCD    100000
        0x000037d8:    40120000    ...@    DCD    1074921472
    $t
    i.readGyroData
    readGyroData
        0x000037dc:    b51c        ..      PUSH     {r2-r4,lr}
        0x000037de:    4604        .F      MOV      r4,r0
        0x000037e0:    2143        C!      MOVS     r1,#0x43
        0x000037e2:    2068        h       MOVS     r0,#0x68
        0x000037e4:    f7ffff64    ..d.    BL       readByte ; 0x36b0
        0x000037e8:    4669        iF      MOV      r1,sp
        0x000037ea:    7008        .p      STRB     r0,[r1,#0]
        0x000037ec:    2144        D!      MOVS     r1,#0x44
        0x000037ee:    2068        h       MOVS     r0,#0x68
        0x000037f0:    f7ffff5e    ..^.    BL       readByte ; 0x36b0
        0x000037f4:    4601        .F      MOV      r1,r0
        0x000037f6:    4668        hF      MOV      r0,sp
        0x000037f8:    7041        Ap      STRB     r1,[r0,#1]
        0x000037fa:    2145        E!      MOVS     r1,#0x45
        0x000037fc:    2068        h       MOVS     r0,#0x68
        0x000037fe:    f7ffff57    ..W.    BL       readByte ; 0x36b0
        0x00003802:    4601        .F      MOV      r1,r0
        0x00003804:    4668        hF      MOV      r0,sp
        0x00003806:    7081        .p      STRB     r1,[r0,#2]
        0x00003808:    2146        F!      MOVS     r1,#0x46
        0x0000380a:    2068        h       MOVS     r0,#0x68
        0x0000380c:    f7ffff50    ..P.    BL       readByte ; 0x36b0
        0x00003810:    4601        .F      MOV      r1,r0
        0x00003812:    4668        hF      MOV      r0,sp
        0x00003814:    70c1        .p      STRB     r1,[r0,#3]
        0x00003816:    2147        G!      MOVS     r1,#0x47
        0x00003818:    2068        h       MOVS     r0,#0x68
        0x0000381a:    f7ffff49    ..I.    BL       readByte ; 0x36b0
        0x0000381e:    4601        .F      MOV      r1,r0
        0x00003820:    4668        hF      MOV      r0,sp
        0x00003822:    7101        .q      STRB     r1,[r0,#4]
        0x00003824:    2148        H!      MOVS     r1,#0x48
        0x00003826:    2068        h       MOVS     r0,#0x68
        0x00003828:    f7ffff42    ..B.    BL       readByte ; 0x36b0
        0x0000382c:    4601        .F      MOV      r1,r0
        0x0000382e:    4668        hF      MOV      r0,sp
        0x00003830:    7141        Aq      STRB     r1,[r0,#5]
        0x00003832:    7800        .x      LDRB     r0,[r0,#0]
        0x00003834:    0201        ..      LSLS     r1,r0,#8
        0x00003836:    4668        hF      MOV      r0,sp
        0x00003838:    7840        @x      LDRB     r0,[r0,#1]
        0x0000383a:    4301        .C      ORRS     r1,r1,r0
        0x0000383c:    b208        ..      SXTH     r0,r1
        0x0000383e:    8020         .      STRH     r0,[r4,#0]
        0x00003840:    4668        hF      MOV      r0,sp
        0x00003842:    7880        .x      LDRB     r0,[r0,#2]
        0x00003844:    0201        ..      LSLS     r1,r0,#8
        0x00003846:    4668        hF      MOV      r0,sp
        0x00003848:    78c0        .x      LDRB     r0,[r0,#3]
        0x0000384a:    4301        .C      ORRS     r1,r1,r0
        0x0000384c:    b208        ..      SXTH     r0,r1
        0x0000384e:    8060        `.      STRH     r0,[r4,#2]
        0x00003850:    4668        hF      MOV      r0,sp
        0x00003852:    7900        .y      LDRB     r0,[r0,#4]
        0x00003854:    0200        ..      LSLS     r0,r0,#8
        0x00003856:    4669        iF      MOV      r1,sp
        0x00003858:    7949        Iy      LDRB     r1,[r1,#5]
        0x0000385a:    4308        .C      ORRS     r0,r0,r1
        0x0000385c:    b200        ..      SXTH     r0,r0
        0x0000385e:    80a0        ..      STRH     r0,[r4,#4]
        0x00003860:    bd1c        ..      POP      {r2-r4,pc}
    i.resetMPU9250
    resetMPU9250
        0x00003862:    b510        ..      PUSH     {r4,lr}
        0x00003864:    2280        ."      MOVS     r2,#0x80
        0x00003866:    216b        k!      MOVS     r1,#0x6b
        0x00003868:    2068        h       MOVS     r0,#0x68
        0x0000386a:    f000f801    ....    BL       writeByte ; 0x3870
        0x0000386e:    bd10        ..      POP      {r4,pc}
    i.writeByte
    writeByte
        0x00003870:    b5f7        ..      PUSH     {r0-r2,r4-r7,lr}
        0x00003872:    b082        ..      SUB      sp,sp,#8
        0x00003874:    4605        .F      MOV      r5,r0
        0x00003876:    460e        .F      MOV      r6,r1
        0x00003878:    2700        .'      MOVS     r7,#0
        0x0000387a:    f7fefbf9    ....    BL       DrvSYS_GetHCLKFreq ; 0x2070
        0x0000387e:    4933        3I      LDR      r1,[pc,#204] ; [0x394c] = 0x20000000
        0x00003880:    6008        .`      STR      r0,[r1,#0]
        0x00003882:    4933        3I      LDR      r1,[pc,#204] ; [0x3950] = 0x186a0
        0x00003884:    2001        .       MOVS     r0,#1
        0x00003886:    f7fefb75    ..u.    BL       DrvI2C_Open ; 0x1f74
        0x0000388a:    2001        .       MOVS     r0,#1
        0x0000388c:    4603        .F      MOV      r3,r0
        0x0000388e:    2200        ."      MOVS     r2,#0
        0x00003890:    4601        .F      MOV      r1,r0
        0x00003892:    9000        ..      STR      r0,[sp,#0]
        0x00003894:    f7fefb44    ..D.    BL       DrvI2C_Ctrl ; 0x1f20
        0x00003898:    bf00        ..      NOP      
        0x0000389a:    482e        .H      LDR      r0,[pc,#184] ; [0x3954] = 0x40120000
        0x0000389c:    6800        .h      LDR      r0,[r0,#0]
        0x0000389e:    0700        ..      LSLS     r0,r0,#28
        0x000038a0:    0fc0        ..      LSRS     r0,r0,#31
        0x000038a2:    2800        .(      CMP      r0,#0
        0x000038a4:    d0f9        ..      BEQ      0x389a ; writeByte + 42
        0x000038a6:    0068        h.      LSLS     r0,r5,#1
        0x000038a8:    492a        *I      LDR      r1,[pc,#168] ; [0x3954] = 0x40120000
        0x000038aa:    6088        .`      STR      r0,[r1,#8]
        0x000038ac:    2001        .       MOVS     r0,#1
        0x000038ae:    4603        .F      MOV      r3,r0
        0x000038b0:    2200        ."      MOVS     r2,#0
        0x000038b2:    4611        .F      MOV      r1,r2
        0x000038b4:    9000        ..      STR      r0,[sp,#0]
        0x000038b6:    f7fefb33    ..3.    BL       DrvI2C_Ctrl ; 0x1f20
        0x000038ba:    bf00        ..      NOP      
        0x000038bc:    4825        %H      LDR      r0,[pc,#148] ; [0x3954] = 0x40120000
        0x000038be:    6800        .h      LDR      r0,[r0,#0]
        0x000038c0:    0700        ..      LSLS     r0,r0,#28
        0x000038c2:    0fc0        ..      LSRS     r0,r0,#31
        0x000038c4:    2800        .(      CMP      r0,#0
        0x000038c6:    d0f9        ..      BEQ      0x38bc ; writeByte + 76
        0x000038c8:    4822        "H      LDR      r0,[pc,#136] ; [0x3954] = 0x40120000
        0x000038ca:    6086        .`      STR      r6,[r0,#8]
        0x000038cc:    2001        .       MOVS     r0,#1
        0x000038ce:    4603        .F      MOV      r3,r0
        0x000038d0:    2200        ."      MOVS     r2,#0
        0x000038d2:    4611        .F      MOV      r1,r2
        0x000038d4:    9000        ..      STR      r0,[sp,#0]
        0x000038d6:    f7fefb23    ..#.    BL       DrvI2C_Ctrl ; 0x1f20
        0x000038da:    bf00        ..      NOP      
        0x000038dc:    481d        .H      LDR      r0,[pc,#116] ; [0x3954] = 0x40120000
        0x000038de:    6800        .h      LDR      r0,[r0,#0]
        0x000038e0:    0700        ..      LSLS     r0,r0,#28
        0x000038e2:    0fc0        ..      LSRS     r0,r0,#31
        0x000038e4:    2800        .(      CMP      r0,#0
        0x000038e6:    d0f9        ..      BEQ      0x38dc ; writeByte + 108
        0x000038e8:    491a        .I      LDR      r1,[pc,#104] ; [0x3954] = 0x40120000
        0x000038ea:    9804        ..      LDR      r0,[sp,#0x10]
        0x000038ec:    6088        .`      STR      r0,[r1,#8]
        0x000038ee:    2001        .       MOVS     r0,#1
        0x000038f0:    4603        .F      MOV      r3,r0
        0x000038f2:    2200        ."      MOVS     r2,#0
        0x000038f4:    4611        .F      MOV      r1,r2
        0x000038f6:    9000        ..      STR      r0,[sp,#0]
        0x000038f8:    f7fefb12    ....    BL       DrvI2C_Ctrl ; 0x1f20
        0x000038fc:    bf00        ..      NOP      
        0x000038fe:    4815        .H      LDR      r0,[pc,#84] ; [0x3954] = 0x40120000
        0x00003900:    6800        .h      LDR      r0,[r0,#0]
        0x00003902:    0700        ..      LSLS     r0,r0,#28
        0x00003904:    0fc0        ..      LSRS     r0,r0,#31
        0x00003906:    2800        .(      CMP      r0,#0
        0x00003908:    d0f9        ..      BEQ      0x38fe ; writeByte + 142
        0x0000390a:    2000        .       MOVS     r0,#0
        0x0000390c:    2301        .#      MOVS     r3,#1
        0x0000390e:    461a        .F      MOV      r2,r3
        0x00003910:    4601        .F      MOV      r1,r0
        0x00003912:    9000        ..      STR      r0,[sp,#0]
        0x00003914:    4618        .F      MOV      r0,r3
        0x00003916:    f7fefb03    ....    BL       DrvI2C_Ctrl ; 0x1f20
        0x0000391a:    e005        ..      B        0x3928 ; writeByte + 184
        0x0000391c:    1c7f        ..      ADDS     r7,r7,#1
        0x0000391e:    207d        }       MOVS     r0,#0x7d
        0x00003920:    00c0        ..      LSLS     r0,r0,#3
        0x00003922:    4287        .B      CMP      r7,r0
        0x00003924:    dd00        ..      BLE      0x3928 ; writeByte + 184
        0x00003926:    e005        ..      B        0x3934 ; writeByte + 196
        0x00003928:    480a        .H      LDR      r0,[pc,#40] ; [0x3954] = 0x40120000
        0x0000392a:    6800        .h      LDR      r0,[r0,#0]
        0x0000392c:    06c0        ..      LSLS     r0,r0,#27
        0x0000392e:    0fc0        ..      LSRS     r0,r0,#31
        0x00003930:    2800        .(      CMP      r0,#0
        0x00003932:    d1f3        ..      BNE      0x391c ; writeByte + 172
        0x00003934:    bf00        ..      NOP      
        0x00003936:    2400        .$      MOVS     r4,#0
        0x00003938:    e000        ..      B        0x393c ; writeByte + 204
        0x0000393a:    1c64        d.      ADDS     r4,r4,#1
        0x0000393c:    2c3c        <,      CMP      r4,#0x3c
        0x0000393e:    d3fc        ..      BCC      0x393a ; writeByte + 202
        0x00003940:    2001        .       MOVS     r0,#1
        0x00003942:    f7fefaa5    ....    BL       DrvI2C_Close ; 0x1e90
        0x00003946:    b005        ..      ADD      sp,sp,#0x14
        0x00003948:    bdf0        ..      POP      {r4-r7,pc}
    $d
        0x0000394a:    0000        ..      DCW    0
        0x0000394c:    20000000    ...     DCD    536870912
        0x00003950:    000186a0    ....    DCD    100000
        0x00003954:    40120000    ...@    DCD    1074921472
    $t
    x$fpl$fadd
    __aeabi_fadd
    _fadd
        0x00003958:    b570        p.      PUSH     {r4-r6,lr}
        0x0000395a:    2501        .%      MOVS     r5,#1
        0x0000395c:    0004        ..      MOVS     r4,r0
        0x0000395e:    07ed        ..      LSLS     r5,r5,#31
        0x00003960:    404c        L@      EORS     r4,r4,r1
        0x00003962:    d420         .      BMI      0x39a6 ; _fadd1 + 66
    _fadd1
        0x00003964:    1a44        D.      SUBS     r4,r0,r1
        0x00003966:    d201        ..      BCS      0x396c ; _fadd1 + 8
        0x00003968:    1b00        ..      SUBS     r0,r0,r4
        0x0000396a:    1909        ..      ADDS     r1,r1,r4
        0x0000396c:    0dc6        ..      LSRS     r6,r0,#23
        0x0000396e:    004b        K.      LSLS     r3,r1,#1
        0x00003970:    b2f2        ..      UXTB     r2,r6
        0x00003972:    2aff        .*      CMP      r2,#0xff
        0x00003974:    d029        ).      BEQ      0x39ca ; _fadd1 + 102
        0x00003976:    0e1b        ..      LSRS     r3,r3,#24
        0x00003978:    d02c        ,.      BEQ      0x39d4 ; _fadd1 + 112
        0x0000397a:    0200        ..      LSLS     r0,r0,#8
        0x0000397c:    020c        ..      LSLS     r4,r1,#8
        0x0000397e:    1ad3        ..      SUBS     r3,r2,r3
        0x00003980:    432c        ,C      ORRS     r4,r4,r5
        0x00003982:    40dc        .@      LSRS     r4,r4,r3
        0x00003984:    4328        (C      ORRS     r0,r0,r5
        0x00003986:    1905        ..      ADDS     r5,r0,r4
        0x00003988:    d210        ..      BCS      0x39ac ; _fadd1 + 72
        0x0000398a:    0a28        (.      LSRS     r0,r5,#8
        0x0000398c:    d302        ..      BCC      0x3994 ; _fadd1 + 48
        0x0000398e:    1c40        @.      ADDS     r0,r0,#1
        0x00003990:    066d        m.      LSLS     r5,r5,#25
        0x00003992:    d011        ..      BEQ      0x39b8 ; _fadd1 + 84
        0x00003994:    1e76        v.      SUBS     r6,r6,#1
        0x00003996:    05f6        ..      LSLS     r6,r6,#23
        0x00003998:    1980        ..      ADDS     r0,r0,r6
        0x0000399a:    2aff        .*      CMP      r2,#0xff
        0x0000399c:    da00        ..      BGE      0x39a0 ; _fadd1 + 60
        0x0000399e:    bd70        p.      POP      {r4-r6,pc}
        0x000039a0:    0dc0        ..      LSRS     r0,r0,#23
        0x000039a2:    05c0        ..      LSLS     r0,r0,#23
        0x000039a4:    bd70        p.      POP      {r4-r6,pc}
        0x000039a6:    4069        i@      EORS     r1,r1,r5
        0x000039a8:    f000f87a    ..z.    BL       _fsub1 ; 0x3aa0
        0x000039ac:    2001        .       MOVS     r0,#1
        0x000039ae:    4305        .C      ORRS     r5,r5,r0
        0x000039b0:    41c5        .A      RORS     r5,r5,r0
        0x000039b2:    1c52        R.      ADDS     r2,r2,#1
        0x000039b4:    1c76        v.      ADDS     r6,r6,#1
        0x000039b6:    e7e8        ..      B        0x398a ; _fadd1 + 38
        0x000039b8:    0864        d.      LSRS     r4,r4,#1
        0x000039ba:    409c        .@      LSLS     r4,r4,r3
        0x000039bc:    01c9        ..      LSLS     r1,r1,#7
        0x000039be:    4061        a@      EORS     r1,r1,r4
        0x000039c0:    0089        ..      LSLS     r1,r1,#2
        0x000039c2:    d1e7        ..      BNE      0x3994 ; _fadd1 + 48
        0x000039c4:    2401        .$      MOVS     r4,#1
        0x000039c6:    43a0        .C      BICS     r0,r0,r4
        0x000039c8:    e7e4        ..      B        0x3994 ; _fadd1 + 48
        0x000039ca:    0e1b        ..      LSRS     r3,r3,#24
        0x000039cc:    0244        D.      LSLS     r4,r0,#9
        0x000039ce:    d000        ..      BEQ      0x39d2 ; _fadd1 + 110
        0x000039d0:    4803        .H      LDR      r0,[pc,#12] ; [0x39e0] = 0x7fc00000
        0x000039d2:    bd70        p.      POP      {r4-r6,pc}
        0x000039d4:    2a00        .*      CMP      r2,#0
        0x000039d6:    d1fc        ..      BNE      0x39d2 ; _fadd1 + 110
        0x000039d8:    0fc0        ..      LSRS     r0,r0,#31
        0x000039da:    07c0        ..      LSLS     r0,r0,#31
        0x000039dc:    bd70        p.      POP      {r4-r6,pc}
        0x000039de:    bf00        ..      NOP      
    $d
        0x000039e0:    7fc00000    ....    DCD    2143289344
    $t
    x$fpl$fmul
    __aeabi_fmul
    _fmul
        0x000039e4:    b570        p.      PUSH     {r4-r6,lr}
        0x000039e6:    0042        B.      LSLS     r2,r0,#1
        0x000039e8:    4164        dA      ADCS     r4,r4,r4
        0x000039ea:    004b        K.      LSLS     r3,r1,#1
        0x000039ec:    415c        \A      ADCS     r4,r4,r3
        0x000039ee:    0e12        ..      LSRS     r2,r2,#24
        0x000039f0:    d039        9.      BEQ      0x3a66 ; __aeabi_fmul + 130
        0x000039f2:    0e1b        ..      LSRS     r3,r3,#24
        0x000039f4:    d038        8.      BEQ      0x3a68 ; __aeabi_fmul + 132
        0x000039f6:    2aff        .*      CMP      r2,#0xff
        0x000039f8:    d03c        <.      BEQ      0x3a74 ; __aeabi_fmul + 144
        0x000039fa:    2bff        .+      CMP      r3,#0xff
        0x000039fc:    d03a        :.      BEQ      0x3a74 ; __aeabi_fmul + 144
        0x000039fe:    0240        @.      LSLS     r0,r0,#9
        0x00003a00:    0249        I.      LSLS     r1,r1,#9
        0x00003a02:    0a40        @.      LSRS     r0,r0,#9
        0x00003a04:    0a49        I.      LSRS     r1,r1,#9
        0x00003a06:    0006        ..      MOVS     r6,r0
        0x00003a08:    1845        E.      ADDS     r5,r0,r1
        0x00003a0a:    434e        NC      MULS     r6,r1,r6
        0x00003a0c:    0a00        ..      LSRS     r0,r0,#8
        0x00003a0e:    0a09        ..      LSRS     r1,r1,#8
        0x00003a10:    18d2        ..      ADDS     r2,r2,r3
        0x00003a12:    4348        HC      MULS     r0,r1,r0
        0x00003a14:    01ed        ..      LSLS     r5,r5,#7
        0x00003a16:    3a7f        .:      SUBS     r2,r2,#0x7f
        0x00003a18:    0401        ..      LSLS     r1,r0,#16
        0x00003a1a:    1a73        s.      SUBS     r3,r6,r1
        0x00003a1c:    1940        @.      ADDS     r0,r0,r5
        0x00003a1e:    0c19        ..      LSRS     r1,r3,#16
        0x00003a20:    1843        C.      ADDS     r3,r0,r1
        0x00003a22:    0f99        ..      LSRS     r1,r3,#30
        0x00003a24:    d004        ..      BEQ      0x3a30 ; __aeabi_fmul + 76
        0x00003a26:    2101        .!      MOVS     r1,#1
        0x00003a28:    085b        [.      LSRS     r3,r3,#1
        0x00003a2a:    0749        I.      LSLS     r1,r1,#29
        0x00003a2c:    1a5b        [.      SUBS     r3,r3,r1
        0x00003a2e:    1c52        R.      ADDS     r2,r2,#1
        0x00003a30:    09d8        ..      LSRS     r0,r3,#7
        0x00003a32:    d304        ..      BCC      0x3a3e ; __aeabi_fmul + 90
        0x00003a34:    1c40        @.      ADDS     r0,r0,#1
        0x00003a36:    03f5        ..      LSLS     r5,r6,#15
        0x00003a38:    d101        ..      BNE      0x3a3e ; __aeabi_fmul + 90
        0x00003a3a:    069d        ..      LSLS     r5,r3,#26
        0x00003a3c:    d007        ..      BEQ      0x3a4e ; __aeabi_fmul + 106
        0x00003a3e:    2aff        .*      CMP      r2,#0xff
        0x00003a40:    d208        ..      BCS      0x3a54 ; __aeabi_fmul + 112
        0x00003a42:    05d5        ..      LSLS     r5,r2,#23
        0x00003a44:    d006        ..      BEQ      0x3a54 ; __aeabi_fmul + 112
        0x00003a46:    07e4        ..      LSLS     r4,r4,#31
        0x00003a48:    4320         C      ORRS     r0,r0,r4
        0x00003a4a:    1940        @.      ADDS     r0,r0,r5
        0x00003a4c:    bd70        p.      POP      {r4-r6,pc}
        0x00003a4e:    2501        .%      MOVS     r5,#1
        0x00003a50:    43a8        .C      BICS     r0,r0,r5
        0x00003a52:    e7f4        ..      B        0x3a3e ; __aeabi_fmul + 90
        0x00003a54:    2a00        .*      CMP      r2,#0
        0x00003a56:    dc01        ..      BGT      0x3a5c ; __aeabi_fmul + 120
        0x00003a58:    07e0        ..      LSLS     r0,r4,#31
        0x00003a5a:    bd70        p.      POP      {r4-r6,pc}
        0x00003a5c:    0224        $.      LSLS     r4,r4,#8
        0x00003a5e:    20ff        .       MOVS     r0,#0xff
        0x00003a60:    4320         C      ORRS     r0,r0,r4
        0x00003a62:    05c0        ..      LSLS     r0,r0,#23
        0x00003a64:    bd70        p.      POP      {r4-r6,pc}
        0x00003a66:    0e1b        ..      LSRS     r3,r3,#24
        0x00003a68:    2aff        .*      CMP      r2,#0xff
        0x00003a6a:    d003        ..      BEQ      0x3a74 ; __aeabi_fmul + 144
        0x00003a6c:    2bff        .+      CMP      r3,#0xff
        0x00003a6e:    d001        ..      BEQ      0x3a74 ; __aeabi_fmul + 144
        0x00003a70:    07e0        ..      LSLS     r0,r4,#31
        0x00003a72:    bd70        p.      POP      {r4-r6,pc}
        0x00003a74:    26ff        .&      MOVS     r6,#0xff
        0x00003a76:    0045        E.      LSLS     r5,r0,#1
        0x00003a78:    0636        6.      LSLS     r6,r6,#24
        0x00003a7a:    42b5        .B      CMP      r5,r6
        0x00003a7c:    d806        ..      BHI      0x3a8c ; __aeabi_fmul + 168
        0x00003a7e:    004d        M.      LSLS     r5,r1,#1
        0x00003a80:    42b5        .B      CMP      r5,r6
        0x00003a82:    d803        ..      BHI      0x3a8c ; __aeabi_fmul + 168
        0x00003a84:    18d2        ..      ADDS     r2,r2,r3
        0x00003a86:    2aff        .*      CMP      r2,#0xff
        0x00003a88:    d000        ..      BEQ      0x3a8c ; __aeabi_fmul + 168
        0x00003a8a:    e7e7        ..      B        0x3a5c ; __aeabi_fmul + 120
        0x00003a8c:    4800        .H      LDR      r0,[pc,#0] ; [0x3a90] = 0x7fc00000
        0x00003a8e:    bd70        p.      POP      {r4-r6,pc}
    $d
        0x00003a90:    7fc00000    ....    DCD    2143289344
    $t
    x$fpl$fsub
    __aeabi_fsub
    _fsub
        0x00003a94:    b570        p.      PUSH     {r4-r6,lr}
        0x00003a96:    2501        .%      MOVS     r5,#1
        0x00003a98:    0004        ..      MOVS     r4,r0
        0x00003a9a:    07ed        ..      LSLS     r5,r5,#31
        0x00003a9c:    404c        L@      EORS     r4,r4,r1
        0x00003a9e:    d422        ".      BMI      0x3ae6 ; _fsub1 + 70
    _fsub1
        0x00003aa0:    1a44        D.      SUBS     r4,r0,r1
        0x00003aa2:    d202        ..      BCS      0x3aaa ; _fsub1 + 10
        0x00003aa4:    406c        l@      EORS     r4,r4,r5
        0x00003aa6:    1b00        ..      SUBS     r0,r0,r4
        0x00003aa8:    1909        ..      ADDS     r1,r1,r4
        0x00003aaa:    0dc6        ..      LSRS     r6,r0,#23
        0x00003aac:    004b        K.      LSLS     r3,r1,#1
        0x00003aae:    b2f2        ..      UXTB     r2,r6
        0x00003ab0:    2aff        .*      CMP      r2,#0xff
        0x00003ab2:    d04b        K.      BEQ      0x3b4c ; _fsub1 + 172
        0x00003ab4:    0e1b        ..      LSRS     r3,r3,#24
        0x00003ab6:    d050        P.      BEQ      0x3b5a ; _fsub1 + 186
        0x00003ab8:    0200        ..      LSLS     r0,r0,#8
        0x00003aba:    020c        ..      LSLS     r4,r1,#8
        0x00003abc:    1ad3        ..      SUBS     r3,r2,r3
        0x00003abe:    432c        ,C      ORRS     r4,r4,r5
        0x00003ac0:    40dc        .@      LSRS     r4,r4,r3
        0x00003ac2:    43a8        .C      BICS     r0,r0,r5
        0x00003ac4:    1b05        ..      SUBS     r5,r0,r4
        0x00003ac6:    d505        ..      BPL      0x3ad4 ; _fsub1 + 52
        0x00003ac8:    00ad        ..      LSLS     r5,r5,#2
        0x00003aca:    d319        ..      BCC      0x3b00 ; _fsub1 + 96
        0x00003acc:    086d        m.      LSRS     r5,r5,#1
        0x00003ace:    1e76        v.      SUBS     r6,r6,#1
        0x00003ad0:    1e52        R.      SUBS     r2,r2,#1
        0x00003ad2:    d037        7.      BEQ      0x3b44 ; _fsub1 + 164
        0x00003ad4:    05f6        ..      LSLS     r6,r6,#23
        0x00003ad6:    0a28        (.      LSRS     r0,r5,#8
        0x00003ad8:    d201        ..      BCS      0x3ade ; _fsub1 + 62
        0x00003ada:    1980        ..      ADDS     r0,r0,r6
        0x00003adc:    bd70        p.      POP      {r4-r6,pc}
        0x00003ade:    4170        pA      ADCS     r0,r0,r6
        0x00003ae0:    066d        m.      LSLS     r5,r5,#25
        0x00003ae2:    d003        ..      BEQ      0x3aec ; _fsub1 + 76
        0x00003ae4:    bd70        p.      POP      {r4-r6,pc}
        0x00003ae6:    4069        i@      EORS     r1,r1,r5
        0x00003ae8:    f7ffff3c    ..<.    BL       _fadd1 ; 0x3964
        0x00003aec:    409c        .@      LSLS     r4,r4,r3
        0x00003aee:    0209        ..      LSLS     r1,r1,#8
        0x00003af0:    4061        a@      EORS     r1,r1,r4
        0x00003af2:    0049        I.      LSLS     r1,r1,#1
        0x00003af4:    d001        ..      BEQ      0x3afa ; _fsub1 + 90
        0x00003af6:    1e40        @.      SUBS     r0,r0,#1
        0x00003af8:    bd70        p.      POP      {r4-r6,pc}
        0x00003afa:    2401        .$      MOVS     r4,#1
        0x00003afc:    43a0        .C      BICS     r0,r0,r4
        0x00003afe:    bd70        p.      POP      {r4-r6,pc}
        0x00003b00:    086d        m.      LSRS     r5,r5,#1
        0x00003b02:    d01d        ..      BEQ      0x3b40 ; _fsub1 + 160
        0x00003b04:    2001        .       MOVS     r0,#1
        0x00003b06:    0c2b        +.      LSRS     r3,r5,#16
        0x00003b08:    d101        ..      BNE      0x3b0e ; _fsub1 + 110
        0x00003b0a:    042d        -.      LSLS     r5,r5,#16
        0x00003b0c:    3010        .0      ADDS     r0,r0,#0x10
        0x00003b0e:    0e2b        +.      LSRS     r3,r5,#24
        0x00003b10:    d101        ..      BNE      0x3b16 ; _fsub1 + 118
        0x00003b12:    022d        -.      LSLS     r5,r5,#8
        0x00003b14:    3008        .0      ADDS     r0,r0,#8
        0x00003b16:    0f2b        +.      LSRS     r3,r5,#28
        0x00003b18:    d101        ..      BNE      0x3b1e ; _fsub1 + 126
        0x00003b1a:    012d        -.      LSLS     r5,r5,#4
        0x00003b1c:    1d00        ..      ADDS     r0,r0,#4
        0x00003b1e:    0fab        ..      LSRS     r3,r5,#30
        0x00003b20:    d101        ..      BNE      0x3b26 ; _fsub1 + 134
        0x00003b22:    00ad        ..      LSLS     r5,r5,#2
        0x00003b24:    1c80        ..      ADDS     r0,r0,#2
        0x00003b26:    0feb        ..      LSRS     r3,r5,#31
        0x00003b28:    d101        ..      BNE      0x3b2e ; _fsub1 + 142
        0x00003b2a:    006d        m.      LSLS     r5,r5,#1
        0x00003b2c:    1c40        @.      ADDS     r0,r0,#1
        0x00003b2e:    006d        m.      LSLS     r5,r5,#1
        0x00003b30:    1a36        6.      SUBS     r6,r6,r0
        0x00003b32:    1a12        ..      SUBS     r2,r2,r0
        0x00003b34:    0a68        h.      LSRS     r0,r5,#9
        0x00003b36:    05f5        ..      LSLS     r5,r6,#23
        0x00003b38:    1940        @.      ADDS     r0,r0,r5
        0x00003b3a:    2a01        .*      CMP      r2,#1
        0x00003b3c:    db02        ..      BLT      0x3b44 ; _fsub1 + 164
        0x00003b3e:    bd70        p.      POP      {r4-r6,pc}
        0x00003b40:    2000        .       MOVS     r0,#0
        0x00003b42:    bd70        p.      POP      {r4-r6,pc}
        0x00003b44:    36c0        .6      ADDS     r6,r6,#0xc0
        0x00003b46:    0a30        0.      LSRS     r0,r6,#8
        0x00003b48:    07c0        ..      LSLS     r0,r0,#31
        0x00003b4a:    bd70        p.      POP      {r4-r6,pc}
        0x00003b4c:    0e1b        ..      LSRS     r3,r3,#24
        0x00003b4e:    0244        D.      LSLS     r4,r0,#9
        0x00003b50:    d101        ..      BNE      0x3b56 ; _fsub1 + 182
        0x00003b52:    2bff        .+      CMP      r3,#0xff
        0x00003b54:    d100        ..      BNE      0x3b58 ; _fsub1 + 184
        0x00003b56:    4802        .H      LDR      r0,[pc,#8] ; [0x3b60] = 0x7fc00000
        0x00003b58:    bd70        p.      POP      {r4-r6,pc}
        0x00003b5a:    2a00        .*      CMP      r2,#0
        0x00003b5c:    d0f0        ..      BEQ      0x3b40 ; _fsub1 + 160
        0x00003b5e:    bd70        p.      POP      {r4-r6,pc}
    $d
        0x00003b60:    7fc00000    ....    DCD    2143289344
    $d.realdata
    .constdata
    x$fpl$usenofp
    __I$use$fp
        0x00003b64:    000000ff    ....    DCD    255
    .constdata
        0x00003b68:    00000001    ....    DCD    1
        0x00003b6c:    00000002    ....    DCD    2
        0x00003b70:    00000002    ....    DCD    2
        0x00003b74:    00000004    ....    DCD    4
    .constdata
    ddiv_reciptbl
        0x00003b78:    7e7f8080    ...~    DCD    2122285184
        0x00003b7c:    7a7b7c7d    }|{z    DCD    2054913149
        0x00003b80:    76777879    yxwv    DCD    1987541113
        0x00003b84:    73747576    vuts    DCD    1937012086
        0x00003b88:    70717172    rqqp    DCD    1886482802
        0x00003b8c:    6d6e6e6f    onnm    DCD    1835953775
        0x00003b90:    6a6b6c6c    llkj    DCD    1785425004
        0x00003b94:    6868696a    jihh    DCD    1751673194
        0x00003b98:    65666667    gffe    DCD    1701209703
        0x00003b9c:    63636464    ddcc    DCD    1667458148
        0x00003ba0:    60616162    baa`    DCD    1616994658
        0x00003ba4:    5e5f5f60    `__^    DCD    1583308640
        0x00003ba8:    5c5d5d5e    ^]]\    DCD    1549622622
        0x00003bac:    5a5b5b5c    \[[Z    DCD    1515936604
        0x00003bb0:    5859595a    ZYYX    DCD    1482250586
        0x00003bb4:    56575758    XWWV    DCD    1448564568
        0x00003bb8:    55555556    VUUU    DCD    1431655766
        0x00003bbc:    53535454    TTSS    DCD    1397970004
        0x00003bc0:    51525252    RRRQ    DCD    1364349522
        0x00003bc4:    50505051    QPPP    DCD    1347440721
        0x00003bc8:    4e4f4f4f    OOON    DCD    1313820495
        0x00003bcc:    4d4d4d4e    NMMM    DCD    1296911694
        0x00003bd0:    4b4c4c4c    LLLK    DCD    1263291468
        0x00003bd4:    4a4a4b4b    KKJJ    DCD    1246382923
        0x00003bd8:    4949494a    JIII    DCD    1229539658
        0x00003bdc:    47484848    HHHG    DCD    1195919432
        0x00003be0:    46474747    GGGF    DCD    1179076423
        0x00003be4:    45454646    FFEE    DCD    1162167878
        0x00003be8:    44444445    EDDD    DCD    1145324613
        0x00003bec:    43434344    DCCC    DCD    1128481604
        0x00003bf0:    42424243    CBBB    DCD    1111638595
        0x00003bf4:    41414142    BAAA    DCD    1094795586
    .constdata
    fdiv_tab
        0x00003bf8:    84838281    ....    DCD    2223211137
        0x00003bfc:    88878685    ....    DCD    2290583173
        0x00003c00:    8d8c8b89    ....    DCD    2374798217
        0x00003c04:    92918f8e    ....    DCD    2459013006
        0x00003c08:    97969593    ....    DCD    2543228307
        0x00003c0c:    9d9c9a99    ....    DCD    2644286105
        0x00003c10:    a3a2a09f    ....    DCD    2745344159
        0x00003c14:    aaa8a7a5    ....    DCD    2863179685
        0x00003c18:    b2b0aeac    ....    DCD    2997923500
        0x00003c1c:    b9b7b5b3    ....    DCD    3115824563
        0x00003c20:    c2c0bebc    ....    DCD    3267411644
        0x00003c24:    ccc9c7c5    ....    DCD    3435775941
        0x00003c28:    d7d4d1ce    ....    DCD    3621048782
        0x00003c2c:    e2dfdcd9    ....    DCD    3806321881
        0x00003c30:    f0ece9e6    ....    DCD    4042058214
        0x00003c34:    fefaf7f3    ....    DCD    4277860339
    Region$$Table$$Base
        0x00003c38:    00003c58    X<..    DCD    15448
        0x00003c3c:    20000000    ...     DCD    536870912
        0x00003c40:    000000b8    ....    DCD    184
        0x00003c44:    00000104    ....    DCD    260
        0x00003c48:    00003d10    .=..    DCD    15632
        0x00003c4c:    200000b8    ...     DCD    536871096
        0x00003c50:    00000570    p...    DCD    1392
        0x00003c54:    00000120     ...    DCD    288
    Region$$Table$$Limit

** Section #2 'ER_RW' (SHT_PROGBITS) [SHF_ALLOC + SHF_WRITE]
    Size   : 184 bytes (alignment 4)
    Address: 0x20000000


** Section #3 'ER_ZI' (SHT_NOBITS) [SHF_ALLOC + SHF_WRITE]
    Size   : 1392 bytes (alignment 8)
    Address: 0x200000b8


** Section #4 '.debug_abbrev' (SHT_PROGBITS)
    Size   : 1476 bytes


** Section #5 '.debug_frame' (SHT_PROGBITS)
    Size   : 3060 bytes


** Section #6 '.debug_info' (SHT_PROGBITS)
    Size   : 129368 bytes


** Section #7 '.debug_line' (SHT_PROGBITS)
    Size   : 12064 bytes


** Section #8 '.debug_loc' (SHT_PROGBITS)
    Size   : 3636 bytes


** Section #9 '.debug_macinfo' (SHT_PROGBITS)
    Size   : 151976 bytes


** Section #10 '.debug_pubnames' (SHT_PROGBITS)
    Size   : 2155 bytes


** Section #11 '.symtab' (SHT_SYMTAB)
    Size   : 10384 bytes (alignment 4)
    String table #12 '.strtab'
    Last local symbol no. 424


** Section #12 '.strtab' (SHT_STRTAB)
    Size   : 7876 bytes


** Section #13 '.note' (SHT_NOTE)
    Size   : 28 bytes (alignment 4)


** Section #14 '.comment' (SHT_PROGBITS)
    Size   : 10348 bytes


** Section #15 '.shstrtab' (SHT_STRTAB)
    Size   : 156 bytes


