
========================================================================

** ELF Header Information

    File Name: .\obj\Smpl_VCOM.axf

    Machine class: ELFCLASS32 (32-bit)
    Data encoding: ELFDATA2LSB (Little endian)
    Header version: EV_CURRENT (Current version)
    Operating System ABI: none
    ABI Version: 0
    File Type: ET_EXEC (Executable) (2)
    Machine: EM_ARM (ARM)

    Image Entry point: 0x000001b1
    Flags: EF_ARM_HASENTRY (0x05000002)

    ARM ELF revision: 5 (ABI version 2)

    Built with
    ARM C/C++ Compiler, 4.1 [Build 481]
    ARM Assembler, 4.1 [Build 481]
    ARM Linker, 4.1 [Build 481] 
    ARM Linker, 4.1 [Build 478] 

    Header size: 52 bytes (0x34)
    Program header entry size: 32 bytes (0x20)
    Section header entry size: 40 bytes (0x28)

    Program header entries: 1
    Section header entries: 16

    Program header offset: 400456 (0x00061c48)
    Section header offset: 400488 (0x00061c68)

    Section header string table index: 15

========================================================================

** Program header #0 (PT_LOAD) [PF_X + PF_W + PF_R + PF_ARM_ENTRY]
    Size : 17020 bytes (15608 bytes in file)
    Virtual address: 0x00000000 (Alignment 8)


========================================================================

** Section #1 'ER_RO' (SHT_PROGBITS) [SHF_ALLOC + SHF_EXECINSTR]
    Size   : 13484 bytes (alignment 4)
    Address: 0x00000000

    $d.realdata
    RESET
    __Vectors
        0x00000000:    20000dd0    ...     DCD    536874448
        0x00000004:    000001b1    ....    DCD    433
        0x00000008:    000001d1    ....    DCD    465
        0x0000000c:    000001d3    ....    DCD    467
        0x00000010:    00000000    ....    DCD    0
        0x00000014:    00000000    ....    DCD    0
        0x00000018:    00000000    ....    DCD    0
        0x0000001c:    00000000    ....    DCD    0
        0x00000020:    00000000    ....    DCD    0
        0x00000024:    00000000    ....    DCD    0
        0x00000028:    00000000    ....    DCD    0
        0x0000002c:    000001d5    ....    DCD    469
        0x00000030:    00000000    ....    DCD    0
        0x00000034:    00000000    ....    DCD    0
        0x00000038:    000001d7    ....    DCD    471
        0x0000003c:    000001d9    ....    DCD    473
        0x00000040:    0000075d    ]...    DCD    1885
        0x00000044:    000001db    ....    DCD    475
        0x00000048:    0000229d    ."..    DCD    8861
        0x0000004c:    000022c1    ."..    DCD    8897
        0x00000050:    000022e5    ."..    DCD    8933
        0x00000054:    00002321    !#..    DCD    8993
        0x00000058:    000001db    ....    DCD    475
        0x0000005c:    000001db    ....    DCD    475
        0x00000060:    000001db    ....    DCD    475
        0x00000064:    000001db    ....    DCD    475
        0x00000068:    000001db    ....    DCD    475
        0x0000006c:    000001db    ....    DCD    475
        0x00000070:    00002b25    %+..    DCD    11045
        0x00000074:    00002b61    a+..    DCD    11105
        0x00000078:    000001db    ....    DCD    475
        0x0000007c:    000001db    ....    DCD    475
        0x00000080:    000001db    ....    DCD    475
        0x00000084:    000001db    ....    DCD    475
        0x00000088:    000001db    ....    DCD    475
        0x0000008c:    000001db    ....    DCD    475
        0x00000090:    000001db    ....    DCD    475
        0x00000094:    000001db    ....    DCD    475
        0x00000098:    000001db    ....    DCD    475
        0x0000009c:    00002b81    .+..    DCD    11137
        0x000000a0:    000001db    ....    DCD    475
        0x000000a4:    000001db    ....    DCD    475
        0x000000a8:    000001db    ....    DCD    475
        0x000000ac:    000001db    ....    DCD    475
        0x000000b0:    0000282d    -(..    DCD    10285
        0x000000b4:    000001db    ....    DCD    475
        0x000000b8:    000001db    ....    DCD    475
        0x000000bc:    000001db    ....    DCD    475
    $t
    !!!main
    __main
        0x000000c0:    f000f802    ....    BL       __scatterload ; 0xc8
        0x000000c4:    f000f848    ..H.    BL       __rt_entry ; 0x158
    !!!scatter
    __scatterload
    __scatterload_rt2
    __scatterload_rt2_thumb_only
        0x000000c8:    a00c        ..      ADR      r0,{pc}+0x34 ; 0xfc
        0x000000ca:    c830        0.      LDM      r0!,{r4,r5}
        0x000000cc:    3808        .8      SUBS     r0,r0,#8
        0x000000ce:    1824        $.      ADDS     r4,r4,r0
        0x000000d0:    182d        -.      ADDS     r5,r5,r0
        0x000000d2:    46a2        .F      MOV      r10,r4
        0x000000d4:    1e67        g.      SUBS     r7,r4,#1
        0x000000d6:    46ab        .F      MOV      r11,r5
    __scatterload_null
        0x000000d8:    4654        TF      MOV      r4,r10
        0x000000da:    465d        ]F      MOV      r5,r11
        0x000000dc:    42ac        .B      CMP      r4,r5
        0x000000de:    d101        ..      BNE      0xe4 ; __scatterload_null + 12
        0x000000e0:    f000f83a    ..:.    BL       __rt_entry ; 0x158
        0x000000e4:    467e        ~F      MOV      r6,pc
        0x000000e6:    3e0f        .>      SUBS     r6,r6,#0xf
        0x000000e8:    cc0f        ..      LDM      r4!,{r0-r3}
        0x000000ea:    46b6        .F      MOV      lr,r6
        0x000000ec:    2601        .&      MOVS     r6,#1
        0x000000ee:    4233        3B      TST      r3,r6
        0x000000f0:    d000        ..      BEQ      0xf4 ; __scatterload_null + 28
        0x000000f2:    1afb        ..      SUBS     r3,r7,r3
        0x000000f4:    46a2        .F      MOV      r10,r4
        0x000000f6:    46ab        .F      MOV      r11,r5
        0x000000f8:    4333        3C      ORRS     r3,r3,r6
        0x000000fa:    4718        .G      BX       r3
    $d
        0x000000fc:    00003390    .3..    DCD    13200
        0x00000100:    000033b0    .3..    DCD    13232
    $t
    !!handler_copy
    __scatterload_copy
        0x00000104:    3a10        .:      SUBS     r2,r2,#0x10
        0x00000106:    d302        ..      BCC      0x10e ; __scatterload_copy + 10
        0x00000108:    c878        x.      LDM      r0!,{r3-r6}
        0x0000010a:    c178        x.      STM      r1!,{r3-r6}
        0x0000010c:    d8fa        ..      BHI      __scatterload_copy ; 0x104
        0x0000010e:    0752        R.      LSLS     r2,r2,#29
        0x00000110:    d301        ..      BCC      0x116 ; __scatterload_copy + 18
        0x00000112:    c830        0.      LDM      r0!,{r4,r5}
        0x00000114:    c130        0.      STM      r1!,{r4,r5}
        0x00000116:    d501        ..      BPL      0x11c ; __scatterload_copy + 24
        0x00000118:    6804        .h      LDR      r4,[r0,#0]
        0x0000011a:    600c        .`      STR      r4,[r1,#0]
        0x0000011c:    4770        pG      BX       lr
        0x0000011e:    0000        ..      MOVS     r0,r0
    !!handler_zi
    __scatterload_zeroinit
        0x00000120:    2300        .#      MOVS     r3,#0
        0x00000122:    2400        .$      MOVS     r4,#0
        0x00000124:    2500        .%      MOVS     r5,#0
        0x00000126:    2600        .&      MOVS     r6,#0
        0x00000128:    3a10        .:      SUBS     r2,r2,#0x10
        0x0000012a:    d301        ..      BCC      0x130 ; __scatterload_zeroinit + 16
        0x0000012c:    c178        x.      STM      r1!,{r3-r6}
        0x0000012e:    d8fb        ..      BHI      0x128 ; __scatterload_zeroinit + 8
        0x00000130:    0752        R.      LSLS     r2,r2,#29
        0x00000132:    d300        ..      BCC      0x136 ; __scatterload_zeroinit + 22
        0x00000134:    c130        0.      STM      r1!,{r4,r5}
        0x00000136:    d500        ..      BPL      0x13a ; __scatterload_zeroinit + 26
        0x00000138:    600b        .`      STR      r3,[r1,#0]
        0x0000013a:    4770        pG      BX       lr
    .ARM.Collect$$_printf_percent$$00000000
    _printf_percent
        0x0000013c:    b510        ..      PUSH     {r4,lr}
    .ARM.Collect$$_printf_percent$$00000009
    _printf_d
        0x0000013e:    2964        d)      CMP      r1,#0x64
        0x00000140:    d102        ..      BNE      _printf_percent_end ; 0x148
        0x00000142:    f000f889    ....    BL       _printf_int_dec ; 0x258
        0x00000146:    bd10        ..      POP      {r4,pc}
    .ARM.Collect$$_printf_percent$$00000017
    _printf_percent_end
        0x00000148:    2000        .       MOVS     r0,#0
        0x0000014a:    bd10        ..      POP      {r4,pc}
    .ARM.Collect$$libinit$$00000000
    __rt_lib_init
        0x0000014c:    b51f        ..      PUSH     {r0-r4,lr}
        0x0000014e:    46c0        .F      MOV      r8,r8
        0x00000150:    46c0        .F      MOV      r8,r8
    .ARM.Collect$$libinit$$00000006
    .ARM.Collect$$libinit$$00000008
    .ARM.Collect$$libinit$$0000000A
    .ARM.Collect$$libinit$$0000000D
    .ARM.Collect$$libinit$$0000000F
    .ARM.Collect$$libinit$$00000011
    .ARM.Collect$$libinit$$00000013
    .ARM.Collect$$libinit$$00000015
    .ARM.Collect$$libinit$$00000017
    .ARM.Collect$$libinit$$00000019
    .ARM.Collect$$libinit$$0000001B
    .ARM.Collect$$libinit$$0000001D
    .ARM.Collect$$libinit$$0000001F
    .ARM.Collect$$libinit$$00000021
    .ARM.Collect$$libinit$$00000028
    .ARM.Collect$$libinit$$0000002A
    .ARM.Collect$$libinit$$0000002C
    .ARM.Collect$$libinit$$0000002E
    .ARM.Collect$$libinit$$0000002F
    __rt_lib_init_alloca_1
    __rt_lib_init_argv_1
    __rt_lib_init_atexit_1
    __rt_lib_init_clock_1
    __rt_lib_init_cpp_1
    __rt_lib_init_exceptions_1
    __rt_lib_init_fp_trap_1
    __rt_lib_init_getenv_1
    __rt_lib_init_heap_1
    __rt_lib_init_lc_collate_1
    __rt_lib_init_lc_ctype_1
    __rt_lib_init_lc_monetary_1
    __rt_lib_init_lc_numeric_1
    __rt_lib_init_lc_time_1
    __rt_lib_init_rand_1
    __rt_lib_init_return
    __rt_lib_init_signal_1
    __rt_lib_init_stdio_1
    __rt_lib_init_user_alloc_1
        0x00000152:    bd1f        ..      POP      {r0-r4,pc}
    .ARM.Collect$$libshutdown$$00000000
    __rt_lib_shutdown
        0x00000154:    b510        ..      PUSH     {r4,lr}
    .ARM.Collect$$libshutdown$$00000003
    .ARM.Collect$$libshutdown$$00000006
    .ARM.Collect$$libshutdown$$00000009
    .ARM.Collect$$libshutdown$$0000000B
    .ARM.Collect$$libshutdown$$0000000E
    .ARM.Collect$$libshutdown$$0000000F
    __rt_lib_shutdown_fp_trap_1
    __rt_lib_shutdown_heap_1
    __rt_lib_shutdown_return
    __rt_lib_shutdown_signal_1
    __rt_lib_shutdown_stdio_1
    __rt_lib_shutdown_user_alloc_1
        0x00000156:    bd10        ..      POP      {r4,pc}
    .ARM.Collect$$rtentry$$00000000
    .ARM.Collect$$rtentry$$00000002
    .ARM.Collect$$rtentry$$00000004
    __rt_entry
    __rt_entry_presh_1
    __rt_entry_sh
        0x00000158:    f000face    ....    BL       __user_setup_stackheap ; 0x6f8
        0x0000015c:    4611        .F      MOV      r1,r2
    .ARM.Collect$$rtentry$$00000009
    .ARM.Collect$$rtentry$$0000000A
    __rt_entry_li
    __rt_entry_postsh_1
        0x0000015e:    f7fffff5    ....    BL       __rt_lib_init ; 0x14c
    .ARM.Collect$$rtentry$$0000000C
    .ARM.Collect$$rtentry$$0000000D
    __rt_entry_main
    __rt_entry_postli_1
        0x00000162:    f003f8a5    ....    BL       main ; 0x32b0
        0x00000166:    f000fae6    ....    BL       exit ; 0x736
    .ARM.Collect$$rtexit$$00000000
    __rt_exit
        0x0000016a:    b403        ..      PUSH     {r0,r1}
    .ARM.Collect$$rtexit$$00000002
    .ARM.Collect$$rtexit$$00000003
    __rt_exit_ls
    __rt_exit_prels_1
        0x0000016c:    f7fffff2    ....    BL       __rt_lib_shutdown ; 0x154
    .ARM.Collect$$rtexit$$00000004
    __rt_exit_exit
        0x00000170:    bc03        ..      POP      {r0,r1}
        0x00000172:    f000faeb    ....    BL       _sys_exit ; 0x74c
        0x00000176:    0000        ..      MOVS     r0,r0
    .emb_text
    __aeabi_memcpy4
    __aeabi_memcpy8
        0x00000178:    b570        p.      PUSH     {r4-r6,lr}
        0x0000017a:    4605        .F      MOV      r5,r0
        0x0000017c:    460c        .F      MOV      r4,r1
        0x0000017e:    4616        .F      MOV      r6,r2
        0x00000180:    e002        ..      B        0x188 ; __aeabi_memcpy4 + 16
        0x00000182:    cc0f        ..      LDM      r4!,{r0-r3}
        0x00000184:    c50f        ..      STM      r5!,{r0-r3}
        0x00000186:    3e10        .>      SUBS     r6,r6,#0x10
        0x00000188:    2e10        ..      CMP      r6,#0x10
        0x0000018a:    d2fa        ..      BCS      0x182 ; __aeabi_memcpy4 + 10
        0x0000018c:    2e08        ..      CMP      r6,#8
        0x0000018e:    d302        ..      BCC      0x196 ; __aeabi_memcpy4 + 30
        0x00000190:    cc03        ..      LDM      r4!,{r0,r1}
        0x00000192:    c503        ..      STM      r5!,{r0,r1}
        0x00000194:    3e08        .>      SUBS     r6,r6,#8
        0x00000196:    2e04        ..      CMP      r6,#4
        0x00000198:    d307        ..      BCC      0x1aa ; __aeabi_memcpy4 + 50
        0x0000019a:    cc01        ..      LDM      r4!,{r0}
        0x0000019c:    c501        ..      STM      r5!,{r0}
        0x0000019e:    1f36        6.      SUBS     r6,r6,#4
        0x000001a0:    e003        ..      B        0x1aa ; __aeabi_memcpy4 + 50
        0x000001a2:    7821        !x      LDRB     r1,[r4,#0]
        0x000001a4:    7029        )p      STRB     r1,[r5,#0]
        0x000001a6:    1c64        d.      ADDS     r4,r4,#1
        0x000001a8:    1c6d        m.      ADDS     r5,r5,#1
        0x000001aa:    1e76        v.      SUBS     r6,r6,#1
        0x000001ac:    d2f9        ..      BCS      0x1a2 ; __aeabi_memcpy4 + 42
        0x000001ae:    bd70        p.      POP      {r4-r6,pc}
    .text
    Reset_Handler
        0x000001b0:    480d        .H      LDR      r0,[pc,#52] ; [0x1e8] = 0x50000100
        0x000001b2:    490e        .I      LDR      r1,[pc,#56] ; [0x1ec] = 0x59
        0x000001b4:    6001        .`      STR      r1,[r0,#0]
        0x000001b6:    490e        .I      LDR      r1,[pc,#56] ; [0x1f0] = 0x16
        0x000001b8:    6001        .`      STR      r1,[r0,#0]
        0x000001ba:    490e        .I      LDR      r1,[pc,#56] ; [0x1f4] = 0x88
        0x000001bc:    6001        .`      STR      r1,[r0,#0]
        0x000001be:    4a0e        .J      LDR      r2,[pc,#56] ; [0x1f8] = 0x50000024
        0x000001c0:    490e        .I      LDR      r1,[pc,#56] ; [0x1fc] = 0x5aa5
        0x000001c2:    6011        .`      STR      r1,[r2,#0]
        0x000001c4:    2100        .!      MOVS     r1,#0
        0x000001c6:    6001        .`      STR      r1,[r0,#0]
        0x000001c8:    480d        .H      LDR      r0,[pc,#52] ; [0x200] = 0x2b21
        0x000001ca:    4780        .G      BLX      r0
        0x000001cc:    480d        .H      LDR      r0,[pc,#52] ; [0x204] = 0xc1
        0x000001ce:    4700        .G      BX       r0
    NMI_Handler
        0x000001d0:    e7fe        ..      B        NMI_Handler ; 0x1d0
    HardFault_Handler
        0x000001d2:    e7fe        ..      B        HardFault_Handler ; 0x1d2
    SVC_Handler
        0x000001d4:    e7fe        ..      B        SVC_Handler ; 0x1d4
    PendSV_Handler
        0x000001d6:    e7fe        ..      B        PendSV_Handler ; 0x1d6
    SysTick_Handler
        0x000001d8:    e7fe        ..      B        SysTick_Handler ; 0x1d8
    Default_Handler
    ACMP_IRQHandler
    ADC_IRQHandler
    CAN0_IRQHandler
    I2C0_IRQHandler
    I2C1_IRQHandler
    I2S_IRQHandler
    PDMA_IRQHandler
    PS2_IRQHandler
    PWMA_IRQHandler
    PWMB_IRQHandler
    RTC_IRQHandler
    SPI0_IRQHandler
    SPI1_IRQHandler
    SPI2_IRQHandler
    SPI3_IRQHandler
    TMR0_IRQHandler
    TMR1_IRQHandler
    TMR2_IRQHandler
    TMR3_IRQHandler
    WDT_IRQHandler
        0x000001da:    e7fe        ..      B        Default_Handler ; 0x1da
    __user_initial_stackheap
        0x000001dc:    480a        .H      LDR      r0,[pc,#40] ; [0x208] = 0x200009d0
        0x000001de:    490b        .I      LDR      r1,[pc,#44] ; [0x20c] = 0x20000dd0
        0x000001e0:    4a09        .J      LDR      r2,[pc,#36] ; [0x208] = 0x200009d0
        0x000001e2:    4b0b        .K      LDR      r3,[pc,#44] ; [0x210] = 0x200009d0
        0x000001e4:    4770        pG      BX       lr
    $d
        0x000001e6:    0000        ..      DCW    0
        0x000001e8:    50000100    ...P    DCD    1342177536
        0x000001ec:    00000059    Y...    DCD    89
        0x000001f0:    00000016    ....    DCD    22
        0x000001f4:    00000088    ....    DCD    136
        0x000001f8:    50000024    $..P    DCD    1342177316
        0x000001fc:    00005aa5    .Z..    DCD    23205
        0x00000200:    00002b21    !+..    DCD    11041
        0x00000204:    000000c1    ....    DCD    193
        0x00000208:    200009d0    ...     DCD    536873424
        0x0000020c:    20000dd0    ...     DCD    536874448
        0x00000210:    200009d0    ...     DCD    536873424
    $t
    .text
    __2printf
        0x00000214:    b40f        ..      PUSH     {r0-r3}
        0x00000216:    4905        .I      LDR      r1,[pc,#20] ; [0x22c] = 0x20000654
        0x00000218:    b510        ..      PUSH     {r4,lr}
        0x0000021a:    aa03        ..      ADD      r2,sp,#0xc
        0x0000021c:    9802        ..      LDR      r0,[sp,#8]
        0x0000021e:    f000fa43    ..C.    BL       _printf_char_file ; 0x6a8
        0x00000222:    bc10        ..      POP      {r4}
        0x00000224:    bc08        ..      POP      {r3}
        0x00000226:    b004        ..      ADD      sp,sp,#0x10
        0x00000228:    4718        .G      BX       r3
    $d
        0x0000022a:    0000        ..      DCW    0
        0x0000022c:    20000654    T..     DCD    536872532
    $t
    .text
    __2sprintf
        0x00000230:    b40f        ..      PUSH     {r0-r3}
        0x00000232:    b51c        ..      PUSH     {r2-r4,lr}
        0x00000234:    4b07        .K      LDR      r3,[pc,#28] ; [0x254] = 0x461
        0x00000236:    aa06        ..      ADD      r2,sp,#0x18
        0x00000238:    447b        {D      ADD      r3,r3,pc
        0x0000023a:    4669        iF      MOV      r1,sp
        0x0000023c:    9000        ..      STR      r0,[sp,#0]
        0x0000023e:    9805        ..      LDR      r0,[sp,#0x14]
        0x00000240:    f000fa19    ....    BL       _printf_char_common ; 0x676
        0x00000244:    2000        .       MOVS     r0,#0
        0x00000246:    4669        iF      MOV      r1,sp
        0x00000248:    f000fa28    ..(.    BL       _sputc ; 0x69c
        0x0000024c:    bc1c        ..      POP      {r2-r4}
        0x0000024e:    bc08        ..      POP      {r3}
        0x00000250:    b004        ..      ADD      sp,sp,#0x10
        0x00000252:    4718        .G      BX       r3
    $d
        0x00000254:    00000461    a...    DCD    1121
    $t
    .text
    _printf_int_dec
        0x00000258:    b5f7        ..      PUSH     {r0-r2,r4-r7,lr}
        0x0000025a:    2600        .&      MOVS     r6,#0
        0x0000025c:    2975        u)      CMP      r1,#0x75
        0x0000025e:    6810        .h      LDR      r0,[r2,#0]
        0x00000260:    9900        ..      LDR      r1,[sp,#0]
        0x00000262:    a514        ..      ADR      r5,{pc}+0x52 ; 0x2b4
        0x00000264:    d011        ..      BEQ      0x28a ; _printf_int_dec + 50
        0x00000266:    46c0        .F      MOV      r8,r8
        0x00000268:    46c0        .F      MOV      r8,r8
        0x0000026a:    2800        .(      CMP      r0,#0
        0x0000026c:    da02        ..      BGE      0x274 ; _printf_int_dec + 28
        0x0000026e:    4240        @B      RSBS     r0,r0,#0
        0x00000270:    a511        ..      ADR      r5,{pc}+0x48 ; 0x2b8
        0x00000272:    e008        ..      B        0x286 ; _printf_int_dec + 46
        0x00000274:    9900        ..      LDR      r1,[sp,#0]
        0x00000276:    6809        .h      LDR      r1,[r1,#0]
        0x00000278:    078a        ..      LSLS     r2,r1,#30
        0x0000027a:    d501        ..      BPL      0x280 ; _printf_int_dec + 40
        0x0000027c:    a50f        ..      ADR      r5,{pc}+0x40 ; 0x2bc
        0x0000027e:    e002        ..      B        0x286 ; _printf_int_dec + 46
        0x00000280:    0749        I.      LSLS     r1,r1,#29
        0x00000282:    d504        ..      BPL      0x28e ; _printf_int_dec + 54
        0x00000284:    a50e        ..      ADR      r5,{pc}+0x3c ; 0x2c0
        0x00000286:    2601        .&      MOVS     r6,#1
        0x00000288:    e001        ..      B        0x28e ; _printf_int_dec + 54
        0x0000028a:    46c0        .F      MOV      r8,r8
        0x0000028c:    46c0        .F      MOV      r8,r8
        0x0000028e:    9f00        ..      LDR      r7,[sp,#0]
        0x00000290:    2400        .$      MOVS     r4,#0
        0x00000292:    3724        $7      ADDS     r7,r7,#0x24
        0x00000294:    e004        ..      B        0x2a0 ; _printf_int_dec + 72
        0x00000296:    f000fa1b    ....    BL       __rt_udiv10 ; 0x6d0
        0x0000029a:    3130        01      ADDS     r1,r1,#0x30
        0x0000029c:    5539        9U      STRB     r1,[r7,r4]
        0x0000029e:    1c64        d.      ADDS     r4,r4,#1
        0x000002a0:    2800        .(      CMP      r0,#0
        0x000002a2:    d1f8        ..      BNE      0x296 ; _printf_int_dec + 62
        0x000002a4:    4633        3F      MOV      r3,r6
        0x000002a6:    462a        *F      MOV      r2,r5
        0x000002a8:    4621        !F      MOV      r1,r4
        0x000002aa:    9800        ..      LDR      r0,[sp,#0]
        0x000002ac:    f000f987    ....    BL       _printf_int_common ; 0x5be
        0x000002b0:    bdfe        ..      POP      {r1-r7,pc}
    $d
        0x000002b2:    0000        ..      DCW    0
        0x000002b4:    00000000    ....    DCD    0
        0x000002b8:    0000002d    -...    DCD    45
        0x000002bc:    0000002b    +...    DCD    43
        0x000002c0:    00000020     ...    DCD    32
    $t
    .text
    __printf
        0x000002c4:    b5f3        ..      PUSH     {r0,r1,r4-r7,lr}
        0x000002c6:    4604        .F      MOV      r4,r0
        0x000002c8:    2000        .       MOVS     r0,#0
        0x000002ca:    b081        ..      SUB      sp,sp,#4
        0x000002cc:    e082        ..      B        0x3d4 ; __printf + 272
        0x000002ce:    68e1        .h      LDR      r1,[r4,#0xc]
        0x000002d0:    4620         F      MOV      r0,r4
        0x000002d2:    4788        .G      BLX      r1
        0x000002d4:    2800        .(      CMP      r0,#0
        0x000002d6:    d07f        ..      BEQ      0x3d8 ; __printf + 276
        0x000002d8:    2825        %(      CMP      r0,#0x25
        0x000002da:    d002        ..      BEQ      0x2e2 ; __printf + 30
        0x000002dc:    6862        bh      LDR      r2,[r4,#4]
        0x000002de:    68a1        .h      LDR      r1,[r4,#8]
        0x000002e0:    e075        u.      B        0x3ce ; __printf + 266
        0x000002e2:    68e1        .h      LDR      r1,[r4,#0xc]
        0x000002e4:    4620         F      MOV      r0,r4
        0x000002e6:    2600        .&      MOVS     r6,#0
        0x000002e8:    4788        .G      BLX      r1
        0x000002ea:    4605        .F      MOV      r5,r0
        0x000002ec:    2000        .       MOVS     r0,#0
        0x000002ee:    61e0        .a      STR      r0,[r4,#0x1c]
        0x000002f0:    4607        .F      MOV      r7,r0
        0x000002f2:    61a0        .a      STR      r0,[r4,#0x18]
        0x000002f4:    2d2a        *-      CMP      r5,#0x2a
        0x000002f6:    d00b        ..      BEQ      0x310 ; __printf + 76
        0x000002f8:    4629        )F      MOV      r1,r5
        0x000002fa:    2201        ."      MOVS     r2,#1
        0x000002fc:    3930        09      SUBS     r1,r1,#0x30
        0x000002fe:    290a        .)      CMP      r1,#0xa
        0x00000300:    d22b        +.      BCS      0x35a ; __printf + 150
        0x00000302:    2a00        .*      CMP      r2,#0
        0x00000304:    d029        ).      BEQ      0x35a ; __printf + 150
        0x00000306:    00b8        ..      LSLS     r0,r7,#2
        0x00000308:    1900        ..      ADDS     r0,r0,r4
        0x0000030a:    9000        ..      STR      r0,[sp,#0]
        0x0000030c:    6181        .a      STR      r1,[r0,#0x18]
        0x0000030e:    e019        ..      B        0x344 ; __printf + 128
        0x00000310:    9802        ..      LDR      r0,[sp,#8]
        0x00000312:    00ba        ..      LSLS     r2,r7,#2
        0x00000314:    1912        ..      ADDS     r2,r2,r4
        0x00000316:    c802        ..      LDM      r0!,{r1}
        0x00000318:    6191        .a      STR      r1,[r2,#0x18]
        0x0000031a:    9002        ..      STR      r0,[sp,#8]
        0x0000031c:    4620         F      MOV      r0,r4
        0x0000031e:    68e1        .h      LDR      r1,[r4,#0xc]
        0x00000320:    4788        .G      BLX      r1
        0x00000322:    2f01        ./      CMP      r7,#1
        0x00000324:    4605        .F      MOV      r5,r0
        0x00000326:    d11a        ..      BNE      0x35e ; __printf + 154
        0x00000328:    69e0        .i      LDR      r0,[r4,#0x1c]
        0x0000032a:    2800        .(      CMP      r0,#0
        0x0000032c:    da22        ".      BGE      0x374 ; __printf + 176
        0x0000032e:    2020                MOVS     r0,#0x20
        0x00000330:    4386        .C      BICS     r6,r6,r0
        0x00000332:    e01f        ..      B        0x374 ; __printf + 176
        0x00000334:    9800        ..      LDR      r0,[sp,#0]
        0x00000336:    210a        .!      MOVS     r1,#0xa
        0x00000338:    6980        .i      LDR      r0,[r0,#0x18]
        0x0000033a:    4348        HC      MULS     r0,r1,r0
        0x0000033c:    9900        ..      LDR      r1,[sp,#0]
        0x0000033e:    1940        @.      ADDS     r0,r0,r5
        0x00000340:    3830        08      SUBS     r0,r0,#0x30
        0x00000342:    6188        .a      STR      r0,[r1,#0x18]
        0x00000344:    4620         F      MOV      r0,r4
        0x00000346:    68e1        .h      LDR      r1,[r4,#0xc]
        0x00000348:    4788        .G      BLX      r1
        0x0000034a:    4605        .F      MOV      r5,r0
        0x0000034c:    2001        .       MOVS     r0,#1
        0x0000034e:    4629        )F      MOV      r1,r5
        0x00000350:    3930        09      SUBS     r1,r1,#0x30
        0x00000352:    290a        .)      CMP      r1,#0xa
        0x00000354:    d201        ..      BCS      0x35a ; __printf + 150
        0x00000356:    2800        .(      CMP      r0,#0
        0x00000358:    d1ec        ..      BNE      0x334 ; __printf + 112
        0x0000035a:    2f01        ./      CMP      r7,#1
        0x0000035c:    d00a        ..      BEQ      0x374 ; __printf + 176
        0x0000035e:    2d2e        .-      CMP      r5,#0x2e
        0x00000360:    d108        ..      BNE      0x374 ; __printf + 176
        0x00000362:    4620         F      MOV      r0,r4
        0x00000364:    68e1        .h      LDR      r1,[r4,#0xc]
        0x00000366:    4788        .G      BLX      r1
        0x00000368:    4605        .F      MOV      r5,r0
        0x0000036a:    2020                MOVS     r0,#0x20
        0x0000036c:    4306        .C      ORRS     r6,r6,r0
        0x0000036e:    1c7f        ..      ADDS     r7,r7,#1
        0x00000370:    2f02        ./      CMP      r7,#2
        0x00000372:    dbbf        ..      BLT      0x2f4 ; __printf + 48
        0x00000374:    69a0        .i      LDR      r0,[r4,#0x18]
        0x00000376:    2800        .(      CMP      r0,#0
        0x00000378:    da03        ..      BGE      0x382 ; __printf + 190
        0x0000037a:    4240        @B      RSBS     r0,r0,#0
        0x0000037c:    61a0        .a      STR      r0,[r4,#0x18]
        0x0000037e:    2001        .       MOVS     r0,#1
        0x00000380:    4306        .C      ORRS     r6,r6,r0
        0x00000382:    07f0        ..      LSLS     r0,r6,#31
        0x00000384:    d001        ..      BEQ      0x38a ; __printf + 198
        0x00000386:    2010        .       MOVS     r0,#0x10
        0x00000388:    4386        .C      BICS     r6,r6,r0
        0x0000038a:    2d00        .-      CMP      r5,#0
        0x0000038c:    d024        $.      BEQ      0x3d8 ; __printf + 276
        0x0000038e:    4628        (F      MOV      r0,r5
        0x00000390:    3841        A8      SUBS     r0,r0,#0x41
        0x00000392:    2819        .(      CMP      r0,#0x19
        0x00000394:    d803        ..      BHI      0x39e ; __printf + 218
        0x00000396:    2001        .       MOVS     r0,#1
        0x00000398:    02c0        ..      LSLS     r0,r0,#11
        0x0000039a:    4306        .C      ORRS     r6,r6,r0
        0x0000039c:    3520         5      ADDS     r5,r5,#0x20
        0x0000039e:    4620         F      MOV      r0,r4
        0x000003a0:    6026        &`      STR      r6,[r4,#0]
        0x000003a2:    4629        )F      MOV      r1,r5
        0x000003a4:    9a02        ..      LDR      r2,[sp,#8]
        0x000003a6:    4616        .F      MOV      r6,r2
        0x000003a8:    f7fffec8    ....    BL       _printf_percent ; 0x13c
        0x000003ac:    2800        .(      CMP      r0,#0
        0x000003ae:    d00b        ..      BEQ      0x3c8 ; __printf + 260
        0x000003b0:    2801        .(      CMP      r0,#1
        0x000003b2:    d006        ..      BEQ      0x3c2 ; __printf + 254
        0x000003b4:    1df6        ..      ADDS     r6,r6,#7
        0x000003b6:    08f0        ..      LSRS     r0,r6,#3
        0x000003b8:    00c0        ..      LSLS     r0,r0,#3
        0x000003ba:    3008        .0      ADDS     r0,r0,#8
        0x000003bc:    9002        ..      STR      r0,[sp,#8]
        0x000003be:    e786        ..      B        0x2ce ; __printf + 10
        0x000003c0:    e00a        ..      B        0x3d8 ; __printf + 276
        0x000003c2:    1d36        6.      ADDS     r6,r6,#4
        0x000003c4:    9602        ..      STR      r6,[sp,#8]
        0x000003c6:    e782        ..      B        0x2ce ; __printf + 10
        0x000003c8:    6862        bh      LDR      r2,[r4,#4]
        0x000003ca:    4628        (F      MOV      r0,r5
        0x000003cc:    68a1        .h      LDR      r1,[r4,#8]
        0x000003ce:    4790        .G      BLX      r2
        0x000003d0:    6a20         j      LDR      r0,[r4,#0x20]
        0x000003d2:    1c40        @.      ADDS     r0,r0,#1
        0x000003d4:    6220         b      STR      r0,[r4,#0x20]
        0x000003d6:    e77a        z.      B        0x2ce ; __printf + 10
        0x000003d8:    6a20         j      LDR      r0,[r4,#0x20]
        0x000003da:    bdfe        ..      POP      {r1-r7,pc}
    .text
    __aeabi_memcpy
    __rt_memcpy
        0x000003dc:    b5f8        ..      PUSH     {r3-r7,lr}
        0x000003de:    2a04        .*      CMP      r2,#4
        0x000003e0:    d32c        ,.      BCC      0x43c ; __aeabi_memcpy + 96
        0x000003e2:    0783        ..      LSLS     r3,r0,#30
        0x000003e4:    d012        ..      BEQ      0x40c ; __aeabi_memcpy + 48
        0x000003e6:    780b        .x      LDRB     r3,[r1,#0]
        0x000003e8:    1c49        I.      ADDS     r1,r1,#1
        0x000003ea:    7003        .p      STRB     r3,[r0,#0]
        0x000003ec:    1c40        @.      ADDS     r0,r0,#1
        0x000003ee:    1e52        R.      SUBS     r2,r2,#1
        0x000003f0:    0783        ..      LSLS     r3,r0,#30
        0x000003f2:    d00b        ..      BEQ      0x40c ; __aeabi_memcpy + 48
        0x000003f4:    780b        .x      LDRB     r3,[r1,#0]
        0x000003f6:    1c49        I.      ADDS     r1,r1,#1
        0x000003f8:    7003        .p      STRB     r3,[r0,#0]
        0x000003fa:    1c40        @.      ADDS     r0,r0,#1
        0x000003fc:    1e52        R.      SUBS     r2,r2,#1
        0x000003fe:    0783        ..      LSLS     r3,r0,#30
        0x00000400:    d004        ..      BEQ      0x40c ; __aeabi_memcpy + 48
        0x00000402:    780b        .x      LDRB     r3,[r1,#0]
        0x00000404:    1c49        I.      ADDS     r1,r1,#1
        0x00000406:    7003        .p      STRB     r3,[r0,#0]
        0x00000408:    1c40        @.      ADDS     r0,r0,#1
        0x0000040a:    1e52        R.      SUBS     r2,r2,#1
        0x0000040c:    078b        ..      LSLS     r3,r1,#30
        0x0000040e:    0f9b        ..      LSRS     r3,r3,#30
        0x00000410:    d005        ..      BEQ      0x41e ; __aeabi_memcpy + 66
        0x00000412:    1ac9        ..      SUBS     r1,r1,r3
        0x00000414:    00df        ..      LSLS     r7,r3,#3
        0x00000416:    2320         #      MOVS     r3,#0x20
        0x00000418:    1bde        ..      SUBS     r6,r3,r7
        0x0000041a:    c908        ..      LDM      r1!,{r3}
        0x0000041c:    e00a        ..      B        0x434 ; __aeabi_memcpy + 88
        0x0000041e:    f7fffeab    ....    BL       __aeabi_memcpy4 ; 0x178
        0x00000422:    bdf8        ..      POP      {r3-r7,pc}
        0x00000424:    461d        .F      MOV      r5,r3
        0x00000426:    c908        ..      LDM      r1!,{r3}
        0x00000428:    40fd        .@      LSRS     r5,r5,r7
        0x0000042a:    461c        .F      MOV      r4,r3
        0x0000042c:    40b4        .@      LSLS     r4,r4,r6
        0x0000042e:    432c        ,C      ORRS     r4,r4,r5
        0x00000430:    c010        ..      STM      r0!,{r4}
        0x00000432:    1f12        ..      SUBS     r2,r2,#4
        0x00000434:    2a04        .*      CMP      r2,#4
        0x00000436:    d2f5        ..      BCS      0x424 ; __aeabi_memcpy + 72
        0x00000438:    08f3        ..      LSRS     r3,r6,#3
        0x0000043a:    1ac9        ..      SUBS     r1,r1,r3
        0x0000043c:    1e52        R.      SUBS     r2,r2,#1
        0x0000043e:    d4f0        ..      BMI      0x422 ; __aeabi_memcpy + 70
        0x00000440:    780b        .x      LDRB     r3,[r1,#0]
        0x00000442:    1c49        I.      ADDS     r1,r1,#1
        0x00000444:    7003        .p      STRB     r3,[r0,#0]
        0x00000446:    1c40        @.      ADDS     r0,r0,#1
        0x00000448:    1e52        R.      SUBS     r2,r2,#1
        0x0000044a:    d4ea        ..      BMI      0x422 ; __aeabi_memcpy + 70
        0x0000044c:    780b        .x      LDRB     r3,[r1,#0]
        0x0000044e:    1c49        I.      ADDS     r1,r1,#1
        0x00000450:    7003        .p      STRB     r3,[r0,#0]
        0x00000452:    1c40        @.      ADDS     r0,r0,#1
        0x00000454:    1e52        R.      SUBS     r2,r2,#1
        0x00000456:    d4e4        ..      BMI      0x422 ; __aeabi_memcpy + 70
        0x00000458:    7809        .x      LDRB     r1,[r1,#0]
        0x0000045a:    7001        .p      STRB     r1,[r0,#0]
        0x0000045c:    bdf8        ..      POP      {r3-r7,pc}
    .text
    __aeabi_uidiv
    __aeabi_uidivmod
        0x0000045e:    2200        ."      MOVS     r2,#0
        0x00000460:    0903        ..      LSRS     r3,r0,#4
        0x00000462:    428b        .B      CMP      r3,r1
        0x00000464:    d32c        ,.      BCC      0x4c0 ; __aeabi_idiv + 78
        0x00000466:    0a03        ..      LSRS     r3,r0,#8
        0x00000468:    428b        .B      CMP      r3,r1
        0x0000046a:    d311        ..      BCC      0x490 ; __aeabi_idiv + 30
        0x0000046c:    2300        .#      MOVS     r3,#0
        0x0000046e:    469c        .F      MOV      r12,r3
        0x00000470:    e04e        N.      B        0x510 ; __aeabi_idiv + 158
    __aeabi_idiv
    __aeabi_idivmod
        0x00000472:    4603        .F      MOV      r3,r0
        0x00000474:    430b        .C      ORRS     r3,r3,r1
        0x00000476:    d43c        <.      BMI      0x4f2 ; __aeabi_idiv + 128
        0x00000478:    2200        ."      MOVS     r2,#0
        0x0000047a:    0843        C.      LSRS     r3,r0,#1
        0x0000047c:    428b        .B      CMP      r3,r1
        0x0000047e:    d331        1.      BCC      0x4e4 ; __aeabi_idiv + 114
        0x00000480:    0903        ..      LSRS     r3,r0,#4
        0x00000482:    428b        .B      CMP      r3,r1
        0x00000484:    d31c        ..      BCC      0x4c0 ; __aeabi_idiv + 78
        0x00000486:    0a03        ..      LSRS     r3,r0,#8
        0x00000488:    428b        .B      CMP      r3,r1
        0x0000048a:    d301        ..      BCC      0x490 ; __aeabi_idiv + 30
        0x0000048c:    4694        .F      MOV      r12,r2
        0x0000048e:    e03f        ?.      B        0x510 ; __aeabi_idiv + 158
        0x00000490:    09c3        ..      LSRS     r3,r0,#7
        0x00000492:    428b        .B      CMP      r3,r1
        0x00000494:    d301        ..      BCC      0x49a ; __aeabi_idiv + 40
        0x00000496:    01cb        ..      LSLS     r3,r1,#7
        0x00000498:    1ac0        ..      SUBS     r0,r0,r3
        0x0000049a:    4152        RA      ADCS     r2,r2,r2
        0x0000049c:    0983        ..      LSRS     r3,r0,#6
        0x0000049e:    428b        .B      CMP      r3,r1
        0x000004a0:    d301        ..      BCC      0x4a6 ; __aeabi_idiv + 52
        0x000004a2:    018b        ..      LSLS     r3,r1,#6
        0x000004a4:    1ac0        ..      SUBS     r0,r0,r3
        0x000004a6:    4152        RA      ADCS     r2,r2,r2
        0x000004a8:    0943        C.      LSRS     r3,r0,#5
        0x000004aa:    428b        .B      CMP      r3,r1
        0x000004ac:    d301        ..      BCC      0x4b2 ; __aeabi_idiv + 64
        0x000004ae:    014b        K.      LSLS     r3,r1,#5
        0x000004b0:    1ac0        ..      SUBS     r0,r0,r3
        0x000004b2:    4152        RA      ADCS     r2,r2,r2
        0x000004b4:    0903        ..      LSRS     r3,r0,#4
        0x000004b6:    428b        .B      CMP      r3,r1
        0x000004b8:    d301        ..      BCC      0x4be ; __aeabi_idiv + 76
        0x000004ba:    010b        ..      LSLS     r3,r1,#4
        0x000004bc:    1ac0        ..      SUBS     r0,r0,r3
        0x000004be:    4152        RA      ADCS     r2,r2,r2
        0x000004c0:    08c3        ..      LSRS     r3,r0,#3
        0x000004c2:    428b        .B      CMP      r3,r1
        0x000004c4:    d301        ..      BCC      0x4ca ; __aeabi_idiv + 88
        0x000004c6:    00cb        ..      LSLS     r3,r1,#3
        0x000004c8:    1ac0        ..      SUBS     r0,r0,r3
        0x000004ca:    4152        RA      ADCS     r2,r2,r2
        0x000004cc:    0883        ..      LSRS     r3,r0,#2
        0x000004ce:    428b        .B      CMP      r3,r1
        0x000004d0:    d301        ..      BCC      0x4d6 ; __aeabi_idiv + 100
        0x000004d2:    008b        ..      LSLS     r3,r1,#2
        0x000004d4:    1ac0        ..      SUBS     r0,r0,r3
        0x000004d6:    4152        RA      ADCS     r2,r2,r2
        0x000004d8:    0843        C.      LSRS     r3,r0,#1
        0x000004da:    428b        .B      CMP      r3,r1
        0x000004dc:    d301        ..      BCC      0x4e2 ; __aeabi_idiv + 112
        0x000004de:    004b        K.      LSLS     r3,r1,#1
        0x000004e0:    1ac0        ..      SUBS     r0,r0,r3
        0x000004e2:    4152        RA      ADCS     r2,r2,r2
        0x000004e4:    1a41        A.      SUBS     r1,r0,r1
        0x000004e6:    d200        ..      BCS      0x4ea ; __aeabi_idiv + 120
        0x000004e8:    4601        .F      MOV      r1,r0
        0x000004ea:    4152        RA      ADCS     r2,r2,r2
        0x000004ec:    4610        .F      MOV      r0,r2
        0x000004ee:    4770        pG      BX       lr
        0x000004f0:    e05d        ].      B        0x5ae ; __aeabi_idiv + 316
        0x000004f2:    0fca        ..      LSRS     r2,r1,#31
        0x000004f4:    d000        ..      BEQ      0x4f8 ; __aeabi_idiv + 134
        0x000004f6:    4249        IB      RSBS     r1,r1,#0
        0x000004f8:    1003        ..      ASRS     r3,r0,#32
        0x000004fa:    d300        ..      BCC      0x4fe ; __aeabi_idiv + 140
        0x000004fc:    4240        @B      RSBS     r0,r0,#0
        0x000004fe:    4053        S@      EORS     r3,r3,r2
        0x00000500:    2200        ."      MOVS     r2,#0
        0x00000502:    469c        .F      MOV      r12,r3
        0x00000504:    0903        ..      LSRS     r3,r0,#4
        0x00000506:    428b        .B      CMP      r3,r1
        0x00000508:    d32d        -.      BCC      0x566 ; __aeabi_idiv + 244
        0x0000050a:    0a03        ..      LSRS     r3,r0,#8
        0x0000050c:    428b        .B      CMP      r3,r1
        0x0000050e:    d312        ..      BCC      0x536 ; __aeabi_idiv + 196
        0x00000510:    22fc        ."      MOVS     r2,#0xfc
        0x00000512:    0189        ..      LSLS     r1,r1,#6
        0x00000514:    ba12        ..      REV      r2,r2
        0x00000516:    0a03        ..      LSRS     r3,r0,#8
        0x00000518:    428b        .B      CMP      r3,r1
        0x0000051a:    d30c        ..      BCC      0x536 ; __aeabi_idiv + 196
        0x0000051c:    0189        ..      LSLS     r1,r1,#6
        0x0000051e:    1192        ..      ASRS     r2,r2,#6
        0x00000520:    428b        .B      CMP      r3,r1
        0x00000522:    d308        ..      BCC      0x536 ; __aeabi_idiv + 196
        0x00000524:    0189        ..      LSLS     r1,r1,#6
        0x00000526:    1192        ..      ASRS     r2,r2,#6
        0x00000528:    428b        .B      CMP      r3,r1
        0x0000052a:    d304        ..      BCC      0x536 ; __aeabi_idiv + 196
        0x0000052c:    0189        ..      LSLS     r1,r1,#6
        0x0000052e:    d03a        :.      BEQ      0x5a6 ; __aeabi_idiv + 308
        0x00000530:    1192        ..      ASRS     r2,r2,#6
        0x00000532:    e000        ..      B        0x536 ; __aeabi_idiv + 196
        0x00000534:    0989        ..      LSRS     r1,r1,#6
        0x00000536:    09c3        ..      LSRS     r3,r0,#7
        0x00000538:    428b        .B      CMP      r3,r1
        0x0000053a:    d301        ..      BCC      0x540 ; __aeabi_idiv + 206
        0x0000053c:    01cb        ..      LSLS     r3,r1,#7
        0x0000053e:    1ac0        ..      SUBS     r0,r0,r3
        0x00000540:    4152        RA      ADCS     r2,r2,r2
        0x00000542:    0983        ..      LSRS     r3,r0,#6
        0x00000544:    428b        .B      CMP      r3,r1
        0x00000546:    d301        ..      BCC      0x54c ; __aeabi_idiv + 218
        0x00000548:    018b        ..      LSLS     r3,r1,#6
        0x0000054a:    1ac0        ..      SUBS     r0,r0,r3
        0x0000054c:    4152        RA      ADCS     r2,r2,r2
        0x0000054e:    0943        C.      LSRS     r3,r0,#5
        0x00000550:    428b        .B      CMP      r3,r1
        0x00000552:    d301        ..      BCC      0x558 ; __aeabi_idiv + 230
        0x00000554:    014b        K.      LSLS     r3,r1,#5
        0x00000556:    1ac0        ..      SUBS     r0,r0,r3
        0x00000558:    4152        RA      ADCS     r2,r2,r2
        0x0000055a:    0903        ..      LSRS     r3,r0,#4
        0x0000055c:    428b        .B      CMP      r3,r1
        0x0000055e:    d301        ..      BCC      0x564 ; __aeabi_idiv + 242
        0x00000560:    010b        ..      LSLS     r3,r1,#4
        0x00000562:    1ac0        ..      SUBS     r0,r0,r3
        0x00000564:    4152        RA      ADCS     r2,r2,r2
        0x00000566:    08c3        ..      LSRS     r3,r0,#3
        0x00000568:    428b        .B      CMP      r3,r1
        0x0000056a:    d301        ..      BCC      0x570 ; __aeabi_idiv + 254
        0x0000056c:    00cb        ..      LSLS     r3,r1,#3
        0x0000056e:    1ac0        ..      SUBS     r0,r0,r3
        0x00000570:    4152        RA      ADCS     r2,r2,r2
        0x00000572:    0883        ..      LSRS     r3,r0,#2
        0x00000574:    428b        .B      CMP      r3,r1
        0x00000576:    d301        ..      BCC      0x57c ; __aeabi_idiv + 266
        0x00000578:    008b        ..      LSLS     r3,r1,#2
        0x0000057a:    1ac0        ..      SUBS     r0,r0,r3
        0x0000057c:    4152        RA      ADCS     r2,r2,r2
        0x0000057e:    d2d9        ..      BCS      0x534 ; __aeabi_idiv + 194
        0x00000580:    0843        C.      LSRS     r3,r0,#1
        0x00000582:    428b        .B      CMP      r3,r1
        0x00000584:    d301        ..      BCC      0x58a ; __aeabi_idiv + 280
        0x00000586:    004b        K.      LSLS     r3,r1,#1
        0x00000588:    1ac0        ..      SUBS     r0,r0,r3
        0x0000058a:    4152        RA      ADCS     r2,r2,r2
        0x0000058c:    1a41        A.      SUBS     r1,r0,r1
        0x0000058e:    d200        ..      BCS      0x592 ; __aeabi_idiv + 288
        0x00000590:    4601        .F      MOV      r1,r0
        0x00000592:    4663        cF      MOV      r3,r12
        0x00000594:    4152        RA      ADCS     r2,r2,r2
        0x00000596:    105b        [.      ASRS     r3,r3,#1
        0x00000598:    4610        .F      MOV      r0,r2
        0x0000059a:    d301        ..      BCC      0x5a0 ; __aeabi_idiv + 302
        0x0000059c:    4240        @B      RSBS     r0,r0,#0
        0x0000059e:    2b00        .+      CMP      r3,#0
        0x000005a0:    d500        ..      BPL      0x5a4 ; __aeabi_idiv + 306
        0x000005a2:    4249        IB      RSBS     r1,r1,#0
        0x000005a4:    4770        pG      BX       lr
        0x000005a6:    4663        cF      MOV      r3,r12
        0x000005a8:    105b        [.      ASRS     r3,r3,#1
        0x000005aa:    d300        ..      BCC      0x5ae ; __aeabi_idiv + 316
        0x000005ac:    4240        @B      RSBS     r0,r0,#0
        0x000005ae:    b501        ..      PUSH     {r0,lr}
        0x000005b0:    2000        .       MOVS     r0,#0
        0x000005b2:    46c0        .F      MOV      r8,r8
        0x000005b4:    46c0        .F      MOV      r8,r8
        0x000005b6:    bd02        ..      POP      {r1,pc}
    .text
    __use_two_region_memory
        0x000005b8:    4770        pG      BX       lr
    __rt_heap_escrow$2region
        0x000005ba:    4770        pG      BX       lr
    __rt_heap_expand$2region
        0x000005bc:    4770        pG      BX       lr
    .text
    _printf_int_common
        0x000005be:    b5ff        ..      PUSH     {r0-r7,lr}
        0x000005c0:    4604        .F      MOV      r4,r0
        0x000005c2:    460d        .F      MOV      r5,r1
        0x000005c4:    b081        ..      SUB      sp,sp,#4
        0x000005c6:    3024        $0      ADDS     r0,r0,#0x24
        0x000005c8:    9000        ..      STR      r0,[sp,#0]
        0x000005ca:    6821        !h      LDR      r1,[r4,#0]
        0x000005cc:    0688        ..      LSLS     r0,r1,#26
        0x000005ce:    d504        ..      BPL      0x5da ; _printf_int_common + 28
        0x000005d0:    2210        ."      MOVS     r2,#0x10
        0x000005d2:    69e0        .i      LDR      r0,[r4,#0x1c]
        0x000005d4:    4391        .C      BICS     r1,r1,r2
        0x000005d6:    6021        !`      STR      r1,[r4,#0]
        0x000005d8:    e000        ..      B        0x5dc ; _printf_int_common + 30
        0x000005da:    2001        .       MOVS     r0,#1
        0x000005dc:    2700        .'      MOVS     r7,#0
        0x000005de:    42a8        .B      CMP      r0,r5
        0x000005e0:    dd00        ..      BLE      0x5e4 ; _printf_int_common + 38
        0x000005e2:    1b47        G.      SUBS     r7,r0,r5
        0x000005e4:    9804        ..      LDR      r0,[sp,#0x10]
        0x000005e6:    69a1        .i      LDR      r1,[r4,#0x18]
        0x000005e8:    197a        z.      ADDS     r2,r7,r5
        0x000005ea:    1810        ..      ADDS     r0,r2,r0
        0x000005ec:    1a08        ..      SUBS     r0,r1,r0
        0x000005ee:    61a0        .a      STR      r0,[r4,#0x18]
        0x000005f0:    6820         h      LDR      r0,[r4,#0]
        0x000005f2:    06c0        ..      LSLS     r0,r0,#27
        0x000005f4:    d402        ..      BMI      0x5fc ; _printf_int_common + 62
        0x000005f6:    4620         F      MOV      r0,r4
        0x000005f8:    46c0        .F      MOV      r8,r8
        0x000005fa:    46c0        .F      MOV      r8,r8
        0x000005fc:    2600        .&      MOVS     r6,#0
        0x000005fe:    e008        ..      B        0x612 ; _printf_int_common + 84
        0x00000600:    9803        ..      LDR      r0,[sp,#0xc]
        0x00000602:    6862        bh      LDR      r2,[r4,#4]
        0x00000604:    68a1        .h      LDR      r1,[r4,#8]
        0x00000606:    5d80        .]      LDRB     r0,[r0,r6]
        0x00000608:    4790        .G      BLX      r2
        0x0000060a:    6a20         j      LDR      r0,[r4,#0x20]
        0x0000060c:    1c40        @.      ADDS     r0,r0,#1
        0x0000060e:    1c76        v.      ADDS     r6,r6,#1
        0x00000610:    6220         b      STR      r0,[r4,#0x20]
        0x00000612:    9804        ..      LDR      r0,[sp,#0x10]
        0x00000614:    4286        .B      CMP      r6,r0
        0x00000616:    dbf3        ..      BLT      0x600 ; _printf_int_common + 66
        0x00000618:    6820         h      LDR      r0,[r4,#0]
        0x0000061a:    06c0        ..      LSLS     r0,r0,#27
        0x0000061c:    d50a        ..      BPL      0x634 ; _printf_int_common + 118
        0x0000061e:    4620         F      MOV      r0,r4
        0x00000620:    46c0        .F      MOV      r8,r8
        0x00000622:    46c0        .F      MOV      r8,r8
        0x00000624:    e006        ..      B        0x634 ; _printf_int_common + 118
        0x00000626:    6862        bh      LDR      r2,[r4,#4]
        0x00000628:    68a1        .h      LDR      r1,[r4,#8]
        0x0000062a:    2030        0       MOVS     r0,#0x30
        0x0000062c:    4790        .G      BLX      r2
        0x0000062e:    6a20         j      LDR      r0,[r4,#0x20]
        0x00000630:    1c40        @.      ADDS     r0,r0,#1
        0x00000632:    6220         b      STR      r0,[r4,#0x20]
        0x00000634:    4638        8F      MOV      r0,r7
        0x00000636:    1e7f        ..      SUBS     r7,r7,#1
        0x00000638:    2800        .(      CMP      r0,#0
        0x0000063a:    dcf4        ..      BGT      0x626 ; _printf_int_common + 104
        0x0000063c:    e007        ..      B        0x64e ; _printf_int_common + 144
        0x0000063e:    9800        ..      LDR      r0,[sp,#0]
        0x00000640:    6862        bh      LDR      r2,[r4,#4]
        0x00000642:    68a1        .h      LDR      r1,[r4,#8]
        0x00000644:    5d40        @]      LDRB     r0,[r0,r5]
        0x00000646:    4790        .G      BLX      r2
        0x00000648:    6a20         j      LDR      r0,[r4,#0x20]
        0x0000064a:    1c40        @.      ADDS     r0,r0,#1
        0x0000064c:    6220         b      STR      r0,[r4,#0x20]
        0x0000064e:    4628        (F      MOV      r0,r5
        0x00000650:    1e6d        m.      SUBS     r5,r5,#1
        0x00000652:    2800        .(      CMP      r0,#0
        0x00000654:    dcf3        ..      BGT      0x63e ; _printf_int_common + 128
        0x00000656:    4620         F      MOV      r0,r4
        0x00000658:    46c0        .F      MOV      r8,r8
        0x0000065a:    46c0        .F      MOV      r8,r8
        0x0000065c:    6821        !h      LDR      r1,[r4,#0]
        0x0000065e:    2002        .       MOVS     r0,#2
        0x00000660:    0609        ..      LSLS     r1,r1,#24
        0x00000662:    d400        ..      BMI      0x666 ; _printf_int_common + 168
        0x00000664:    2001        .       MOVS     r0,#1
        0x00000666:    b005        ..      ADD      sp,sp,#0x14
        0x00000668:    bdf0        ..      POP      {r4-r7,pc}
        0x0000066a:    0000        ..      MOVS     r0,r0
    .text
    _printf_input_char
        0x0000066c:    6901        .i      LDR      r1,[r0,#0x10]
        0x0000066e:    1c4a        J.      ADDS     r2,r1,#1
        0x00000670:    6102        .a      STR      r2,[r0,#0x10]
        0x00000672:    7808        .x      LDRB     r0,[r1,#0]
        0x00000674:    4770        pG      BX       lr
    _printf_char_common
        0x00000676:    b500        ..      PUSH     {lr}
        0x00000678:    b08f        ..      SUB      sp,sp,#0x3c
        0x0000067a:    9102        ..      STR      r1,[sp,#8]
        0x0000067c:    2100        .!      MOVS     r1,#0
        0x0000067e:    9105        ..      STR      r1,[sp,#0x14]
        0x00000680:    4905        .I      LDR      r1,[pc,#20] ; [0x698] = 0xffffffe5
        0x00000682:    9301        ..      STR      r3,[sp,#4]
        0x00000684:    4479        yD      ADD      r1,r1,pc
        0x00000686:    9103        ..      STR      r1,[sp,#0xc]
        0x00000688:    4611        .F      MOV      r1,r2
        0x0000068a:    9004        ..      STR      r0,[sp,#0x10]
        0x0000068c:    4668        hF      MOV      r0,sp
        0x0000068e:    f7fffe19    ....    BL       __printf ; 0x2c4
        0x00000692:    b00f        ..      ADD      sp,sp,#0x3c
        0x00000694:    bd00        ..      POP      {pc}
    $d
        0x00000696:    0000        ..      DCW    0
        0x00000698:    ffffffe5    ....    DCD    4294967269
    $t
    .text
    _sputc
        0x0000069c:    680a        .h      LDR      r2,[r1,#0]
        0x0000069e:    7010        .p      STRB     r0,[r2,#0]
        0x000006a0:    1c52        R.      ADDS     r2,r2,#1
        0x000006a2:    600a        .`      STR      r2,[r1,#0]
        0x000006a4:    4770        pG      BX       lr
        0x000006a6:    0000        ..      MOVS     r0,r0
    .text
    _printf_char_file
        0x000006a8:    4b08        .K      LDR      r3,[pc,#32] ; [0x6cc] = 0x2bed
        0x000006aa:    b570        p.      PUSH     {r4-r6,lr}
        0x000006ac:    460c        .F      MOV      r4,r1
        0x000006ae:    447b        {D      ADD      r3,r3,pc
        0x000006b0:    f7ffffe1    ....    BL       _printf_char_common ; 0x676
        0x000006b4:    4605        .F      MOV      r5,r0
        0x000006b6:    4620         F      MOV      r0,r4
        0x000006b8:    f002fded    ....    BL       ferror ; 0x3296
        0x000006bc:    2800        .(      CMP      r0,#0
        0x000006be:    d002        ..      BEQ      0x6c6 ; _printf_char_file + 30
        0x000006c0:    2000        .       MOVS     r0,#0
        0x000006c2:    43c0        .C      MVNS     r0,r0
        0x000006c4:    bd70        p.      POP      {r4-r6,pc}
        0x000006c6:    4628        (F      MOV      r0,r5
        0x000006c8:    bd70        p.      POP      {r4-r6,pc}
    $d
        0x000006ca:    0000        ..      DCW    0
        0x000006cc:    00002bed    .+..    DCD    11245
    $t
    .text
    __rt_udiv10
        0x000006d0:    4601        .F      MOV      r1,r0
        0x000006d2:    0880        ..      LSRS     r0,r0,#2
        0x000006d4:    1a08        ..      SUBS     r0,r1,r0
        0x000006d6:    0902        ..      LSRS     r2,r0,#4
        0x000006d8:    1810        ..      ADDS     r0,r2,r0
        0x000006da:    0a02        ..      LSRS     r2,r0,#8
        0x000006dc:    1810        ..      ADDS     r0,r2,r0
        0x000006de:    0c02        ..      LSRS     r2,r0,#16
        0x000006e0:    1810        ..      ADDS     r0,r2,r0
        0x000006e2:    08c0        ..      LSRS     r0,r0,#3
        0x000006e4:    0082        ..      LSLS     r2,r0,#2
        0x000006e6:    1812        ..      ADDS     r2,r2,r0
        0x000006e8:    0052        R.      LSLS     r2,r2,#1
        0x000006ea:    1a89        ..      SUBS     r1,r1,r2
        0x000006ec:    e001        ..      B        0x6f2 ; __rt_udiv10 + 34
        0x000006ee:    390a        .9      SUBS     r1,r1,#0xa
        0x000006f0:    1c40        @.      ADDS     r0,r0,#1
        0x000006f2:    290a        .)      CMP      r1,#0xa
        0x000006f4:    d2fb        ..      BCS      0x6ee ; __rt_udiv10 + 30
        0x000006f6:    4770        pG      BX       lr
    .text
    __user_setup_stackheap
        0x000006f8:    4675        uF      MOV      r5,lr
        0x000006fa:    f000f823    ..#.    BL       __user_libspace ; 0x744
        0x000006fe:    46ae        .F      MOV      lr,r5
        0x00000700:    0005        ..      MOVS     r5,r0
        0x00000702:    4669        iF      MOV      r1,sp
        0x00000704:    4653        SF      MOV      r3,r10
        0x00000706:    08c0        ..      LSRS     r0,r0,#3
        0x00000708:    00c0        ..      LSLS     r0,r0,#3
        0x0000070a:    4685        .F      MOV      sp,r0
        0x0000070c:    b018        ..      ADD      sp,sp,#0x60
        0x0000070e:    b520         .      PUSH     {r5,lr}
        0x00000710:    f7fffd64    ..d.    BL       __user_initial_stackheap ; 0x1dc
        0x00000714:    bc60        `.      POP      {r5,r6}
        0x00000716:    2700        .'      MOVS     r7,#0
        0x00000718:    0849        I.      LSRS     r1,r1,#1
        0x0000071a:    46b6        .F      MOV      lr,r6
        0x0000071c:    2600        .&      MOVS     r6,#0
        0x0000071e:    c5c0        ..      STM      r5!,{r6,r7}
        0x00000720:    c5c0        ..      STM      r5!,{r6,r7}
        0x00000722:    c5c0        ..      STM      r5!,{r6,r7}
        0x00000724:    c5c0        ..      STM      r5!,{r6,r7}
        0x00000726:    c5c0        ..      STM      r5!,{r6,r7}
        0x00000728:    c5c0        ..      STM      r5!,{r6,r7}
        0x0000072a:    c5c0        ..      STM      r5!,{r6,r7}
        0x0000072c:    c5c0        ..      STM      r5!,{r6,r7}
        0x0000072e:    3d40        @=      SUBS     r5,r5,#0x40
        0x00000730:    0049        I.      LSLS     r1,r1,#1
        0x00000732:    468d        .F      MOV      sp,r1
        0x00000734:    4770        pG      BX       lr
    .text
    exit
        0x00000736:    4604        .F      MOV      r4,r0
        0x00000738:    46c0        .F      MOV      r8,r8
        0x0000073a:    46c0        .F      MOV      r8,r8
        0x0000073c:    4620         F      MOV      r0,r4
        0x0000073e:    f7fffd14    ....    BL       __rt_exit ; 0x16a
        0x00000742:    0000        ..      MOVS     r0,r0
    .text
    __user_libspace
    __user_perproc_libspace
    __user_perthread_libspace
        0x00000744:    4800        .H      LDR      r0,[pc,#0] ; [0x748] = 0x2000096c
        0x00000746:    4770        pG      BX       lr
    $d
        0x00000748:    2000096c    l..     DCD    536873324
    $t
    .text
    _sys_exit
        0x0000074c:    4901        .I      LDR      r1,[pc,#4] ; [0x754] = 0x20026
        0x0000074e:    2018        .       MOVS     r0,#0x18
        0x00000750:    beab        ..      BKPT     #0xab
        0x00000752:    e7fe        ..      B        0x752 ; _sys_exit + 6
    $d
        0x00000754:    00020026    &...    DCD    131110
    $t
    .text
    __I$use$semihosting
    __use_no_semihosting_swi
        0x00000758:    4770        pG      BX       lr
        0x0000075a:    0000        ..      MOVS     r0,r0
    i.BOD_IRQHandler
    BOD_IRQHandler
        0x0000075c:    b510        ..      PUSH     {r4,lr}
        0x0000075e:    2005        .       MOVS     r0,#5
        0x00000760:    0700        ..      LSLS     r0,r0,#28
        0x00000762:    6980        .i      LDR      r0,[r0,#0x18]
        0x00000764:    2110        .!      MOVS     r1,#0x10
        0x00000766:    4388        .C      BICS     r0,r0,r1
        0x00000768:    3010        .0      ADDS     r0,r0,#0x10
        0x0000076a:    2105        .!      MOVS     r1,#5
        0x0000076c:    0709        ..      LSLS     r1,r1,#28
        0x0000076e:    6188        .a      STR      r0,[r1,#0x18]
        0x00000770:    4803        .H      LDR      r0,[pc,#12] ; [0x780] = 0x20000638
        0x00000772:    6800        .h      LDR      r0,[r0,#0]
        0x00000774:    2800        .(      CMP      r0,#0
        0x00000776:    d002        ..      BEQ      0x77e ; BOD_IRQHandler + 34
        0x00000778:    4801        .H      LDR      r0,[pc,#4] ; [0x780] = 0x20000638
        0x0000077a:    6800        .h      LDR      r0,[r0,#0]
        0x0000077c:    4780        .G      BLX      r0
        0x0000077e:    bd10        ..      POP      {r4,pc}
    $d
        0x00000780:    20000638    8..     DCD    536872504
    $t
    i.BaudRateCalculator
    BaudRateCalculator
        0x00000784:    b5f7        ..      PUSH     {r0-r2,r4-r7,lr}
        0x00000786:    b082        ..      SUB      sp,sp,#8
        0x00000788:    4617        .F      MOV      r7,r2
        0x0000078a:    4831        1H      LDR      r0,[pc,#196] ; [0x850] = 0x40050000
        0x0000078c:    183c        <.      ADDS     r4,r7,r0
        0x0000078e:    9903        ..      LDR      r1,[sp,#0xc]
        0x00000790:    9802        ..      LDR      r0,[sp,#8]
        0x00000792:    f7fffe64    ..d.    BL       __aeabi_uidiv ; 0x45e
        0x00000796:    0700        ..      LSLS     r0,r0,#28
        0x00000798:    0f00        ..      LSRS     r0,r0,#28
        0x0000079a:    2803        .(      CMP      r0,#3
        0x0000079c:    d20f        ..      BCS      0x7be ; BaudRateCalculator + 58
        0x0000079e:    6a60        `j      LDR      r0,[r4,#0x24]
        0x000007a0:    2101        .!      MOVS     r1,#1
        0x000007a2:    0749        I.      LSLS     r1,r1,#29
        0x000007a4:    4388        .C      BICS     r0,r0,r1
        0x000007a6:    6260        `b      STR      r0,[r4,#0x24]
        0x000007a8:    6a60        `j      LDR      r0,[r4,#0x24]
        0x000007aa:    1049        I.      ASRS     r1,r1,#1
        0x000007ac:    4388        .C      BICS     r0,r0,r1
        0x000007ae:    6260        `b      STR      r0,[r4,#0x24]
        0x000007b0:    9903        ..      LDR      r1,[sp,#0xc]
        0x000007b2:    9802        ..      LDR      r0,[sp,#8]
        0x000007b4:    f7fffe53    ..S.    BL       __aeabi_uidiv ; 0x45e
        0x000007b8:    0900        ..      LSRS     r0,r0,#4
        0x000007ba:    1e86        ..      SUBS     r6,r0,#2
        0x000007bc:    e040        @.      B        0x840 ; BaudRateCalculator + 188
        0x000007be:    6a60        `j      LDR      r0,[r4,#0x24]
        0x000007c0:    2101        .!      MOVS     r1,#1
        0x000007c2:    0749        I.      LSLS     r1,r1,#29
        0x000007c4:    4388        .C      BICS     r0,r0,r1
        0x000007c6:    1840        @.      ADDS     r0,r0,r1
        0x000007c8:    6260        `b      STR      r0,[r4,#0x24]
        0x000007ca:    6a60        `j      LDR      r0,[r4,#0x24]
        0x000007cc:    1049        I.      ASRS     r1,r1,#1
        0x000007ce:    4388        .C      BICS     r0,r0,r1
        0x000007d0:    1840        @.      ADDS     r0,r0,r1
        0x000007d2:    6260        `b      STR      r0,[r4,#0x24]
        0x000007d4:    9903        ..      LDR      r1,[sp,#0xc]
        0x000007d6:    9802        ..      LDR      r0,[sp,#8]
        0x000007d8:    f7fffe41    ..A.    BL       __aeabi_uidiv ; 0x45e
        0x000007dc:    1e86        ..      SUBS     r6,r0,#2
        0x000007de:    481d        .H      LDR      r0,[pc,#116] ; [0x854] = 0xffff
        0x000007e0:    4286        .B      CMP      r6,r0
        0x000007e2:    dd2d        -.      BLE      0x840 ; BaudRateCalculator + 188
        0x000007e4:    6a60        `j      LDR      r0,[r4,#0x24]
        0x000007e6:    2101        .!      MOVS     r1,#1
        0x000007e8:    0749        I.      LSLS     r1,r1,#29
        0x000007ea:    4388        .C      BICS     r0,r0,r1
        0x000007ec:    1840        @.      ADDS     r0,r0,r1
        0x000007ee:    6260        `b      STR      r0,[r4,#0x24]
        0x000007f0:    6a60        `j      LDR      r0,[r4,#0x24]
        0x000007f2:    1049        I.      ASRS     r1,r1,#1
        0x000007f4:    4388        .C      BICS     r0,r0,r1
        0x000007f6:    6260        `b      STR      r0,[r4,#0x24]
        0x000007f8:    2508        .%      MOVS     r5,#8
        0x000007fa:    e01e        ..      B        0x83a ; BaudRateCalculator + 182
        0x000007fc:    9903        ..      LDR      r1,[sp,#0xc]
        0x000007fe:    9802        ..      LDR      r0,[sp,#8]
        0x00000800:    f7fffe2d    ..-.    BL       __aeabi_uidiv ; 0x45e
        0x00000804:    1c69        i.      ADDS     r1,r5,#1
        0x00000806:    9001        ..      STR      r0,[sp,#4]
        0x00000808:    f7fffe29    ..).    BL       __aeabi_uidiv ; 0x45e
        0x0000080c:    2903        .)      CMP      r1,#3
        0x0000080e:    d213        ..      BCS      0x838 ; BaudRateCalculator + 180
        0x00000810:    6a60        `j      LDR      r0,[r4,#0x24]
        0x00000812:    210f        .!      MOVS     r1,#0xf
        0x00000814:    0609        ..      LSLS     r1,r1,#24
        0x00000816:    4388        .C      BICS     r0,r0,r1
        0x00000818:    0629        ).      LSLS     r1,r5,#24
        0x0000081a:    220f        ."      MOVS     r2,#0xf
        0x0000081c:    0612        ..      LSLS     r2,r2,#24
        0x0000081e:    4011        .@      ANDS     r1,r1,r2
        0x00000820:    4308        .C      ORRS     r0,r0,r1
        0x00000822:    6260        `b      STR      r0,[r4,#0x24]
        0x00000824:    9903        ..      LDR      r1,[sp,#0xc]
        0x00000826:    9802        ..      LDR      r0,[sp,#8]
        0x00000828:    f7fffe19    ....    BL       __aeabi_uidiv ; 0x45e
        0x0000082c:    1c69        i.      ADDS     r1,r5,#1
        0x0000082e:    9001        ..      STR      r0,[sp,#4]
        0x00000830:    f7fffe15    ....    BL       __aeabi_uidiv ; 0x45e
        0x00000834:    1e86        ..      SUBS     r6,r0,#2
        0x00000836:    e002        ..      B        0x83e ; BaudRateCalculator + 186
        0x00000838:    1c6d        m.      ADDS     r5,r5,#1
        0x0000083a:    2d10        .-      CMP      r5,#0x10
        0x0000083c:    dbde        ..      BLT      0x7fc ; BaudRateCalculator + 120
        0x0000083e:    bf00        ..      NOP      
        0x00000840:    6a60        `j      LDR      r0,[r4,#0x24]
        0x00000842:    0c00        ..      LSRS     r0,r0,#16
        0x00000844:    0400        ..      LSLS     r0,r0,#16
        0x00000846:    b2b1        ..      UXTH     r1,r6
        0x00000848:    4308        .C      ORRS     r0,r0,r1
        0x0000084a:    6260        `b      STR      r0,[r4,#0x24]
        0x0000084c:    b005        ..      ADD      sp,sp,#0x14
        0x0000084e:    bdf0        ..      POP      {r4-r7,pc}
    $d
        0x00000850:    40050000    ...@    DCD    1074069504
        0x00000854:    0000ffff    ....    DCD    65535
    $t
    i.Delay
    Delay
        0x00000858:    e001        ..      B        0x85e ; Delay + 6
        0x0000085a:    bf00        ..      NOP      
        0x0000085c:    bf00        ..      NOP      
        0x0000085e:    4601        .F      MOV      r1,r0
        0x00000860:    1e40        @.      SUBS     r0,r0,#1
        0x00000862:    2900        .)      CMP      r1,#0
        0x00000864:    d1f9        ..      BNE      0x85a ; Delay + 2
        0x00000866:    4770        pG      BX       lr
    i.DrvGPIO_ClrBit
    DrvGPIO_ClrBit
        0x00000868:    b510        ..      PUSH     {r4,lr}
        0x0000086a:    4603        .F      MOV      r3,r0
        0x0000086c:    2900        .)      CMP      r1,#0
        0x0000086e:    db01        ..      BLT      0x874 ; DrvGPIO_ClrBit + 12
        0x00000870:    2910        .)      CMP      r1,#0x10
        0x00000872:    dd01        ..      BLE      0x878 ; DrvGPIO_ClrBit + 16
        0x00000874:    4805        .H      LDR      r0,[pc,#20] ; [0x88c] = 0xffff8901
        0x00000876:    bd10        ..      POP      {r4,pc}
        0x00000878:    0198        ..      LSLS     r0,r3,#6
        0x0000087a:    4c05        .L      LDR      r4,[pc,#20] ; [0x890] = 0x50004000
        0x0000087c:    1902        ..      ADDS     r2,r0,r4
        0x0000087e:    6890        .h      LDR      r0,[r2,#8]
        0x00000880:    2401        .$      MOVS     r4,#1
        0x00000882:    408c        .@      LSLS     r4,r4,r1
        0x00000884:    43a0        .C      BICS     r0,r0,r4
        0x00000886:    6090        .`      STR      r0,[r2,#8]
        0x00000888:    2000        .       MOVS     r0,#0
        0x0000088a:    e7f4        ..      B        0x876 ; DrvGPIO_ClrBit + 14
    $d
        0x0000088c:    ffff8901    ....    DCD    4294936833
        0x00000890:    50004000    .@.P    DCD    1342193664
    $t
    i.DrvGPIO_GetBit
    DrvGPIO_GetBit
        0x00000894:    b510        ..      PUSH     {r4,lr}
        0x00000896:    4602        .F      MOV      r2,r0
        0x00000898:    2900        .)      CMP      r1,#0
        0x0000089a:    db01        ..      BLT      0x8a0 ; DrvGPIO_GetBit + 12
        0x0000089c:    2910        .)      CMP      r1,#0x10
        0x0000089e:    dd01        ..      BLE      0x8a4 ; DrvGPIO_GetBit + 16
        0x000008a0:    4804        .H      LDR      r0,[pc,#16] ; [0x8b4] = 0xffff8901
        0x000008a2:    bd10        ..      POP      {r4,pc}
        0x000008a4:    4804        .H      LDR      r0,[pc,#16] ; [0x8b8] = 0x50004010
        0x000008a6:    0194        ..      LSLS     r4,r2,#6
        0x000008a8:    1903        ..      ADDS     r3,r0,r4
        0x000008aa:    6818        .h      LDR      r0,[r3,#0]
        0x000008ac:    40c8        .@      LSRS     r0,r0,r1
        0x000008ae:    07c0        ..      LSLS     r0,r0,#31
        0x000008b0:    0fc0        ..      LSRS     r0,r0,#31
        0x000008b2:    e7f6        ..      B        0x8a2 ; DrvGPIO_GetBit + 14
    $d
        0x000008b4:    ffff8901    ....    DCD    4294936833
        0x000008b8:    50004010    .@.P    DCD    1342193680
    $t
    i.DrvGPIO_InitFunction
    DrvGPIO_InitFunction
        0x000008bc:    b510        ..      PUSH     {r4,lr}
        0x000008be:    4601        .F      MOV      r1,r0
        0x000008c0:    460b        .F      MOV      r3,r1
        0x000008c2:    f002fcad    ....    BL       __ARM_common_switch8 ; 0x3220
    $d
        0x000008c6:    203e        >       DCW    8254
        0x000008c8:    5c4b412a    *AK\    DCD    1548435754
        0x000008cc:    947e7d74    t}~.    DCD    2491317620
        0x000008d0:    eff1b4a4    ....    DCD    4025595044
        0x000008d4:    ebecedee    ....    DCD    3958173166
        0x000008d8:    e7e8e9ea    ....    DCD    3890801130
        0x000008dc:    e3e4e5e6    ....    DCD    3823429094
        0x000008e0:    dfe0e1e2    ....    DCD    3756057058
        0x000008e4:    dbdcddde    ....    DCD    3688685022
        0x000008e8:    d7d8d9da    ....    DCD    3621312986
        0x000008ec:    d3d4d5d6    ....    DCD    3553940950
        0x000008f0:    cfd0d1d2    ....    DCD    3486568914
        0x000008f4:    cbcccdce    ....    DCD    3419196878
        0x000008f8:    c7c8c9ca    ....    DCD    3351824842
        0x000008fc:    c3c4c5c6    ....    DCD    3284452806
        0x00000900:    bfc0c1c2    ....    DCD    3217080770
        0x00000904:    bdbe        ..      DCW    48574
    $t
        0x00000906:    2000        .       MOVS     r0,#0
        0x00000908:    2305        .#      MOVS     r3,#5
        0x0000090a:    071b        ..      LSLS     r3,r3,#28
        0x0000090c:    6318        .c      STR      r0,[r3,#0x30]
        0x0000090e:    6358        Xc      STR      r0,[r3,#0x34]
        0x00000910:    6398        .c      STR      r0,[r3,#0x38]
        0x00000912:    63d8        .c      STR      r0,[r3,#0x3c]
        0x00000914:    4bfa        .K      LDR      r3,[pc,#1000] ; [0xd00] = 0x50000040
        0x00000916:    6018        .`      STR      r0,[r3,#0]
        0x00000918:    e371        q.      B        0xffe ; DrvGPIO_InitFunction + 1858
        0x0000091a:    2005        .       MOVS     r0,#5
        0x0000091c:    0700        ..      LSLS     r0,r0,#28
        0x0000091e:    6b40        @k      LDR      r0,[r0,#0x34]
        0x00000920:    2301        .#      MOVS     r3,#1
        0x00000922:    031b        ..      LSLS     r3,r3,#12
        0x00000924:    4318        .C      ORRS     r0,r0,r3
        0x00000926:    2305        .#      MOVS     r3,#5
        0x00000928:    071b        ..      LSLS     r3,r3,#28
        0x0000092a:    6358        Xc      STR      r0,[r3,#0x34]
        0x0000092c:    48f4        .H      LDR      r0,[pc,#976] ; [0xd00] = 0x50000040
        0x0000092e:    6900        .i      LDR      r0,[r0,#0x10]
        0x00000930:    2301        .#      MOVS     r3,#1
        0x00000932:    029b        ..      LSLS     r3,r3,#10
        0x00000934:    4318        .C      ORRS     r0,r0,r3
        0x00000936:    4bf2        .K      LDR      r3,[pc,#968] ; [0xd00] = 0x50000040
        0x00000938:    6118        .a      STR      r0,[r3,#0x10]
        0x0000093a:    4618        .F      MOV      r0,r3
        0x0000093c:    6900        .i      LDR      r0,[r0,#0x10]
        0x0000093e:    015b        [.      LSLS     r3,r3,#5
        0x00000940:    4398        .C      BICS     r0,r0,r3
        0x00000942:    4bef        .K      LDR      r3,[pc,#956] ; [0xd00] = 0x50000040
        0x00000944:    6118        .a      STR      r0,[r3,#0x10]
        0x00000946:    e35a        Z.      B        0xffe ; DrvGPIO_InitFunction + 1858
        0x00000948:    2005        .       MOVS     r0,#5
        0x0000094a:    0700        ..      LSLS     r0,r0,#28
        0x0000094c:    6b00        .k      LDR      r0,[r0,#0x30]
        0x0000094e:    2303        .#      MOVS     r3,#3
        0x00000950:    021b        ..      LSLS     r3,r3,#8
        0x00000952:    4318        .C      ORRS     r0,r0,r3
        0x00000954:    2305        .#      MOVS     r3,#5
        0x00000956:    071b        ..      LSLS     r3,r3,#28
        0x00000958:    6318        .c      STR      r0,[r3,#0x30]
        0x0000095a:    e350        P.      B        0xffe ; DrvGPIO_InitFunction + 1858
        0x0000095c:    2005        .       MOVS     r0,#5
        0x0000095e:    0700        ..      LSLS     r0,r0,#28
        0x00000960:    6b00        .k      LDR      r0,[r0,#0x30]
        0x00000962:    2303        .#      MOVS     r3,#3
        0x00000964:    029b        ..      LSLS     r3,r3,#10
        0x00000966:    4318        .C      ORRS     r0,r0,r3
        0x00000968:    2305        .#      MOVS     r3,#5
        0x0000096a:    071b        ..      LSLS     r3,r3,#28
        0x0000096c:    6318        .c      STR      r0,[r3,#0x30]
        0x0000096e:    48e4        .H      LDR      r0,[pc,#912] ; [0xd00] = 0x50000040
        0x00000970:    6900        .i      LDR      r0,[r0,#0x10]
        0x00000972:    2301        .#      MOVS     r3,#1
        0x00000974:    02db        ..      LSLS     r3,r3,#11
        0x00000976:    4398        .C      BICS     r0,r0,r3
        0x00000978:    4be1        .K      LDR      r3,[pc,#900] ; [0xd00] = 0x50000040
        0x0000097a:    6118        .a      STR      r0,[r3,#0x10]
        0x0000097c:    e33f        ?.      B        0xffe ; DrvGPIO_InitFunction + 1858
        0x0000097e:    2005        .       MOVS     r0,#5
        0x00000980:    0700        ..      LSLS     r0,r0,#28
        0x00000982:    6b80        .k      LDR      r0,[r0,#0x38]
        0x00000984:    230f        .#      MOVS     r3,#0xf
        0x00000986:    4318        .C      ORRS     r0,r0,r3
        0x00000988:    2305        .#      MOVS     r3,#5
        0x0000098a:    071b        ..      LSLS     r3,r3,#28
        0x0000098c:    6398        .c      STR      r0,[r3,#0x38]
        0x0000098e:    4618        .F      MOV      r0,r3
        0x00000990:    6b00        .k      LDR      r0,[r0,#0x30]
        0x00000992:    2301        .#      MOVS     r3,#1
        0x00000994:    03db        ..      LSLS     r3,r3,#15
        0x00000996:    4318        .C      ORRS     r0,r0,r3
        0x00000998:    2305        .#      MOVS     r3,#5
        0x0000099a:    071b        ..      LSLS     r3,r3,#28
        0x0000099c:    6318        .c      STR      r0,[r3,#0x30]
        0x0000099e:    48d8        .H      LDR      r0,[pc,#864] ; [0xd00] = 0x50000040
        0x000009a0:    6900        .i      LDR      r0,[r0,#0x10]
        0x000009a2:    231f        .#      MOVS     r3,#0x1f
        0x000009a4:    015b        [.      LSLS     r3,r3,#5
        0x000009a6:    4318        .C      ORRS     r0,r0,r3
        0x000009a8:    4bd5        .K      LDR      r3,[pc,#852] ; [0xd00] = 0x50000040
        0x000009aa:    6118        .a      STR      r0,[r3,#0x10]
        0x000009ac:    e327        '.      B        0xffe ; DrvGPIO_InitFunction + 1858
        0x000009ae:    2005        .       MOVS     r0,#5
        0x000009b0:    0700        ..      LSLS     r0,r0,#28
        0x000009b2:    6bc0        .k      LDR      r0,[r0,#0x3c]
        0x000009b4:    23c0        .#      MOVS     r3,#0xc0
        0x000009b6:    4318        .C      ORRS     r0,r0,r3
        0x000009b8:    2305        .#      MOVS     r3,#5
        0x000009ba:    071b        ..      LSLS     r3,r3,#28
        0x000009bc:    63d8        .c      STR      r0,[r3,#0x3c]
        0x000009be:    e31e        ..      B        0xffe ; DrvGPIO_InitFunction + 1858
        0x000009c0:    bf00        ..      NOP      
        0x000009c2:    2906        .)      CMP      r1,#6
        0x000009c4:    d101        ..      BNE      0x9ca ; DrvGPIO_InitFunction + 270
        0x000009c6:    2206        ."      MOVS     r2,#6
        0x000009c8:    e000        ..      B        0x9cc ; DrvGPIO_InitFunction + 272
        0x000009ca:    220e        ."      MOVS     r2,#0xe
        0x000009cc:    2005        .       MOVS     r0,#5
        0x000009ce:    0700        ..      LSLS     r0,r0,#28
        0x000009d0:    6b80        .k      LDR      r0,[r0,#0x38]
        0x000009d2:    2303        .#      MOVS     r3,#3
        0x000009d4:    4093        .@      LSLS     r3,r3,r2
        0x000009d6:    4318        .C      ORRS     r0,r0,r3
        0x000009d8:    2305        .#      MOVS     r3,#5
        0x000009da:    071b        ..      LSLS     r3,r3,#28
        0x000009dc:    6398        .c      STR      r0,[r3,#0x38]
        0x000009de:    48c8        .H      LDR      r0,[pc,#800] ; [0xd00] = 0x50000040
        0x000009e0:    6900        .i      LDR      r0,[r0,#0x10]
        0x000009e2:    2301        .#      MOVS     r3,#1
        0x000009e4:    02db        ..      LSLS     r3,r3,#11
        0x000009e6:    4398        .C      BICS     r0,r0,r3
        0x000009e8:    4bc5        .K      LDR      r3,[pc,#788] ; [0xd00] = 0x50000040
        0x000009ea:    6118        .a      STR      r0,[r3,#0x10]
        0x000009ec:    e307        ..      B        0xffe ; DrvGPIO_InitFunction + 1858
        0x000009ee:    2005        .       MOVS     r0,#5
        0x000009f0:    0700        ..      LSLS     r0,r0,#28
        0x000009f2:    6b80        .k      LDR      r0,[r0,#0x38]
        0x000009f4:    230f        .#      MOVS     r3,#0xf
        0x000009f6:    4318        .C      ORRS     r0,r0,r3
        0x000009f8:    2305        .#      MOVS     r3,#5
        0x000009fa:    071b        ..      LSLS     r3,r3,#28
        0x000009fc:    6398        .c      STR      r0,[r3,#0x38]
        0x000009fe:    48c0        .H      LDR      r0,[pc,#768] ; [0xd00] = 0x50000040
        0x00000a00:    6900        .i      LDR      r0,[r0,#0x10]
        0x00000a02:    23ff        .#      MOVS     r3,#0xff
        0x00000a04:    33e1        .3      ADDS     r3,r3,#0xe1
        0x00000a06:    4398        .C      BICS     r0,r0,r3
        0x00000a08:    4bbd        .K      LDR      r3,[pc,#756] ; [0xd00] = 0x50000040
        0x00000a0a:    6118        .a      STR      r0,[r3,#0x10]
        0x00000a0c:    e2f7        ..      B        0xffe ; DrvGPIO_InitFunction + 1858
        0x00000a0e:    2005        .       MOVS     r0,#5
        0x00000a10:    0700        ..      LSLS     r0,r0,#28
        0x00000a12:    6b40        @k      LDR      r0,[r0,#0x34]
        0x00000a14:    2301        .#      MOVS     r3,#1
        0x00000a16:    029b        ..      LSLS     r3,r3,#10
        0x00000a18:    4318        .C      ORRS     r0,r0,r3
        0x00000a1a:    2305        .#      MOVS     r3,#5
        0x00000a1c:    071b        ..      LSLS     r3,r3,#28
        0x00000a1e:    6358        Xc      STR      r0,[r3,#0x34]
        0x00000a20:    48b7        .H      LDR      r0,[pc,#732] ; [0xd00] = 0x50000040
        0x00000a22:    6900        .i      LDR      r0,[r0,#0x10]
        0x00000a24:    2301        .#      MOVS     r3,#1
        0x00000a26:    4318        .C      ORRS     r0,r0,r3
        0x00000a28:    4bb5        .K      LDR      r3,[pc,#724] ; [0xd00] = 0x50000040
        0x00000a2a:    6118        .a      STR      r0,[r3,#0x10]
        0x00000a2c:    e2e7        ..      B        0xffe ; DrvGPIO_InitFunction + 1858
        0x00000a2e:    2005        .       MOVS     r0,#5
        0x00000a30:    0700        ..      LSLS     r0,r0,#28
        0x00000a32:    6b80        .k      LDR      r0,[r0,#0x38]
        0x00000a34:    2330        0#      MOVS     r3,#0x30
        0x00000a36:    4318        .C      ORRS     r0,r0,r3
        0x00000a38:    2305        .#      MOVS     r3,#5
        0x00000a3a:    071b        ..      LSLS     r3,r3,#28
        0x00000a3c:    6398        .c      STR      r0,[r3,#0x38]
        0x00000a3e:    e2de        ..      B        0xffe ; DrvGPIO_InitFunction + 1858
        0x00000a40:    e2db        ..      B        0xffa ; DrvGPIO_InitFunction + 1854
        0x00000a42:    e264        d.      B        0xf0e ; DrvGPIO_InitFunction + 1618
        0x00000a44:    e282        ..      B        0xf4c ; DrvGPIO_InitFunction + 1680
        0x00000a46:    e248        H.      B        0xeda ; DrvGPIO_InitFunction + 1566
        0x00000a48:    e246        F.      B        0xed8 ; DrvGPIO_InitFunction + 1564
        0x00000a4a:    e213        ..      B        0xe74 ; DrvGPIO_InitFunction + 1464
        0x00000a4c:    e211        ..      B        0xe72 ; DrvGPIO_InitFunction + 1462
        0x00000a4e:    e1d9        ..      B        0xe04 ; DrvGPIO_InitFunction + 1352
        0x00000a50:    e1d7        ..      B        0xe02 ; DrvGPIO_InitFunction + 1350
        0x00000a52:    e1b7        ..      B        0xdc4 ; DrvGPIO_InitFunction + 1288
        0x00000a54:    e1b5        ..      B        0xdc2 ; DrvGPIO_InitFunction + 1286
        0x00000a56:    e241        A.      B        0xedc ; DrvGPIO_InitFunction + 1568
        0x00000a58:    e20d        ..      B        0xe76 ; DrvGPIO_InitFunction + 1466
        0x00000a5a:    e1d4        ..      B        0xe06 ; DrvGPIO_InitFunction + 1354
        0x00000a5c:    e1b3        ..      B        0xdc6 ; DrvGPIO_InitFunction + 1290
        0x00000a5e:    e1a6        ..      B        0xdae ; DrvGPIO_InitFunction + 1266
        0x00000a60:    e165        e.      B        0xd2e ; DrvGPIO_InitFunction + 1138
        0x00000a62:    e163        c.      B        0xd2c ; DrvGPIO_InitFunction + 1136
        0x00000a64:    e161        a.      B        0xd2a ; DrvGPIO_InitFunction + 1134
        0x00000a66:    e15f        _.      B        0xd28 ; DrvGPIO_InitFunction + 1132
        0x00000a68:    e15d        ].      B        0xd26 ; DrvGPIO_InitFunction + 1130
        0x00000a6a:    e15b        [.      B        0xd24 ; DrvGPIO_InitFunction + 1128
        0x00000a6c:    e14a        J.      B        0xd04 ; DrvGPIO_InitFunction + 1096
        0x00000a6e:    e137        7.      B        0xce0 ; DrvGPIO_InitFunction + 1060
        0x00000a70:    e129        ).      B        0xcc6 ; DrvGPIO_InitFunction + 1034
        0x00000a72:    e117        ..      B        0xca4 ; DrvGPIO_InitFunction + 1000
        0x00000a74:    e106        ..      B        0xc84 ; DrvGPIO_InitFunction + 968
        0x00000a76:    e0f5        ..      B        0xc64 ; DrvGPIO_InitFunction + 936
        0x00000a78:    e0e4        ..      B        0xc44 ; DrvGPIO_InitFunction + 904
        0x00000a7a:    e0d9        ..      B        0xc30 ; DrvGPIO_InitFunction + 884
        0x00000a7c:    e0cc        ..      B        0xc18 ; DrvGPIO_InitFunction + 860
        0x00000a7e:    e0c4        ..      B        0xc0a ; DrvGPIO_InitFunction + 846
        0x00000a80:    e0a3        ..      B        0xbca ; DrvGPIO_InitFunction + 782
        0x00000a82:    e0ae        ..      B        0xbe2 ; DrvGPIO_InitFunction + 806
        0x00000a84:    e0ac        ..      B        0xbe0 ; DrvGPIO_InitFunction + 804
        0x00000a86:    e0aa        ..      B        0xbde ; DrvGPIO_InitFunction + 802
        0x00000a88:    e0a8        ..      B        0xbdc ; DrvGPIO_InitFunction + 800
        0x00000a8a:    e0a6        ..      B        0xbda ; DrvGPIO_InitFunction + 798
        0x00000a8c:    e0a4        ..      B        0xbd8 ; DrvGPIO_InitFunction + 796
        0x00000a8e:    e0b0        ..      B        0xbf2 ; DrvGPIO_InitFunction + 822
        0x00000a90:    e092        ..      B        0xbb8 ; DrvGPIO_InitFunction + 764
        0x00000a92:    e088        ..      B        0xba6 ; DrvGPIO_InitFunction + 746
        0x00000a94:    e07e        ~.      B        0xb94 ; DrvGPIO_InitFunction + 728
        0x00000a96:    e073        s.      B        0xb80 ; DrvGPIO_InitFunction + 708
        0x00000a98:    e062        b.      B        0xb60 ; DrvGPIO_InitFunction + 676
        0x00000a9a:    e057        W.      B        0xb4c ; DrvGPIO_InitFunction + 656
        0x00000a9c:    e04d        M.      B        0xb3a ; DrvGPIO_InitFunction + 638
        0x00000a9e:    e037        7.      B        0xb10 ; DrvGPIO_InitFunction + 596
        0x00000aa0:    e02d        -.      B        0xafe ; DrvGPIO_InitFunction + 578
        0x00000aa2:    e022        ".      B        0xaea ; DrvGPIO_InitFunction + 558
        0x00000aa4:    e011        ..      B        0xaca ; DrvGPIO_InitFunction + 526
        0x00000aa6:    e7ff        ..      B        0xaa8 ; DrvGPIO_InitFunction + 492
        0x00000aa8:    2005        .       MOVS     r0,#5
        0x00000aaa:    0700        ..      LSLS     r0,r0,#28
        0x00000aac:    6b80        .k      LDR      r0,[r0,#0x38]
        0x00000aae:    230f        .#      MOVS     r3,#0xf
        0x00000ab0:    021b        ..      LSLS     r3,r3,#8
        0x00000ab2:    4318        .C      ORRS     r0,r0,r3
        0x00000ab4:    2305        .#      MOVS     r3,#5
        0x00000ab6:    071b        ..      LSLS     r3,r3,#28
        0x00000ab8:    6398        .c      STR      r0,[r3,#0x38]
        0x00000aba:    4891        .H      LDR      r0,[pc,#580] ; [0xd00] = 0x50000040
        0x00000abc:    6900        .i      LDR      r0,[r0,#0x10]
        0x00000abe:    2301        .#      MOVS     r3,#1
        0x00000ac0:    02db        ..      LSLS     r3,r3,#11
        0x00000ac2:    4398        .C      BICS     r0,r0,r3
        0x00000ac4:    4b8e        .K      LDR      r3,[pc,#568] ; [0xd00] = 0x50000040
        0x00000ac6:    6118        .a      STR      r0,[r3,#0x10]
        0x00000ac8:    e299        ..      B        0xffe ; DrvGPIO_InitFunction + 1858
        0x00000aca:    2005        .       MOVS     r0,#5
        0x00000acc:    0700        ..      LSLS     r0,r0,#28
        0x00000ace:    6b40        @k      LDR      r0,[r0,#0x34]
        0x00000ad0:    2301        .#      MOVS     r3,#1
        0x00000ad2:    025b        [.      LSLS     r3,r3,#9
        0x00000ad4:    4318        .C      ORRS     r0,r0,r3
        0x00000ad6:    2305        .#      MOVS     r3,#5
        0x00000ad8:    071b        ..      LSLS     r3,r3,#28
        0x00000ada:    6358        Xc      STR      r0,[r3,#0x34]
        0x00000adc:    4888        .H      LDR      r0,[pc,#544] ; [0xd00] = 0x50000040
        0x00000ade:    6900        .i      LDR      r0,[r0,#0x10]
        0x00000ae0:    2302        .#      MOVS     r3,#2
        0x00000ae2:    4318        .C      ORRS     r0,r0,r3
        0x00000ae4:    4b86        .K      LDR      r3,[pc,#536] ; [0xd00] = 0x50000040
        0x00000ae6:    6118        .a      STR      r0,[r3,#0x10]
        0x00000ae8:    e289        ..      B        0xffe ; DrvGPIO_InitFunction + 1858
        0x00000aea:    2005        .       MOVS     r0,#5
        0x00000aec:    0700        ..      LSLS     r0,r0,#28
        0x00000aee:    6b80        .k      LDR      r0,[r0,#0x38]
        0x00000af0:    2303        .#      MOVS     r3,#3
        0x00000af2:    031b        ..      LSLS     r3,r3,#12
        0x00000af4:    4318        .C      ORRS     r0,r0,r3
        0x00000af6:    2305        .#      MOVS     r3,#5
        0x00000af8:    071b        ..      LSLS     r3,r3,#28
        0x00000afa:    6398        .c      STR      r0,[r3,#0x38]
        0x00000afc:    e27f        ..      B        0xffe ; DrvGPIO_InitFunction + 1858
        0x00000afe:    2005        .       MOVS     r0,#5
        0x00000b00:    0700        ..      LSLS     r0,r0,#28
        0x00000b02:    6bc0        .k      LDR      r0,[r0,#0x3c]
        0x00000b04:    230f        .#      MOVS     r3,#0xf
        0x00000b06:    4318        .C      ORRS     r0,r0,r3
        0x00000b08:    2305        .#      MOVS     r3,#5
        0x00000b0a:    071b        ..      LSLS     r3,r3,#28
        0x00000b0c:    63d8        .c      STR      r0,[r3,#0x3c]
        0x00000b0e:    e276        v.      B        0xffe ; DrvGPIO_InitFunction + 1858
        0x00000b10:    2005        .       MOVS     r0,#5
        0x00000b12:    0700        ..      LSLS     r0,r0,#28
        0x00000b14:    6b00        .k      LDR      r0,[r0,#0x30]
        0x00000b16:    2380        .#      MOVS     r3,#0x80
        0x00000b18:    4318        .C      ORRS     r0,r0,r3
        0x00000b1a:    2305        .#      MOVS     r3,#5
        0x00000b1c:    071b        ..      LSLS     r3,r3,#28
        0x00000b1e:    6318        .c      STR      r0,[r3,#0x30]
        0x00000b20:    4877        wH      LDR      r0,[pc,#476] ; [0xd00] = 0x50000040
        0x00000b22:    6900        .i      LDR      r0,[r0,#0x10]
        0x00000b24:    2304        .#      MOVS     r3,#4
        0x00000b26:    4318        .C      ORRS     r0,r0,r3
        0x00000b28:    4b75        uK      LDR      r3,[pc,#468] ; [0xd00] = 0x50000040
        0x00000b2a:    6118        .a      STR      r0,[r3,#0x10]
        0x00000b2c:    4618        .F      MOV      r0,r3
        0x00000b2e:    6900        .i      LDR      r0,[r0,#0x10]
        0x00000b30:    015b        [.      LSLS     r3,r3,#5
        0x00000b32:    4398        .C      BICS     r0,r0,r3
        0x00000b34:    4b72        rK      LDR      r3,[pc,#456] ; [0xd00] = 0x50000040
        0x00000b36:    6118        .a      STR      r0,[r3,#0x10]
        0x00000b38:    e261        a.      B        0xffe ; DrvGPIO_InitFunction + 1858
        0x00000b3a:    2005        .       MOVS     r0,#5
        0x00000b3c:    0700        ..      LSLS     r0,r0,#28
        0x00000b3e:    6bc0        .k      LDR      r0,[r0,#0x3c]
        0x00000b40:    2330        0#      MOVS     r3,#0x30
        0x00000b42:    4318        .C      ORRS     r0,r0,r3
        0x00000b44:    2305        .#      MOVS     r3,#5
        0x00000b46:    071b        ..      LSLS     r3,r3,#28
        0x00000b48:    63d8        .c      STR      r0,[r3,#0x3c]
        0x00000b4a:    e258        X.      B        0xffe ; DrvGPIO_InitFunction + 1858
        0x00000b4c:    2005        .       MOVS     r0,#5
        0x00000b4e:    0700        ..      LSLS     r0,r0,#28
        0x00000b50:    6bc0        .k      LDR      r0,[r0,#0x3c]
        0x00000b52:    230f        .#      MOVS     r3,#0xf
        0x00000b54:    021b        ..      LSLS     r3,r3,#8
        0x00000b56:    4318        .C      ORRS     r0,r0,r3
        0x00000b58:    2305        .#      MOVS     r3,#5
        0x00000b5a:    071b        ..      LSLS     r3,r3,#28
        0x00000b5c:    63d8        .c      STR      r0,[r3,#0x3c]
        0x00000b5e:    e24e        N.      B        0xffe ; DrvGPIO_InitFunction + 1858
        0x00000b60:    2005        .       MOVS     r0,#5
        0x00000b62:    0700        ..      LSLS     r0,r0,#28
        0x00000b64:    6b40        @k      LDR      r0,[r0,#0x34]
        0x00000b66:    2301        .#      MOVS     r3,#1
        0x00000b68:    039b        ..      LSLS     r3,r3,#14
        0x00000b6a:    4318        .C      ORRS     r0,r0,r3
        0x00000b6c:    2305        .#      MOVS     r3,#5
        0x00000b6e:    071b        ..      LSLS     r3,r3,#28
        0x00000b70:    6358        Xc      STR      r0,[r3,#0x34]
        0x00000b72:    4863        cH      LDR      r0,[pc,#396] ; [0xd00] = 0x50000040
        0x00000b74:    6900        .i      LDR      r0,[r0,#0x10]
        0x00000b76:    2308        .#      MOVS     r3,#8
        0x00000b78:    4318        .C      ORRS     r0,r0,r3
        0x00000b7a:    4b61        aK      LDR      r3,[pc,#388] ; [0xd00] = 0x50000040
        0x00000b7c:    6118        .a      STR      r0,[r3,#0x10]
        0x00000b7e:    e23e        >.      B        0xffe ; DrvGPIO_InitFunction + 1858
        0x00000b80:    2005        .       MOVS     r0,#5
        0x00000b82:    0700        ..      LSLS     r0,r0,#28
        0x00000b84:    6bc0        .k      LDR      r0,[r0,#0x3c]
        0x00000b86:    2303        .#      MOVS     r3,#3
        0x00000b88:    031b        ..      LSLS     r3,r3,#12
        0x00000b8a:    4318        .C      ORRS     r0,r0,r3
        0x00000b8c:    2305        .#      MOVS     r3,#5
        0x00000b8e:    071b        ..      LSLS     r3,r3,#28
        0x00000b90:    63d8        .c      STR      r0,[r3,#0x3c]
        0x00000b92:    e234        4.      B        0xffe ; DrvGPIO_InitFunction + 1858
        0x00000b94:    2005        .       MOVS     r0,#5
        0x00000b96:    0700        ..      LSLS     r0,r0,#28
        0x00000b98:    6b80        .k      LDR      r0,[r0,#0x38]
        0x00000b9a:    230f        .#      MOVS     r3,#0xf
        0x00000b9c:    4318        .C      ORRS     r0,r0,r3
        0x00000b9e:    2305        .#      MOVS     r3,#5
        0x00000ba0:    071b        ..      LSLS     r3,r3,#28
        0x00000ba2:    6398        .c      STR      r0,[r3,#0x38]
        0x00000ba4:    e22b        +.      B        0xffe ; DrvGPIO_InitFunction + 1858
        0x00000ba6:    2005        .       MOVS     r0,#5
        0x00000ba8:    0700        ..      LSLS     r0,r0,#28
        0x00000baa:    6bc0        .k      LDR      r0,[r0,#0x3c]
        0x00000bac:    2302        .#      MOVS     r3,#2
        0x00000bae:    4318        .C      ORRS     r0,r0,r3
        0x00000bb0:    2305        .#      MOVS     r3,#5
        0x00000bb2:    071b        ..      LSLS     r3,r3,#28
        0x00000bb4:    63d8        .c      STR      r0,[r3,#0x3c]
        0x00000bb6:    e222        ".      B        0xffe ; DrvGPIO_InitFunction + 1858
        0x00000bb8:    2005        .       MOVS     r0,#5
        0x00000bba:    0700        ..      LSLS     r0,r0,#28
        0x00000bbc:    6bc0        .k      LDR      r0,[r0,#0x3c]
        0x00000bbe:    2304        .#      MOVS     r3,#4
        0x00000bc0:    4318        .C      ORRS     r0,r0,r3
        0x00000bc2:    2305        .#      MOVS     r3,#5
        0x00000bc4:    071b        ..      LSLS     r3,r3,#28
        0x00000bc6:    63d8        .c      STR      r0,[r3,#0x3c]
        0x00000bc8:    e219        ..      B        0xffe ; DrvGPIO_InitFunction + 1858
        0x00000bca:    484d        MH      LDR      r0,[pc,#308] ; [0xd00] = 0x50000040
        0x00000bcc:    6900        .i      LDR      r0,[r0,#0x10]
        0x00000bce:    2304        .#      MOVS     r3,#4
        0x00000bd0:    4398        .C      BICS     r0,r0,r3
        0x00000bd2:    4b4b        KK      LDR      r3,[pc,#300] ; [0xd00] = 0x50000040
        0x00000bd4:    6118        .a      STR      r0,[r3,#0x10]
        0x00000bd6:    bf00        ..      NOP      
        0x00000bd8:    bf00        ..      NOP      
        0x00000bda:    bf00        ..      NOP      
        0x00000bdc:    bf00        ..      NOP      
        0x00000bde:    bf00        ..      NOP      
        0x00000be0:    bf00        ..      NOP      
        0x00000be2:    4847        GH      LDR      r0,[pc,#284] ; [0xd00] = 0x50000040
        0x00000be4:    6900        .i      LDR      r0,[r0,#0x10]
        0x00000be6:    2301        .#      MOVS     r3,#1
        0x00000be8:    02db        ..      LSLS     r3,r3,#11
        0x00000bea:    4398        .C      BICS     r0,r0,r3
        0x00000bec:    4b44        DK      LDR      r3,[pc,#272] ; [0xd00] = 0x50000040
        0x00000bee:    6118        .a      STR      r0,[r3,#0x10]
        0x00000bf0:    bf00        ..      NOP      
        0x00000bf2:    2005        .       MOVS     r0,#5
        0x00000bf4:    0700        ..      LSLS     r0,r0,#28
        0x00000bf6:    6b00        .k      LDR      r0,[r0,#0x30]
        0x00000bf8:    460b        .F      MOV      r3,r1
        0x00000bfa:    3b17        .;      SUBS     r3,r3,#0x17
        0x00000bfc:    2401        .$      MOVS     r4,#1
        0x00000bfe:    409c        .@      LSLS     r4,r4,r3
        0x00000c00:    4320         C      ORRS     r0,r0,r4
        0x00000c02:    2305        .#      MOVS     r3,#5
        0x00000c04:    071b        ..      LSLS     r3,r3,#28
        0x00000c06:    6318        .c      STR      r0,[r3,#0x30]
        0x00000c08:    e1f9        ..      B        0xffe ; DrvGPIO_InitFunction + 1858
        0x00000c0a:    483d        =H      LDR      r0,[pc,#244] ; [0xd00] = 0x50000040
        0x00000c0c:    6900        .i      LDR      r0,[r0,#0x10]
        0x00000c0e:    2308        .#      MOVS     r3,#8
        0x00000c10:    4398        .C      BICS     r0,r0,r3
        0x00000c12:    4b3b        ;K      LDR      r3,[pc,#236] ; [0xd00] = 0x50000040
        0x00000c14:    6118        .a      STR      r0,[r3,#0x10]
        0x00000c16:    bf00        ..      NOP      
        0x00000c18:    2005        .       MOVS     r0,#5
        0x00000c1a:    0700        ..      LSLS     r0,r0,#28
        0x00000c1c:    6b43        Ck      LDR      r3,[r0,#0x34]
        0x00000c1e:    4608        .F      MOV      r0,r1
        0x00000c20:    3811        .8      SUBS     r0,r0,#0x11
        0x00000c22:    2401        .$      MOVS     r4,#1
        0x00000c24:    4084        .@      LSLS     r4,r4,r0
        0x00000c26:    4323        #C      ORRS     r3,r3,r4
        0x00000c28:    2005        .       MOVS     r0,#5
        0x00000c2a:    0700        ..      LSLS     r0,r0,#28
        0x00000c2c:    6343        Cc      STR      r3,[r0,#0x34]
        0x00000c2e:    e1e6        ..      B        0xffe ; DrvGPIO_InitFunction + 1858
        0x00000c30:    2005        .       MOVS     r0,#5
        0x00000c32:    0700        ..      LSLS     r0,r0,#28
        0x00000c34:    6b40        @k      LDR      r0,[r0,#0x34]
        0x00000c36:    23ff        .#      MOVS     r3,#0xff
        0x00000c38:    3301        .3      ADDS     r3,#1
        0x00000c3a:    4318        .C      ORRS     r0,r0,r3
        0x00000c3c:    2305        .#      MOVS     r3,#5
        0x00000c3e:    071b        ..      LSLS     r3,r3,#28
        0x00000c40:    6358        Xc      STR      r0,[r3,#0x34]
        0x00000c42:    e1dc        ..      B        0xffe ; DrvGPIO_InitFunction + 1858
        0x00000c44:    2005        .       MOVS     r0,#5
        0x00000c46:    0700        ..      LSLS     r0,r0,#28
        0x00000c48:    6b40        @k      LDR      r0,[r0,#0x34]
        0x00000c4a:    2301        .#      MOVS     r3,#1
        0x00000c4c:    025b        [.      LSLS     r3,r3,#9
        0x00000c4e:    4318        .C      ORRS     r0,r0,r3
        0x00000c50:    2305        .#      MOVS     r3,#5
        0x00000c52:    071b        ..      LSLS     r3,r3,#28
        0x00000c54:    6358        Xc      STR      r0,[r3,#0x34]
        0x00000c56:    482a        *H      LDR      r0,[pc,#168] ; [0xd00] = 0x50000040
        0x00000c58:    6900        .i      LDR      r0,[r0,#0x10]
        0x00000c5a:    2302        .#      MOVS     r3,#2
        0x00000c5c:    4398        .C      BICS     r0,r0,r3
        0x00000c5e:    4b28        (K      LDR      r3,[pc,#160] ; [0xd00] = 0x50000040
        0x00000c60:    6118        .a      STR      r0,[r3,#0x10]
        0x00000c62:    e1cc        ..      B        0xffe ; DrvGPIO_InitFunction + 1858
        0x00000c64:    2005        .       MOVS     r0,#5
        0x00000c66:    0700        ..      LSLS     r0,r0,#28
        0x00000c68:    6b40        @k      LDR      r0,[r0,#0x34]
        0x00000c6a:    2301        .#      MOVS     r3,#1
        0x00000c6c:    029b        ..      LSLS     r3,r3,#10
        0x00000c6e:    4318        .C      ORRS     r0,r0,r3
        0x00000c70:    2305        .#      MOVS     r3,#5
        0x00000c72:    071b        ..      LSLS     r3,r3,#28
        0x00000c74:    6358        Xc      STR      r0,[r3,#0x34]
        0x00000c76:    4822        "H      LDR      r0,[pc,#136] ; [0xd00] = 0x50000040
        0x00000c78:    6900        .i      LDR      r0,[r0,#0x10]
        0x00000c7a:    0840        @.      LSRS     r0,r0,#1
        0x00000c7c:    0040        @.      LSLS     r0,r0,#1
        0x00000c7e:    4b20         K      LDR      r3,[pc,#128] ; [0xd00] = 0x50000040
        0x00000c80:    6118        .a      STR      r0,[r3,#0x10]
        0x00000c82:    e1bc        ..      B        0xffe ; DrvGPIO_InitFunction + 1858
        0x00000c84:    2005        .       MOVS     r0,#5
        0x00000c86:    0700        ..      LSLS     r0,r0,#28
        0x00000c88:    6b40        @k      LDR      r0,[r0,#0x34]
        0x00000c8a:    2301        .#      MOVS     r3,#1
        0x00000c8c:    02db        ..      LSLS     r3,r3,#11
        0x00000c8e:    4318        .C      ORRS     r0,r0,r3
        0x00000c90:    2305        .#      MOVS     r3,#5
        0x00000c92:    071b        ..      LSLS     r3,r3,#28
        0x00000c94:    6358        Xc      STR      r0,[r3,#0x34]
        0x00000c96:    481a        .H      LDR      r0,[pc,#104] ; [0xd00] = 0x50000040
        0x00000c98:    6900        .i      LDR      r0,[r0,#0x10]
        0x00000c9a:    2310        .#      MOVS     r3,#0x10
        0x00000c9c:    4398        .C      BICS     r0,r0,r3
        0x00000c9e:    4b18        .K      LDR      r3,[pc,#96] ; [0xd00] = 0x50000040
        0x00000ca0:    6118        .a      STR      r0,[r3,#0x10]
        0x00000ca2:    e1ac        ..      B        0xffe ; DrvGPIO_InitFunction + 1858
        0x00000ca4:    2005        .       MOVS     r0,#5
        0x00000ca6:    0700        ..      LSLS     r0,r0,#28
        0x00000ca8:    6b40        @k      LDR      r0,[r0,#0x34]
        0x00000caa:    2301        .#      MOVS     r3,#1
        0x00000cac:    03db        ..      LSLS     r3,r3,#15
        0x00000cae:    4318        .C      ORRS     r0,r0,r3
        0x00000cb0:    2305        .#      MOVS     r3,#5
        0x00000cb2:    071b        ..      LSLS     r3,r3,#28
        0x00000cb4:    6358        Xc      STR      r0,[r3,#0x34]
        0x00000cb6:    4812        .H      LDR      r0,[pc,#72] ; [0xd00] = 0x50000040
        0x00000cb8:    6900        .i      LDR      r0,[r0,#0x10]
        0x00000cba:    2301        .#      MOVS     r3,#1
        0x00000cbc:    061b        ..      LSLS     r3,r3,#24
        0x00000cbe:    4318        .C      ORRS     r0,r0,r3
        0x00000cc0:    4b0f        .K      LDR      r3,[pc,#60] ; [0xd00] = 0x50000040
        0x00000cc2:    6118        .a      STR      r0,[r3,#0x10]
        0x00000cc4:    e19b        ..      B        0xffe ; DrvGPIO_InitFunction + 1858
        0x00000cc6:    480e        .H      LDR      r0,[pc,#56] ; [0xd00] = 0x50000040
        0x00000cc8:    6800        .h      LDR      r0,[r0,#0]
        0x00000cca:    2320         #      MOVS     r3,#0x20
        0x00000ccc:    4318        .C      ORRS     r0,r0,r3
        0x00000cce:    4b0c        .K      LDR      r3,[pc,#48] ; [0xd00] = 0x50000040
        0x00000cd0:    6018        .`      STR      r0,[r3,#0]
        0x00000cd2:    4618        .F      MOV      r0,r3
        0x00000cd4:    6900        .i      LDR      r0,[r0,#0x10]
        0x00000cd6:    04db        ..      LSLS     r3,r3,#19
        0x00000cd8:    4318        .C      ORRS     r0,r0,r3
        0x00000cda:    4b09        .K      LDR      r3,[pc,#36] ; [0xd00] = 0x50000040
        0x00000cdc:    6118        .a      STR      r0,[r3,#0x10]
        0x00000cde:    e18e        ..      B        0xffe ; DrvGPIO_InitFunction + 1858
        0x00000ce0:    2005        .       MOVS     r0,#5
        0x00000ce2:    0700        ..      LSLS     r0,r0,#28
        0x00000ce4:    6b40        @k      LDR      r0,[r0,#0x34]
        0x00000ce6:    2304        .#      MOVS     r3,#4
        0x00000ce8:    4318        .C      ORRS     r0,r0,r3
        0x00000cea:    2305        .#      MOVS     r3,#5
        0x00000cec:    071b        ..      LSLS     r3,r3,#28
        0x00000cee:    6358        Xc      STR      r0,[r3,#0x34]
        0x00000cf0:    4803        .H      LDR      r0,[pc,#12] ; [0xd00] = 0x50000040
        0x00000cf2:    6900        .i      LDR      r0,[r0,#0x10]
        0x00000cf4:    2301        .#      MOVS     r3,#1
        0x00000cf6:    069b        ..      LSLS     r3,r3,#26
        0x00000cf8:    4318        .C      ORRS     r0,r0,r3
        0x00000cfa:    4b01        .K      LDR      r3,[pc,#4] ; [0xd00] = 0x50000040
        0x00000cfc:    6118        .a      STR      r0,[r3,#0x10]
        0x00000cfe:    e17e        ~.      B        0xffe ; DrvGPIO_InitFunction + 1858
    $d
        0x00000d00:    50000040    @..P    DCD    1342177344
    $t
        0x00000d04:    2005        .       MOVS     r0,#5
        0x00000d06:    0700        ..      LSLS     r0,r0,#28
        0x00000d08:    6b40        @k      LDR      r0,[r0,#0x34]
        0x00000d0a:    2308        .#      MOVS     r3,#8
        0x00000d0c:    4318        .C      ORRS     r0,r0,r3
        0x00000d0e:    2305        .#      MOVS     r3,#5
        0x00000d10:    071b        ..      LSLS     r3,r3,#28
        0x00000d12:    6358        Xc      STR      r0,[r3,#0x34]
        0x00000d14:    48bb        .H      LDR      r0,[pc,#748] ; [0x1004] = 0x50000040
        0x00000d16:    6900        .i      LDR      r0,[r0,#0x10]
        0x00000d18:    2301        .#      MOVS     r3,#1
        0x00000d1a:    06db        ..      LSLS     r3,r3,#27
        0x00000d1c:    4318        .C      ORRS     r0,r0,r3
        0x00000d1e:    4bb9        .K      LDR      r3,[pc,#740] ; [0x1004] = 0x50000040
        0x00000d20:    6118        .a      STR      r0,[r3,#0x10]
        0x00000d22:    e16c        l.      B        0xffe ; DrvGPIO_InitFunction + 1858
        0x00000d24:    bf00        ..      NOP      
        0x00000d26:    bf00        ..      NOP      
        0x00000d28:    bf00        ..      NOP      
        0x00000d2a:    bf00        ..      NOP      
        0x00000d2c:    bf00        ..      NOP      
        0x00000d2e:    2929        ))      CMP      r1,#0x29
        0x00000d30:    db03        ..      BLT      0xd3a ; DrvGPIO_InitFunction + 1150
        0x00000d32:    292b        +)      CMP      r1,#0x2b
        0x00000d34:    dc01        ..      BGT      0xd3a ; DrvGPIO_InitFunction + 1150
        0x00000d36:    2200        ."      MOVS     r2,#0
        0x00000d38:    e000        ..      B        0xd3c ; DrvGPIO_InitFunction + 1152
        0x00000d3a:    2204        ."      MOVS     r2,#4
        0x00000d3c:    2929        ))      CMP      r1,#0x29
        0x00000d3e:    d001        ..      BEQ      0xd44 ; DrvGPIO_InitFunction + 1160
        0x00000d40:    292c        ,)      CMP      r1,#0x2c
        0x00000d42:    d110        ..      BNE      0xd66 ; DrvGPIO_InitFunction + 1194
        0x00000d44:    2005        .       MOVS     r0,#5
        0x00000d46:    0700        ..      LSLS     r0,r0,#28
        0x00000d48:    6b40        @k      LDR      r0,[r0,#0x34]
        0x00000d4a:    230f        .#      MOVS     r3,#0xf
        0x00000d4c:    4093        .@      LSLS     r3,r3,r2
        0x00000d4e:    4318        .C      ORRS     r0,r0,r3
        0x00000d50:    2305        .#      MOVS     r3,#5
        0x00000d52:    071b        ..      LSLS     r3,r3,#28
        0x00000d54:    6358        Xc      STR      r0,[r3,#0x34]
        0x00000d56:    48ab        .H      LDR      r0,[pc,#684] ; [0x1004] = 0x50000040
        0x00000d58:    6900        .i      LDR      r0,[r0,#0x10]
        0x00000d5a:    2301        .#      MOVS     r3,#1
        0x00000d5c:    02db        ..      LSLS     r3,r3,#11
        0x00000d5e:    4398        .C      BICS     r0,r0,r3
        0x00000d60:    4ba8        .K      LDR      r3,[pc,#672] ; [0x1004] = 0x50000040
        0x00000d62:    6118        .a      STR      r0,[r3,#0x10]
        0x00000d64:    e022        ".      B        0xdac ; DrvGPIO_InitFunction + 1264
        0x00000d66:    292a        *)      CMP      r1,#0x2a
        0x00000d68:    d001        ..      BEQ      0xd6e ; DrvGPIO_InitFunction + 1202
        0x00000d6a:    292d        -)      CMP      r1,#0x2d
        0x00000d6c:    d109        ..      BNE      0xd82 ; DrvGPIO_InitFunction + 1222
        0x00000d6e:    2005        .       MOVS     r0,#5
        0x00000d70:    0700        ..      LSLS     r0,r0,#28
        0x00000d72:    6b40        @k      LDR      r0,[r0,#0x34]
        0x00000d74:    2303        .#      MOVS     r3,#3
        0x00000d76:    4093        .@      LSLS     r3,r3,r2
        0x00000d78:    4318        .C      ORRS     r0,r0,r3
        0x00000d7a:    2305        .#      MOVS     r3,#5
        0x00000d7c:    071b        ..      LSLS     r3,r3,#28
        0x00000d7e:    6358        Xc      STR      r0,[r3,#0x34]
        0x00000d80:    e014        ..      B        0xdac ; DrvGPIO_InitFunction + 1264
        0x00000d82:    292b        +)      CMP      r1,#0x2b
        0x00000d84:    d001        ..      BEQ      0xd8a ; DrvGPIO_InitFunction + 1230
        0x00000d86:    292e        .)      CMP      r1,#0x2e
        0x00000d88:    d110        ..      BNE      0xdac ; DrvGPIO_InitFunction + 1264
        0x00000d8a:    2005        .       MOVS     r0,#5
        0x00000d8c:    0700        ..      LSLS     r0,r0,#28
        0x00000d8e:    6b40        @k      LDR      r0,[r0,#0x34]
        0x00000d90:    1c93        ..      ADDS     r3,r2,#2
        0x00000d92:    2403        .$      MOVS     r4,#3
        0x00000d94:    409c        .@      LSLS     r4,r4,r3
        0x00000d96:    4320         C      ORRS     r0,r0,r4
        0x00000d98:    2305        .#      MOVS     r3,#5
        0x00000d9a:    071b        ..      LSLS     r3,r3,#28
        0x00000d9c:    6358        Xc      STR      r0,[r3,#0x34]
        0x00000d9e:    4899        .H      LDR      r0,[pc,#612] ; [0x1004] = 0x50000040
        0x00000da0:    6900        .i      LDR      r0,[r0,#0x10]
        0x00000da2:    2301        .#      MOVS     r3,#1
        0x00000da4:    02db        ..      LSLS     r3,r3,#11
        0x00000da6:    4398        .C      BICS     r0,r0,r3
        0x00000da8:    4b96        .K      LDR      r3,[pc,#600] ; [0x1004] = 0x50000040
        0x00000daa:    6118        .a      STR      r0,[r3,#0x10]
        0x00000dac:    e127        '.      B        0xffe ; DrvGPIO_InitFunction + 1858
        0x00000dae:    2005        .       MOVS     r0,#5
        0x00000db0:    0700        ..      LSLS     r0,r0,#28
        0x00000db2:    6bc0        .k      LDR      r0,[r0,#0x3c]
        0x00000db4:    2303        .#      MOVS     r3,#3
        0x00000db6:    039b        ..      LSLS     r3,r3,#14
        0x00000db8:    4318        .C      ORRS     r0,r0,r3
        0x00000dba:    2305        .#      MOVS     r3,#5
        0x00000dbc:    071b        ..      LSLS     r3,r3,#28
        0x00000dbe:    63d8        .c      STR      r0,[r3,#0x3c]
        0x00000dc0:    e11d        ..      B        0xffe ; DrvGPIO_InitFunction + 1858
        0x00000dc2:    bf00        ..      NOP      
        0x00000dc4:    bf00        ..      NOP      
        0x00000dc6:    2930        0)      CMP      r1,#0x30
        0x00000dc8:    d108        ..      BNE      0xddc ; DrvGPIO_InitFunction + 1312
        0x00000dca:    2005        .       MOVS     r0,#5
        0x00000dcc:    0700        ..      LSLS     r0,r0,#28
        0x00000dce:    6b00        .k      LDR      r0,[r0,#0x30]
        0x00000dd0:    020b        ..      LSLS     r3,r1,#8
        0x00000dd2:    4318        .C      ORRS     r0,r0,r3
        0x00000dd4:    2305        .#      MOVS     r3,#5
        0x00000dd6:    071b        ..      LSLS     r3,r3,#28
        0x00000dd8:    6318        .c      STR      r0,[r3,#0x30]
        0x00000dda:    e00a        ..      B        0xdf2 ; DrvGPIO_InitFunction + 1334
        0x00000ddc:    2005        .       MOVS     r0,#5
        0x00000dde:    0700        ..      LSLS     r0,r0,#28
        0x00000de0:    6b03        .k      LDR      r3,[r0,#0x30]
        0x00000de2:    4608        .F      MOV      r0,r1
        0x00000de4:    3828        (8      SUBS     r0,r0,#0x28
        0x00000de6:    2401        .$      MOVS     r4,#1
        0x00000de8:    4084        .@      LSLS     r4,r4,r0
        0x00000dea:    4323        #C      ORRS     r3,r3,r4
        0x00000dec:    2005        .       MOVS     r0,#5
        0x00000dee:    0700        ..      LSLS     r0,r0,#28
        0x00000df0:    6303        .c      STR      r3,[r0,#0x30]
        0x00000df2:    4884        .H      LDR      r0,[pc,#528] ; [0x1004] = 0x50000040
        0x00000df4:    6900        .i      LDR      r0,[r0,#0x10]
        0x00000df6:    2301        .#      MOVS     r3,#1
        0x00000df8:    02db        ..      LSLS     r3,r3,#11
        0x00000dfa:    4398        .C      BICS     r0,r0,r3
        0x00000dfc:    4b81        .K      LDR      r3,[pc,#516] ; [0x1004] = 0x50000040
        0x00000dfe:    6118        .a      STR      r0,[r3,#0x10]
        0x00000e00:    e0fd        ..      B        0xffe ; DrvGPIO_InitFunction + 1858
        0x00000e02:    bf00        ..      NOP      
        0x00000e04:    bf00        ..      NOP      
        0x00000e06:    2931        1)      CMP      r1,#0x31
        0x00000e08:    d116        ..      BNE      0xe38 ; DrvGPIO_InitFunction + 1404
        0x00000e0a:    2005        .       MOVS     r0,#5
        0x00000e0c:    0700        ..      LSLS     r0,r0,#28
        0x00000e0e:    6b00        .k      LDR      r0,[r0,#0x30]
        0x00000e10:    2303        .#      MOVS     r3,#3
        0x00000e12:    039b        ..      LSLS     r3,r3,#14
        0x00000e14:    4318        .C      ORRS     r0,r0,r3
        0x00000e16:    2305        .#      MOVS     r3,#5
        0x00000e18:    071b        ..      LSLS     r3,r3,#28
        0x00000e1a:    6318        .c      STR      r0,[r3,#0x30]
        0x00000e1c:    4879        yH      LDR      r0,[pc,#484] ; [0x1004] = 0x50000040
        0x00000e1e:    6900        .i      LDR      r0,[r0,#0x10]
        0x00000e20:    2301        .#      MOVS     r3,#1
        0x00000e22:    025b        [.      LSLS     r3,r3,#9
        0x00000e24:    4398        .C      BICS     r0,r0,r3
        0x00000e26:    4b77        wK      LDR      r3,[pc,#476] ; [0x1004] = 0x50000040
        0x00000e28:    6118        .a      STR      r0,[r3,#0x10]
        0x00000e2a:    4618        .F      MOV      r0,r3
        0x00000e2c:    6900        .i      LDR      r0,[r0,#0x10]
        0x00000e2e:    015b        [.      LSLS     r3,r3,#5
        0x00000e30:    4398        .C      BICS     r0,r0,r3
        0x00000e32:    4b74        tK      LDR      r3,[pc,#464] ; [0x1004] = 0x50000040
        0x00000e34:    6118        .a      STR      r0,[r3,#0x10]
        0x00000e36:    e01b        ..      B        0xe70 ; DrvGPIO_InitFunction + 1460
        0x00000e38:    2005        .       MOVS     r0,#5
        0x00000e3a:    0700        ..      LSLS     r0,r0,#28
        0x00000e3c:    6b03        .k      LDR      r3,[r0,#0x30]
        0x00000e3e:    4608        .F      MOV      r0,r1
        0x00000e40:    3828        (8      SUBS     r0,r0,#0x28
        0x00000e42:    2401        .$      MOVS     r4,#1
        0x00000e44:    4084        .@      LSLS     r4,r4,r0
        0x00000e46:    4323        #C      ORRS     r3,r3,r4
        0x00000e48:    2005        .       MOVS     r0,#5
        0x00000e4a:    0700        ..      LSLS     r0,r0,#28
        0x00000e4c:    6303        .c      STR      r3,[r0,#0x30]
        0x00000e4e:    2936        6)      CMP      r1,#0x36
        0x00000e50:    d107        ..      BNE      0xe62 ; DrvGPIO_InitFunction + 1446
        0x00000e52:    486c        lH      LDR      r0,[pc,#432] ; [0x1004] = 0x50000040
        0x00000e54:    6900        .i      LDR      r0,[r0,#0x10]
        0x00000e56:    2301        .#      MOVS     r3,#1
        0x00000e58:    02db        ..      LSLS     r3,r3,#11
        0x00000e5a:    4398        .C      BICS     r0,r0,r3
        0x00000e5c:    4b69        iK      LDR      r3,[pc,#420] ; [0x1004] = 0x50000040
        0x00000e5e:    6118        .a      STR      r0,[r3,#0x10]
        0x00000e60:    e006        ..      B        0xe70 ; DrvGPIO_InitFunction + 1460
        0x00000e62:    4868        hH      LDR      r0,[pc,#416] ; [0x1004] = 0x50000040
        0x00000e64:    6900        .i      LDR      r0,[r0,#0x10]
        0x00000e66:    2301        .#      MOVS     r3,#1
        0x00000e68:    025b        [.      LSLS     r3,r3,#9
        0x00000e6a:    4398        .C      BICS     r0,r0,r3
        0x00000e6c:    4b65        eK      LDR      r3,[pc,#404] ; [0x1004] = 0x50000040
        0x00000e6e:    6118        .a      STR      r0,[r3,#0x10]
        0x00000e70:    e0c5        ..      B        0xffe ; DrvGPIO_InitFunction + 1858
        0x00000e72:    bf00        ..      NOP      
        0x00000e74:    bf00        ..      NOP      
        0x00000e76:    2932        2)      CMP      r1,#0x32
        0x00000e78:    d115        ..      BNE      0xea6 ; DrvGPIO_InitFunction + 1514
        0x00000e7a:    2005        .       MOVS     r0,#5
        0x00000e7c:    0700        ..      LSLS     r0,r0,#28
        0x00000e7e:    6b40        @k      LDR      r0,[r0,#0x34]
        0x00000e80:    2301        .#      MOVS     r3,#1
        0x00000e82:    02db        ..      LSLS     r3,r3,#11
        0x00000e84:    4318        .C      ORRS     r0,r0,r3
        0x00000e86:    2305        .#      MOVS     r3,#5
        0x00000e88:    071b        ..      LSLS     r3,r3,#28
        0x00000e8a:    6358        Xc      STR      r0,[r3,#0x34]
        0x00000e8c:    485d        ]H      LDR      r0,[pc,#372] ; [0x1004] = 0x50000040
        0x00000e8e:    6900        .i      LDR      r0,[r0,#0x10]
        0x00000e90:    2310        .#      MOVS     r3,#0x10
        0x00000e92:    4318        .C      ORRS     r0,r0,r3
        0x00000e94:    4b5b        [K      LDR      r3,[pc,#364] ; [0x1004] = 0x50000040
        0x00000e96:    6118        .a      STR      r0,[r3,#0x10]
        0x00000e98:    4618        .F      MOV      r0,r3
        0x00000e9a:    6800        .h      LDR      r0,[r0,#0]
        0x00000e9c:    2320         #      MOVS     r3,#0x20
        0x00000e9e:    4318        .C      ORRS     r0,r0,r3
        0x00000ea0:    4b58        XK      LDR      r3,[pc,#352] ; [0x1004] = 0x50000040
        0x00000ea2:    6018        .`      STR      r0,[r3,#0]
        0x00000ea4:    e017        ..      B        0xed6 ; DrvGPIO_InitFunction + 1562
        0x00000ea6:    2938        8)      CMP      r1,#0x38
        0x00000ea8:    d10f        ..      BNE      0xeca ; DrvGPIO_InitFunction + 1550
        0x00000eaa:    2005        .       MOVS     r0,#5
        0x00000eac:    0700        ..      LSLS     r0,r0,#28
        0x00000eae:    6b40        @k      LDR      r0,[r0,#0x34]
        0x00000eb0:    2301        .#      MOVS     r3,#1
        0x00000eb2:    02db        ..      LSLS     r3,r3,#11
        0x00000eb4:    4318        .C      ORRS     r0,r0,r3
        0x00000eb6:    2305        .#      MOVS     r3,#5
        0x00000eb8:    071b        ..      LSLS     r3,r3,#28
        0x00000eba:    6358        Xc      STR      r0,[r3,#0x34]
        0x00000ebc:    4851        QH      LDR      r0,[pc,#324] ; [0x1004] = 0x50000040
        0x00000ebe:    6900        .i      LDR      r0,[r0,#0x10]
        0x00000ec0:    2310        .#      MOVS     r3,#0x10
        0x00000ec2:    4318        .C      ORRS     r0,r0,r3
        0x00000ec4:    4b4f        OK      LDR      r3,[pc,#316] ; [0x1004] = 0x50000040
        0x00000ec6:    6118        .a      STR      r0,[r3,#0x10]
        0x00000ec8:    e005        ..      B        0xed6 ; DrvGPIO_InitFunction + 1562
        0x00000eca:    484e        NH      LDR      r0,[pc,#312] ; [0x1004] = 0x50000040
        0x00000ecc:    6800        .h      LDR      r0,[r0,#0]
        0x00000ece:    2320         #      MOVS     r3,#0x20
        0x00000ed0:    4318        .C      ORRS     r0,r0,r3
        0x00000ed2:    4b4c        LK      LDR      r3,[pc,#304] ; [0x1004] = 0x50000040
        0x00000ed4:    6018        .`      STR      r0,[r3,#0]
        0x00000ed6:    e092        ..      B        0xffe ; DrvGPIO_InitFunction + 1858
        0x00000ed8:    bf00        ..      NOP      
        0x00000eda:    bf00        ..      NOP      
        0x00000edc:    2933        3)      CMP      r1,#0x33
        0x00000ede:    d106        ..      BNE      0xeee ; DrvGPIO_InitFunction + 1586
        0x00000ee0:    4848        HH      LDR      r0,[pc,#288] ; [0x1004] = 0x50000040
        0x00000ee2:    6800        .h      LDR      r0,[r0,#0]
        0x00000ee4:    2303        .#      MOVS     r3,#3
        0x00000ee6:    4318        .C      ORRS     r0,r0,r3
        0x00000ee8:    4b46        FK      LDR      r3,[pc,#280] ; [0x1004] = 0x50000040
        0x00000eea:    6018        .`      STR      r0,[r3,#0]
        0x00000eec:    e00e        ..      B        0xf0c ; DrvGPIO_InitFunction + 1616
        0x00000eee:    293a        :)      CMP      r1,#0x3a
        0x00000ef0:    d106        ..      BNE      0xf00 ; DrvGPIO_InitFunction + 1604
        0x00000ef2:    4844        DH      LDR      r0,[pc,#272] ; [0x1004] = 0x50000040
        0x00000ef4:    6800        .h      LDR      r0,[r0,#0]
        0x00000ef6:    2301        .#      MOVS     r3,#1
        0x00000ef8:    4318        .C      ORRS     r0,r0,r3
        0x00000efa:    4b42        BK      LDR      r3,[pc,#264] ; [0x1004] = 0x50000040
        0x00000efc:    6018        .`      STR      r0,[r3,#0]
        0x00000efe:    e005        ..      B        0xf0c ; DrvGPIO_InitFunction + 1616
        0x00000f00:    4840        @H      LDR      r0,[pc,#256] ; [0x1004] = 0x50000040
        0x00000f02:    6800        .h      LDR      r0,[r0,#0]
        0x00000f04:    2302        .#      MOVS     r3,#2
        0x00000f06:    4318        .C      ORRS     r0,r0,r3
        0x00000f08:    4b3e        >K      LDR      r3,[pc,#248] ; [0x1004] = 0x50000040
        0x00000f0a:    6018        .`      STR      r0,[r3,#0]
        0x00000f0c:    e077        w.      B        0xffe ; DrvGPIO_InitFunction + 1858
        0x00000f0e:    2005        .       MOVS     r0,#5
        0x00000f10:    0700        ..      LSLS     r0,r0,#28
        0x00000f12:    6b40        @k      LDR      r0,[r0,#0x34]
        0x00000f14:    230c        .#      MOVS     r3,#0xc
        0x00000f16:    4318        .C      ORRS     r0,r0,r3
        0x00000f18:    2305        .#      MOVS     r3,#5
        0x00000f1a:    071b        ..      LSLS     r3,r3,#28
        0x00000f1c:    6358        Xc      STR      r0,[r3,#0x34]
        0x00000f1e:    4839        9H      LDR      r0,[pc,#228] ; [0x1004] = 0x50000040
        0x00000f20:    6900        .i      LDR      r0,[r0,#0x10]
        0x00000f22:    2303        .#      MOVS     r3,#3
        0x00000f24:    035b        [.      LSLS     r3,r3,#13
        0x00000f26:    4318        .C      ORRS     r0,r0,r3
        0x00000f28:    4b36        6K      LDR      r3,[pc,#216] ; [0x1004] = 0x50000040
        0x00000f2a:    6118        .a      STR      r0,[r3,#0x10]
        0x00000f2c:    2005        .       MOVS     r0,#5
        0x00000f2e:    0700        ..      LSLS     r0,r0,#28
        0x00000f30:    6b00        .k      LDR      r0,[r0,#0x30]
        0x00000f32:    4b35        5K      LDR      r3,[pc,#212] ; [0x1008] = 0x703e
        0x00000f34:    4318        .C      ORRS     r0,r0,r3
        0x00000f36:    2305        .#      MOVS     r3,#5
        0x00000f38:    071b        ..      LSLS     r3,r3,#28
        0x00000f3a:    6318        .c      STR      r0,[r3,#0x30]
        0x00000f3c:    4831        1H      LDR      r0,[pc,#196] ; [0x1004] = 0x50000040
        0x00000f3e:    6900        .i      LDR      r0,[r0,#0x10]
        0x00000f40:    23ff        .#      MOVS     r3,#0xff
        0x00000f42:    041b        ..      LSLS     r3,r3,#16
        0x00000f44:    4318        .C      ORRS     r0,r0,r3
        0x00000f46:    4b2f        /K      LDR      r3,[pc,#188] ; [0x1004] = 0x50000040
        0x00000f48:    6118        .a      STR      r0,[r3,#0x10]
        0x00000f4a:    bf00        ..      NOP      
        0x00000f4c:    293c        <)      CMP      r1,#0x3c
        0x00000f4e:    d11e        ..      BNE      0xf8e ; DrvGPIO_InitFunction + 1746
        0x00000f50:    2005        .       MOVS     r0,#5
        0x00000f52:    0700        ..      LSLS     r0,r0,#28
        0x00000f54:    6b40        @k      LDR      r0,[r0,#0x34]
        0x00000f56:    230c        .#      MOVS     r3,#0xc
        0x00000f58:    4398        .C      BICS     r0,r0,r3
        0x00000f5a:    2305        .#      MOVS     r3,#5
        0x00000f5c:    071b        ..      LSLS     r3,r3,#28
        0x00000f5e:    6358        Xc      STR      r0,[r3,#0x34]
        0x00000f60:    4828        (H      LDR      r0,[pc,#160] ; [0x1004] = 0x50000040
        0x00000f62:    6900        .i      LDR      r0,[r0,#0x10]
        0x00000f64:    2303        .#      MOVS     r3,#3
        0x00000f66:    035b        [.      LSLS     r3,r3,#13
        0x00000f68:    4398        .C      BICS     r0,r0,r3
        0x00000f6a:    4b26        &K      LDR      r3,[pc,#152] ; [0x1004] = 0x50000040
        0x00000f6c:    6118        .a      STR      r0,[r3,#0x10]
        0x00000f6e:    2005        .       MOVS     r0,#5
        0x00000f70:    0700        ..      LSLS     r0,r0,#28
        0x00000f72:    6b00        .k      LDR      r0,[r0,#0x30]
        0x00000f74:    4b24        $K      LDR      r3,[pc,#144] ; [0x1008] = 0x703e
        0x00000f76:    43db        .C      MVNS     r3,r3
        0x00000f78:    4018        .@      ANDS     r0,r0,r3
        0x00000f7a:    2305        .#      MOVS     r3,#5
        0x00000f7c:    071b        ..      LSLS     r3,r3,#28
        0x00000f7e:    6318        .c      STR      r0,[r3,#0x30]
        0x00000f80:    4820         H      LDR      r0,[pc,#128] ; [0x1004] = 0x50000040
        0x00000f82:    6900        .i      LDR      r0,[r0,#0x10]
        0x00000f84:    23ff        .#      MOVS     r3,#0xff
        0x00000f86:    041b        ..      LSLS     r3,r3,#16
        0x00000f88:    4398        .C      BICS     r0,r0,r3
        0x00000f8a:    4b1e        .K      LDR      r3,[pc,#120] ; [0x1004] = 0x50000040
        0x00000f8c:    6118        .a      STR      r0,[r3,#0x10]
        0x00000f8e:    481d        .H      LDR      r0,[pc,#116] ; [0x1004] = 0x50000040
        0x00000f90:    6900        .i      LDR      r0,[r0,#0x10]
        0x00000f92:    2303        .#      MOVS     r3,#3
        0x00000f94:    02db        ..      LSLS     r3,r3,#11
        0x00000f96:    4318        .C      ORRS     r0,r0,r3
        0x00000f98:    4b1a        .K      LDR      r3,[pc,#104] ; [0x1004] = 0x50000040
        0x00000f9a:    6118        .a      STR      r0,[r3,#0x10]
        0x00000f9c:    2005        .       MOVS     r0,#5
        0x00000f9e:    0700        ..      LSLS     r0,r0,#28
        0x00000fa0:    6b80        .k      LDR      r0,[r0,#0x38]
        0x00000fa2:    23ff        .#      MOVS     r3,#0xff
        0x00000fa4:    3301        .3      ADDS     r3,#1
        0x00000fa6:    4318        .C      ORRS     r0,r0,r3
        0x00000fa8:    2305        .#      MOVS     r3,#5
        0x00000faa:    071b        ..      LSLS     r3,r3,#28
        0x00000fac:    6398        .c      STR      r0,[r3,#0x38]
        0x00000fae:    4618        .F      MOV      r0,r3
        0x00000fb0:    6b00        .k      LDR      r0,[r0,#0x30]
        0x00000fb2:    2303        .#      MOVS     r3,#3
        0x00000fb4:    029b        ..      LSLS     r3,r3,#10
        0x00000fb6:    4318        .C      ORRS     r0,r0,r3
        0x00000fb8:    2305        .#      MOVS     r3,#5
        0x00000fba:    071b        ..      LSLS     r3,r3,#28
        0x00000fbc:    6318        .c      STR      r0,[r3,#0x30]
        0x00000fbe:    4618        .F      MOV      r0,r3
        0x00000fc0:    6b40        @k      LDR      r0,[r0,#0x34]
        0x00000fc2:    23c0        .#      MOVS     r3,#0xc0
        0x00000fc4:    4318        .C      ORRS     r0,r0,r3
        0x00000fc6:    2305        .#      MOVS     r3,#5
        0x00000fc8:    071b        ..      LSLS     r3,r3,#28
        0x00000fca:    6358        Xc      STR      r0,[r3,#0x34]
        0x00000fcc:    4618        .F      MOV      r0,r3
        0x00000fce:    6b00        .k      LDR      r0,[r0,#0x30]
        0x00000fd0:    23c0        .#      MOVS     r3,#0xc0
        0x00000fd2:    4318        .C      ORRS     r0,r0,r3
        0x00000fd4:    2305        .#      MOVS     r3,#5
        0x00000fd6:    071b        ..      LSLS     r3,r3,#28
        0x00000fd8:    6318        .c      STR      r0,[r3,#0x30]
        0x00000fda:    4618        .F      MOV      r0,r3
        0x00000fdc:    6b80        .k      LDR      r0,[r0,#0x38]
        0x00000fde:    4b0b        .K      LDR      r3,[pc,#44] ; [0x100c] = 0xc0c0
        0x00000fe0:    4318        .C      ORRS     r0,r0,r3
        0x00000fe2:    2305        .#      MOVS     r3,#5
        0x00000fe4:    071b        ..      LSLS     r3,r3,#28
        0x00000fe6:    6398        .c      STR      r0,[r3,#0x38]
        0x00000fe8:    4618        .F      MOV      r0,r3
        0x00000fea:    6b40        @k      LDR      r0,[r0,#0x34]
        0x00000fec:    2303        .#      MOVS     r3,#3
        0x00000fee:    031b        ..      LSLS     r3,r3,#12
        0x00000ff0:    4318        .C      ORRS     r0,r0,r3
        0x00000ff2:    2305        .#      MOVS     r3,#5
        0x00000ff4:    071b        ..      LSLS     r3,r3,#28
        0x00000ff6:    6358        Xc      STR      r0,[r3,#0x34]
        0x00000ff8:    e001        ..      B        0xffe ; DrvGPIO_InitFunction + 1858
        0x00000ffa:    4805        .H      LDR      r0,[pc,#20] ; [0x1010] = 0xffff8901
        0x00000ffc:    bd10        ..      POP      {r4,pc}
        0x00000ffe:    bf00        ..      NOP      
        0x00001000:    2000        .       MOVS     r0,#0
        0x00001002:    e7fb        ..      B        0xffc ; DrvGPIO_InitFunction + 1856
    $d
        0x00001004:    50000040    @..P    DCD    1342177344
        0x00001008:    0000703e    >p..    DCD    28734
        0x0000100c:    0000c0c0    ....    DCD    49344
        0x00001010:    ffff8901    ....    DCD    4294936833
    $t
    i.DrvGPIO_Open
    DrvGPIO_Open
        0x00001014:    b570        p.      PUSH     {r4-r6,lr}
        0x00001016:    4604        .F      MOV      r4,r0
        0x00001018:    460b        .F      MOV      r3,r1
        0x0000101a:    2b00        .+      CMP      r3,#0
        0x0000101c:    db01        ..      BLT      0x1022 ; DrvGPIO_Open + 14
        0x0000101e:    2b10        .+      CMP      r3,#0x10
        0x00001020:    dd01        ..      BLE      0x1026 ; DrvGPIO_Open + 18
        0x00001022:    4818        .H      LDR      r0,[pc,#96] ; [0x1084] = 0xffff8901
        0x00001024:    bd70        p.      POP      {r4-r6,pc}
        0x00001026:    01a0        ..      LSLS     r0,r4,#6
        0x00001028:    4d17        .M      LDR      r5,[pc,#92] ; [0x1088] = 0x50004000
        0x0000102a:    1941        A.      ADDS     r1,r0,r5
        0x0000102c:    2a00        .*      CMP      r2,#0
        0x0000102e:    d003        ..      BEQ      0x1038 ; DrvGPIO_Open + 36
        0x00001030:    2a01        .*      CMP      r2,#1
        0x00001032:    d001        ..      BEQ      0x1038 ; DrvGPIO_Open + 36
        0x00001034:    2a02        .*      CMP      r2,#2
        0x00001036:    d117        ..      BNE      0x1068 ; DrvGPIO_Open + 84
        0x00001038:    6808        .h      LDR      r0,[r1,#0]
        0x0000103a:    005e        ^.      LSLS     r6,r3,#1
        0x0000103c:    2503        .%      MOVS     r5,#3
        0x0000103e:    40b5        .@      LSLS     r5,r5,r6
        0x00001040:    43a8        .C      BICS     r0,r0,r5
        0x00001042:    6008        .`      STR      r0,[r1,#0]
        0x00001044:    2a01        .*      CMP      r2,#1
        0x00001046:    d106        ..      BNE      0x1056 ; DrvGPIO_Open + 66
        0x00001048:    6808        .h      LDR      r0,[r1,#0]
        0x0000104a:    005e        ^.      LSLS     r6,r3,#1
        0x0000104c:    2501        .%      MOVS     r5,#1
        0x0000104e:    40b5        .@      LSLS     r5,r5,r6
        0x00001050:    4328        (C      ORRS     r0,r0,r5
        0x00001052:    6008        .`      STR      r0,[r1,#0]
        0x00001054:    e013        ..      B        0x107e ; DrvGPIO_Open + 106
        0x00001056:    2a02        .*      CMP      r2,#2
        0x00001058:    d111        ..      BNE      0x107e ; DrvGPIO_Open + 106
        0x0000105a:    6808        .h      LDR      r0,[r1,#0]
        0x0000105c:    005e        ^.      LSLS     r6,r3,#1
        0x0000105e:    2502        .%      MOVS     r5,#2
        0x00001060:    40b5        .@      LSLS     r5,r5,r6
        0x00001062:    4328        (C      ORRS     r0,r0,r5
        0x00001064:    6008        .`      STR      r0,[r1,#0]
        0x00001066:    e00a        ..      B        0x107e ; DrvGPIO_Open + 106
        0x00001068:    2a03        .*      CMP      r2,#3
        0x0000106a:    d106        ..      BNE      0x107a ; DrvGPIO_Open + 102
        0x0000106c:    6808        .h      LDR      r0,[r1,#0]
        0x0000106e:    005e        ^.      LSLS     r6,r3,#1
        0x00001070:    2503        .%      MOVS     r5,#3
        0x00001072:    40b5        .@      LSLS     r5,r5,r6
        0x00001074:    4328        (C      ORRS     r0,r0,r5
        0x00001076:    6008        .`      STR      r0,[r1,#0]
        0x00001078:    e001        ..      B        0x107e ; DrvGPIO_Open + 106
        0x0000107a:    4802        .H      LDR      r0,[pc,#8] ; [0x1084] = 0xffff8901
        0x0000107c:    e7d2        ..      B        0x1024 ; DrvGPIO_Open + 16
        0x0000107e:    2000        .       MOVS     r0,#0
        0x00001080:    e7d0        ..      B        0x1024 ; DrvGPIO_Open + 16
    $d
        0x00001082:    0000        ..      DCW    0
        0x00001084:    ffff8901    ....    DCD    4294936833
        0x00001088:    50004000    .@.P    DCD    1342193664
    $t
    i.DrvGPIO_SetBit
    DrvGPIO_SetBit
        0x0000108c:    b510        ..      PUSH     {r4,lr}
        0x0000108e:    4603        .F      MOV      r3,r0
        0x00001090:    2900        .)      CMP      r1,#0
        0x00001092:    db01        ..      BLT      0x1098 ; DrvGPIO_SetBit + 12
        0x00001094:    2910        .)      CMP      r1,#0x10
        0x00001096:    dd01        ..      BLE      0x109c ; DrvGPIO_SetBit + 16
        0x00001098:    4805        .H      LDR      r0,[pc,#20] ; [0x10b0] = 0xffff8901
        0x0000109a:    bd10        ..      POP      {r4,pc}
        0x0000109c:    0198        ..      LSLS     r0,r3,#6
        0x0000109e:    4c05        .L      LDR      r4,[pc,#20] ; [0x10b4] = 0x50004000
        0x000010a0:    1902        ..      ADDS     r2,r0,r4
        0x000010a2:    6890        .h      LDR      r0,[r2,#8]
        0x000010a4:    2401        .$      MOVS     r4,#1
        0x000010a6:    408c        .@      LSLS     r4,r4,r1
        0x000010a8:    4320         C      ORRS     r0,r0,r4
        0x000010aa:    6090        .`      STR      r0,[r2,#8]
        0x000010ac:    2000        .       MOVS     r0,#0
        0x000010ae:    e7f4        ..      B        0x109a ; DrvGPIO_SetBit + 14
    $d
        0x000010b0:    ffff8901    ....    DCD    4294936833
        0x000010b4:    50004000    .@.P    DCD    1342193664
    $t
    i.DrvSYS_GetExtClockFreq
    DrvSYS_GetExtClockFreq
        0x000010b8:    4800        .H      LDR      r0,[pc,#0] ; [0x10bc] = 0xb71b00
        0x000010ba:    4770        pG      BX       lr
    $d
        0x000010bc:    00b71b00    ....    DCD    12000000
    $t
    i.DrvSYS_GetPLLClockFreq
    DrvSYS_GetPLLClockFreq
        0x000010c0:    b57f        ..      PUSH     {r0-r6,lr}
        0x000010c2:    2500        .%      MOVS     r5,#0
        0x000010c4:    4b18        .K      LDR      r3,[pc,#96] ; [0x1128] = 0x347c
        0x000010c6:    cb0f        ..      LDM      r3,{r0-r3}
        0x000010c8:    466c        lF      MOV      r4,sp
        0x000010ca:    c40f        ..      STM      r4!,{r0-r3}
        0x000010cc:    4817        .H      LDR      r0,[pc,#92] ; [0x112c] = 0x50000200
        0x000010ce:    6a00        .j      LDR      r0,[r0,#0x20]
        0x000010d0:    0300        ..      LSLS     r0,r0,#12
        0x000010d2:    0fc0        ..      LSRS     r0,r0,#31
        0x000010d4:    2801        .(      CMP      r0,#1
        0x000010d6:    d101        ..      BNE      0x10dc ; DrvSYS_GetPLLClockFreq + 28
        0x000010d8:    4c15        .L      LDR      r4,[pc,#84] ; [0x1130] = 0x1518000
        0x000010da:    e000        ..      B        0x10de ; DrvSYS_GetPLLClockFreq + 30
        0x000010dc:    4c15        .L      LDR      r4,[pc,#84] ; [0x1134] = 0xb71b00
        0x000010de:    4813        .H      LDR      r0,[pc,#76] ; [0x112c] = 0x50000200
        0x000010e0:    6a00        .j      LDR      r0,[r0,#0x20]
        0x000010e2:    03c0        ..      LSLS     r0,r0,#15
        0x000010e4:    0fc0        ..      LSRS     r0,r0,#31
        0x000010e6:    2801        .(      CMP      r0,#1
        0x000010e8:    d101        ..      BNE      0x10ee ; DrvSYS_GetPLLClockFreq + 46
        0x000010ea:    2500        .%      MOVS     r5,#0
        0x000010ec:    e019        ..      B        0x1122 ; DrvSYS_GetPLLClockFreq + 98
        0x000010ee:    4a0f        .J      LDR      r2,[pc,#60] ; [0x112c] = 0x50000200
        0x000010f0:    6a12        .j      LDR      r2,[r2,#0x20]
        0x000010f2:    0492        ..      LSLS     r2,r2,#18
        0x000010f4:    0ed2        ..      LSRS     r2,r2,#27
        0x000010f6:    1c91        ..      ADDS     r1,r2,#2
        0x000010f8:    4a0c        .J      LDR      r2,[pc,#48] ; [0x112c] = 0x50000200
        0x000010fa:    6a12        .j      LDR      r2,[r2,#0x20]
        0x000010fc:    05d2        ..      LSLS     r2,r2,#23
        0x000010fe:    0dd2        ..      LSRS     r2,r2,#23
        0x00001100:    1c92        ..      ADDS     r2,r2,#2
        0x00001102:    4362        bC      MULS     r2,r4,r2
        0x00001104:    4610        .F      MOV      r0,r2
        0x00001106:    f7fff9aa    ....    BL       __aeabi_uidiv ; 0x45e
        0x0000110a:    4606        .F      MOV      r6,r0
        0x0000110c:    4807        .H      LDR      r0,[pc,#28] ; [0x112c] = 0x50000200
        0x0000110e:    6a00        .j      LDR      r0,[r0,#0x20]
        0x00001110:    0400        ..      LSLS     r0,r0,#16
        0x00001112:    0f80        ..      LSRS     r0,r0,#30
        0x00001114:    0080        ..      LSLS     r0,r0,#2
        0x00001116:    466a        jF      MOV      r2,sp
        0x00001118:    5811        .X      LDR      r1,[r2,r0]
        0x0000111a:    4630        0F      MOV      r0,r6
        0x0000111c:    f7fff99f    ....    BL       __aeabi_uidiv ; 0x45e
        0x00001120:    4605        .F      MOV      r5,r0
        0x00001122:    4628        (F      MOV      r0,r5
        0x00001124:    b004        ..      ADD      sp,sp,#0x10
        0x00001126:    bd70        p.      POP      {r4-r6,pc}
    $d
        0x00001128:    0000347c    |4..    DCD    13436
        0x0000112c:    50000200    ...P    DCD    1342177792
        0x00001130:    01518000    ..Q.    DCD    22118400
        0x00001134:    00b71b00    ....    DCD    12000000
    $t
    i.DrvSYS_SelectHCLKSource
    DrvSYS_SelectHCLKSource
        0x00001138:    b510        ..      PUSH     {r4,lr}
        0x0000113a:    4604        .F      MOV      r4,r0
        0x0000113c:    2c07        .,      CMP      r4,#7
        0x0000113e:    dc03        ..      BGT      0x1148 ; DrvSYS_SelectHCLKSource + 16
        0x00001140:    2c03        .,      CMP      r4,#3
        0x00001142:    dd03        ..      BLE      0x114c ; DrvSYS_SelectHCLKSource + 20
        0x00001144:    2c07        .,      CMP      r4,#7
        0x00001146:    da01        ..      BGE      0x114c ; DrvSYS_SelectHCLKSource + 20
        0x00001148:    4807        .H      LDR      r0,[pc,#28] ; [0x1168] = 0xffff9603
        0x0000114a:    bd10        ..      POP      {r4,pc}
        0x0000114c:    4807        .H      LDR      r0,[pc,#28] ; [0x116c] = 0x50000200
        0x0000114e:    6900        .i      LDR      r0,[r0,#0x10]
        0x00001150:    08c0        ..      LSRS     r0,r0,#3
        0x00001152:    00c0        ..      LSLS     r0,r0,#3
        0x00001154:    0761        a.      LSLS     r1,r4,#29
        0x00001156:    0f49        I.      LSRS     r1,r1,#29
        0x00001158:    4308        .C      ORRS     r0,r0,r1
        0x0000115a:    4904        .I      LDR      r1,[pc,#16] ; [0x116c] = 0x50000200
        0x0000115c:    6108        .a      STR      r0,[r1,#0x10]
        0x0000115e:    f001fc8f    ....    BL       SystemCoreClockUpdate ; 0x2a80
        0x00001162:    2000        .       MOVS     r0,#0
        0x00001164:    e7f1        ..      B        0x114a ; DrvSYS_SelectHCLKSource + 18
    $d
        0x00001166:    0000        ..      DCW    0
        0x00001168:    ffff9603    ....    DCD    4294940163
        0x0000116c:    50000200    ...P    DCD    1342177792
    $t
    i.DrvSYS_SelectIPClockSource
    DrvSYS_SelectIPClockSource
        0x00001170:    b510        ..      PUSH     {r4,lr}
        0x00001172:    4602        .F      MOV      r2,r0
        0x00001174:    4613        .F      MOV      r3,r2
        0x00001176:    f002f853    ..S.    BL       __ARM_common_switch8 ; 0x3220
    $d
        0x0000117a:    970d        ..      DCW    38669
        0x0000117c:    65727f8c    ..re    DCD    1702002572
        0x00001180:    333e4b58    XK>3    DCD    859720536
        0x00001184:    1d280813    ..(.    DCD    489162771
        0x00001188:    00a1        ..      DCW    161
    $t
        0x0000118a:    484f        OH      LDR      r0,[pc,#316] ; [0x12c8] = 0x50000200
        0x0000118c:    69c0        .i      LDR      r0,[r0,#0x1c]
        0x0000118e:    230c        .#      MOVS     r3,#0xc
        0x00001190:    4398        .C      BICS     r0,r0,r3
        0x00001192:    008b        ..      LSLS     r3,r1,#2
        0x00001194:    240c        .$      MOVS     r4,#0xc
        0x00001196:    4023        #@      ANDS     r3,r3,r4
        0x00001198:    4318        .C      ORRS     r0,r0,r3
        0x0000119a:    4b4b        KK      LDR      r3,[pc,#300] ; [0x12c8] = 0x50000200
        0x0000119c:    61d8        .a      STR      r0,[r3,#0x1c]
        0x0000119e:    e08f        ..      B        0x12c0 ; DrvSYS_SelectIPClockSource + 336
        0x000011a0:    4849        IH      LDR      r0,[pc,#292] ; [0x12c8] = 0x50000200
        0x000011a2:    69c0        .i      LDR      r0,[r0,#0x1c]
        0x000011a4:    0880        ..      LSRS     r0,r0,#2
        0x000011a6:    0080        ..      LSLS     r0,r0,#2
        0x000011a8:    078b        ..      LSLS     r3,r1,#30
        0x000011aa:    0f9b        ..      LSRS     r3,r3,#30
        0x000011ac:    4318        .C      ORRS     r0,r0,r3
        0x000011ae:    4b46        FK      LDR      r3,[pc,#280] ; [0x12c8] = 0x50000200
        0x000011b0:    61d8        .a      STR      r0,[r3,#0x1c]
        0x000011b2:    e085        ..      B        0x12c0 ; DrvSYS_SelectIPClockSource + 336
        0x000011b4:    4844        DH      LDR      r0,[pc,#272] ; [0x12c8] = 0x50000200
        0x000011b6:    69c0        .i      LDR      r0,[r0,#0x1c]
        0x000011b8:    23c0        .#      MOVS     r3,#0xc0
        0x000011ba:    4398        .C      BICS     r0,r0,r3
        0x000011bc:    018b        ..      LSLS     r3,r1,#6
        0x000011be:    24c0        .$      MOVS     r4,#0xc0
        0x000011c0:    4023        #@      ANDS     r3,r3,r4
        0x000011c2:    4318        .C      ORRS     r0,r0,r3
        0x000011c4:    4b40        @K      LDR      r3,[pc,#256] ; [0x12c8] = 0x50000200
        0x000011c6:    61d8        .a      STR      r0,[r3,#0x1c]
        0x000011c8:    e07a        z.      B        0x12c0 ; DrvSYS_SelectIPClockSource + 336
        0x000011ca:    483f        ?H      LDR      r0,[pc,#252] ; [0x12c8] = 0x50000200
        0x000011cc:    69c0        .i      LDR      r0,[r0,#0x1c]
        0x000011ce:    2330        0#      MOVS     r3,#0x30
        0x000011d0:    4398        .C      BICS     r0,r0,r3
        0x000011d2:    010b        ..      LSLS     r3,r1,#4
        0x000011d4:    2430        0$      MOVS     r4,#0x30
        0x000011d6:    4023        #@      ANDS     r3,r3,r4
        0x000011d8:    4318        .C      ORRS     r0,r0,r3
        0x000011da:    4b3b        ;K      LDR      r3,[pc,#236] ; [0x12c8] = 0x50000200
        0x000011dc:    61d8        .a      STR      r0,[r3,#0x1c]
        0x000011de:    e06f        o.      B        0x12c0 ; DrvSYS_SelectIPClockSource + 336
        0x000011e0:    4839        9H      LDR      r0,[pc,#228] ; [0x12c8] = 0x50000200
        0x000011e2:    6940        @i      LDR      r0,[r0,#0x14]
        0x000011e4:    0080        ..      LSLS     r0,r0,#2
        0x000011e6:    0880        ..      LSRS     r0,r0,#2
        0x000011e8:    078b        ..      LSLS     r3,r1,#30
        0x000011ea:    0f9b        ..      LSRS     r3,r3,#30
        0x000011ec:    079b        ..      LSLS     r3,r3,#30
        0x000011ee:    4318        .C      ORRS     r0,r0,r3
        0x000011f0:    4b35        5K      LDR      r3,[pc,#212] ; [0x12c8] = 0x50000200
        0x000011f2:    6158        Xa      STR      r0,[r3,#0x14]
        0x000011f4:    e064        d.      B        0x12c0 ; DrvSYS_SelectIPClockSource + 336
        0x000011f6:    4834        4H      LDR      r0,[pc,#208] ; [0x12c8] = 0x50000200
        0x000011f8:    6940        @i      LDR      r0,[r0,#0x14]
        0x000011fa:    2303        .#      MOVS     r3,#3
        0x000011fc:    071b        ..      LSLS     r3,r3,#28
        0x000011fe:    4398        .C      BICS     r0,r0,r3
        0x00001200:    070b        ..      LSLS     r3,r1,#28
        0x00001202:    2403        .$      MOVS     r4,#3
        0x00001204:    0724        $.      LSLS     r4,r4,#28
        0x00001206:    4023        #@      ANDS     r3,r3,r4
        0x00001208:    4318        .C      ORRS     r0,r0,r3
        0x0000120a:    4b2f        /K      LDR      r3,[pc,#188] ; [0x12c8] = 0x50000200
        0x0000120c:    6158        Xa      STR      r0,[r3,#0x14]
        0x0000120e:    e057        W.      B        0x12c0 ; DrvSYS_SelectIPClockSource + 336
        0x00001210:    482d        -H      LDR      r0,[pc,#180] ; [0x12c8] = 0x50000200
        0x00001212:    6940        @i      LDR      r0,[r0,#0x14]
        0x00001214:    2303        .#      MOVS     r3,#3
        0x00001216:    061b        ..      LSLS     r3,r3,#24
        0x00001218:    4398        .C      BICS     r0,r0,r3
        0x0000121a:    060b        ..      LSLS     r3,r1,#24
        0x0000121c:    2403        .$      MOVS     r4,#3
        0x0000121e:    0624        $.      LSLS     r4,r4,#24
        0x00001220:    4023        #@      ANDS     r3,r3,r4
        0x00001222:    4318        .C      ORRS     r0,r0,r3
        0x00001224:    4b28        (K      LDR      r3,[pc,#160] ; [0x12c8] = 0x50000200
        0x00001226:    6158        Xa      STR      r0,[r3,#0x14]
        0x00001228:    e04a        J.      B        0x12c0 ; DrvSYS_SelectIPClockSource + 336
        0x0000122a:    4827        'H      LDR      r0,[pc,#156] ; [0x12c8] = 0x50000200
        0x0000122c:    6940        @i      LDR      r0,[r0,#0x14]
        0x0000122e:    2307        .#      MOVS     r3,#7
        0x00001230:    051b        ..      LSLS     r3,r3,#20
        0x00001232:    4398        .C      BICS     r0,r0,r3
        0x00001234:    050b        ..      LSLS     r3,r1,#20
        0x00001236:    2407        .$      MOVS     r4,#7
        0x00001238:    0524        $.      LSLS     r4,r4,#20
        0x0000123a:    4023        #@      ANDS     r3,r3,r4
        0x0000123c:    4318        .C      ORRS     r0,r0,r3
        0x0000123e:    4b22        "K      LDR      r3,[pc,#136] ; [0x12c8] = 0x50000200
        0x00001240:    6158        Xa      STR      r0,[r3,#0x14]
        0x00001242:    e03d        =.      B        0x12c0 ; DrvSYS_SelectIPClockSource + 336
        0x00001244:    4820         H      LDR      r0,[pc,#128] ; [0x12c8] = 0x50000200
        0x00001246:    6940        @i      LDR      r0,[r0,#0x14]
        0x00001248:    2307        .#      MOVS     r3,#7
        0x0000124a:    041b        ..      LSLS     r3,r3,#16
        0x0000124c:    4398        .C      BICS     r0,r0,r3
        0x0000124e:    040b        ..      LSLS     r3,r1,#16
        0x00001250:    2407        .$      MOVS     r4,#7
        0x00001252:    0424        $.      LSLS     r4,r4,#16
        0x00001254:    4023        #@      ANDS     r3,r3,r4
        0x00001256:    4318        .C      ORRS     r0,r0,r3
        0x00001258:    4b1b        .K      LDR      r3,[pc,#108] ; [0x12c8] = 0x50000200
        0x0000125a:    6158        Xa      STR      r0,[r3,#0x14]
        0x0000125c:    e030        0.      B        0x12c0 ; DrvSYS_SelectIPClockSource + 336
        0x0000125e:    481a        .H      LDR      r0,[pc,#104] ; [0x12c8] = 0x50000200
        0x00001260:    6940        @i      LDR      r0,[r0,#0x14]
        0x00001262:    2307        .#      MOVS     r3,#7
        0x00001264:    031b        ..      LSLS     r3,r3,#12
        0x00001266:    4398        .C      BICS     r0,r0,r3
        0x00001268:    030b        ..      LSLS     r3,r1,#12
        0x0000126a:    2407        .$      MOVS     r4,#7
        0x0000126c:    0324        $.      LSLS     r4,r4,#12
        0x0000126e:    4023        #@      ANDS     r3,r3,r4
        0x00001270:    4318        .C      ORRS     r0,r0,r3
        0x00001272:    4b15        .K      LDR      r3,[pc,#84] ; [0x12c8] = 0x50000200
        0x00001274:    6158        Xa      STR      r0,[r3,#0x14]
        0x00001276:    e023        #.      B        0x12c0 ; DrvSYS_SelectIPClockSource + 336
        0x00001278:    4813        .H      LDR      r0,[pc,#76] ; [0x12c8] = 0x50000200
        0x0000127a:    6940        @i      LDR      r0,[r0,#0x14]
        0x0000127c:    2307        .#      MOVS     r3,#7
        0x0000127e:    021b        ..      LSLS     r3,r3,#8
        0x00001280:    4398        .C      BICS     r0,r0,r3
        0x00001282:    020b        ..      LSLS     r3,r1,#8
        0x00001284:    2407        .$      MOVS     r4,#7
        0x00001286:    0224        $.      LSLS     r4,r4,#8
        0x00001288:    4023        #@      ANDS     r3,r3,r4
        0x0000128a:    4318        .C      ORRS     r0,r0,r3
        0x0000128c:    4b0e        .K      LDR      r3,[pc,#56] ; [0x12c8] = 0x50000200
        0x0000128e:    6158        Xa      STR      r0,[r3,#0x14]
        0x00001290:    e016        ..      B        0x12c0 ; DrvSYS_SelectIPClockSource + 336
        0x00001292:    480d        .H      LDR      r0,[pc,#52] ; [0x12c8] = 0x50000200
        0x00001294:    6940        @i      LDR      r0,[r0,#0x14]
        0x00001296:    230c        .#      MOVS     r3,#0xc
        0x00001298:    4398        .C      BICS     r0,r0,r3
        0x0000129a:    008b        ..      LSLS     r3,r1,#2
        0x0000129c:    240c        .$      MOVS     r4,#0xc
        0x0000129e:    4023        #@      ANDS     r3,r3,r4
        0x000012a0:    4318        .C      ORRS     r0,r0,r3
        0x000012a2:    4b09        .K      LDR      r3,[pc,#36] ; [0x12c8] = 0x50000200
        0x000012a4:    6158        Xa      STR      r0,[r3,#0x14]
        0x000012a6:    e00b        ..      B        0x12c0 ; DrvSYS_SelectIPClockSource + 336
        0x000012a8:    4807        .H      LDR      r0,[pc,#28] ; [0x12c8] = 0x50000200
        0x000012aa:    6940        @i      LDR      r0,[r0,#0x14]
        0x000012ac:    0880        ..      LSRS     r0,r0,#2
        0x000012ae:    0080        ..      LSLS     r0,r0,#2
        0x000012b0:    078b        ..      LSLS     r3,r1,#30
        0x000012b2:    0f9b        ..      LSRS     r3,r3,#30
        0x000012b4:    4318        .C      ORRS     r0,r0,r3
        0x000012b6:    4b04        .K      LDR      r3,[pc,#16] ; [0x12c8] = 0x50000200
        0x000012b8:    6158        Xa      STR      r0,[r3,#0x14]
        0x000012ba:    e001        ..      B        0x12c0 ; DrvSYS_SelectIPClockSource + 336
        0x000012bc:    4803        .H      LDR      r0,[pc,#12] ; [0x12cc] = 0xffff9604
        0x000012be:    bd10        ..      POP      {r4,pc}
        0x000012c0:    bf00        ..      NOP      
        0x000012c2:    2000        .       MOVS     r0,#0
        0x000012c4:    e7fb        ..      B        0x12be ; DrvSYS_SelectIPClockSource + 334
    $d
        0x000012c6:    0000        ..      DCW    0
        0x000012c8:    50000200    ...P    DCD    1342177792
        0x000012cc:    ffff9604    ....    DCD    4294940164
    $t
    i.DrvSYS_SetOscCtrl
    DrvSYS_SetOscCtrl
        0x000012d0:    b510        ..      PUSH     {r4,lr}
        0x000012d2:    4602        .F      MOV      r2,r0
        0x000012d4:    2a00        .*      CMP      r2,#0
        0x000012d6:    d006        ..      BEQ      0x12e6 ; DrvSYS_SetOscCtrl + 22
        0x000012d8:    2a01        .*      CMP      r2,#1
        0x000012da:    d00e        ..      BEQ      0x12fa ; DrvSYS_SetOscCtrl + 42
        0x000012dc:    2a02        .*      CMP      r2,#2
        0x000012de:    d017        ..      BEQ      0x1310 ; DrvSYS_SetOscCtrl + 64
        0x000012e0:    2a03        .*      CMP      r2,#3
        0x000012e2:    d12b        +.      BNE      0x133c ; DrvSYS_SetOscCtrl + 108
        0x000012e4:    e01f        ..      B        0x1326 ; DrvSYS_SetOscCtrl + 86
        0x000012e6:    4818        .H      LDR      r0,[pc,#96] ; [0x1348] = 0x50000200
        0x000012e8:    6800        .h      LDR      r0,[r0,#0]
        0x000012ea:    0840        @.      LSRS     r0,r0,#1
        0x000012ec:    0040        @.      LSLS     r0,r0,#1
        0x000012ee:    07cb        ..      LSLS     r3,r1,#31
        0x000012f0:    0fdb        ..      LSRS     r3,r3,#31
        0x000012f2:    4318        .C      ORRS     r0,r0,r3
        0x000012f4:    4b14        .K      LDR      r3,[pc,#80] ; [0x1348] = 0x50000200
        0x000012f6:    6018        .`      STR      r0,[r3,#0]
        0x000012f8:    e022        ".      B        0x1340 ; DrvSYS_SetOscCtrl + 112
        0x000012fa:    4813        .H      LDR      r0,[pc,#76] ; [0x1348] = 0x50000200
        0x000012fc:    6800        .h      LDR      r0,[r0,#0]
        0x000012fe:    2302        .#      MOVS     r3,#2
        0x00001300:    4398        .C      BICS     r0,r0,r3
        0x00001302:    004b        K.      LSLS     r3,r1,#1
        0x00001304:    2402        .$      MOVS     r4,#2
        0x00001306:    4023        #@      ANDS     r3,r3,r4
        0x00001308:    4318        .C      ORRS     r0,r0,r3
        0x0000130a:    4b0f        .K      LDR      r3,[pc,#60] ; [0x1348] = 0x50000200
        0x0000130c:    6018        .`      STR      r0,[r3,#0]
        0x0000130e:    e017        ..      B        0x1340 ; DrvSYS_SetOscCtrl + 112
        0x00001310:    480d        .H      LDR      r0,[pc,#52] ; [0x1348] = 0x50000200
        0x00001312:    6800        .h      LDR      r0,[r0,#0]
        0x00001314:    2304        .#      MOVS     r3,#4
        0x00001316:    4398        .C      BICS     r0,r0,r3
        0x00001318:    008b        ..      LSLS     r3,r1,#2
        0x0000131a:    2404        .$      MOVS     r4,#4
        0x0000131c:    4023        #@      ANDS     r3,r3,r4
        0x0000131e:    4318        .C      ORRS     r0,r0,r3
        0x00001320:    4b09        .K      LDR      r3,[pc,#36] ; [0x1348] = 0x50000200
        0x00001322:    6018        .`      STR      r0,[r3,#0]
        0x00001324:    e00c        ..      B        0x1340 ; DrvSYS_SetOscCtrl + 112
        0x00001326:    4808        .H      LDR      r0,[pc,#32] ; [0x1348] = 0x50000200
        0x00001328:    6800        .h      LDR      r0,[r0,#0]
        0x0000132a:    2308        .#      MOVS     r3,#8
        0x0000132c:    4398        .C      BICS     r0,r0,r3
        0x0000132e:    00cb        ..      LSLS     r3,r1,#3
        0x00001330:    2408        .$      MOVS     r4,#8
        0x00001332:    4023        #@      ANDS     r3,r3,r4
        0x00001334:    4318        .C      ORRS     r0,r0,r3
        0x00001336:    4b04        .K      LDR      r3,[pc,#16] ; [0x1348] = 0x50000200
        0x00001338:    6018        .`      STR      r0,[r3,#0]
        0x0000133a:    e001        ..      B        0x1340 ; DrvSYS_SetOscCtrl + 112
        0x0000133c:    4803        .H      LDR      r0,[pc,#12] ; [0x134c] = 0xffff9603
        0x0000133e:    bd10        ..      POP      {r4,pc}
        0x00001340:    bf00        ..      NOP      
        0x00001342:    2000        .       MOVS     r0,#0
        0x00001344:    e7fb        ..      B        0x133e ; DrvSYS_SetOscCtrl + 110
    $d
        0x00001346:    0000        ..      DCW    0
        0x00001348:    50000200    ...P    DCD    1342177792
        0x0000134c:    ffff9603    ....    DCD    4294940163
    $t
    i.DrvSYS_SetPLLMode
    DrvSYS_SetPLLMode
        0x00001350:    490b        .I      LDR      r1,[pc,#44] ; [0x1380] = 0x50000200
        0x00001352:    6a09        .j      LDR      r1,[r1,#0x20]
        0x00001354:    2201        ."      MOVS     r2,#1
        0x00001356:    0492        ..      LSLS     r2,r2,#18
        0x00001358:    4391        .C      BICS     r1,r1,r2
        0x0000135a:    0482        ..      LSLS     r2,r0,#18
        0x0000135c:    2301        .#      MOVS     r3,#1
        0x0000135e:    049b        ..      LSLS     r3,r3,#18
        0x00001360:    401a        .@      ANDS     r2,r2,r3
        0x00001362:    4311        .C      ORRS     r1,r1,r2
        0x00001364:    4a06        .J      LDR      r2,[pc,#24] ; [0x1380] = 0x50000200
        0x00001366:    6211        .b      STR      r1,[r2,#0x20]
        0x00001368:    4611        .F      MOV      r1,r2
        0x0000136a:    6a09        .j      LDR      r1,[r1,#0x20]
        0x0000136c:    01d2        ..      LSLS     r2,r2,#7
        0x0000136e:    4391        .C      BICS     r1,r1,r2
        0x00001370:    0402        ..      LSLS     r2,r0,#16
        0x00001372:    109b        ..      ASRS     r3,r3,#2
        0x00001374:    401a        .@      ANDS     r2,r2,r3
        0x00001376:    4311        .C      ORRS     r1,r1,r2
        0x00001378:    4a01        .J      LDR      r2,[pc,#4] ; [0x1380] = 0x50000200
        0x0000137a:    6211        .b      STR      r1,[r2,#0x20]
        0x0000137c:    4770        pG      BX       lr
    $d
        0x0000137e:    0000        ..      DCW    0
        0x00001380:    50000200    ...P    DCD    1342177792
    $t
    i.DrvUART_Open
    DrvUART_Open
        0x00001384:    b5f8        ..      PUSH     {r3-r7,lr}
        0x00001386:    4606        .F      MOV      r6,r0
        0x00001388:    460c        .F      MOV      r4,r1
        0x0000138a:    2e00        ..      CMP      r6,#0
        0x0000138c:    d009        ..      BEQ      0x13a2 ; DrvUART_Open + 30
        0x0000138e:    2001        .       MOVS     r0,#1
        0x00001390:    0500        ..      LSLS     r0,r0,#20
        0x00001392:    4286        .B      CMP      r6,r0
        0x00001394:    d005        ..      BEQ      0x13a2 ; DrvUART_Open + 30
        0x00001396:    2041        A       MOVS     r0,#0x41
        0x00001398:    0380        ..      LSLS     r0,r0,#14
        0x0000139a:    4286        .B      CMP      r6,r0
        0x0000139c:    d001        ..      BEQ      0x13a2 ; DrvUART_Open + 30
        0x0000139e:    488f        .H      LDR      r0,[pc,#572] ; [0x15dc] = 0xffff9802
        0x000013a0:    bdf8        ..      POP      {r3-r7,pc}
        0x000013a2:    79a0        .y      LDRB     r0,[r4,#6]
        0x000013a4:    2800        .(      CMP      r0,#0
        0x000013a6:    d00e        ..      BEQ      0x13c6 ; DrvUART_Open + 66
        0x000013a8:    79a0        .y      LDRB     r0,[r4,#6]
        0x000013aa:    2803        .(      CMP      r0,#3
        0x000013ac:    d00b        ..      BEQ      0x13c6 ; DrvUART_Open + 66
        0x000013ae:    79a0        .y      LDRB     r0,[r4,#6]
        0x000013b0:    2801        .(      CMP      r0,#1
        0x000013b2:    d008        ..      BEQ      0x13c6 ; DrvUART_Open + 66
        0x000013b4:    79a0        .y      LDRB     r0,[r4,#6]
        0x000013b6:    2805        .(      CMP      r0,#5
        0x000013b8:    d005        ..      BEQ      0x13c6 ; DrvUART_Open + 66
        0x000013ba:    79a0        .y      LDRB     r0,[r4,#6]
        0x000013bc:    2807        .(      CMP      r0,#7
        0x000013be:    d002        ..      BEQ      0x13c6 ; DrvUART_Open + 66
        0x000013c0:    4886        .H      LDR      r0,[pc,#536] ; [0x15dc] = 0xffff9802
        0x000013c2:    1c40        @.      ADDS     r0,r0,#1
        0x000013c4:    e7ec        ..      B        0x13a0 ; DrvUART_Open + 28
        0x000013c6:    7920         y      LDRB     r0,[r4,#4]
        0x000013c8:    2800        .(      CMP      r0,#0
        0x000013ca:    d00b        ..      BEQ      0x13e4 ; DrvUART_Open + 96
        0x000013cc:    7920         y      LDRB     r0,[r4,#4]
        0x000013ce:    2801        .(      CMP      r0,#1
        0x000013d0:    d008        ..      BEQ      0x13e4 ; DrvUART_Open + 96
        0x000013d2:    7920         y      LDRB     r0,[r4,#4]
        0x000013d4:    2802        .(      CMP      r0,#2
        0x000013d6:    d005        ..      BEQ      0x13e4 ; DrvUART_Open + 96
        0x000013d8:    7920         y      LDRB     r0,[r4,#4]
        0x000013da:    2803        .(      CMP      r0,#3
        0x000013dc:    d002        ..      BEQ      0x13e4 ; DrvUART_Open + 96
        0x000013de:    487f        .H      LDR      r0,[pc,#508] ; [0x15dc] = 0xffff9802
        0x000013e0:    1c80        ..      ADDS     r0,r0,#2
        0x000013e2:    e7dd        ..      B        0x13a0 ; DrvUART_Open + 28
        0x000013e4:    7960        `y      LDRB     r0,[r4,#5]
        0x000013e6:    2800        .(      CMP      r0,#0
        0x000013e8:    d008        ..      BEQ      0x13fc ; DrvUART_Open + 120
        0x000013ea:    7960        `y      LDRB     r0,[r4,#5]
        0x000013ec:    2801        .(      CMP      r0,#1
        0x000013ee:    d005        ..      BEQ      0x13fc ; DrvUART_Open + 120
        0x000013f0:    7960        `y      LDRB     r0,[r4,#5]
        0x000013f2:    2801        .(      CMP      r0,#1
        0x000013f4:    d002        ..      BEQ      0x13fc ; DrvUART_Open + 120
        0x000013f6:    4879        yH      LDR      r0,[pc,#484] ; [0x15dc] = 0xffff9802
        0x000013f8:    1cc0        ..      ADDS     r0,r0,#3
        0x000013fa:    e7d1        ..      B        0x13a0 ; DrvUART_Open + 28
        0x000013fc:    79e0        .y      LDRB     r0,[r4,#7]
        0x000013fe:    2800        .(      CMP      r0,#0
        0x00001400:    d014        ..      BEQ      0x142c ; DrvUART_Open + 168
        0x00001402:    79e0        .y      LDRB     r0,[r4,#7]
        0x00001404:    2801        .(      CMP      r0,#1
        0x00001406:    d011        ..      BEQ      0x142c ; DrvUART_Open + 168
        0x00001408:    79e0        .y      LDRB     r0,[r4,#7]
        0x0000140a:    2802        .(      CMP      r0,#2
        0x0000140c:    d00e        ..      BEQ      0x142c ; DrvUART_Open + 168
        0x0000140e:    79e0        .y      LDRB     r0,[r4,#7]
        0x00001410:    2803        .(      CMP      r0,#3
        0x00001412:    d00b        ..      BEQ      0x142c ; DrvUART_Open + 168
        0x00001414:    79e0        .y      LDRB     r0,[r4,#7]
        0x00001416:    2804        .(      CMP      r0,#4
        0x00001418:    d008        ..      BEQ      0x142c ; DrvUART_Open + 168
        0x0000141a:    79e0        .y      LDRB     r0,[r4,#7]
        0x0000141c:    2805        .(      CMP      r0,#5
        0x0000141e:    d005        ..      BEQ      0x142c ; DrvUART_Open + 168
        0x00001420:    79e0        .y      LDRB     r0,[r4,#7]
        0x00001422:    2806        .(      CMP      r0,#6
        0x00001424:    d002        ..      BEQ      0x142c ; DrvUART_Open + 168
        0x00001426:    486d        mH      LDR      r0,[pc,#436] ; [0x15dc] = 0xffff9802
        0x00001428:    1d00        ..      ADDS     r0,r0,#4
        0x0000142a:    e7b9        ..      B        0x13a0 ; DrvUART_Open + 28
        0x0000142c:    2e00        ..      CMP      r6,#0
        0x0000142e:    d11a        ..      BNE      0x1466 ; DrvUART_Open + 226
        0x00001430:    2005        .       MOVS     r0,#5
        0x00001432:    0700        ..      LSLS     r0,r0,#28
        0x00001434:    68c0        .h      LDR      r0,[r0,#0xc]
        0x00001436:    2101        .!      MOVS     r1,#1
        0x00001438:    0409        ..      LSLS     r1,r1,#16
        0x0000143a:    4388        .C      BICS     r0,r0,r1
        0x0000143c:    1840        @.      ADDS     r0,r0,r1
        0x0000143e:    2105        .!      MOVS     r1,#5
        0x00001440:    0709        ..      LSLS     r1,r1,#28
        0x00001442:    60c8        .`      STR      r0,[r1,#0xc]
        0x00001444:    4608        .F      MOV      r0,r1
        0x00001446:    68c0        .h      LDR      r0,[r0,#0xc]
        0x00001448:    2101        .!      MOVS     r1,#1
        0x0000144a:    0409        ..      LSLS     r1,r1,#16
        0x0000144c:    4388        .C      BICS     r0,r0,r1
        0x0000144e:    2105        .!      MOVS     r1,#5
        0x00001450:    0709        ..      LSLS     r1,r1,#28
        0x00001452:    60c8        .`      STR      r0,[r1,#0xc]
        0x00001454:    4862        bH      LDR      r0,[pc,#392] ; [0x15e0] = 0x50000200
        0x00001456:    6880        .h      LDR      r0,[r0,#8]
        0x00001458:    2101        .!      MOVS     r1,#1
        0x0000145a:    0409        ..      LSLS     r1,r1,#16
        0x0000145c:    4388        .C      BICS     r0,r0,r1
        0x0000145e:    1840        @.      ADDS     r0,r0,r1
        0x00001460:    495f        _I      LDR      r1,[pc,#380] ; [0x15e0] = 0x50000200
        0x00001462:    6088        .`      STR      r0,[r1,#8]
        0x00001464:    e035        5.      B        0x14d2 ; DrvUART_Open + 334
        0x00001466:    2001        .       MOVS     r0,#1
        0x00001468:    0500        ..      LSLS     r0,r0,#20
        0x0000146a:    4286        .B      CMP      r6,r0
        0x0000146c:    d117        ..      BNE      0x149e ; DrvUART_Open + 282
        0x0000146e:    2005        .       MOVS     r0,#5
        0x00001470:    0700        ..      LSLS     r0,r0,#28
        0x00001472:    68c0        .h      LDR      r0,[r0,#0xc]
        0x00001474:    10f1        ..      ASRS     r1,r6,#3
        0x00001476:    4388        .C      BICS     r0,r0,r1
        0x00001478:    1840        @.      ADDS     r0,r0,r1
        0x0000147a:    2105        .!      MOVS     r1,#5
        0x0000147c:    0709        ..      LSLS     r1,r1,#28
        0x0000147e:    60c8        .`      STR      r0,[r1,#0xc]
        0x00001480:    4608        .F      MOV      r0,r1
        0x00001482:    68c0        .h      LDR      r0,[r0,#0xc]
        0x00001484:    10f1        ..      ASRS     r1,r6,#3
        0x00001486:    4388        .C      BICS     r0,r0,r1
        0x00001488:    2105        .!      MOVS     r1,#5
        0x0000148a:    0709        ..      LSLS     r1,r1,#28
        0x0000148c:    60c8        .`      STR      r0,[r1,#0xc]
        0x0000148e:    4854        TH      LDR      r0,[pc,#336] ; [0x15e0] = 0x50000200
        0x00001490:    6880        .h      LDR      r0,[r0,#8]
        0x00001492:    10f1        ..      ASRS     r1,r6,#3
        0x00001494:    4388        .C      BICS     r0,r0,r1
        0x00001496:    1840        @.      ADDS     r0,r0,r1
        0x00001498:    4951        QI      LDR      r1,[pc,#324] ; [0x15e0] = 0x50000200
        0x0000149a:    6088        .`      STR      r0,[r1,#8]
        0x0000149c:    e019        ..      B        0x14d2 ; DrvUART_Open + 334
        0x0000149e:    2005        .       MOVS     r0,#5
        0x000014a0:    0700        ..      LSLS     r0,r0,#28
        0x000014a2:    68c0        .h      LDR      r0,[r0,#0xc]
        0x000014a4:    2101        .!      MOVS     r1,#1
        0x000014a6:    0489        ..      LSLS     r1,r1,#18
        0x000014a8:    4388        .C      BICS     r0,r0,r1
        0x000014aa:    1840        @.      ADDS     r0,r0,r1
        0x000014ac:    2105        .!      MOVS     r1,#5
        0x000014ae:    0709        ..      LSLS     r1,r1,#28
        0x000014b0:    60c8        .`      STR      r0,[r1,#0xc]
        0x000014b2:    4608        .F      MOV      r0,r1
        0x000014b4:    68c0        .h      LDR      r0,[r0,#0xc]
        0x000014b6:    2101        .!      MOVS     r1,#1
        0x000014b8:    0489        ..      LSLS     r1,r1,#18
        0x000014ba:    4388        .C      BICS     r0,r0,r1
        0x000014bc:    2105        .!      MOVS     r1,#5
        0x000014be:    0709        ..      LSLS     r1,r1,#28
        0x000014c0:    60c8        .`      STR      r0,[r1,#0xc]
        0x000014c2:    4847        GH      LDR      r0,[pc,#284] ; [0x15e0] = 0x50000200
        0x000014c4:    6880        .h      LDR      r0,[r0,#8]
        0x000014c6:    2101        .!      MOVS     r1,#1
        0x000014c8:    0489        ..      LSLS     r1,r1,#18
        0x000014ca:    4388        .C      BICS     r0,r0,r1
        0x000014cc:    1840        @.      ADDS     r0,r0,r1
        0x000014ce:    4944        DI      LDR      r1,[pc,#272] ; [0x15e0] = 0x50000200
        0x000014d0:    6088        .`      STR      r0,[r1,#8]
        0x000014d2:    4844        DH      LDR      r0,[pc,#272] ; [0x15e4] = 0x40050000
        0x000014d4:    1835        5.      ADDS     r5,r6,r0
        0x000014d6:    68a8        .h      LDR      r0,[r5,#8]
        0x000014d8:    2104        .!      MOVS     r1,#4
        0x000014da:    4388        .C      BICS     r0,r0,r1
        0x000014dc:    1d00        ..      ADDS     r0,r0,#4
        0x000014de:    60a8        .`      STR      r0,[r5,#8]
        0x000014e0:    68a8        .h      LDR      r0,[r5,#8]
        0x000014e2:    2102        .!      MOVS     r1,#2
        0x000014e4:    4388        .C      BICS     r0,r0,r1
        0x000014e6:    1c80        ..      ADDS     r0,r0,#2
        0x000014e8:    60a8        .`      STR      r0,[r5,#8]
        0x000014ea:    68a8        .h      LDR      r0,[r5,#8]
        0x000014ec:    21f0        .!      MOVS     r1,#0xf0
        0x000014ee:    4388        .C      BICS     r0,r0,r1
        0x000014f0:    79e1        .y      LDRB     r1,[r4,#7]
        0x000014f2:    0109        ..      LSLS     r1,r1,#4
        0x000014f4:    22f0        ."      MOVS     r2,#0xf0
        0x000014f6:    4011        .@      ANDS     r1,r1,r2
        0x000014f8:    4308        .C      ORRS     r0,r0,r1
        0x000014fa:    60a8        .`      STR      r0,[r5,#8]
        0x000014fc:    68e8        .h      LDR      r0,[r5,#0xc]
        0x000014fe:    2120         !      MOVS     r1,#0x20
        0x00001500:    4388        .C      BICS     r0,r0,r1
        0x00001502:    79a1        .y      LDRB     r1,[r4,#6]
        0x00001504:    2204        ."      MOVS     r2,#4
        0x00001506:    4011        .@      ANDS     r1,r1,r2
        0x00001508:    0889        ..      LSRS     r1,r1,#2
        0x0000150a:    0149        I.      LSLS     r1,r1,#5
        0x0000150c:    2220         "      MOVS     r2,#0x20
        0x0000150e:    4011        .@      ANDS     r1,r1,r2
        0x00001510:    4308        .C      ORRS     r0,r0,r1
        0x00001512:    60e8        .`      STR      r0,[r5,#0xc]
        0x00001514:    68e8        .h      LDR      r0,[r5,#0xc]
        0x00001516:    2110        .!      MOVS     r1,#0x10
        0x00001518:    4388        .C      BICS     r0,r0,r1
        0x0000151a:    79a1        .y      LDRB     r1,[r4,#6]
        0x0000151c:    2202        ."      MOVS     r2,#2
        0x0000151e:    4011        .@      ANDS     r1,r1,r2
        0x00001520:    0849        I.      LSRS     r1,r1,#1
        0x00001522:    0109        ..      LSLS     r1,r1,#4
        0x00001524:    2210        ."      MOVS     r2,#0x10
        0x00001526:    4011        .@      ANDS     r1,r1,r2
        0x00001528:    4308        .C      ORRS     r0,r0,r1
        0x0000152a:    60e8        .`      STR      r0,[r5,#0xc]
        0x0000152c:    68e8        .h      LDR      r0,[r5,#0xc]
        0x0000152e:    2108        .!      MOVS     r1,#8
        0x00001530:    4388        .C      BICS     r0,r0,r1
        0x00001532:    79a1        .y      LDRB     r1,[r4,#6]
        0x00001534:    00c9        ..      LSLS     r1,r1,#3
        0x00001536:    2208        ."      MOVS     r2,#8
        0x00001538:    4011        .@      ANDS     r1,r1,r2
        0x0000153a:    4308        .C      ORRS     r0,r0,r1
        0x0000153c:    60e8        .`      STR      r0,[r5,#0xc]
        0x0000153e:    68e8        .h      LDR      r0,[r5,#0xc]
        0x00001540:    0880        ..      LSRS     r0,r0,#2
        0x00001542:    0080        ..      LSLS     r0,r0,#2
        0x00001544:    7921        !y      LDRB     r1,[r4,#4]
        0x00001546:    0789        ..      LSLS     r1,r1,#30
        0x00001548:    0f89        ..      LSRS     r1,r1,#30
        0x0000154a:    4308        .C      ORRS     r0,r0,r1
        0x0000154c:    60e8        .`      STR      r0,[r5,#0xc]
        0x0000154e:    68e8        .h      LDR      r0,[r5,#0xc]
        0x00001550:    2104        .!      MOVS     r1,#4
        0x00001552:    4388        .C      BICS     r0,r0,r1
        0x00001554:    7961        ay      LDRB     r1,[r4,#5]
        0x00001556:    0089        ..      LSLS     r1,r1,#2
        0x00001558:    2204        ."      MOVS     r2,#4
        0x0000155a:    4011        .@      ANDS     r1,r1,r2
        0x0000155c:    4308        .C      ORRS     r0,r0,r1
        0x0000155e:    60e8        .`      STR      r0,[r5,#0xc]
        0x00001560:    6a28        (j      LDR      r0,[r5,#0x20]
        0x00001562:    0a00        ..      LSRS     r0,r0,#8
        0x00001564:    0200        ..      LSLS     r0,r0,#8
        0x00001566:    7a21        !z      LDRB     r1,[r4,#8]
        0x00001568:    4308        .C      ORRS     r0,r0,r1
        0x0000156a:    6228        (b      STR      r0,[r5,#0x20]
        0x0000156c:    481c        .H      LDR      r0,[pc,#112] ; [0x15e0] = 0x50000200
        0x0000156e:    6800        .h      LDR      r0,[r0,#0]
        0x00001570:    07c0        ..      LSLS     r0,r0,#31
        0x00001572:    0fc0        ..      LSRS     r0,r0,#31
        0x00001574:    d007        ..      BEQ      0x1586 ; DrvUART_Open + 514
        0x00001576:    481a        .H      LDR      r0,[pc,#104] ; [0x15e0] = 0x50000200
        0x00001578:    6940        @i      LDR      r0,[r0,#0x14]
        0x0000157a:    2103        .!      MOVS     r1,#3
        0x0000157c:    0609        ..      LSLS     r1,r1,#24
        0x0000157e:    4388        .C      BICS     r0,r0,r1
        0x00001580:    4917        .I      LDR      r1,[pc,#92] ; [0x15e0] = 0x50000200
        0x00001582:    6148        Ha      STR      r0,[r1,#0x14]
        0x00001584:    e020         .      B        0x15c8 ; DrvUART_Open + 580
        0x00001586:    4816        .H      LDR      r0,[pc,#88] ; [0x15e0] = 0x50000200
        0x00001588:    6a00        .j      LDR      r0,[r0,#0x20]
        0x0000158a:    03c0        ..      LSLS     r0,r0,#15
        0x0000158c:    0fc0        ..      LSRS     r0,r0,#31
        0x0000158e:    d10a        ..      BNE      0x15a6 ; DrvUART_Open + 546
        0x00001590:    4813        .H      LDR      r0,[pc,#76] ; [0x15e0] = 0x50000200
        0x00001592:    6940        @i      LDR      r0,[r0,#0x14]
        0x00001594:    2103        .!      MOVS     r1,#3
        0x00001596:    0609        ..      LSLS     r1,r1,#24
        0x00001598:    4388        .C      BICS     r0,r0,r1
        0x0000159a:    2101        .!      MOVS     r1,#1
        0x0000159c:    0609        ..      LSLS     r1,r1,#24
        0x0000159e:    1840        @.      ADDS     r0,r0,r1
        0x000015a0:    490f        .I      LDR      r1,[pc,#60] ; [0x15e0] = 0x50000200
        0x000015a2:    6148        Ha      STR      r0,[r1,#0x14]
        0x000015a4:    e010        ..      B        0x15c8 ; DrvUART_Open + 580
        0x000015a6:    480e        .H      LDR      r0,[pc,#56] ; [0x15e0] = 0x50000200
        0x000015a8:    6800        .h      LDR      r0,[r0,#0]
        0x000015aa:    0740        @.      LSLS     r0,r0,#29
        0x000015ac:    0fc0        ..      LSRS     r0,r0,#31
        0x000015ae:    d008        ..      BEQ      0x15c2 ; DrvUART_Open + 574
        0x000015b0:    480b        .H      LDR      r0,[pc,#44] ; [0x15e0] = 0x50000200
        0x000015b2:    6940        @i      LDR      r0,[r0,#0x14]
        0x000015b4:    2103        .!      MOVS     r1,#3
        0x000015b6:    0609        ..      LSLS     r1,r1,#24
        0x000015b8:    4388        .C      BICS     r0,r0,r1
        0x000015ba:    1840        @.      ADDS     r0,r0,r1
        0x000015bc:    4908        .I      LDR      r1,[pc,#32] ; [0x15e0] = 0x50000200
        0x000015be:    6148        Ha      STR      r0,[r1,#0x14]
        0x000015c0:    e002        ..      B        0x15c8 ; DrvUART_Open + 580
        0x000015c2:    4806        .H      LDR      r0,[pc,#24] ; [0x15dc] = 0xffff9802
        0x000015c4:    1d80        ..      ADDS     r0,r0,#6
        0x000015c6:    e6eb        ..      B        0x13a0 ; DrvUART_Open + 28
        0x000015c8:    f000feca    ....    BL       GetUartClk ; 0x2360
        0x000015cc:    4607        .F      MOV      r7,r0
        0x000015ce:    4632        2F      MOV      r2,r6
        0x000015d0:    6821        !h      LDR      r1,[r4,#0]
        0x000015d2:    f7fff8d7    ....    BL       BaudRateCalculator ; 0x784
        0x000015d6:    2000        .       MOVS     r0,#0
        0x000015d8:    e6e2        ..      B        0x13a0 ; DrvUART_Open + 28
    $d
        0x000015da:    0000        ..      DCW    0
        0x000015dc:    ffff9802    ....    DCD    4294940674
        0x000015e0:    50000200    ...P    DCD    1342177792
        0x000015e4:    40050000    ...@    DCD    1074069504
    $t
    i.DrvUSB_BusResetCallback
    DrvUSB_BusResetCallback
        0x000015e8:    b530        0.      PUSH     {r4,r5,lr}
        0x000015ea:    4603        .F      MOV      r3,r0
        0x000015ec:    4a1f        .J      LDR      r2,[pc,#124] ; [0x166c] = 0x2000088c
        0x000015ee:    4820         H      LDR      r0,[pc,#128] ; [0x1670] = 0x40060000
        0x000015f0:    6880        .h      LDR      r0,[r0,#8]
        0x000015f2:    09c0        ..      LSRS     r0,r0,#7
        0x000015f4:    01c0        ..      LSLS     r0,r0,#7
        0x000015f6:    4c1e        .L      LDR      r4,[pc,#120] ; [0x1670] = 0x40060000
        0x000015f8:    60a0        .`      STR      r0,[r4,#8]
        0x000015fa:    4620         F      MOV      r0,r4
        0x000015fc:    6800        .h      LDR      r0,[r0,#0]
        0x000015fe:    2401        .$      MOVS     r4,#1
        0x00001600:    03e4        ..      LSLS     r4,r4,#15
        0x00001602:    43a0        .C      BICS     r0,r0,r4
        0x00001604:    4c1a        .L      LDR      r4,[pc,#104] ; [0x1670] = 0x40060000
        0x00001606:    6020         `      STR      r0,[r4,#0]
        0x00001608:    f000fb92    ....    BL       DrvUSB_GetSetupBuffer ; 0x1d30
        0x0000160c:    4c19        .L      LDR      r4,[pc,#100] ; [0x1674] = 0x40060100
        0x0000160e:    1b00        ..      SUBS     r0,r0,r4
        0x00001610:    4c17        .L      LDR      r4,[pc,#92] ; [0x1670] = 0x40060000
        0x00001612:    61a0        .a      STR      r0,[r4,#0x18]
        0x00001614:    2100        .!      MOVS     r1,#0
        0x00001616:    e017        ..      B        0x1648 ; DrvUSB_BusResetCallback + 96
        0x00001618:    2001        .       MOVS     r0,#1
        0x0000161a:    010c        ..      LSLS     r4,r1,#4
        0x0000161c:    4d14        .M      LDR      r5,[pc,#80] ; [0x1670] = 0x40060000
        0x0000161e:    1964        d.      ADDS     r4,r4,r5
        0x00001620:    62e0        .b      STR      r0,[r4,#0x2c]
        0x00001622:    0088        ..      LSLS     r0,r1,#2
        0x00001624:    4c14        .L      LDR      r4,[pc,#80] ; [0x1678] = 0x20000934
        0x00001626:    5820         X      LDR      r0,[r4,r0]
        0x00001628:    0580        ..      LSLS     r0,r0,#22
        0x0000162a:    0d80        ..      LSRS     r0,r0,#22
        0x0000162c:    010c        ..      LSLS     r4,r1,#4
        0x0000162e:    1964        d.      ADDS     r4,r4,r5
        0x00001630:    62a0        .b      STR      r0,[r4,#0x28]
        0x00001632:    200c        .       MOVS     r0,#0xc
        0x00001634:    4348        HC      MULS     r0,r1,r0
        0x00001636:    4c11        .L      LDR      r4,[pc,#68] ; [0x167c] = 0x2000065c
        0x00001638:    1900        ..      ADDS     r0,r0,r4
        0x0000163a:    6880        .h      LDR      r0,[r0,#8]
        0x0000163c:    4c0d        .L      LDR      r4,[pc,#52] ; [0x1674] = 0x40060100
        0x0000163e:    1b00        ..      SUBS     r0,r0,r4
        0x00001640:    010c        ..      LSLS     r4,r1,#4
        0x00001642:    1964        d.      ADDS     r4,r4,r5
        0x00001644:    6220         b      STR      r0,[r4,#0x20]
        0x00001646:    1c49        I.      ADDS     r1,r1,#1
        0x00001648:    200c        .       MOVS     r0,#0xc
        0x0000164a:    4348        HC      MULS     r0,r1,r0
        0x0000164c:    4c0b        .L      LDR      r4,[pc,#44] ; [0x167c] = 0x2000065c
        0x0000164e:    1900        ..      ADDS     r0,r0,r4
        0x00001650:    6840        @h      LDR      r0,[r0,#4]
        0x00001652:    2800        .(      CMP      r0,#0
        0x00001654:    d1e0        ..      BNE      0x1618 ; DrvUSB_BusResetCallback + 48
        0x00001656:    2400        .$      MOVS     r4,#0
        0x00001658:    2094        .       MOVS     r0,#0x94
        0x0000165a:    5484        .T      STRB     r4,[r0,r2]
        0x0000165c:    2095        .       MOVS     r0,#0x95
        0x0000165e:    5484        .T      STRB     r4,[r0,r2]
        0x00001660:    6fd0        .o      LDR      r0,[r2,#0x7c]
        0x00001662:    2807        .(      CMP      r0,#7
        0x00001664:    dd01        ..      BLE      0x166a ; DrvUSB_BusResetCallback + 130
        0x00001666:    2007        .       MOVS     r0,#7
        0x00001668:    67d0        .g      STR      r0,[r2,#0x7c]
        0x0000166a:    bd30        0.      POP      {r4,r5,pc}
    $d
        0x0000166c:    2000088c    ...     DCD    536873100
        0x00001670:    40060000    ...@    DCD    1074135040
        0x00001674:    40060100    ...@    DCD    1074135296
        0x00001678:    20000934    4..     DCD    536873268
        0x0000167c:    2000065c    \..     DCD    536872540
    $t
    i.DrvUSB_ClrCtrlReady
    DrvUSB_ClrCtrlReady
        0x00001680:    b510        ..      PUSH     {r4,lr}
        0x00001682:    2100        .!      MOVS     r1,#0
        0x00001684:    4608        .F      MOV      r0,r1
        0x00001686:    f000fb21    ..!.    BL       DrvUSB_GetEpIdentity ; 0x1ccc
        0x0000168a:    4604        .F      MOV      r4,r0
        0x0000168c:    0120         .      LSLS     r0,r4,#4
        0x0000168e:    490c        .I      LDR      r1,[pc,#48] ; [0x16c0] = 0x40060000
        0x00001690:    1840        @.      ADDS     r0,r0,r1
        0x00001692:    6ac0        .j      LDR      r0,[r0,#0x2c]
        0x00001694:    2101        .!      MOVS     r1,#1
        0x00001696:    4308        .C      ORRS     r0,r0,r1
        0x00001698:    0121        !.      LSLS     r1,r4,#4
        0x0000169a:    4a09        .J      LDR      r2,[pc,#36] ; [0x16c0] = 0x40060000
        0x0000169c:    1889        ..      ADDS     r1,r1,r2
        0x0000169e:    62c8        .b      STR      r0,[r1,#0x2c]
        0x000016a0:    2180        .!      MOVS     r1,#0x80
        0x000016a2:    2000        .       MOVS     r0,#0
        0x000016a4:    f000fb12    ....    BL       DrvUSB_GetEpIdentity ; 0x1ccc
        0x000016a8:    4604        .F      MOV      r4,r0
        0x000016aa:    0120         .      LSLS     r0,r4,#4
        0x000016ac:    4904        .I      LDR      r1,[pc,#16] ; [0x16c0] = 0x40060000
        0x000016ae:    1840        @.      ADDS     r0,r0,r1
        0x000016b0:    6ac0        .j      LDR      r0,[r0,#0x2c]
        0x000016b2:    2101        .!      MOVS     r1,#1
        0x000016b4:    4308        .C      ORRS     r0,r0,r1
        0x000016b6:    0121        !.      LSLS     r1,r4,#4
        0x000016b8:    4a01        .J      LDR      r2,[pc,#4] ; [0x16c0] = 0x40060000
        0x000016ba:    1889        ..      ADDS     r1,r1,r2
        0x000016bc:    62c8        .b      STR      r0,[r1,#0x2c]
        0x000016be:    bd10        ..      POP      {r4,pc}
    $d
        0x000016c0:    40060000    ...@    DCD    1074135040
    $t
    i.DrvUSB_ClrCtrlReadyAndTrigStall
    DrvUSB_ClrCtrlReadyAndTrigStall
        0x000016c4:    b510        ..      PUSH     {r4,lr}
        0x000016c6:    2100        .!      MOVS     r1,#0
        0x000016c8:    4608        .F      MOV      r0,r1
        0x000016ca:    f000faff    ....    BL       DrvUSB_GetEpIdentity ; 0x1ccc
        0x000016ce:    4604        .F      MOV      r4,r0
        0x000016d0:    0120         .      LSLS     r0,r4,#4
        0x000016d2:    490c        .I      LDR      r1,[pc,#48] ; [0x1704] = 0x40060000
        0x000016d4:    1840        @.      ADDS     r0,r0,r1
        0x000016d6:    6ac0        .j      LDR      r0,[r0,#0x2c]
        0x000016d8:    2103        .!      MOVS     r1,#3
        0x000016da:    4308        .C      ORRS     r0,r0,r1
        0x000016dc:    0121        !.      LSLS     r1,r4,#4
        0x000016de:    4a09        .J      LDR      r2,[pc,#36] ; [0x1704] = 0x40060000
        0x000016e0:    1889        ..      ADDS     r1,r1,r2
        0x000016e2:    62c8        .b      STR      r0,[r1,#0x2c]
        0x000016e4:    2180        .!      MOVS     r1,#0x80
        0x000016e6:    2000        .       MOVS     r0,#0
        0x000016e8:    f000faf0    ....    BL       DrvUSB_GetEpIdentity ; 0x1ccc
        0x000016ec:    4604        .F      MOV      r4,r0
        0x000016ee:    0120         .      LSLS     r0,r4,#4
        0x000016f0:    4904        .I      LDR      r1,[pc,#16] ; [0x1704] = 0x40060000
        0x000016f2:    1840        @.      ADDS     r0,r0,r1
        0x000016f4:    6ac0        .j      LDR      r0,[r0,#0x2c]
        0x000016f6:    2103        .!      MOVS     r1,#3
        0x000016f8:    4308        .C      ORRS     r0,r0,r1
        0x000016fa:    0121        !.      LSLS     r1,r4,#4
        0x000016fc:    4a01        .J      LDR      r2,[pc,#4] ; [0x1704] = 0x40060000
        0x000016fe:    1889        ..      ADDS     r1,r1,r2
        0x00001700:    62c8        .b      STR      r0,[r1,#0x2c]
        0x00001702:    bd10        ..      POP      {r4,pc}
    $d
        0x00001704:    40060000    ...@    DCD    1074135040
    $t
    i.DrvUSB_CtrlDataInAck
    DrvUSB_CtrlDataInAck
        0x00001708:    b5f8        ..      PUSH     {r3-r7,lr}
        0x0000170a:    4607        .F      MOV      r7,r0
        0x0000170c:    2400        .$      MOVS     r4,#0
        0x0000170e:    4d11        .M      LDR      r5,[pc,#68] ; [0x1754] = 0x2000088c
        0x00001710:    2600        .&      MOVS     r6,#0
        0x00001712:    e018        ..      B        0x1746 ; DrvUSB_CtrlDataInAck + 62
        0x00001714:    2084        .       MOVS     r0,#0x84
        0x00001716:    5941        AY      LDR      r1,[r0,r5]
        0x00001718:    2014        .       MOVS     r0,#0x14
        0x0000171a:    4370        pC      MULS     r0,r6,r0
        0x0000171c:    180c        ..      ADDS     r4,r1,r0
        0x0000171e:    68a0        .h      LDR      r0,[r4,#8]
        0x00001720:    2800        .(      CMP      r0,#0
        0x00001722:    d00f        ..      BEQ      0x1744 ; DrvUSB_CtrlDataInAck + 60
        0x00001724:    7821        !x      LDRB     r1,[r4,#0]
        0x00001726:    208c        .       MOVS     r0,#0x8c
        0x00001728:    5d40        @]      LDRB     r0,[r0,r5]
        0x0000172a:    2260        `"      MOVS     r2,#0x60
        0x0000172c:    4010        .@      ANDS     r0,r0,r2
        0x0000172e:    4281        .B      CMP      r1,r0
        0x00001730:    d108        ..      BNE      0x1744 ; DrvUSB_CtrlDataInAck + 60
        0x00001732:    7861        ax      LDRB     r1,[r4,#1]
        0x00001734:    208d        .       MOVS     r0,#0x8d
        0x00001736:    5d40        @]      LDRB     r0,[r0,r5]
        0x00001738:    4281        .B      CMP      r1,r0
        0x0000173a:    d103        ..      BNE      0x1744 ; DrvUSB_CtrlDataInAck + 60
        0x0000173c:    68a1        .h      LDR      r1,[r4,#8]
        0x0000173e:    6920         i      LDR      r0,[r4,#0x10]
        0x00001740:    4788        .G      BLX      r1
        0x00001742:    bdf8        ..      POP      {r3-r7,pc}
        0x00001744:    1c76        v.      ADDS     r6,r6,#1
        0x00001746:    2088        .       MOVS     r0,#0x88
        0x00001748:    5940        @Y      LDR      r0,[r0,r5]
        0x0000174a:    42b0        .B      CMP      r0,r6
        0x0000174c:    d8e2        ..      BHI      0x1714 ; DrvUSB_CtrlDataInAck + 12
        0x0000174e:    bf00        ..      NOP      
        0x00001750:    e7f7        ..      B        0x1742 ; DrvUSB_CtrlDataInAck + 58
    $d
        0x00001752:    0000        ..      DCW    0
        0x00001754:    2000088c    ...     DCD    536873100
    $t
    i.DrvUSB_CtrlDataInDefault
    DrvUSB_CtrlDataInDefault
        0x00001758:    4601        .F      MOV      r1,r0
        0x0000175a:    4805        .H      LDR      r0,[pc,#20] ; [0x1770] = 0x2000088c
        0x0000175c:    228c        ."      MOVS     r2,#0x8c
        0x0000175e:    5c12        .\      LDRB     r2,[r2,r0]
        0x00001760:    2380        .#      MOVS     r3,#0x80
        0x00001762:    421a        .B      TST      r2,r3
        0x00001764:    d002        ..      BEQ      0x176c ; DrvUSB_CtrlDataInDefault + 20
        0x00001766:    2200        ."      MOVS     r2,#0
        0x00001768:    4b02        .K      LDR      r3,[pc,#8] ; [0x1774] = 0x40060000
        0x0000176a:    635a        Zc      STR      r2,[r3,#0x34]
        0x0000176c:    4770        pG      BX       lr
    $d
        0x0000176e:    0000        ..      DCW    0
        0x00001770:    2000088c    ...     DCD    536873100
        0x00001774:    40060000    ...@    DCD    1074135040
    $t
    i.DrvUSB_CtrlDataInSetAddress
    DrvUSB_CtrlDataInSetAddress
        0x00001778:    b500        ..      PUSH     {lr}
        0x0000177a:    4603        .F      MOV      r3,r0
        0x0000177c:    4a0b        .J      LDR      r2,[pc,#44] ; [0x17ac] = 0x2000088c
        0x0000177e:    2094        .       MOVS     r0,#0x94
        0x00001780:    5c80        .\      LDRB     r0,[r0,r2]
        0x00001782:    2800        .(      CMP      r0,#0
        0x00001784:    d103        ..      BNE      0x178e ; DrvUSB_CtrlDataInSetAddress + 22
        0x00001786:    2007        .       MOVS     r0,#7
        0x00001788:    f000fd82    ....    BL       DrvUSB_SetUsbState ; 0x2290
        0x0000178c:    e00d        ..      B        0x17aa ; DrvUSB_CtrlDataInSetAddress + 50
        0x0000178e:    200f        .       MOVS     r0,#0xf
        0x00001790:    f000fd7e    ..~.    BL       DrvUSB_SetUsbState ; 0x2290
        0x00001794:    4806        .H      LDR      r0,[pc,#24] ; [0x17b0] = 0x40060000
        0x00001796:    6880        .h      LDR      r0,[r0,#8]
        0x00001798:    09c0        ..      LSRS     r0,r0,#7
        0x0000179a:    01c0        ..      LSLS     r0,r0,#7
        0x0000179c:    2194        .!      MOVS     r1,#0x94
        0x0000179e:    5c89        .\      LDRB     r1,[r1,r2]
        0x000017a0:    0649        I.      LSLS     r1,r1,#25
        0x000017a2:    0e49        I.      LSRS     r1,r1,#25
        0x000017a4:    4308        .C      ORRS     r0,r0,r1
        0x000017a6:    4902        .I      LDR      r1,[pc,#8] ; [0x17b0] = 0x40060000
        0x000017a8:    6088        .`      STR      r0,[r1,#8]
        0x000017aa:    bd00        ..      POP      {pc}
    $d
        0x000017ac:    2000088c    ...     DCD    536873100
        0x000017b0:    40060000    ...@    DCD    1074135040
    $t
    i.DrvUSB_CtrlDataOutAck
    DrvUSB_CtrlDataOutAck
        0x000017b4:    b5f8        ..      PUSH     {r3-r7,lr}
        0x000017b6:    4607        .F      MOV      r7,r0
        0x000017b8:    2400        .$      MOVS     r4,#0
        0x000017ba:    4d11        .M      LDR      r5,[pc,#68] ; [0x1800] = 0x2000088c
        0x000017bc:    2600        .&      MOVS     r6,#0
        0x000017be:    e018        ..      B        0x17f2 ; DrvUSB_CtrlDataOutAck + 62
        0x000017c0:    2084        .       MOVS     r0,#0x84
        0x000017c2:    5941        AY      LDR      r1,[r0,r5]
        0x000017c4:    2014        .       MOVS     r0,#0x14
        0x000017c6:    4370        pC      MULS     r0,r6,r0
        0x000017c8:    180c        ..      ADDS     r4,r1,r0
        0x000017ca:    68e0        .h      LDR      r0,[r4,#0xc]
        0x000017cc:    2800        .(      CMP      r0,#0
        0x000017ce:    d00f        ..      BEQ      0x17f0 ; DrvUSB_CtrlDataOutAck + 60
        0x000017d0:    7821        !x      LDRB     r1,[r4,#0]
        0x000017d2:    208c        .       MOVS     r0,#0x8c
        0x000017d4:    5d40        @]      LDRB     r0,[r0,r5]
        0x000017d6:    2260        `"      MOVS     r2,#0x60
        0x000017d8:    4010        .@      ANDS     r0,r0,r2
        0x000017da:    4281        .B      CMP      r1,r0
        0x000017dc:    d108        ..      BNE      0x17f0 ; DrvUSB_CtrlDataOutAck + 60
        0x000017de:    7861        ax      LDRB     r1,[r4,#1]
        0x000017e0:    208d        .       MOVS     r0,#0x8d
        0x000017e2:    5d40        @]      LDRB     r0,[r0,r5]
        0x000017e4:    4281        .B      CMP      r1,r0
        0x000017e6:    d103        ..      BNE      0x17f0 ; DrvUSB_CtrlDataOutAck + 60
        0x000017e8:    68e1        .h      LDR      r1,[r4,#0xc]
        0x000017ea:    6920         i      LDR      r0,[r4,#0x10]
        0x000017ec:    4788        .G      BLX      r1
        0x000017ee:    bdf8        ..      POP      {r3-r7,pc}
        0x000017f0:    1c76        v.      ADDS     r6,r6,#1
        0x000017f2:    2088        .       MOVS     r0,#0x88
        0x000017f4:    5940        @Y      LDR      r0,[r0,r5]
        0x000017f6:    42b0        .B      CMP      r0,r6
        0x000017f8:    d8e2        ..      BHI      0x17c0 ; DrvUSB_CtrlDataOutAck + 12
        0x000017fa:    bf00        ..      NOP      
        0x000017fc:    e7f7        ..      B        0x17ee ; DrvUSB_CtrlDataOutAck + 58
    $d
        0x000017fe:    0000        ..      DCW    0
        0x00001800:    2000088c    ...     DCD    536873100
    $t
    i.DrvUSB_CtrlDataOutDefault
    DrvUSB_CtrlDataOutDefault
        0x00001804:    b530        0.      PUSH     {r4,r5,lr}
        0x00001806:    4605        .F      MOV      r5,r0
        0x00001808:    4c05        .L      LDR      r4,[pc,#20] ; [0x1820] = 0x2000088c
        0x0000180a:    208c        .       MOVS     r0,#0x8c
        0x0000180c:    5d00        .]      LDRB     r0,[r0,r4]
        0x0000180e:    2180        .!      MOVS     r1,#0x80
        0x00001810:    4208        .B      TST      r0,r1
        0x00001812:    d104        ..      BNE      0x181e ; DrvUSB_CtrlDataOutDefault + 26
        0x00001814:    2200        ."      MOVS     r2,#0
        0x00001816:    4611        .F      MOV      r1,r2
        0x00001818:    4610        .F      MOV      r0,r2
        0x0000181a:    f000f937    ..7.    BL       DrvUSB_DataIn ; 0x1a8c
        0x0000181e:    bd30        0.      POP      {r4,r5,pc}
    $d
        0x00001820:    2000088c    ...     DCD    536873100
    $t
    i.DrvUSB_CtrlSetupAck
    DrvUSB_CtrlSetupAck
        0x00001824:    b5fe        ..      PUSH     {r1-r7,lr}
        0x00001826:    2500        .%      MOVS     r5,#0
        0x00001828:    4e24        $N      LDR      r6,[pc,#144] ; [0x18bc] = 0x2000088c
        0x0000182a:    f7ffff29    ..).    BL       DrvUSB_ClrCtrlReady ; 0x1680
        0x0000182e:    f000fa85    ....    BL       DrvUSB_GetUsbState ; 0x1d3c
        0x00001832:    9001        ..      STR      r0,[sp,#4]
        0x00001834:    9801        ..      LDR      r0,[sp,#4]
        0x00001836:    2807        .(      CMP      r0,#7
        0x00001838:    da02        ..      BGE      0x1840 ; DrvUSB_CtrlSetupAck + 28
        0x0000183a:    f7ffff43    ..C.    BL       DrvUSB_ClrCtrlReadyAndTrigStall ; 0x16c4
        0x0000183e:    bdfe        ..      POP      {r1-r7,pc}
        0x00001840:    f000fa76    ..v.    BL       DrvUSB_GetSetupBuffer ; 0x1d30
        0x00001844:    9000        ..      STR      r0,[sp,#0]
        0x00001846:    2701        .'      MOVS     r7,#1
        0x00001848:    033f        ?.      LSLS     r7,r7,#12
        0x0000184a:    bf00        ..      NOP      
        0x0000184c:    4638        8F      MOV      r0,r7
        0x0000184e:    1e7f        ..      SUBS     r7,r7,#1
        0x00001850:    2800        .(      CMP      r0,#0
        0x00001852:    d1fb        ..      BNE      0x184c ; DrvUSB_CtrlSetupAck + 40
        0x00001854:    2400        .$      MOVS     r4,#0
        0x00001856:    e005        ..      B        0x1864 ; DrvUSB_CtrlSetupAck + 64
        0x00001858:    9800        ..      LDR      r0,[sp,#0]
        0x0000185a:    5d01        .]      LDRB     r1,[r0,r4]
        0x0000185c:    4630        0F      MOV      r0,r6
        0x0000185e:    308c        .0      ADDS     r0,r0,#0x8c
        0x00001860:    5501        .U      STRB     r1,[r0,r4]
        0x00001862:    1c64        d.      ADDS     r4,r4,#1
        0x00001864:    2c08        .,      CMP      r4,#8
        0x00001866:    d3f7        ..      BCC      0x1858 ; DrvUSB_CtrlSetupAck + 52
        0x00001868:    2701        .'      MOVS     r7,#1
        0x0000186a:    033f        ?.      LSLS     r7,r7,#12
        0x0000186c:    bf00        ..      NOP      
        0x0000186e:    4638        8F      MOV      r0,r7
        0x00001870:    1e7f        ..      SUBS     r7,r7,#1
        0x00001872:    2800        .(      CMP      r0,#0
        0x00001874:    d1fb        ..      BNE      0x186e ; DrvUSB_CtrlSetupAck + 74
        0x00001876:    2400        .$      MOVS     r4,#0
        0x00001878:    e018        ..      B        0x18ac ; DrvUSB_CtrlSetupAck + 136
        0x0000187a:    2084        .       MOVS     r0,#0x84
        0x0000187c:    5981        .Y      LDR      r1,[r0,r6]
        0x0000187e:    2014        .       MOVS     r0,#0x14
        0x00001880:    4360        `C      MULS     r0,r4,r0
        0x00001882:    180d        ..      ADDS     r5,r1,r0
        0x00001884:    6868        hh      LDR      r0,[r5,#4]
        0x00001886:    2800        .(      CMP      r0,#0
        0x00001888:    d00f        ..      BEQ      0x18aa ; DrvUSB_CtrlSetupAck + 134
        0x0000188a:    7829        )x      LDRB     r1,[r5,#0]
        0x0000188c:    208c        .       MOVS     r0,#0x8c
        0x0000188e:    5d80        .]      LDRB     r0,[r0,r6]
        0x00001890:    2260        `"      MOVS     r2,#0x60
        0x00001892:    4010        .@      ANDS     r0,r0,r2
        0x00001894:    4281        .B      CMP      r1,r0
        0x00001896:    d108        ..      BNE      0x18aa ; DrvUSB_CtrlSetupAck + 134
        0x00001898:    7869        ix      LDRB     r1,[r5,#1]
        0x0000189a:    208d        .       MOVS     r0,#0x8d
        0x0000189c:    5d80        .]      LDRB     r0,[r0,r6]
        0x0000189e:    4281        .B      CMP      r1,r0
        0x000018a0:    d103        ..      BNE      0x18aa ; DrvUSB_CtrlSetupAck + 134
        0x000018a2:    6869        ih      LDR      r1,[r5,#4]
        0x000018a4:    6928        (i      LDR      r0,[r5,#0x10]
        0x000018a6:    4788        .G      BLX      r1
        0x000018a8:    e7c9        ..      B        0x183e ; DrvUSB_CtrlSetupAck + 26
        0x000018aa:    1c64        d.      ADDS     r4,r4,#1
        0x000018ac:    2088        .       MOVS     r0,#0x88
        0x000018ae:    5980        .Y      LDR      r0,[r0,r6]
        0x000018b0:    42a0        .B      CMP      r0,r4
        0x000018b2:    d8e2        ..      BHI      0x187a ; DrvUSB_CtrlSetupAck + 86
        0x000018b4:    f7ffff06    ....    BL       DrvUSB_ClrCtrlReadyAndTrigStall ; 0x16c4
        0x000018b8:    bf00        ..      NOP      
        0x000018ba:    e7c0        ..      B        0x183e ; DrvUSB_CtrlSetupAck + 26
    $d
        0x000018bc:    2000088c    ...     DCD    536873100
    $t
    i.DrvUSB_CtrlSetupClearSetFeature
    DrvUSB_CtrlSetupClearSetFeature
        0x000018c0:    b570        p.      PUSH     {r4-r6,lr}
        0x000018c2:    4606        .F      MOV      r6,r0
        0x000018c4:    4c2b        +L      LDR      r4,[pc,#172] ; [0x1974] = 0x2000088c
        0x000018c6:    208c        .       MOVS     r0,#0x8c
        0x000018c8:    5d00        .]      LDRB     r0,[r0,r4]
        0x000018ca:    2800        .(      CMP      r0,#0
        0x000018cc:    d110        ..      BNE      0x18f0 ; DrvUSB_CtrlSetupClearSetFeature + 48
        0x000018ce:    208e        .       MOVS     r0,#0x8e
        0x000018d0:    5d00        .]      LDRB     r0,[r0,r4]
        0x000018d2:    2801        .(      CMP      r0,#1
        0x000018d4:    d10c        ..      BNE      0x18f0 ; DrvUSB_CtrlSetupClearSetFeature + 48
        0x000018d6:    208d        .       MOVS     r0,#0x8d
        0x000018d8:    5d00        .]      LDRB     r0,[r0,r4]
        0x000018da:    2803        .(      CMP      r0,#3
        0x000018dc:    d101        ..      BNE      0x18e2 ; DrvUSB_CtrlSetupClearSetFeature + 34
        0x000018de:    f000f9cf    ....    BL       DrvUSB_EnableRemoteWakeup ; 0x1c80
        0x000018e2:    208d        .       MOVS     r0,#0x8d
        0x000018e4:    5d00        .]      LDRB     r0,[r0,r4]
        0x000018e6:    2801        .(      CMP      r0,#1
        0x000018e8:    d13d        =.      BNE      0x1966 ; DrvUSB_CtrlSetupClearSetFeature + 166
        0x000018ea:    f000f969    ..i.    BL       DrvUSB_DisableRemoteWakeup ; 0x1bc0
        0x000018ee:    e03a        :.      B        0x1966 ; DrvUSB_CtrlSetupClearSetFeature + 166
        0x000018f0:    208c        .       MOVS     r0,#0x8c
        0x000018f2:    5d00        .]      LDRB     r0,[r0,r4]
        0x000018f4:    2801        .(      CMP      r0,#1
        0x000018f6:    d036        6.      BEQ      0x1966 ; DrvUSB_CtrlSetupClearSetFeature + 166
        0x000018f8:    208c        .       MOVS     r0,#0x8c
        0x000018fa:    5d00        .]      LDRB     r0,[r0,r4]
        0x000018fc:    2802        .(      CMP      r0,#2
        0x000018fe:    d130        0.      BNE      0x1962 ; DrvUSB_CtrlSetupClearSetFeature + 162
        0x00001900:    208e        .       MOVS     r0,#0x8e
        0x00001902:    5d00        .]      LDRB     r0,[r0,r4]
        0x00001904:    2800        .(      CMP      r0,#0
        0x00001906:    d12c        ,.      BNE      0x1962 ; DrvUSB_CtrlSetupClearSetFeature + 162
        0x00001908:    2190        .!      MOVS     r1,#0x90
        0x0000190a:    5d08        .]      LDRB     r0,[r1,r4]
        0x0000190c:    f000f9c6    ....    BL       DrvUSB_GetEpId ; 0x1c9c
        0x00001910:    4605        .F      MOV      r5,r0
        0x00001912:    2d06        .-      CMP      r5,#6
        0x00001914:    d222        ".      BCS      0x195c ; DrvUSB_CtrlSetupClearSetFeature + 156
        0x00001916:    0128        (.      LSLS     r0,r5,#4
        0x00001918:    4917        .I      LDR      r1,[pc,#92] ; [0x1978] = 0x40060000
        0x0000191a:    1840        @.      ADDS     r0,r0,r1
        0x0000191c:    6a80        .j      LDR      r0,[r0,#0x28]
        0x0000191e:    2180        .!      MOVS     r1,#0x80
        0x00001920:    4388        .C      BICS     r0,r0,r1
        0x00001922:    0129        ).      LSLS     r1,r5,#4
        0x00001924:    4a14        .J      LDR      r2,[pc,#80] ; [0x1978] = 0x40060000
        0x00001926:    1889        ..      ADDS     r1,r1,r2
        0x00001928:    6288        .b      STR      r0,[r1,#0x28]
        0x0000192a:    208d        .       MOVS     r0,#0x8d
        0x0000192c:    5d00        .]      LDRB     r0,[r0,r4]
        0x0000192e:    2801        .(      CMP      r0,#1
        0x00001930:    d109        ..      BNE      0x1946 ; DrvUSB_CtrlSetupClearSetFeature + 134
        0x00001932:    0128        (.      LSLS     r0,r5,#4
        0x00001934:    4611        .F      MOV      r1,r2
        0x00001936:    1840        @.      ADDS     r0,r0,r1
        0x00001938:    6ac0        .j      LDR      r0,[r0,#0x2c]
        0x0000193a:    2102        .!      MOVS     r1,#2
        0x0000193c:    4388        .C      BICS     r0,r0,r1
        0x0000193e:    0129        ).      LSLS     r1,r5,#4
        0x00001940:    1889        ..      ADDS     r1,r1,r2
        0x00001942:    62c8        .b      STR      r0,[r1,#0x2c]
        0x00001944:    e00f        ..      B        0x1966 ; DrvUSB_CtrlSetupClearSetFeature + 166
        0x00001946:    0128        (.      LSLS     r0,r5,#4
        0x00001948:    490b        .I      LDR      r1,[pc,#44] ; [0x1978] = 0x40060000
        0x0000194a:    1840        @.      ADDS     r0,r0,r1
        0x0000194c:    6ac0        .j      LDR      r0,[r0,#0x2c]
        0x0000194e:    2102        .!      MOVS     r1,#2
        0x00001950:    4308        .C      ORRS     r0,r0,r1
        0x00001952:    0129        ).      LSLS     r1,r5,#4
        0x00001954:    4a08        .J      LDR      r2,[pc,#32] ; [0x1978] = 0x40060000
        0x00001956:    1889        ..      ADDS     r1,r1,r2
        0x00001958:    62c8        .b      STR      r0,[r1,#0x2c]
        0x0000195a:    e004        ..      B        0x1966 ; DrvUSB_CtrlSetupClearSetFeature + 166
        0x0000195c:    f7fffeb2    ....    BL       DrvUSB_ClrCtrlReadyAndTrigStall ; 0x16c4
        0x00001960:    e001        ..      B        0x1966 ; DrvUSB_CtrlSetupClearSetFeature + 166
        0x00001962:    f7fffeaf    ....    BL       DrvUSB_ClrCtrlReadyAndTrigStall ; 0x16c4
        0x00001966:    2200        ."      MOVS     r2,#0
        0x00001968:    4611        .F      MOV      r1,r2
        0x0000196a:    4610        .F      MOV      r0,r2
        0x0000196c:    f000f88e    ....    BL       DrvUSB_DataIn ; 0x1a8c
        0x00001970:    bd70        p.      POP      {r4-r6,pc}
    $d
        0x00001972:    0000        ..      DCW    0
        0x00001974:    2000088c    ...     DCD    536873100
        0x00001978:    40060000    ...@    DCD    1074135040
    $t
    i.DrvUSB_CtrlSetupGetConfiguration
    DrvUSB_CtrlSetupGetConfiguration
        0x0000197c:    b510        ..      PUSH     {r4,lr}
        0x0000197e:    4604        .F      MOV      r4,r0
        0x00001980:    2201        ."      MOVS     r2,#1
        0x00001982:    4902        .I      LDR      r1,[pc,#8] ; [0x198c] = 0x20000921
        0x00001984:    2000        .       MOVS     r0,#0
        0x00001986:    f000f881    ....    BL       DrvUSB_DataIn ; 0x1a8c
        0x0000198a:    bd10        ..      POP      {r4,pc}
    $d
        0x0000198c:    20000921    !..     DCD    536873249
    $t
    i.DrvUSB_CtrlSetupGetInterface
    DrvUSB_CtrlSetupGetInterface
        0x00001990:    b518        ..      PUSH     {r3,r4,lr}
        0x00001992:    4604        .F      MOV      r4,r0
        0x00001994:    2000        .       MOVS     r0,#0
        0x00001996:    9000        ..      STR      r0,[sp,#0]
        0x00001998:    2201        ."      MOVS     r2,#1
        0x0000199a:    4669        iF      MOV      r1,sp
        0x0000199c:    f000f876    ..v.    BL       DrvUSB_DataIn ; 0x1a8c
        0x000019a0:    bd18        ..      POP      {r3,r4,pc}
        0x000019a2:    0000        ..      MOVS     r0,r0
    i.DrvUSB_CtrlSetupGetStatus
    DrvUSB_CtrlSetupGetStatus
        0x000019a4:    b578        x.      PUSH     {r3-r6,lr}
        0x000019a6:    4606        .F      MOV      r6,r0
        0x000019a8:    4c1c        .L      LDR      r4,[pc,#112] ; [0x1a1c] = 0x2000088c
        0x000019aa:    2190        .!      MOVS     r1,#0x90
        0x000019ac:    5d08        .]      LDRB     r0,[r1,r4]
        0x000019ae:    f000f975    ..u.    BL       DrvUSB_GetEpId ; 0x1c9c
        0x000019b2:    4605        .F      MOV      r5,r0
        0x000019b4:    208c        .       MOVS     r0,#0x8c
        0x000019b6:    5d00        .]      LDRB     r0,[r0,r4]
        0x000019b8:    2880        .(      CMP      r0,#0x80
        0x000019ba:    d108        ..      BNE      0x19ce ; DrvUSB_CtrlSetupGetStatus + 42
        0x000019bc:    209c        .       MOVS     r0,#0x9c
        0x000019be:    5900        .Y      LDR      r0,[r0,r4]
        0x000019c0:    0040        @.      LSLS     r0,r0,#1
        0x000019c2:    2198        .!      MOVS     r1,#0x98
        0x000019c4:    5909        .Y      LDR      r1,[r1,r4]
        0x000019c6:    4308        .C      ORRS     r0,r0,r1
        0x000019c8:    4669        iF      MOV      r1,sp
        0x000019ca:    7008        .p      STRB     r0,[r1,#0]
        0x000019cc:    e01d        ..      B        0x1a0a ; DrvUSB_CtrlSetupGetStatus + 102
        0x000019ce:    208c        .       MOVS     r0,#0x8c
        0x000019d0:    5d00        .]      LDRB     r0,[r0,r4]
        0x000019d2:    2881        .(      CMP      r0,#0x81
        0x000019d4:    d103        ..      BNE      0x19de ; DrvUSB_CtrlSetupGetStatus + 58
        0x000019d6:    2000        .       MOVS     r0,#0
        0x000019d8:    4669        iF      MOV      r1,sp
        0x000019da:    7008        .p      STRB     r0,[r1,#0]
        0x000019dc:    e015        ..      B        0x1a0a ; DrvUSB_CtrlSetupGetStatus + 102
        0x000019de:    208c        .       MOVS     r0,#0x8c
        0x000019e0:    5d00        .]      LDRB     r0,[r0,r4]
        0x000019e2:    2882        .(      CMP      r0,#0x82
        0x000019e4:    d10e        ..      BNE      0x1a04 ; DrvUSB_CtrlSetupGetStatus + 96
        0x000019e6:    2d06        .-      CMP      r5,#6
        0x000019e8:    d209        ..      BCS      0x19fe ; DrvUSB_CtrlSetupGetStatus + 90
        0x000019ea:    0128        (.      LSLS     r0,r5,#4
        0x000019ec:    490c        .I      LDR      r1,[pc,#48] ; [0x1a20] = 0x40060000
        0x000019ee:    1840        @.      ADDS     r0,r0,r1
        0x000019f0:    6ac0        .j      LDR      r0,[r0,#0x2c]
        0x000019f2:    2102        .!      MOVS     r1,#2
        0x000019f4:    4008        .@      ANDS     r0,r0,r1
        0x000019f6:    0840        @.      LSRS     r0,r0,#1
        0x000019f8:    4669        iF      MOV      r1,sp
        0x000019fa:    7008        .p      STRB     r0,[r1,#0]
        0x000019fc:    e005        ..      B        0x1a0a ; DrvUSB_CtrlSetupGetStatus + 102
        0x000019fe:    f7fffe61    ..a.    BL       DrvUSB_ClrCtrlReadyAndTrigStall ; 0x16c4
        0x00001a02:    bd78        x.      POP      {r3-r6,pc}
        0x00001a04:    f7fffe5e    ..^.    BL       DrvUSB_ClrCtrlReadyAndTrigStall ; 0x16c4
        0x00001a08:    e7fb        ..      B        0x1a02 ; DrvUSB_CtrlSetupGetStatus + 94
        0x00001a0a:    2000        .       MOVS     r0,#0
        0x00001a0c:    4669        iF      MOV      r1,sp
        0x00001a0e:    7048        Hp      STRB     r0,[r1,#1]
        0x00001a10:    2202        ."      MOVS     r2,#2
        0x00001a12:    f000f83b    ..;.    BL       DrvUSB_DataIn ; 0x1a8c
        0x00001a16:    bf00        ..      NOP      
        0x00001a18:    e7f3        ..      B        0x1a02 ; DrvUSB_CtrlSetupGetStatus + 94
    $d
        0x00001a1a:    0000        ..      DCW    0
        0x00001a1c:    2000088c    ...     DCD    536873100
        0x00001a20:    40060000    ...@    DCD    1074135040
    $t
    i.DrvUSB_CtrlSetupSetAddress
    DrvUSB_CtrlSetupSetAddress
        0x00001a24:    b570        p.      PUSH     {r4-r6,lr}
        0x00001a26:    4606        .F      MOV      r6,r0
        0x00001a28:    4c0c        .L      LDR      r4,[pc,#48] ; [0x1a5c] = 0x2000088c
        0x00001a2a:    f000f987    ....    BL       DrvUSB_GetUsbState ; 0x1d3c
        0x00001a2e:    4605        .F      MOV      r5,r0
        0x00001a30:    2d07        .-      CMP      r5,#7
        0x00001a32:    d10f        ..      BNE      0x1a54 ; DrvUSB_CtrlSetupSetAddress + 48
        0x00001a34:    208e        .       MOVS     r0,#0x8e
        0x00001a36:    5d01        .]      LDRB     r1,[r0,r4]
        0x00001a38:    2094        .       MOVS     r0,#0x94
        0x00001a3a:    5501        .U      STRB     r1,[r0,r4]
        0x00001a3c:    4808        .H      LDR      r0,[pc,#32] ; [0x1a60] = 0x40060000
        0x00001a3e:    6a80        .j      LDR      r0,[r0,#0x28]
        0x00001a40:    2180        .!      MOVS     r1,#0x80
        0x00001a42:    4308        .C      ORRS     r0,r0,r1
        0x00001a44:    4906        .I      LDR      r1,[pc,#24] ; [0x1a60] = 0x40060000
        0x00001a46:    6288        .b      STR      r0,[r1,#0x28]
        0x00001a48:    2000        .       MOVS     r0,#0
        0x00001a4a:    6248        Hb      STR      r0,[r1,#0x24]
        0x00001a4c:    200f        .       MOVS     r0,#0xf
        0x00001a4e:    f000fc1f    ....    BL       DrvUSB_SetUsbState ; 0x2290
        0x00001a52:    e001        ..      B        0x1a58 ; DrvUSB_CtrlSetupSetAddress + 52
        0x00001a54:    f7fffe36    ..6.    BL       DrvUSB_ClrCtrlReadyAndTrigStall ; 0x16c4
        0x00001a58:    bd70        p.      POP      {r4-r6,pc}
    $d
        0x00001a5a:    0000        ..      DCW    0
        0x00001a5c:    2000088c    ...     DCD    536873100
        0x00001a60:    40060000    ...@    DCD    1074135040
    $t
    i.DrvUSB_CtrlSetupSetInterface
    DrvUSB_CtrlSetupSetInterface
        0x00001a64:    b570        p.      PUSH     {r4-r6,lr}
        0x00001a66:    4606        .F      MOV      r6,r0
        0x00001a68:    4d07        .M      LDR      r5,[pc,#28] ; [0x1a88] = 0x2000088c
        0x00001a6a:    20a4        .       MOVS     r0,#0xa4
        0x00001a6c:    5944        DY      LDR      r4,[r0,r5]
        0x00001a6e:    6860        `h      LDR      r0,[r4,#4]
        0x00001a70:    2800        .(      CMP      r0,#0
        0x00001a72:    d002        ..      BEQ      0x1a7a ; DrvUSB_CtrlSetupSetInterface + 22
        0x00001a74:    4630        0F      MOV      r0,r6
        0x00001a76:    6861        ah      LDR      r1,[r4,#4]
        0x00001a78:    4788        .G      BLX      r1
        0x00001a7a:    2200        ."      MOVS     r2,#0
        0x00001a7c:    4611        .F      MOV      r1,r2
        0x00001a7e:    4610        .F      MOV      r0,r2
        0x00001a80:    f000f804    ....    BL       DrvUSB_DataIn ; 0x1a8c
        0x00001a84:    bd70        p.      POP      {r4-r6,pc}
    $d
        0x00001a86:    0000        ..      DCW    0
        0x00001a88:    2000088c    ...     DCD    536873100
    $t
    i.DrvUSB_DataIn
    DrvUSB_DataIn
        0x00001a8c:    b5f7        ..      PUSH     {r0-r2,r4-r7,lr}
        0x00001a8e:    460f        .F      MOV      r7,r1
        0x00001a90:    4616        .F      MOV      r6,r2
        0x00001a92:    4d2f        /M      LDR      r5,[pc,#188] ; [0x1b50] = 0x2000088c
        0x00001a94:    2180        .!      MOVS     r1,#0x80
        0x00001a96:    9800        ..      LDR      r0,[sp,#0]
        0x00001a98:    f000f918    ....    BL       DrvUSB_GetEpIdentity ; 0x1ccc
        0x00001a9c:    4604        .F      MOV      r4,r0
        0x00001a9e:    200c        .       MOVS     r0,#0xc
        0x00001aa0:    4360        `C      MULS     r0,r4,r0
        0x00001aa2:    4629        )F      MOV      r1,r5
        0x00001aa4:    3128        (1      ADDS     r1,r1,#0x28
        0x00001aa6:    1840        @.      ADDS     r0,r0,r1
        0x00001aa8:    6840        @h      LDR      r0,[r0,#4]
        0x00001aaa:    42b0        .B      CMP      r0,r6
        0x00001aac:    d201        ..      BCS      0x1ab2 ; DrvUSB_DataIn + 38
        0x00001aae:    4829        )H      LDR      r0,[pc,#164] ; [0x1b54] = 0xffff9903
        0x00001ab0:    bdfe        ..      POP      {r1-r7,pc}
        0x00001ab2:    2f00        ./      CMP      r7,#0
        0x00001ab4:    d00b        ..      BEQ      0x1ace ; DrvUSB_DataIn + 66
        0x00001ab6:    2e00        ..      CMP      r6,#0
        0x00001ab8:    d009        ..      BEQ      0x1ace ; DrvUSB_DataIn + 66
        0x00001aba:    210c        .!      MOVS     r1,#0xc
        0x00001abc:    4361        aC      MULS     r1,r4,r1
        0x00001abe:    462a        *F      MOV      r2,r5
        0x00001ac0:    3228        (2      ADDS     r2,r2,#0x28
        0x00001ac2:    1889        ..      ADDS     r1,r1,r2
        0x00001ac4:    4632        2F      MOV      r2,r6
        0x00001ac6:    6888        .h      LDR      r0,[r1,#8]
        0x00001ac8:    4639        9F      MOV      r1,r7
        0x00001aca:    f001fb71    ..q.    BL       WordsCpy ; 0x31b0
        0x00001ace:    200c        .       MOVS     r0,#0xc
        0x00001ad0:    4360        `C      MULS     r0,r4,r0
        0x00001ad2:    4629        )F      MOV      r1,r5
        0x00001ad4:    3128        (1      ADDS     r1,r1,#0x28
        0x00001ad6:    1840        @.      ADDS     r0,r0,r1
        0x00001ad8:    6880        .h      LDR      r0,[r0,#8]
        0x00001ada:    491f        .I      LDR      r1,[pc,#124] ; [0x1b58] = 0x40060100
        0x00001adc:    1a40        @.      SUBS     r0,r0,r1
        0x00001ade:    0121        !.      LSLS     r1,r4,#4
        0x00001ae0:    4a1e        .J      LDR      r2,[pc,#120] ; [0x1b5c] = 0x40060000
        0x00001ae2:    1889        ..      ADDS     r1,r1,r2
        0x00001ae4:    6208        .b      STR      r0,[r1,#0x20]
        0x00001ae6:    2f00        ./      CMP      r7,#0
        0x00001ae8:    d107        ..      BNE      0x1afa ; DrvUSB_DataIn + 110
        0x00001aea:    2e00        ..      CMP      r6,#0
        0x00001aec:    d105        ..      BNE      0x1afa ; DrvUSB_DataIn + 110
        0x00001aee:    2100        .!      MOVS     r1,#0
        0x00001af0:    00a2        ..      LSLS     r2,r4,#2
        0x00001af2:    4628        (F      MOV      r0,r5
        0x00001af4:    3010        .0      ADDS     r0,r0,#0x10
        0x00001af6:    5081        .P      STR      r1,[r0,r2]
        0x00001af8:    e00c        ..      B        0x1b14 ; DrvUSB_DataIn + 136
        0x00001afa:    00a1        ..      LSLS     r1,r4,#2
        0x00001afc:    4628        (F      MOV      r0,r5
        0x00001afe:    3010        .0      ADDS     r0,r0,#0x10
        0x00001b00:    5840        @X      LDR      r0,[r0,r1]
        0x00001b02:    2800        .(      CMP      r0,#0
        0x00001b04:    d101        ..      BNE      0x1b0a ; DrvUSB_DataIn + 126
        0x00001b06:    2101        .!      MOVS     r1,#1
        0x00001b08:    e000        ..      B        0x1b0c ; DrvUSB_DataIn + 128
        0x00001b0a:    2100        .!      MOVS     r1,#0
        0x00001b0c:    00a2        ..      LSLS     r2,r4,#2
        0x00001b0e:    4628        (F      MOV      r0,r5
        0x00001b10:    3010        .0      ADDS     r0,r0,#0x10
        0x00001b12:    5081        .P      STR      r1,[r0,r2]
        0x00001b14:    00a1        ..      LSLS     r1,r4,#2
        0x00001b16:    4628        (F      MOV      r0,r5
        0x00001b18:    3010        .0      ADDS     r0,r0,#0x10
        0x00001b1a:    5840        @X      LDR      r0,[r0,r1]
        0x00001b1c:    2800        .(      CMP      r0,#0
        0x00001b1e:    d006        ..      BEQ      0x1b2e ; DrvUSB_DataIn + 162
        0x00001b20:    0120         .      LSLS     r0,r4,#4
        0x00001b22:    490e        .I      LDR      r1,[pc,#56] ; [0x1b5c] = 0x40060000
        0x00001b24:    1840        @.      ADDS     r0,r0,r1
        0x00001b26:    6a80        .j      LDR      r0,[r0,#0x28]
        0x00001b28:    490d        .I      LDR      r1,[pc,#52] ; [0x1b60] = 0x37f
        0x00001b2a:    4008        .@      ANDS     r0,r0,r1
        0x00001b2c:    e005        ..      B        0x1b3a ; DrvUSB_DataIn + 174
        0x00001b2e:    0120         .      LSLS     r0,r4,#4
        0x00001b30:    490a        .I      LDR      r1,[pc,#40] ; [0x1b5c] = 0x40060000
        0x00001b32:    1840        @.      ADDS     r0,r0,r1
        0x00001b34:    6a80        .j      LDR      r0,[r0,#0x28]
        0x00001b36:    2180        .!      MOVS     r1,#0x80
        0x00001b38:    4308        .C      ORRS     r0,r0,r1
        0x00001b3a:    0121        !.      LSLS     r1,r4,#4
        0x00001b3c:    4a07        .J      LDR      r2,[pc,#28] ; [0x1b5c] = 0x40060000
        0x00001b3e:    1889        ..      ADDS     r1,r1,r2
        0x00001b40:    6288        .b      STR      r0,[r1,#0x28]
        0x00001b42:    0120         .      LSLS     r0,r4,#4
        0x00001b44:    4611        .F      MOV      r1,r2
        0x00001b46:    1840        @.      ADDS     r0,r0,r1
        0x00001b48:    6246        Fb      STR      r6,[r0,#0x24]
        0x00001b4a:    2000        .       MOVS     r0,#0
        0x00001b4c:    e7b0        ..      B        0x1ab0 ; DrvUSB_DataIn + 36
    $d
        0x00001b4e:    0000        ..      DCW    0
        0x00001b50:    2000088c    ...     DCD    536873100
        0x00001b54:    ffff9903    ....    DCD    4294940931
        0x00001b58:    40060100    ...@    DCD    1074135296
        0x00001b5c:    40060000    ...@    DCD    1074135040
        0x00001b60:    0000037f    ....    DCD    895
    $t
    i.DrvUSB_DataOutTrigger
    DrvUSB_DataOutTrigger
        0x00001b64:    b5f0        ..      PUSH     {r4-r7,lr}
        0x00001b66:    4607        .F      MOV      r7,r0
        0x00001b68:    460d        .F      MOV      r5,r1
        0x00001b6a:    4e11        .N      LDR      r6,[pc,#68] ; [0x1bb0] = 0x2000088c
        0x00001b6c:    2100        .!      MOVS     r1,#0
        0x00001b6e:    4638        8F      MOV      r0,r7
        0x00001b70:    f000f8ac    ....    BL       DrvUSB_GetEpIdentity ; 0x1ccc
        0x00001b74:    4604        .F      MOV      r4,r0
        0x00001b76:    200c        .       MOVS     r0,#0xc
        0x00001b78:    4360        `C      MULS     r0,r4,r0
        0x00001b7a:    4631        1F      MOV      r1,r6
        0x00001b7c:    3128        (1      ADDS     r1,r1,#0x28
        0x00001b7e:    1840        @.      ADDS     r0,r0,r1
        0x00001b80:    6840        @h      LDR      r0,[r0,#4]
        0x00001b82:    42a8        .B      CMP      r0,r5
        0x00001b84:    d201        ..      BCS      0x1b8a ; DrvUSB_DataOutTrigger + 38
        0x00001b86:    480b        .H      LDR      r0,[pc,#44] ; [0x1bb4] = 0xffff9903
        0x00001b88:    bdf0        ..      POP      {r4-r7,pc}
        0x00001b8a:    200c        .       MOVS     r0,#0xc
        0x00001b8c:    4360        `C      MULS     r0,r4,r0
        0x00001b8e:    4631        1F      MOV      r1,r6
        0x00001b90:    3128        (1      ADDS     r1,r1,#0x28
        0x00001b92:    1840        @.      ADDS     r0,r0,r1
        0x00001b94:    6880        .h      LDR      r0,[r0,#8]
        0x00001b96:    4908        .I      LDR      r1,[pc,#32] ; [0x1bb8] = 0x40060100
        0x00001b98:    1a40        @.      SUBS     r0,r0,r1
        0x00001b9a:    0121        !.      LSLS     r1,r4,#4
        0x00001b9c:    4a07        .J      LDR      r2,[pc,#28] ; [0x1bbc] = 0x40060000
        0x00001b9e:    1889        ..      ADDS     r1,r1,r2
        0x00001ba0:    6208        .b      STR      r0,[r1,#0x20]
        0x00001ba2:    0120         .      LSLS     r0,r4,#4
        0x00001ba4:    4611        .F      MOV      r1,r2
        0x00001ba6:    1840        @.      ADDS     r0,r0,r1
        0x00001ba8:    6245        Eb      STR      r5,[r0,#0x24]
        0x00001baa:    2000        .       MOVS     r0,#0
        0x00001bac:    e7ec        ..      B        0x1b88 ; DrvUSB_DataOutTrigger + 36
    $d
        0x00001bae:    0000        ..      DCW    0
        0x00001bb0:    2000088c    ...     DCD    536873100
        0x00001bb4:    ffff9903    ....    DCD    4294940931
        0x00001bb8:    40060100    ...@    DCD    1074135296
        0x00001bbc:    40060000    ...@    DCD    1074135040
    $t
    i.DrvUSB_DisableRemoteWakeup
    DrvUSB_DisableRemoteWakeup
        0x00001bc0:    2100        .!      MOVS     r1,#0
        0x00001bc2:    4801        .H      LDR      r0,[pc,#4] ; [0x1bc8] = 0x2000090c
        0x00001bc4:    61c1        .a      STR      r1,[r0,#0x1c]
        0x00001bc6:    4770        pG      BX       lr
    $d
        0x00001bc8:    2000090c    ...     DCD    536873228
    $t
    i.DrvUSB_DisableUsb
    DrvUSB_DisableUsb
        0x00001bcc:    213b        ;!      MOVS     r1,#0x3b
        0x00001bce:    0149        I.      LSLS     r1,r1,#5
        0x00001bd0:    4a01        .J      LDR      r2,[pc,#4] ; [0x1bd8] = 0x40060000
        0x00001bd2:    6111        .a      STR      r1,[r2,#0x10]
        0x00001bd4:    4770        pG      BX       lr
    $d
        0x00001bd6:    0000        ..      DCW    0
        0x00001bd8:    40060000    ...@    DCD    1074135040
    $t
    i.DrvUSB_DispatchEPEvent
    DrvUSB_DispatchEPEvent
        0x00001bdc:    b570        p.      PUSH     {r4-r6,lr}
        0x00001bde:    4605        .F      MOV      r5,r0
        0x00001be0:    2400        .$      MOVS     r4,#0
        0x00001be2:    e019        ..      B        0x1c18 ; DrvUSB_DispatchEPEvent + 60
        0x00001be4:    2082        .       MOVS     r0,#0x82
        0x00001be6:    5b40        @[      LDRH     r0,[r0,r5]
        0x00001be8:    4120         A      ASRS     r0,r0,r4
        0x00001bea:    07c0        ..      LSLS     r0,r0,#31
        0x00001bec:    0fc0        ..      LSRS     r0,r0,#31
        0x00001bee:    d012        ..      BEQ      0x1c16 ; DrvUSB_DispatchEPEvent + 58
        0x00001bf0:    2082        .       MOVS     r0,#0x82
        0x00001bf2:    5b40        @[      LDRH     r0,[r0,r5]
        0x00001bf4:    2101        .!      MOVS     r1,#1
        0x00001bf6:    40a1        .@      LSLS     r1,r1,r4
        0x00001bf8:    4388        .C      BICS     r0,r0,r1
        0x00001bfa:    2182        .!      MOVS     r1,#0x82
        0x00001bfc:    5348        HS      STRH     r0,[r1,r5]
        0x00001bfe:    00e0        ..      LSLS     r0,r4,#3
        0x00001c00:    4907        .I      LDR      r1,[pc,#28] ; [0x1c20] = 0x200006d4
        0x00001c02:    5808        .X      LDR      r0,[r1,r0]
        0x00001c04:    2800        .(      CMP      r0,#0
        0x00001c06:    d006        ..      BEQ      0x1c16 ; DrvUSB_DispatchEPEvent + 58
        0x00001c08:    00e2        ..      LSLS     r2,r4,#3
        0x00001c0a:    460b        .F      MOV      r3,r1
        0x00001c0c:    18d2        ..      ADDS     r2,r2,r3
        0x00001c0e:    6850        Ph      LDR      r0,[r2,#4]
        0x00001c10:    00e2        ..      LSLS     r2,r4,#3
        0x00001c12:    5899        .X      LDR      r1,[r3,r2]
        0x00001c14:    4788        .G      BLX      r1
        0x00001c16:    1c64        d.      ADDS     r4,r4,#1
        0x00001c18:    2c0c        .,      CMP      r4,#0xc
        0x00001c1a:    dbe3        ..      BLT      0x1be4 ; DrvUSB_DispatchEPEvent + 8
        0x00001c1c:    bd70        p.      POP      {r4-r6,pc}
    $d
        0x00001c1e:    0000        ..      DCW    0
        0x00001c20:    200006d4    ...     DCD    536872660
    $t
    i.DrvUSB_DispatchEvent
    DrvUSB_DispatchEvent
        0x00001c24:    b510        ..      PUSH     {r4,lr}
        0x00001c26:    4803        .H      LDR      r0,[pc,#12] ; [0x1c34] = 0x2000088c
        0x00001c28:    f000f806    ....    BL       DrvUSB_DispatchMiscEvent ; 0x1c38
        0x00001c2c:    4801        .H      LDR      r0,[pc,#4] ; [0x1c34] = 0x2000088c
        0x00001c2e:    f7ffffd5    ....    BL       DrvUSB_DispatchEPEvent ; 0x1bdc
        0x00001c32:    bd10        ..      POP      {r4,pc}
    $d
        0x00001c34:    2000088c    ...     DCD    536873100
    $t
    i.DrvUSB_DispatchMiscEvent
    DrvUSB_DispatchMiscEvent
        0x00001c38:    b570        p.      PUSH     {r4-r6,lr}
        0x00001c3a:    4605        .F      MOV      r5,r0
        0x00001c3c:    2080        .       MOVS     r0,#0x80
        0x00001c3e:    5b46        F[      LDRH     r6,[r0,r5]
        0x00001c40:    2400        .$      MOVS     r4,#0
        0x00001c42:    e017        ..      B        0x1c74 ; DrvUSB_DispatchMiscEvent + 60
        0x00001c44:    2001        .       MOVS     r0,#1
        0x00001c46:    40a0        .@      LSLS     r0,r0,r4
        0x00001c48:    4230        0B      TST      r0,r6
        0x00001c4a:    d012        ..      BEQ      0x1c72 ; DrvUSB_DispatchMiscEvent + 58
        0x00001c4c:    2080        .       MOVS     r0,#0x80
        0x00001c4e:    5b40        @[      LDRH     r0,[r0,r5]
        0x00001c50:    2101        .!      MOVS     r1,#1
        0x00001c52:    40a1        .@      LSLS     r1,r1,r4
        0x00001c54:    4388        .C      BICS     r0,r0,r1
        0x00001c56:    2180        .!      MOVS     r1,#0x80
        0x00001c58:    5348        HS      STRH     r0,[r1,r5]
        0x00001c5a:    00e0        ..      LSLS     r0,r4,#3
        0x00001c5c:    4907        .I      LDR      r1,[pc,#28] ; [0x1c7c] = 0x200006a4
        0x00001c5e:    5808        .X      LDR      r0,[r1,r0]
        0x00001c60:    2800        .(      CMP      r0,#0
        0x00001c62:    d006        ..      BEQ      0x1c72 ; DrvUSB_DispatchMiscEvent + 58
        0x00001c64:    00e2        ..      LSLS     r2,r4,#3
        0x00001c66:    460b        .F      MOV      r3,r1
        0x00001c68:    18d2        ..      ADDS     r2,r2,r3
        0x00001c6a:    6850        Ph      LDR      r0,[r2,#4]
        0x00001c6c:    00e2        ..      LSLS     r2,r4,#3
        0x00001c6e:    5899        .X      LDR      r1,[r3,r2]
        0x00001c70:    4788        .G      BLX      r1
        0x00001c72:    1c64        d.      ADDS     r4,r4,#1
        0x00001c74:    2c06        .,      CMP      r4,#6
        0x00001c76:    dbe5        ..      BLT      0x1c44 ; DrvUSB_DispatchMiscEvent + 12
        0x00001c78:    bd70        p.      POP      {r4-r6,pc}
    $d
        0x00001c7a:    0000        ..      DCW    0
        0x00001c7c:    200006a4    ...     DCD    536872612
    $t
    i.DrvUSB_EnableRemoteWakeup
    DrvUSB_EnableRemoteWakeup
        0x00001c80:    2101        .!      MOVS     r1,#1
        0x00001c82:    4801        .H      LDR      r0,[pc,#4] ; [0x1c88] = 0x2000090c
        0x00001c84:    61c1        .a      STR      r1,[r0,#0x1c]
        0x00001c86:    4770        pG      BX       lr
    $d
        0x00001c88:    2000090c    ...     DCD    536873228
    $t
    i.DrvUSB_EnableUsb
    DrvUSB_EnableUsb
        0x00001c8c:    217d        }!      MOVS     r1,#0x7d
        0x00001c8e:    0109        ..      LSLS     r1,r1,#4
        0x00001c90:    4a01        .J      LDR      r2,[pc,#4] ; [0x1c98] = 0x40060000
        0x00001c92:    6111        .a      STR      r1,[r2,#0x10]
        0x00001c94:    4770        pG      BX       lr
    $d
        0x00001c96:    0000        ..      DCW    0
        0x00001c98:    40060000    ...@    DCD    1074135040
    $t
    i.DrvUSB_GetEpId
    DrvUSB_GetEpId
        0x00001c9c:    b510        ..      PUSH     {r4,lr}
        0x00001c9e:    4602        .F      MOV      r2,r0
        0x00001ca0:    4b08        .K      LDR      r3,[pc,#32] ; [0x1cc4] = 0x2000088c
        0x00001ca2:    2100        .!      MOVS     r1,#0
        0x00001ca4:    e009        ..      B        0x1cba ; DrvUSB_GetEpId + 30
        0x00001ca6:    200c        .       MOVS     r0,#0xc
        0x00001ca8:    4348        HC      MULS     r0,r1,r0
        0x00001caa:    461c        .F      MOV      r4,r3
        0x00001cac:    3428        (4      ADDS     r4,r4,#0x28
        0x00001cae:    5820         X      LDR      r0,[r4,r0]
        0x00001cb0:    4290        .B      CMP      r0,r2
        0x00001cb2:    d101        ..      BNE      0x1cb8 ; DrvUSB_GetEpId + 28
        0x00001cb4:    4608        .F      MOV      r0,r1
        0x00001cb6:    bd10        ..      POP      {r4,pc}
        0x00001cb8:    1c49        I.      ADDS     r1,r1,#1
        0x00001cba:    2906        .)      CMP      r1,#6
        0x00001cbc:    d3f3        ..      BCC      0x1ca6 ; DrvUSB_GetEpId + 10
        0x00001cbe:    4802        .H      LDR      r0,[pc,#8] ; [0x1cc8] = 0xffff9902
        0x00001cc0:    e7f9        ..      B        0x1cb6 ; DrvUSB_GetEpId + 26
    $d
        0x00001cc2:    0000        ..      DCW    0
        0x00001cc4:    2000088c    ...     DCD    536873100
        0x00001cc8:    ffff9902    ....    DCD    4294940930
    $t
    i.DrvUSB_GetEpIdentity
    DrvUSB_GetEpIdentity
        0x00001ccc:    b530        0.      PUSH     {r4,r5,lr}
        0x00001cce:    4602        .F      MOV      r2,r0
        0x00001cd0:    460b        .F      MOV      r3,r1
        0x00001cd2:    4c09        .L      LDR      r4,[pc,#36] ; [0x1cf8] = 0x2000088c
        0x00001cd4:    2100        .!      MOVS     r1,#0
        0x00001cd6:    e00b        ..      B        0x1cf0 ; DrvUSB_GetEpIdentity + 36
        0x00001cd8:    200c        .       MOVS     r0,#0xc
        0x00001cda:    4348        HC      MULS     r0,r1,r0
        0x00001cdc:    4625        %F      MOV      r5,r4
        0x00001cde:    3528        (5      ADDS     r5,r5,#0x28
        0x00001ce0:    582d        -X      LDR      r5,[r5,r0]
        0x00001ce2:    4610        .F      MOV      r0,r2
        0x00001ce4:    4318        .C      ORRS     r0,r0,r3
        0x00001ce6:    4285        .B      CMP      r5,r0
        0x00001ce8:    d101        ..      BNE      0x1cee ; DrvUSB_GetEpIdentity + 34
        0x00001cea:    4608        .F      MOV      r0,r1
        0x00001cec:    bd30        0.      POP      {r4,r5,pc}
        0x00001cee:    1c49        I.      ADDS     r1,r1,#1
        0x00001cf0:    2906        .)      CMP      r1,#6
        0x00001cf2:    d3f1        ..      BCC      0x1cd8 ; DrvUSB_GetEpIdentity + 12
        0x00001cf4:    4801        .H      LDR      r0,[pc,#4] ; [0x1cfc] = 0xffff9902
        0x00001cf6:    e7f9        ..      B        0x1cec ; DrvUSB_GetEpIdentity + 32
    $d
        0x00001cf8:    2000088c    ...     DCD    536873100
        0x00001cfc:    ffff9902    ....    DCD    4294940930
    $t
    i.DrvUSB_GetOutData
    DrvUSB_GetOutData
        0x00001d00:    b570        p.      PUSH     {r4-r6,lr}
        0x00001d02:    4606        .F      MOV      r6,r0
        0x00001d04:    460c        .F      MOV      r4,r1
        0x00001d06:    2100        .!      MOVS     r1,#0
        0x00001d08:    4630        0F      MOV      r0,r6
        0x00001d0a:    f7ffffdf    ....    BL       DrvUSB_GetEpIdentity ; 0x1ccc
        0x00001d0e:    4605        .F      MOV      r5,r0
        0x00001d10:    0128        (.      LSLS     r0,r5,#4
        0x00001d12:    4905        .I      LDR      r1,[pc,#20] ; [0x1d28] = 0x40060020
        0x00001d14:    1840        @.      ADDS     r0,r0,r1
        0x00001d16:    7900        .y      LDRB     r0,[r0,#4]
        0x00001d18:    6020         `      STR      r0,[r4,#0]
        0x00001d1a:    200c        .       MOVS     r0,#0xc
        0x00001d1c:    4368        hC      MULS     r0,r5,r0
        0x00001d1e:    4903        .I      LDR      r1,[pc,#12] ; [0x1d2c] = 0x2000065c
        0x00001d20:    1840        @.      ADDS     r0,r0,r1
        0x00001d22:    6880        .h      LDR      r0,[r0,#8]
        0x00001d24:    bd70        p.      POP      {r4-r6,pc}
    $d
        0x00001d26:    0000        ..      DCW    0
        0x00001d28:    40060020     ..@    DCD    1074135072
        0x00001d2c:    2000065c    \..     DCD    536872540
    $t
    i.DrvUSB_GetSetupBuffer
    DrvUSB_GetSetupBuffer
        0x00001d30:    4801        .H      LDR      r0,[pc,#4] ; [0x1d38] = 0x2000088c
        0x00001d32:    6f80        .o      LDR      r0,[r0,#0x78]
        0x00001d34:    4770        pG      BX       lr
    $d
        0x00001d36:    0000        ..      DCW    0
        0x00001d38:    2000088c    ...     DCD    536873100
    $t
    i.DrvUSB_GetUsbState
    DrvUSB_GetUsbState
        0x00001d3c:    4801        .H      LDR      r0,[pc,#4] ; [0x1d44] = 0x2000088c
        0x00001d3e:    6fc0        .o      LDR      r0,[r0,#0x7c]
        0x00001d40:    b2c0        ..      UXTB     r0,r0
        0x00001d42:    4770        pG      BX       lr
    $d
        0x00001d44:    2000088c    ...     DCD    536873100
    $t
    i.DrvUSB_Init
    DrvUSB_Init
        0x00001d48:    481e        .H      LDR      r0,[pc,#120] ; [0x1dc4] = 0x50000200
        0x00001d4a:    6880        .h      LDR      r0,[r0,#8]
        0x00001d4c:    2301        .#      MOVS     r3,#1
        0x00001d4e:    06db        ..      LSLS     r3,r3,#27
        0x00001d50:    4398        .C      BICS     r0,r0,r3
        0x00001d52:    18c0        ..      ADDS     r0,r0,r3
        0x00001d54:    4b1b        .K      LDR      r3,[pc,#108] ; [0x1dc4] = 0x50000200
        0x00001d56:    6098        .`      STR      r0,[r3,#8]
        0x00001d58:    2005        .       MOVS     r0,#5
        0x00001d5a:    0700        ..      LSLS     r0,r0,#28
        0x00001d5c:    68c0        .h      LDR      r0,[r0,#0xc]
        0x00001d5e:    049b        ..      LSLS     r3,r3,#18
        0x00001d60:    4398        .C      BICS     r0,r0,r3
        0x00001d62:    18c0        ..      ADDS     r0,r0,r3
        0x00001d64:    2305        .#      MOVS     r3,#5
        0x00001d66:    071b        ..      LSLS     r3,r3,#28
        0x00001d68:    60d8        .`      STR      r0,[r3,#0xc]
        0x00001d6a:    22ff        ."      MOVS     r2,#0xff
        0x00001d6c:    32f5        .2      ADDS     r2,r2,#0xf5
        0x00001d6e:    bf00        ..      NOP      
        0x00001d70:    4610        .F      MOV      r0,r2
        0x00001d72:    1e52        R.      SUBS     r2,r2,#1
        0x00001d74:    2800        .(      CMP      r0,#0
        0x00001d76:    d1fb        ..      BNE      0x1d70 ; DrvUSB_Init + 40
        0x00001d78:    2005        .       MOVS     r0,#5
        0x00001d7a:    0700        ..      LSLS     r0,r0,#28
        0x00001d7c:    68c0        .h      LDR      r0,[r0,#0xc]
        0x00001d7e:    2301        .#      MOVS     r3,#1
        0x00001d80:    06db        ..      LSLS     r3,r3,#27
        0x00001d82:    4398        .C      BICS     r0,r0,r3
        0x00001d84:    2305        .#      MOVS     r3,#5
        0x00001d86:    071b        ..      LSLS     r3,r3,#28
        0x00001d88:    60d8        .`      STR      r0,[r3,#0xc]
        0x00001d8a:    207d        }       MOVS     r0,#0x7d
        0x00001d8c:    0100        ..      LSLS     r0,r0,#4
        0x00001d8e:    4b0e        .K      LDR      r3,[pc,#56] ; [0x1dc8] = 0x40060000
        0x00001d90:    6118        .a      STR      r0,[r3,#0x10]
        0x00001d92:    480d        .H      LDR      r0,[pc,#52] ; [0x1dc8] = 0x40060000
        0x00001d94:    3080        .0      ADDS     r0,r0,#0x80
        0x00001d96:    6900        .i      LDR      r0,[r0,#0x10]
        0x00001d98:    0840        @.      LSRS     r0,r0,#1
        0x00001d9a:    0040        @.      LSLS     r0,r0,#1
        0x00001d9c:    1c40        @.      ADDS     r0,r0,#1
        0x00001d9e:    4b0a        .K      LDR      r3,[pc,#40] ; [0x1dc8] = 0x40060000
        0x00001da0:    3380        .3      ADDS     r3,r3,#0x80
        0x00001da2:    6118        .a      STR      r0,[r3,#0x10]
        0x00001da4:    1599        ..      ASRS     r1,r3,#22
        0x00001da6:    bf00        ..      NOP      
        0x00001da8:    4608        .F      MOV      r0,r1
        0x00001daa:    1e49        I.      SUBS     r1,r1,#1
        0x00001dac:    2800        .(      CMP      r0,#0
        0x00001dae:    d1fb        ..      BNE      0x1da8 ; DrvUSB_Init + 96
        0x00001db0:    4805        .H      LDR      r0,[pc,#20] ; [0x1dc8] = 0x40060000
        0x00001db2:    3080        .0      ADDS     r0,r0,#0x80
        0x00001db4:    6900        .i      LDR      r0,[r0,#0x10]
        0x00001db6:    0840        @.      LSRS     r0,r0,#1
        0x00001db8:    0040        @.      LSLS     r0,r0,#1
        0x00001dba:    4b03        .K      LDR      r3,[pc,#12] ; [0x1dc8] = 0x40060000
        0x00001dbc:    3380        .3      ADDS     r3,r3,#0x80
        0x00001dbe:    6118        .a      STR      r0,[r3,#0x10]
        0x00001dc0:    2000        .       MOVS     r0,#0
        0x00001dc2:    4770        pG      BX       lr
    $d
        0x00001dc4:    50000200    ...P    DCD    1342177792
        0x00001dc8:    40060000    ...@    DCD    1074135040
    $t
    i.DrvUSB_InstallClassDevice
    DrvUSB_InstallClassDevice
        0x00001dcc:    4601        .F      MOV      r1,r0
        0x00001dce:    4802        .H      LDR      r0,[pc,#8] ; [0x1dd8] = 0x2000090c
        0x00001dd0:    6241        Ab      STR      r1,[r0,#0x24]
        0x00001dd2:    3880        .8      SUBS     r0,r0,#0x80
        0x00001dd4:    4770        pG      BX       lr
    $d
        0x00001dd6:    0000        ..      DCW    0
        0x00001dd8:    2000090c    ...     DCD    536873228
    $t
    i.DrvUSB_InstallCtrlHandler
    DrvUSB_InstallCtrlHandler
        0x00001ddc:    b570        p.      PUSH     {r4-r6,lr}
        0x00001dde:    4605        .F      MOV      r5,r0
        0x00001de0:    460b        .F      MOV      r3,r1
        0x00001de2:    462e        .F      MOV      r6,r5
        0x00001de4:    2a00        .*      CMP      r2,#0
        0x00001de6:    d101        ..      BNE      0x1dec ; DrvUSB_InstallCtrlHandler + 16
        0x00001de8:    2000        .       MOVS     r0,#0
        0x00001dea:    bd70        p.      POP      {r4-r6,pc}
        0x00001dec:    2b00        .+      CMP      r3,#0
        0x00001dee:    d101        ..      BNE      0x1df4 ; DrvUSB_InstallCtrlHandler + 24
        0x00001df0:    480c        .H      LDR      r0,[pc,#48] ; [0x1e24] = 0xffff9901
        0x00001df2:    e7fa        ..      B        0x1dea ; DrvUSB_InstallCtrlHandler + 14
        0x00001df4:    2084        .       MOVS     r0,#0x84
        0x00001df6:    5183        .Q      STR      r3,[r0,r6]
        0x00001df8:    2088        .       MOVS     r0,#0x88
        0x00001dfa:    5182        .Q      STR      r2,[r0,r6]
        0x00001dfc:    2400        .$      MOVS     r4,#0
        0x00001dfe:    e00d        ..      B        0x1e1c ; DrvUSB_InstallCtrlHandler + 64
        0x00001e00:    2014        .       MOVS     r0,#0x14
        0x00001e02:    4360        `C      MULS     r0,r4,r0
        0x00001e04:    18c1        ..      ADDS     r1,r0,r3
        0x00001e06:    6888        .h      LDR      r0,[r1,#8]
        0x00001e08:    2800        .(      CMP      r0,#0
        0x00001e0a:    d101        ..      BNE      0x1e10 ; DrvUSB_InstallCtrlHandler + 52
        0x00001e0c:    4806        .H      LDR      r0,[pc,#24] ; [0x1e28] = 0x1759
        0x00001e0e:    6088        .`      STR      r0,[r1,#8]
        0x00001e10:    68c8        .h      LDR      r0,[r1,#0xc]
        0x00001e12:    2800        .(      CMP      r0,#0
        0x00001e14:    d101        ..      BNE      0x1e1a ; DrvUSB_InstallCtrlHandler + 62
        0x00001e16:    4805        .H      LDR      r0,[pc,#20] ; [0x1e2c] = 0x1805
        0x00001e18:    60c8        .`      STR      r0,[r1,#0xc]
        0x00001e1a:    1c64        d.      ADDS     r4,r4,#1
        0x00001e1c:    4294        .B      CMP      r4,r2
        0x00001e1e:    d3ef        ..      BCC      0x1e00 ; DrvUSB_InstallCtrlHandler + 36
        0x00001e20:    2000        .       MOVS     r0,#0
        0x00001e22:    e7e2        ..      B        0x1dea ; DrvUSB_InstallCtrlHandler + 14
    $d
        0x00001e24:    ffff9901    ....    DCD    4294940929
        0x00001e28:    00001759    Y...    DCD    5977
        0x00001e2c:    00001805    ....    DCD    6149
    $t
    i.DrvUSB_Open
    DrvUSB_Open
        0x00001e30:    b5f8        ..      PUSH     {r3-r7,lr}
        0x00001e32:    4607        .F      MOV      r7,r0
        0x00001e34:    f7ffff88    ....    BL       DrvUSB_Init ; 0x1d48
        0x00001e38:    2f00        ./      CMP      r7,#0
        0x00001e3a:    d001        ..      BEQ      0x1e40 ; DrvUSB_Open + 16
        0x00001e3c:    485e        ^H      LDR      r0,[pc,#376] ; [0x1fb8] = 0x2000064c
        0x00001e3e:    6007        .`      STR      r7,[r0,#0]
        0x00001e40:    2100        .!      MOVS     r1,#0
        0x00001e42:    485e        ^H      LDR      r0,[pc,#376] ; [0x1fbc] = 0x2000090c
        0x00001e44:    8001        ..      STRH     r1,[r0,#0]
        0x00001e46:    8041        A.      STRH     r1,[r0,#2]
        0x00001e48:    4e5d        ]N      LDR      r6,[pc,#372] ; [0x1fc0] = 0x40060100
        0x00001e4a:    3880        .8      SUBS     r0,r0,#0x80
        0x00001e4c:    6701        .g      STR      r1,[r0,#0x70]
        0x00001e4e:    2108        .!      MOVS     r1,#8
        0x00001e50:    6741        Ag      STR      r1,[r0,#0x74]
        0x00001e52:    6786        .g      STR      r6,[r0,#0x78]
        0x00001e54:    3608        .6      ADDS     r6,r6,#8
        0x00001e56:    2400        .$      MOVS     r4,#0
        0x00001e58:    e087        ..      B        0x1f6a ; DrvUSB_Open + 314
        0x00001e5a:    2500        .%      MOVS     r5,#0
        0x00001e5c:    e010        ..      B        0x1e80 ; DrvUSB_Open + 80
        0x00001e5e:    200c        .       MOVS     r0,#0xc
        0x00001e60:    4360        `C      MULS     r0,r4,r0
        0x00001e62:    4958        XI      LDR      r1,[pc,#352] ; [0x1fc4] = 0x2000065c
        0x00001e64:    5808        .X      LDR      r0,[r1,r0]
        0x00001e66:    0702        ..      LSLS     r2,r0,#28
        0x00001e68:    0f12        ..      LSRS     r2,r2,#28
        0x00001e6a:    200c        .       MOVS     r0,#0xc
        0x00001e6c:    4368        hC      MULS     r0,r5,r0
        0x00001e6e:    4953        SI      LDR      r1,[pc,#332] ; [0x1fbc] = 0x2000090c
        0x00001e70:    3958        X9      SUBS     r1,r1,#0x58
        0x00001e72:    5808        .X      LDR      r0,[r1,r0]
        0x00001e74:    0700        ..      LSLS     r0,r0,#28
        0x00001e76:    0f00        ..      LSRS     r0,r0,#28
        0x00001e78:    4282        .B      CMP      r2,r0
        0x00001e7a:    d100        ..      BNE      0x1e7e ; DrvUSB_Open + 78
        0x00001e7c:    e002        ..      B        0x1e84 ; DrvUSB_Open + 84
        0x00001e7e:    1c6d        m.      ADDS     r5,r5,#1
        0x00001e80:    42a5        .B      CMP      r5,r4
        0x00001e82:    d3ec        ..      BCC      0x1e5e ; DrvUSB_Open + 46
        0x00001e84:    bf00        ..      NOP      
        0x00001e86:    200c        .       MOVS     r0,#0xc
        0x00001e88:    4360        `C      MULS     r0,r4,r0
        0x00001e8a:    494e        NI      LDR      r1,[pc,#312] ; [0x1fc4] = 0x2000065c
        0x00001e8c:    580a        .X      LDR      r2,[r1,r0]
        0x00001e8e:    200c        .       MOVS     r0,#0xc
        0x00001e90:    4360        `C      MULS     r0,r4,r0
        0x00001e92:    494a        JI      LDR      r1,[pc,#296] ; [0x1fbc] = 0x2000090c
        0x00001e94:    3958        X9      SUBS     r1,r1,#0x58
        0x00001e96:    500a        .P      STR      r2,[r1,r0]
        0x00001e98:    200c        .       MOVS     r0,#0xc
        0x00001e9a:    4360        `C      MULS     r0,r4,r0
        0x00001e9c:    4949        II      LDR      r1,[pc,#292] ; [0x1fc4] = 0x2000065c
        0x00001e9e:    1840        @.      ADDS     r0,r0,r1
        0x00001ea0:    6842        Bh      LDR      r2,[r0,#4]
        0x00001ea2:    200c        .       MOVS     r0,#0xc
        0x00001ea4:    4360        `C      MULS     r0,r4,r0
        0x00001ea6:    4945        EI      LDR      r1,[pc,#276] ; [0x1fbc] = 0x2000090c
        0x00001ea8:    3958        X9      SUBS     r1,r1,#0x58
        0x00001eaa:    1840        @.      ADDS     r0,r0,r1
        0x00001eac:    6042        B`      STR      r2,[r0,#4]
        0x00001eae:    200c        .       MOVS     r0,#0xc
        0x00001eb0:    4360        `C      MULS     r0,r4,r0
        0x00001eb2:    4944        DI      LDR      r1,[pc,#272] ; [0x1fc4] = 0x2000065c
        0x00001eb4:    1840        @.      ADDS     r0,r0,r1
        0x00001eb6:    6880        .h      LDR      r0,[r0,#8]
        0x00001eb8:    2800        .(      CMP      r0,#0
        0x00001eba:    d123        #.      BNE      0x1f04 ; DrvUSB_Open + 212
        0x00001ebc:    42a5        .B      CMP      r5,r4
        0x00001ebe:    d20a        ..      BCS      0x1ed6 ; DrvUSB_Open + 166
        0x00001ec0:    200c        .       MOVS     r0,#0xc
        0x00001ec2:    4368        hC      MULS     r0,r5,r0
        0x00001ec4:    493d        =I      LDR      r1,[pc,#244] ; [0x1fbc] = 0x2000090c
        0x00001ec6:    3958        X9      SUBS     r1,r1,#0x58
        0x00001ec8:    1840        @.      ADDS     r0,r0,r1
        0x00001eca:    6882        .h      LDR      r2,[r0,#8]
        0x00001ecc:    200c        .       MOVS     r0,#0xc
        0x00001ece:    4360        `C      MULS     r0,r4,r0
        0x00001ed0:    1840        @.      ADDS     r0,r0,r1
        0x00001ed2:    6082        .`      STR      r2,[r0,#8]
        0x00001ed4:    e00b        ..      B        0x1eee ; DrvUSB_Open + 190
        0x00001ed6:    200c        .       MOVS     r0,#0xc
        0x00001ed8:    4360        `C      MULS     r0,r4,r0
        0x00001eda:    4938        8I      LDR      r1,[pc,#224] ; [0x1fbc] = 0x2000090c
        0x00001edc:    3958        X9      SUBS     r1,r1,#0x58
        0x00001ede:    1840        @.      ADDS     r0,r0,r1
        0x00001ee0:    6086        .`      STR      r6,[r0,#8]
        0x00001ee2:    200c        .       MOVS     r0,#0xc
        0x00001ee4:    4360        `C      MULS     r0,r4,r0
        0x00001ee6:    4937        7I      LDR      r1,[pc,#220] ; [0x1fc4] = 0x2000065c
        0x00001ee8:    1840        @.      ADDS     r0,r0,r1
        0x00001eea:    6840        @h      LDR      r0,[r0,#4]
        0x00001eec:    1986        ..      ADDS     r6,r0,r6
        0x00001eee:    200c        .       MOVS     r0,#0xc
        0x00001ef0:    4360        `C      MULS     r0,r4,r0
        0x00001ef2:    4932        2I      LDR      r1,[pc,#200] ; [0x1fbc] = 0x2000090c
        0x00001ef4:    3958        X9      SUBS     r1,r1,#0x58
        0x00001ef6:    1840        @.      ADDS     r0,r0,r1
        0x00001ef8:    6881        .h      LDR      r1,[r0,#8]
        0x00001efa:    200c        .       MOVS     r0,#0xc
        0x00001efc:    4360        `C      MULS     r0,r4,r0
        0x00001efe:    4a31        1J      LDR      r2,[pc,#196] ; [0x1fc4] = 0x2000065c
        0x00001f00:    1880        ..      ADDS     r0,r0,r2
        0x00001f02:    6081        .`      STR      r1,[r0,#8]
        0x00001f04:    200c        .       MOVS     r0,#0xc
        0x00001f06:    4360        `C      MULS     r0,r4,r0
        0x00001f08:    492e        .I      LDR      r1,[pc,#184] ; [0x1fc4] = 0x2000065c
        0x00001f0a:    5808        .X      LDR      r0,[r1,r0]
        0x00001f0c:    06c0        ..      LSLS     r0,r0,#27
        0x00001f0e:    0ec0        ..      LSRS     r0,r0,#27
        0x00001f10:    d116        ..      BNE      0x1f40 ; DrvUSB_Open + 272
        0x00001f12:    200c        .       MOVS     r0,#0xc
        0x00001f14:    4360        `C      MULS     r0,r4,r0
        0x00001f16:    5808        .X      LDR      r0,[r1,r0]
        0x00001f18:    2180        .!      MOVS     r1,#0x80
        0x00001f1a:    4208        .B      TST      r0,r1
        0x00001f1c:    d001        ..      BEQ      0x1f22 ; DrvUSB_Open + 242
        0x00001f1e:    2040        @       MOVS     r0,#0x40
        0x00001f20:    e000        ..      B        0x1f24 ; DrvUSB_Open + 244
        0x00001f22:    2020                MOVS     r0,#0x20
        0x00001f24:    2101        .!      MOVS     r1,#1
        0x00001f26:    0249        I.      LSLS     r1,r1,#9
        0x00001f28:    4308        .C      ORRS     r0,r0,r1
        0x00001f2a:    210c        .!      MOVS     r1,#0xc
        0x00001f2c:    4361        aC      MULS     r1,r4,r1
        0x00001f2e:    4a25        %J      LDR      r2,[pc,#148] ; [0x1fc4] = 0x2000065c
        0x00001f30:    5851        QX      LDR      r1,[r2,r1]
        0x00001f32:    0709        ..      LSLS     r1,r1,#28
        0x00001f34:    0f09        ..      LSRS     r1,r1,#28
        0x00001f36:    4308        .C      ORRS     r0,r0,r1
        0x00001f38:    00a1        ..      LSLS     r1,r4,#2
        0x00001f3a:    4a23        #J      LDR      r2,[pc,#140] ; [0x1fc8] = 0x20000934
        0x00001f3c:    5050        PP      STR      r0,[r2,r1]
        0x00001f3e:    e013        ..      B        0x1f68 ; DrvUSB_Open + 312
        0x00001f40:    200c        .       MOVS     r0,#0xc
        0x00001f42:    4360        `C      MULS     r0,r4,r0
        0x00001f44:    491f        .I      LDR      r1,[pc,#124] ; [0x1fc4] = 0x2000065c
        0x00001f46:    5808        .X      LDR      r0,[r1,r0]
        0x00001f48:    2180        .!      MOVS     r1,#0x80
        0x00001f4a:    4208        .B      TST      r0,r1
        0x00001f4c:    d001        ..      BEQ      0x1f52 ; DrvUSB_Open + 290
        0x00001f4e:    2040        @       MOVS     r0,#0x40
        0x00001f50:    e000        ..      B        0x1f54 ; DrvUSB_Open + 292
        0x00001f52:    2020                MOVS     r0,#0x20
        0x00001f54:    210c        .!      MOVS     r1,#0xc
        0x00001f56:    4361        aC      MULS     r1,r4,r1
        0x00001f58:    4a1a        .J      LDR      r2,[pc,#104] ; [0x1fc4] = 0x2000065c
        0x00001f5a:    5851        QX      LDR      r1,[r2,r1]
        0x00001f5c:    0709        ..      LSLS     r1,r1,#28
        0x00001f5e:    0f09        ..      LSRS     r1,r1,#28
        0x00001f60:    4308        .C      ORRS     r0,r0,r1
        0x00001f62:    00a1        ..      LSLS     r1,r4,#2
        0x00001f64:    4a18        .J      LDR      r2,[pc,#96] ; [0x1fc8] = 0x20000934
        0x00001f66:    5050        PP      STR      r0,[r2,r1]
        0x00001f68:    1c64        d.      ADDS     r4,r4,#1
        0x00001f6a:    200c        .       MOVS     r0,#0xc
        0x00001f6c:    4360        `C      MULS     r0,r4,r0
        0x00001f6e:    4915        .I      LDR      r1,[pc,#84] ; [0x1fc4] = 0x2000065c
        0x00001f70:    1840        @.      ADDS     r0,r0,r1
        0x00001f72:    6840        @h      LDR      r0,[r0,#4]
        0x00001f74:    2800        .(      CMP      r0,#0
        0x00001f76:    d000        ..      BEQ      0x1f7a ; DrvUSB_Open + 330
        0x00001f78:    e76f        o.      B        0x1e5a ; DrvUSB_Open + 42
        0x00001f7a:    4814        .H      LDR      r0,[pc,#80] ; [0x1fcc] = 0x20000650
        0x00001f7c:    6006        .`      STR      r6,[r0,#0]
        0x00001f7e:    2000        .       MOVS     r0,#0
        0x00001f80:    490e        .I      LDR      r1,[pc,#56] ; [0x1fbc] = 0x2000090c
        0x00001f82:    3980        .9      SUBS     r1,r1,#0x80
        0x00001f84:    67c8        .g      STR      r0,[r1,#0x7c]
        0x00001f86:    4812        .H      LDR      r0,[pc,#72] ; [0x1fd0] = 0x40060000
        0x00001f88:    6940        @i      LDR      r0,[r0,#0x14]
        0x00001f8a:    07c0        ..      LSLS     r0,r0,#31
        0x00001f8c:    0fc0        ..      LSRS     r0,r0,#31
        0x00001f8e:    6088        .`      STR      r0,[r1,#8]
        0x00001f90:    4608        .F      MOV      r0,r1
        0x00001f92:    f000f95b    ..[.    BL       DrvUSB_PreDispatchFDTEvent ; 0x224c
        0x00001f96:    4809        .H      LDR      r0,[pc,#36] ; [0x1fbc] = 0x2000090c
        0x00001f98:    3880        .8      SUBS     r0,r0,#0x80
        0x00001f9a:    f7fffe4d    ..M.    BL       DrvUSB_DispatchMiscEvent ; 0x1c38
        0x00001f9e:    2102        .!      MOVS     r1,#2
        0x00001fa0:    2017        .       MOVS     r0,#0x17
        0x00001fa2:    f000fbf9    ....    BL       NVIC_SetPriority ; 0x2798
        0x00001fa6:    bf00        ..      NOP      
        0x00001fa8:    2017        .       MOVS     r0,#0x17
        0x00001faa:    2101        .!      MOVS     r1,#1
        0x00001fac:    4081        .@      LSLS     r1,r1,r0
        0x00001fae:    4809        .H      LDR      r0,[pc,#36] ; [0x1fd4] = 0xe000e100
        0x00001fb0:    6001        .`      STR      r1,[r0,#0]
        0x00001fb2:    bf00        ..      NOP      
        0x00001fb4:    2000        .       MOVS     r0,#0
        0x00001fb6:    bdf8        ..      POP      {r3-r7,pc}
    $d
        0x00001fb8:    2000064c    L..     DCD    536872524
        0x00001fbc:    2000090c    ...     DCD    536873228
        0x00001fc0:    40060100    ...@    DCD    1074135296
        0x00001fc4:    2000065c    \..     DCD    536872540
        0x00001fc8:    20000934    4..     DCD    536873268
        0x00001fcc:    20000650    P..     DCD    536872528
        0x00001fd0:    40060000    ...@    DCD    1074135040
        0x00001fd4:    e000e100    ....    DCD    3758153984
    $t
    i.DrvUSB_PreDispatchBusEvent
    DrvUSB_PreDispatchBusEvent
        0x00001fd8:    6801        .h      LDR      r1,[r0,#0]
        0x00001fda:    6fc2        .o      LDR      r2,[r0,#0x7c]
        0x00001fdc:    2a00        .*      CMP      r2,#0
        0x00001fde:    d100        ..      BNE      0x1fe2 ; DrvUSB_PreDispatchBusEvent + 10
        0x00001fe0:    4770        pG      BX       lr
        0x00001fe2:    07ca        ..      LSLS     r2,r1,#31
        0x00001fe4:    0fd2        ..      LSRS     r2,r2,#31
        0x00001fe6:    d00c        ..      BEQ      0x2002 ; DrvUSB_PreDispatchBusEvent + 42
        0x00001fe8:    227d        }"      MOVS     r2,#0x7d
        0x00001fea:    0112        ..      LSLS     r2,r2,#4
        0x00001fec:    4b1a        .K      LDR      r3,[pc,#104] ; [0x2058] = 0x40060000
        0x00001fee:    611a        .a      STR      r2,[r3,#0x10]
        0x00001ff0:    2207        ."      MOVS     r2,#7
        0x00001ff2:    67c2        .g      STR      r2,[r0,#0x7c]
        0x00001ff4:    2280        ."      MOVS     r2,#0x80
        0x00001ff6:    5a12        .Z      LDRH     r2,[r2,r0]
        0x00001ff8:    2304        .#      MOVS     r3,#4
        0x00001ffa:    431a        .C      ORRS     r2,r2,r3
        0x00001ffc:    2380        .#      MOVS     r3,#0x80
        0x00001ffe:    521a        .R      STRH     r2,[r3,r0]
        0x00002000:    e028        (.      B        0x2054 ; DrvUSB_PreDispatchBusEvent + 124
        0x00002002:    2202        ."      MOVS     r2,#2
        0x00002004:    4211        .B      TST      r1,r2
        0x00002006:    d011        ..      BEQ      0x202c ; DrvUSB_PreDispatchBusEvent + 84
        0x00002008:    221f        ."      MOVS     r2,#0x1f
        0x0000200a:    0192        ..      LSLS     r2,r2,#6
        0x0000200c:    4b12        .K      LDR      r3,[pc,#72] ; [0x2058] = 0x40060000
        0x0000200e:    611a        .a      STR      r2,[r3,#0x10]
        0x00002010:    6fc2        .o      LDR      r2,[r0,#0x7c]
        0x00002012:    2a01        .*      CMP      r2,#1
        0x00002014:    db03        ..      BLT      0x201e ; DrvUSB_PreDispatchBusEvent + 70
        0x00002016:    2320         #      MOVS     r3,#0x20
        0x00002018:    6fc2        .o      LDR      r2,[r0,#0x7c]
        0x0000201a:    431a        .C      ORRS     r2,r2,r3
        0x0000201c:    67c2        .g      STR      r2,[r0,#0x7c]
        0x0000201e:    2280        ."      MOVS     r2,#0x80
        0x00002020:    5a12        .Z      LDRH     r2,[r2,r0]
        0x00002022:    2308        .#      MOVS     r3,#8
        0x00002024:    431a        .C      ORRS     r2,r2,r3
        0x00002026:    2380        .#      MOVS     r3,#0x80
        0x00002028:    521a        .R      STRH     r2,[r3,r0]
        0x0000202a:    e013        ..      B        0x2054 ; DrvUSB_PreDispatchBusEvent + 124
        0x0000202c:    2204        ."      MOVS     r2,#4
        0x0000202e:    4211        .B      TST      r1,r2
        0x00002030:    d010        ..      BEQ      0x2054 ; DrvUSB_PreDispatchBusEvent + 124
        0x00002032:    227d        }"      MOVS     r2,#0x7d
        0x00002034:    0112        ..      LSLS     r2,r2,#4
        0x00002036:    4b08        .K      LDR      r3,[pc,#32] ; [0x2058] = 0x40060000
        0x00002038:    611a        .a      STR      r2,[r3,#0x10]
        0x0000203a:    6fc2        .o      LDR      r2,[r0,#0x7c]
        0x0000203c:    2a01        .*      CMP      r2,#1
        0x0000203e:    db03        ..      BLT      0x2048 ; DrvUSB_PreDispatchBusEvent + 112
        0x00002040:    2320         #      MOVS     r3,#0x20
        0x00002042:    6fc2        .o      LDR      r2,[r0,#0x7c]
        0x00002044:    439a        .C      BICS     r2,r2,r3
        0x00002046:    67c2        .g      STR      r2,[r0,#0x7c]
        0x00002048:    2280        ."      MOVS     r2,#0x80
        0x0000204a:    5a12        .Z      LDRH     r2,[r2,r0]
        0x0000204c:    2310        .#      MOVS     r3,#0x10
        0x0000204e:    431a        .C      ORRS     r2,r2,r3
        0x00002050:    2380        .#      MOVS     r3,#0x80
        0x00002052:    521a        .R      STRH     r2,[r3,r0]
        0x00002054:    bf00        ..      NOP      
        0x00002056:    e7c3        ..      B        0x1fe0 ; DrvUSB_PreDispatchBusEvent + 8
    $d
        0x00002058:    40060000    ...@    DCD    1074135040
    $t
    i.DrvUSB_PreDispatchEPEvent
    DrvUSB_PreDispatchEPEvent
        0x0000205c:    b5f0        ..      PUSH     {r4-r7,lr}
        0x0000205e:    b085        ..      SUB      sp,sp,#0x14
        0x00002060:    4604        .F      MOV      r4,r0
        0x00002062:    68e0        .h      LDR      r0,[r4,#0xc]
        0x00002064:    9003        ..      STR      r0,[sp,#0xc]
        0x00002066:    6860        `h      LDR      r0,[r4,#4]
        0x00002068:    9002        ..      STR      r0,[sp,#8]
        0x0000206a:    6fe0        .o      LDR      r0,[r4,#0x7c]
        0x0000206c:    2800        .(      CMP      r0,#0
        0x0000206e:    d101        ..      BNE      0x2074 ; DrvUSB_PreDispatchEPEvent + 24
        0x00002070:    b005        ..      ADD      sp,sp,#0x14
        0x00002072:    bdf0        ..      POP      {r4-r7,pc}
        0x00002074:    4950        PI      LDR      r1,[pc,#320] ; [0x21b8] = 0x803f0000
        0x00002076:    9803        ..      LDR      r0,[sp,#0xc]
        0x00002078:    4008        .@      ANDS     r0,r0,r1
        0x0000207a:    9003        ..      STR      r0,[sp,#0xc]
        0x0000207c:    9803        ..      LDR      r0,[sp,#0xc]
        0x0000207e:    0fc0        ..      LSRS     r0,r0,#31
        0x00002080:    07c0        ..      LSLS     r0,r0,#31
        0x00002082:    d00a        ..      BEQ      0x209a ; DrvUSB_PreDispatchEPEvent + 62
        0x00002084:    2080        .       MOVS     r0,#0x80
        0x00002086:    5b00        .[      LDRH     r0,[r0,r4]
        0x00002088:    2120         !      MOVS     r1,#0x20
        0x0000208a:    4308        .C      ORRS     r0,r0,r1
        0x0000208c:    2180        .!      MOVS     r1,#0x80
        0x0000208e:    5308        .S      STRH     r0,[r1,r4]
        0x00002090:    0608        ..      LSLS     r0,r1,#24
        0x00002092:    494a        JI      LDR      r1,[pc,#296] ; [0x21bc] = 0x40060000
        0x00002094:    6048        H`      STR      r0,[r1,#4]
        0x00002096:    2001        .       MOVS     r0,#1
        0x00002098:    6120         a      STR      r0,[r4,#0x10]
        0x0000209a:    4848        HH      LDR      r0,[pc,#288] ; [0x21bc] = 0x40060000
        0x0000209c:    6840        @h      LDR      r0,[r0,#4]
        0x0000209e:    9003        ..      STR      r0,[sp,#0xc]
        0x000020a0:    21ff        .!      MOVS     r1,#0xff
        0x000020a2:    0409        ..      LSLS     r1,r1,#16
        0x000020a4:    9803        ..      LDR      r0,[sp,#0xc]
        0x000020a6:    4008        .@      ANDS     r0,r0,r1
        0x000020a8:    4944        DI      LDR      r1,[pc,#272] ; [0x21bc] = 0x40060000
        0x000020aa:    6048        H`      STR      r0,[r1,#4]
        0x000020ac:    2010        .       MOVS     r0,#0x10
        0x000020ae:    9000        ..      STR      r0,[sp,#0]
        0x000020b0:    e07c        |.      B        0x21ac ; DrvUSB_PreDispatchEPEvent + 336
        0x000020b2:    2001        .       MOVS     r0,#1
        0x000020b4:    9900        ..      LDR      r1,[sp,#0]
        0x000020b6:    4088        .@      LSLS     r0,r0,r1
        0x000020b8:    9903        ..      LDR      r1,[sp,#0xc]
        0x000020ba:    4208        .B      TST      r0,r1
        0x000020bc:    d073        s.      BEQ      0x21a6 ; DrvUSB_PreDispatchEPEvent + 330
        0x000020be:    9800        ..      LDR      r0,[sp,#0]
        0x000020c0:    4606        .F      MOV      r6,r0
        0x000020c2:    3e10        .>      SUBS     r6,r6,#0x10
        0x000020c4:    0130        0.      LSLS     r0,r6,#4
        0x000020c6:    493d        =I      LDR      r1,[pc,#244] ; [0x21bc] = 0x40060000
        0x000020c8:    1840        @.      ADDS     r0,r0,r1
        0x000020ca:    6a80        .j      LDR      r0,[r0,#0x28]
        0x000020cc:    0705        ..      LSLS     r5,r0,#28
        0x000020ce:    0f2d        -.      LSRS     r5,r5,#28
        0x000020d0:    0070        p.      LSLS     r0,r6,#1
        0x000020d2:    1831        1.      ADDS     r1,r6,r0
        0x000020d4:    1d09        ..      ADDS     r1,r1,#4
        0x000020d6:    9802        ..      LDR      r0,[sp,#8]
        0x000020d8:    40c8        .@      LSRS     r0,r0,r1
        0x000020da:    2170        p!      MOVS     r1,#0x70
        0x000020dc:    4607        .F      MOV      r7,r0
        0x000020de:    400f        .@      ANDS     r7,r7,r1
        0x000020e0:    2f00        ./      CMP      r7,#0
        0x000020e2:    d109        ..      BNE      0x20f8 ; DrvUSB_PreDispatchEPEvent + 156
        0x000020e4:    2082        .       MOVS     r0,#0x82
        0x000020e6:    5b00        .[      LDRH     r0,[r0,r4]
        0x000020e8:    006a        j.      LSLS     r2,r5,#1
        0x000020ea:    2101        .!      MOVS     r1,#1
        0x000020ec:    4091        .@      LSLS     r1,r1,r2
        0x000020ee:    4308        .C      ORRS     r0,r0,r1
        0x000020f0:    b281        ..      UXTH     r1,r0
        0x000020f2:    2082        .       MOVS     r0,#0x82
        0x000020f4:    5301        .S      STRH     r1,[r0,r4]
        0x000020f6:    e056        V.      B        0x21a6 ; DrvUSB_PreDispatchEPEvent + 330
        0x000020f8:    2f20         /      CMP      r7,#0x20
        0x000020fa:    d10f        ..      BNE      0x211c ; DrvUSB_PreDispatchEPEvent + 192
        0x000020fc:    2082        .       MOVS     r0,#0x82
        0x000020fe:    5b00        .[      LDRH     r0,[r0,r4]
        0x00002100:    0069        i.      LSLS     r1,r5,#1
        0x00002102:    1c49        I.      ADDS     r1,r1,#1
        0x00002104:    2201        ."      MOVS     r2,#1
        0x00002106:    408a        .@      LSLS     r2,r2,r1
        0x00002108:    4310        .C      ORRS     r0,r0,r2
        0x0000210a:    b281        ..      UXTH     r1,r0
        0x0000210c:    2082        .       MOVS     r0,#0x82
        0x0000210e:    5301        .S      STRH     r1,[r0,r4]
        0x00002110:    2101        .!      MOVS     r1,#1
        0x00002112:    00b2        ..      LSLS     r2,r6,#2
        0x00002114:    4620         F      MOV      r0,r4
        0x00002116:    3010        .0      ADDS     r0,r0,#0x10
        0x00002118:    5081        .P      STR      r1,[r0,r2]
        0x0000211a:    e044        D.      B        0x21a6 ; DrvUSB_PreDispatchEPEvent + 330
        0x0000211c:    2f60        `/      CMP      r7,#0x60
        0x0000211e:    d10f        ..      BNE      0x2140 ; DrvUSB_PreDispatchEPEvent + 228
        0x00002120:    2082        .       MOVS     r0,#0x82
        0x00002122:    5b00        .[      LDRH     r0,[r0,r4]
        0x00002124:    0069        i.      LSLS     r1,r5,#1
        0x00002126:    1c49        I.      ADDS     r1,r1,#1
        0x00002128:    2201        ."      MOVS     r2,#1
        0x0000212a:    408a        .@      LSLS     r2,r2,r1
        0x0000212c:    4310        .C      ORRS     r0,r0,r2
        0x0000212e:    b281        ..      UXTH     r1,r0
        0x00002130:    2082        .       MOVS     r0,#0x82
        0x00002132:    5301        .S      STRH     r1,[r0,r4]
        0x00002134:    2100        .!      MOVS     r1,#0
        0x00002136:    00b2        ..      LSLS     r2,r6,#2
        0x00002138:    4620         F      MOV      r0,r4
        0x0000213a:    3010        .0      ADDS     r0,r0,#0x10
        0x0000213c:    5081        .P      STR      r1,[r0,r2]
        0x0000213e:    e032        2.      B        0x21a6 ; DrvUSB_PreDispatchEPEvent + 330
        0x00002140:    2f70        p/      CMP      r7,#0x70
        0x00002142:    d130        0.      BNE      0x21a6 ; DrvUSB_PreDispatchEPEvent + 330
        0x00002144:    0130        0.      LSLS     r0,r6,#4
        0x00002146:    491d        .I      LDR      r1,[pc,#116] ; [0x21bc] = 0x40060000
        0x00002148:    1840        @.      ADDS     r0,r0,r1
        0x0000214a:    6a80        .j      LDR      r0,[r0,#0x28]
        0x0000214c:    2160        `!      MOVS     r1,#0x60
        0x0000214e:    4008        .@      ANDS     r0,r0,r1
        0x00002150:    9001        ..      STR      r0,[sp,#4]
        0x00002152:    2100        .!      MOVS     r1,#0
        0x00002154:    00b2        ..      LSLS     r2,r6,#2
        0x00002156:    4620         F      MOV      r0,r4
        0x00002158:    3010        .0      ADDS     r0,r0,#0x10
        0x0000215a:    5081        .P      STR      r1,[r0,r2]
        0x0000215c:    9801        ..      LDR      r0,[sp,#4]
        0x0000215e:    2820         (      CMP      r0,#0x20
        0x00002160:    d112        ..      BNE      0x2188 ; DrvUSB_PreDispatchEPEvent + 300
        0x00002162:    0068        h.      LSLS     r0,r5,#1
        0x00002164:    1c40        @.      ADDS     r0,r0,#1
        0x00002166:    00c0        ..      LSLS     r0,r0,#3
        0x00002168:    4915        .I      LDR      r1,[pc,#84] ; [0x21c0] = 0x200006d4
        0x0000216a:    5808        .X      LDR      r0,[r1,r0]
        0x0000216c:    2800        .(      CMP      r0,#0
        0x0000216e:    d01a        ..      BEQ      0x21a6 ; DrvUSB_PreDispatchEPEvent + 330
        0x00002170:    006a        j.      LSLS     r2,r5,#1
        0x00002172:    1c52        R.      ADDS     r2,r2,#1
        0x00002174:    00d2        ..      LSLS     r2,r2,#3
        0x00002176:    460b        .F      MOV      r3,r1
        0x00002178:    18d2        ..      ADDS     r2,r2,r3
        0x0000217a:    6850        Ph      LDR      r0,[r2,#4]
        0x0000217c:    006a        j.      LSLS     r2,r5,#1
        0x0000217e:    1c52        R.      ADDS     r2,r2,#1
        0x00002180:    00d2        ..      LSLS     r2,r2,#3
        0x00002182:    5899        .X      LDR      r1,[r3,r2]
        0x00002184:    4788        .G      BLX      r1
        0x00002186:    e00e        ..      B        0x21a6 ; DrvUSB_PreDispatchEPEvent + 330
        0x00002188:    9801        ..      LDR      r0,[sp,#4]
        0x0000218a:    2840        @(      CMP      r0,#0x40
        0x0000218c:    d10b        ..      BNE      0x21a6 ; DrvUSB_PreDispatchEPEvent + 330
        0x0000218e:    0128        (.      LSLS     r0,r5,#4
        0x00002190:    490b        .I      LDR      r1,[pc,#44] ; [0x21c0] = 0x200006d4
        0x00002192:    5808        .X      LDR      r0,[r1,r0]
        0x00002194:    2800        .(      CMP      r0,#0
        0x00002196:    d006        ..      BEQ      0x21a6 ; DrvUSB_PreDispatchEPEvent + 330
        0x00002198:    012a        *.      LSLS     r2,r5,#4
        0x0000219a:    460b        .F      MOV      r3,r1
        0x0000219c:    18d2        ..      ADDS     r2,r2,r3
        0x0000219e:    6850        Ph      LDR      r0,[r2,#4]
        0x000021a0:    012a        *.      LSLS     r2,r5,#4
        0x000021a2:    5899        .X      LDR      r1,[r3,r2]
        0x000021a4:    4788        .G      BLX      r1
        0x000021a6:    9800        ..      LDR      r0,[sp,#0]
        0x000021a8:    1c40        @.      ADDS     r0,r0,#1
        0x000021aa:    9000        ..      STR      r0,[sp,#0]
        0x000021ac:    9800        ..      LDR      r0,[sp,#0]
        0x000021ae:    2816        .(      CMP      r0,#0x16
        0x000021b0:    da00        ..      BGE      0x21b4 ; DrvUSB_PreDispatchEPEvent + 344
        0x000021b2:    e77e        ~.      B        0x20b2 ; DrvUSB_PreDispatchEPEvent + 86
        0x000021b4:    bf00        ..      NOP      
        0x000021b6:    e75b        [.      B        0x2070 ; DrvUSB_PreDispatchEPEvent + 20
    $d
        0x000021b8:    803f0000    ..?.    DCD    2151612416
        0x000021bc:    40060000    ...@    DCD    1074135040
        0x000021c0:    200006d4    ...     DCD    536872660
    $t
    i.DrvUSB_PreDispatchEvent
    DrvUSB_PreDispatchEvent
        0x000021c4:    b510        ..      PUSH     {r4,lr}
        0x000021c6:    481f        .H      LDR      r0,[pc,#124] ; [0x2244] = 0x40060000
        0x000021c8:    6840        @h      LDR      r0,[r0,#4]
        0x000021ca:    491f        .I      LDR      r1,[pc,#124] ; [0x2248] = 0x2000088c
        0x000021cc:    60c8        .`      STR      r0,[r1,#0xc]
        0x000021ce:    4608        .F      MOV      r0,r1
        0x000021d0:    68c0        .h      LDR      r0,[r0,#0xc]
        0x000021d2:    2108        .!      MOVS     r1,#8
        0x000021d4:    4208        .B      TST      r0,r1
        0x000021d6:    d006        ..      BEQ      0x21e6 ; DrvUSB_PreDispatchEvent + 34
        0x000021d8:    2008        .       MOVS     r0,#8
        0x000021da:    491a        .I      LDR      r1,[pc,#104] ; [0x2244] = 0x40060000
        0x000021dc:    6048        H`      STR      r0,[r1,#4]
        0x000021de:    481a        .H      LDR      r0,[pc,#104] ; [0x2248] = 0x2000088c
        0x000021e0:    f000f855    ..U.    BL       DrvUSB_PreDispatchWakeupEvent ; 0x228e
        0x000021e4:    e02d        -.      B        0x2242 ; DrvUSB_PreDispatchEvent + 126
        0x000021e6:    4818        .H      LDR      r0,[pc,#96] ; [0x2248] = 0x2000088c
        0x000021e8:    68c0        .h      LDR      r0,[r0,#0xc]
        0x000021ea:    2104        .!      MOVS     r1,#4
        0x000021ec:    4208        .B      TST      r0,r1
        0x000021ee:    d00c        ..      BEQ      0x220a ; DrvUSB_PreDispatchEvent + 70
        0x000021f0:    4814        .H      LDR      r0,[pc,#80] ; [0x2244] = 0x40060000
        0x000021f2:    6940        @i      LDR      r0,[r0,#0x14]
        0x000021f4:    07c0        ..      LSLS     r0,r0,#31
        0x000021f6:    0fc0        ..      LSRS     r0,r0,#31
        0x000021f8:    4913        .I      LDR      r1,[pc,#76] ; [0x2248] = 0x2000088c
        0x000021fa:    6088        .`      STR      r0,[r1,#8]
        0x000021fc:    2004        .       MOVS     r0,#4
        0x000021fe:    4911        .I      LDR      r1,[pc,#68] ; [0x2244] = 0x40060000
        0x00002200:    6048        H`      STR      r0,[r1,#4]
        0x00002202:    4811        .H      LDR      r0,[pc,#68] ; [0x2248] = 0x2000088c
        0x00002204:    f000f822    ..".    BL       DrvUSB_PreDispatchFDTEvent ; 0x224c
        0x00002208:    e01b        ..      B        0x2242 ; DrvUSB_PreDispatchEvent + 126
        0x0000220a:    480f        .H      LDR      r0,[pc,#60] ; [0x2248] = 0x2000088c
        0x0000220c:    68c0        .h      LDR      r0,[r0,#0xc]
        0x0000220e:    07c0        ..      LSLS     r0,r0,#31
        0x00002210:    0fc0        ..      LSRS     r0,r0,#31
        0x00002212:    d00a        ..      BEQ      0x222a ; DrvUSB_PreDispatchEvent + 102
        0x00002214:    480b        .H      LDR      r0,[pc,#44] ; [0x2244] = 0x40060000
        0x00002216:    6900        .i      LDR      r0,[r0,#0x10]
        0x00002218:    490b        .I      LDR      r1,[pc,#44] ; [0x2248] = 0x2000088c
        0x0000221a:    6008        .`      STR      r0,[r1,#0]
        0x0000221c:    2001        .       MOVS     r0,#1
        0x0000221e:    4909        .I      LDR      r1,[pc,#36] ; [0x2244] = 0x40060000
        0x00002220:    6048        H`      STR      r0,[r1,#4]
        0x00002222:    4809        .H      LDR      r0,[pc,#36] ; [0x2248] = 0x2000088c
        0x00002224:    f7fffed8    ....    BL       DrvUSB_PreDispatchBusEvent ; 0x1fd8
        0x00002228:    e00b        ..      B        0x2242 ; DrvUSB_PreDispatchEvent + 126
        0x0000222a:    4807        .H      LDR      r0,[pc,#28] ; [0x2248] = 0x2000088c
        0x0000222c:    68c0        .h      LDR      r0,[r0,#0xc]
        0x0000222e:    2102        .!      MOVS     r1,#2
        0x00002230:    4208        .B      TST      r0,r1
        0x00002232:    d006        ..      BEQ      0x2242 ; DrvUSB_PreDispatchEvent + 126
        0x00002234:    4803        .H      LDR      r0,[pc,#12] ; [0x2244] = 0x40060000
        0x00002236:    68c0        .h      LDR      r0,[r0,#0xc]
        0x00002238:    4903        .I      LDR      r1,[pc,#12] ; [0x2248] = 0x2000088c
        0x0000223a:    6048        H`      STR      r0,[r1,#4]
        0x0000223c:    4608        .F      MOV      r0,r1
        0x0000223e:    f7ffff0d    ....    BL       DrvUSB_PreDispatchEPEvent ; 0x205c
        0x00002242:    bd10        ..      POP      {r4,pc}
    $d
        0x00002244:    40060000    ...@    DCD    1074135040
        0x00002248:    2000088c    ...     DCD    536873100
    $t
    i.DrvUSB_PreDispatchFDTEvent
    DrvUSB_PreDispatchFDTEvent
        0x0000224c:    b510        ..      PUSH     {r4,lr}
        0x0000224e:    4603        .F      MOV      r3,r0
        0x00002250:    689c        .h      LDR      r4,[r3,#8]
        0x00002252:    07e0        ..      LSLS     r0,r4,#31
        0x00002254:    0fc0        ..      LSRS     r0,r0,#31
        0x00002256:    d00e        ..      BEQ      0x2276 ; DrvUSB_PreDispatchFDTEvent + 42
        0x00002258:    6fd8        .o      LDR      r0,[r3,#0x7c]
        0x0000225a:    2800        .(      CMP      r0,#0
        0x0000225c:    d104        ..      BNE      0x2268 ; DrvUSB_PreDispatchFDTEvent + 28
        0x0000225e:    2001        .       MOVS     r0,#1
        0x00002260:    67d8        .g      STR      r0,[r3,#0x7c]
        0x00002262:    4618        .F      MOV      r0,r3
        0x00002264:    f7fffd12    ....    BL       DrvUSB_EnableUsb ; 0x1c8c
        0x00002268:    2080        .       MOVS     r0,#0x80
        0x0000226a:    5ac0        .Z      LDRH     r0,[r0,r3]
        0x0000226c:    2101        .!      MOVS     r1,#1
        0x0000226e:    4308        .C      ORRS     r0,r0,r1
        0x00002270:    2180        .!      MOVS     r1,#0x80
        0x00002272:    52c8        .R      STRH     r0,[r1,r3]
        0x00002274:    e00a        ..      B        0x228c ; DrvUSB_PreDispatchFDTEvent + 64
        0x00002276:    2000        .       MOVS     r0,#0
        0x00002278:    67d8        .g      STR      r0,[r3,#0x7c]
        0x0000227a:    4618        .F      MOV      r0,r3
        0x0000227c:    f7fffca6    ....    BL       DrvUSB_DisableUsb ; 0x1bcc
        0x00002280:    2080        .       MOVS     r0,#0x80
        0x00002282:    5ac0        .Z      LDRH     r0,[r0,r3]
        0x00002284:    2102        .!      MOVS     r1,#2
        0x00002286:    4308        .C      ORRS     r0,r0,r1
        0x00002288:    2180        .!      MOVS     r1,#0x80
        0x0000228a:    52c8        .R      STRH     r0,[r1,r3]
        0x0000228c:    bd10        ..      POP      {r4,pc}
    i.DrvUSB_PreDispatchWakeupEvent
    DrvUSB_PreDispatchWakeupEvent
        0x0000228e:    4770        pG      BX       lr
    i.DrvUSB_SetUsbState
    DrvUSB_SetUsbState
        0x00002290:    4901        .I      LDR      r1,[pc,#4] ; [0x2298] = 0x2000088c
        0x00002292:    67c8        .g      STR      r0,[r1,#0x7c]
        0x00002294:    4770        pG      BX       lr
    $d
        0x00002296:    0000        ..      DCW    0
        0x00002298:    2000088c    ...     DCD    536873100
    $t
    i.EINT0_IRQHandler
    EINT0_IRQHandler
        0x0000229c:    b510        ..      PUSH     {r4,lr}
        0x0000229e:    2001        .       MOVS     r0,#1
        0x000022a0:    0380        ..      LSLS     r0,r0,#14
        0x000022a2:    4905        .I      LDR      r1,[pc,#20] ; [0x22b8] = 0x50004040
        0x000022a4:    6208        .b      STR      r0,[r1,#0x20]
        0x000022a6:    4805        .H      LDR      r0,[pc,#20] ; [0x22bc] = 0x20000630
        0x000022a8:    6800        .h      LDR      r0,[r0,#0]
        0x000022aa:    2800        .(      CMP      r0,#0
        0x000022ac:    d002        ..      BEQ      0x22b4 ; EINT0_IRQHandler + 24
        0x000022ae:    4803        .H      LDR      r0,[pc,#12] ; [0x22bc] = 0x20000630
        0x000022b0:    6800        .h      LDR      r0,[r0,#0]
        0x000022b2:    4780        .G      BLX      r0
        0x000022b4:    bd10        ..      POP      {r4,pc}
    $d
        0x000022b6:    0000        ..      DCW    0
        0x000022b8:    50004040    @@.P    DCD    1342193728
        0x000022bc:    20000630    0..     DCD    536872496
    $t
    i.EINT1_IRQHandler
    EINT1_IRQHandler
        0x000022c0:    b510        ..      PUSH     {r4,lr}
        0x000022c2:    2001        .       MOVS     r0,#1
        0x000022c4:    03c0        ..      LSLS     r0,r0,#15
        0x000022c6:    4905        .I      LDR      r1,[pc,#20] ; [0x22dc] = 0x50004040
        0x000022c8:    6208        .b      STR      r0,[r1,#0x20]
        0x000022ca:    4805        .H      LDR      r0,[pc,#20] ; [0x22e0] = 0x20000634
        0x000022cc:    6800        .h      LDR      r0,[r0,#0]
        0x000022ce:    2800        .(      CMP      r0,#0
        0x000022d0:    d002        ..      BEQ      0x22d8 ; EINT1_IRQHandler + 24
        0x000022d2:    4803        .H      LDR      r0,[pc,#12] ; [0x22e0] = 0x20000634
        0x000022d4:    6800        .h      LDR      r0,[r0,#0]
        0x000022d6:    4780        .G      BLX      r0
        0x000022d8:    bd10        ..      POP      {r4,pc}
    $d
        0x000022da:    0000        ..      DCW    0
        0x000022dc:    50004040    @@.P    DCD    1342193728
        0x000022e0:    20000634    4..     DCD    536872500
    $t
    i.GPAB_IRQHandler
    GPAB_IRQHandler
        0x000022e4:    b570        p.      PUSH     {r4-r6,lr}
        0x000022e6:    480c        .H      LDR      r0,[pc,#48] ; [0x2318] = 0x50004000
        0x000022e8:    6a05        .j      LDR      r5,[r0,#0x20]
        0x000022ea:    480b        .H      LDR      r0,[pc,#44] ; [0x2318] = 0x50004000
        0x000022ec:    3040        @0      ADDS     r0,r0,#0x40
        0x000022ee:    6a04        .j      LDR      r4,[r0,#0x20]
        0x000022f0:    2103        .!      MOVS     r1,#3
        0x000022f2:    0389        ..      LSLS     r1,r1,#14
        0x000022f4:    4620         F      MOV      r0,r4
        0x000022f6:    4388        .C      BICS     r0,r0,r1
        0x000022f8:    4604        .F      MOV      r4,r0
        0x000022fa:    4807        .H      LDR      r0,[pc,#28] ; [0x2318] = 0x50004000
        0x000022fc:    6205        .b      STR      r5,[r0,#0x20]
        0x000022fe:    4806        .H      LDR      r0,[pc,#24] ; [0x2318] = 0x50004000
        0x00002300:    3040        @0      ADDS     r0,r0,#0x40
        0x00002302:    6204        .b      STR      r4,[r0,#0x20]
        0x00002304:    4805        .H      LDR      r0,[pc,#20] ; [0x231c] = 0x20000628
        0x00002306:    6800        .h      LDR      r0,[r0,#0]
        0x00002308:    2800        .(      CMP      r0,#0
        0x0000230a:    d004        ..      BEQ      0x2316 ; GPAB_IRQHandler + 50
        0x0000230c:    4621        !F      MOV      r1,r4
        0x0000230e:    4628        (F      MOV      r0,r5
        0x00002310:    4a02        .J      LDR      r2,[pc,#8] ; [0x231c] = 0x20000628
        0x00002312:    6812        .h      LDR      r2,[r2,#0]
        0x00002314:    4790        .G      BLX      r2
        0x00002316:    bd70        p.      POP      {r4-r6,pc}
    $d
        0x00002318:    50004000    .@.P    DCD    1342193664
        0x0000231c:    20000628    (..     DCD    536872488
    $t
    i.GPCDE_IRQHandler
    GPCDE_IRQHandler
        0x00002320:    b570        p.      PUSH     {r4-r6,lr}
        0x00002322:    480d        .H      LDR      r0,[pc,#52] ; [0x2358] = 0x50004080
        0x00002324:    6a04        .j      LDR      r4,[r0,#0x20]
        0x00002326:    480c        .H      LDR      r0,[pc,#48] ; [0x2358] = 0x50004080
        0x00002328:    3040        @0      ADDS     r0,r0,#0x40
        0x0000232a:    6a05        .j      LDR      r5,[r0,#0x20]
        0x0000232c:    480a        .H      LDR      r0,[pc,#40] ; [0x2358] = 0x50004080
        0x0000232e:    3080        .0      ADDS     r0,r0,#0x80
        0x00002330:    6a06        .j      LDR      r6,[r0,#0x20]
        0x00002332:    4809        .H      LDR      r0,[pc,#36] ; [0x2358] = 0x50004080
        0x00002334:    6204        .b      STR      r4,[r0,#0x20]
        0x00002336:    4808        .H      LDR      r0,[pc,#32] ; [0x2358] = 0x50004080
        0x00002338:    3040        @0      ADDS     r0,r0,#0x40
        0x0000233a:    6205        .b      STR      r5,[r0,#0x20]
        0x0000233c:    4806        .H      LDR      r0,[pc,#24] ; [0x2358] = 0x50004080
        0x0000233e:    3080        .0      ADDS     r0,r0,#0x80
        0x00002340:    6206        .b      STR      r6,[r0,#0x20]
        0x00002342:    4806        .H      LDR      r0,[pc,#24] ; [0x235c] = 0x2000062c
        0x00002344:    6800        .h      LDR      r0,[r0,#0]
        0x00002346:    2800        .(      CMP      r0,#0
        0x00002348:    d005        ..      BEQ      0x2356 ; GPCDE_IRQHandler + 54
        0x0000234a:    4632        2F      MOV      r2,r6
        0x0000234c:    4629        )F      MOV      r1,r5
        0x0000234e:    4620         F      MOV      r0,r4
        0x00002350:    4b02        .K      LDR      r3,[pc,#8] ; [0x235c] = 0x2000062c
        0x00002352:    681b        .h      LDR      r3,[r3,#0]
        0x00002354:    4798        .G      BLX      r3
        0x00002356:    bd70        p.      POP      {r4-r6,pc}
    $d
        0x00002358:    50004080    .@.P    DCD    1342193792
        0x0000235c:    2000062c    ,..     DCD    536872492
    $t
    i.GetUartClk
    GetUartClk
        0x00002360:    b570        p.      PUSH     {r4-r6,lr}
        0x00002362:    2500        .%      MOVS     r5,#0
        0x00002364:    480e        .H      LDR      r0,[pc,#56] ; [0x23a0] = 0x50000200
        0x00002366:    6940        @i      LDR      r0,[r0,#0x14]
        0x00002368:    0180        ..      LSLS     r0,r0,#6
        0x0000236a:    0f80        ..      LSRS     r0,r0,#30
        0x0000236c:    d103        ..      BNE      0x2376 ; GetUartClk + 22
        0x0000236e:    f7fefea3    ....    BL       DrvSYS_GetExtClockFreq ; 0x10b8
        0x00002372:    4605        .F      MOV      r5,r0
        0x00002374:    e012        ..      B        0x239c ; GetUartClk + 60
        0x00002376:    480a        .H      LDR      r0,[pc,#40] ; [0x23a0] = 0x50000200
        0x00002378:    6940        @i      LDR      r0,[r0,#0x14]
        0x0000237a:    0180        ..      LSLS     r0,r0,#6
        0x0000237c:    0f80        ..      LSRS     r0,r0,#30
        0x0000237e:    2801        .(      CMP      r0,#1
        0x00002380:    d10b        ..      BNE      0x239a ; GetUartClk + 58
        0x00002382:    4807        .H      LDR      r0,[pc,#28] ; [0x23a0] = 0x50000200
        0x00002384:    6980        .i      LDR      r0,[r0,#0x18]
        0x00002386:    0500        ..      LSLS     r0,r0,#20
        0x00002388:    0f04        ..      LSRS     r4,r0,#28
        0x0000238a:    f7fefe99    ....    BL       DrvSYS_GetPLLClockFreq ; 0x10c0
        0x0000238e:    4606        .F      MOV      r6,r0
        0x00002390:    1c61        a.      ADDS     r1,r4,#1
        0x00002392:    f7fef864    ..d.    BL       __aeabi_uidiv ; 0x45e
        0x00002396:    4605        .F      MOV      r5,r0
        0x00002398:    e000        ..      B        0x239c ; GetUartClk + 60
        0x0000239a:    4d02        .M      LDR      r5,[pc,#8] ; [0x23a4] = 0x1518000
        0x0000239c:    4628        (F      MOV      r0,r5
        0x0000239e:    bd70        p.      POP      {r4-r6,pc}
    $d
        0x000023a0:    50000200    ...P    DCD    1342177792
        0x000023a4:    01518000    ..Q.    DCD    22118400
    $t
    i.Initial_pannel
    Initial_pannel
        0x000023a8:    4883        .H      LDR      r0,[pc,#524] ; [0x25b8] = 0x50000200
        0x000023aa:    6880        .h      LDR      r0,[r0,#8]
        0x000023ac:    2101        .!      MOVS     r1,#1
        0x000023ae:    03c9        ..      LSLS     r1,r1,#15
        0x000023b0:    4388        .C      BICS     r0,r0,r1
        0x000023b2:    1840        @.      ADDS     r0,r0,r1
        0x000023b4:    4980        .I      LDR      r1,[pc,#512] ; [0x25b8] = 0x50000200
        0x000023b6:    6088        .`      STR      r0,[r1,#8]
        0x000023b8:    2005        .       MOVS     r0,#5
        0x000023ba:    0700        ..      LSLS     r0,r0,#28
        0x000023bc:    68c0        .h      LDR      r0,[r0,#0xc]
        0x000023be:    0189        ..      LSLS     r1,r1,#6
        0x000023c0:    4388        .C      BICS     r0,r0,r1
        0x000023c2:    1840        @.      ADDS     r0,r0,r1
        0x000023c4:    2105        .!      MOVS     r1,#5
        0x000023c6:    0709        ..      LSLS     r1,r1,#28
        0x000023c8:    60c8        .`      STR      r0,[r1,#0xc]
        0x000023ca:    4608        .F      MOV      r0,r1
        0x000023cc:    68c0        .h      LDR      r0,[r0,#0xc]
        0x000023ce:    2101        .!      MOVS     r1,#1
        0x000023d0:    03c9        ..      LSLS     r1,r1,#15
        0x000023d2:    4388        .C      BICS     r0,r0,r1
        0x000023d4:    2105        .!      MOVS     r1,#5
        0x000023d6:    0709        ..      LSLS     r1,r1,#28
        0x000023d8:    60c8        .`      STR      r0,[r1,#0xc]
        0x000023da:    4608        .F      MOV      r0,r1
        0x000023dc:    6bc0        .k      LDR      r0,[r0,#0x3c]
        0x000023de:    21ff        .!      MOVS     r1,#0xff
        0x000023e0:    3101        .1      ADDS     r1,#1
        0x000023e2:    4388        .C      BICS     r0,r0,r1
        0x000023e4:    1840        @.      ADDS     r0,r0,r1
        0x000023e6:    2105        .!      MOVS     r1,#5
        0x000023e8:    0709        ..      LSLS     r1,r1,#28
        0x000023ea:    63c8        .c      STR      r0,[r1,#0x3c]
        0x000023ec:    4608        .F      MOV      r0,r1
        0x000023ee:    6bc0        .k      LDR      r0,[r0,#0x3c]
        0x000023f0:    2101        .!      MOVS     r1,#1
        0x000023f2:    0249        I.      LSLS     r1,r1,#9
        0x000023f4:    4388        .C      BICS     r0,r0,r1
        0x000023f6:    1840        @.      ADDS     r0,r0,r1
        0x000023f8:    2105        .!      MOVS     r1,#5
        0x000023fa:    0709        ..      LSLS     r1,r1,#28
        0x000023fc:    63c8        .c      STR      r0,[r1,#0x3c]
        0x000023fe:    4608        .F      MOV      r0,r1
        0x00002400:    6bc0        .k      LDR      r0,[r0,#0x3c]
        0x00002402:    2101        .!      MOVS     r1,#1
        0x00002404:    02c9        ..      LSLS     r1,r1,#11
        0x00002406:    4388        .C      BICS     r0,r0,r1
        0x00002408:    1840        @.      ADDS     r0,r0,r1
        0x0000240a:    2105        .!      MOVS     r1,#5
        0x0000240c:    0709        ..      LSLS     r1,r1,#28
        0x0000240e:    63c8        .c      STR      r0,[r1,#0x3c]
        0x00002410:    486a        jH      LDR      r0,[pc,#424] ; [0x25bc] = 0x20000028
        0x00002412:    68c0        .h      LDR      r0,[r0,#0xc]
        0x00002414:    6800        .h      LDR      r0,[r0,#0]
        0x00002416:    2101        .!      MOVS     r1,#1
        0x00002418:    02c9        ..      LSLS     r1,r1,#11
        0x0000241a:    4388        .C      BICS     r0,r0,r1
        0x0000241c:    1840        @.      ADDS     r0,r0,r1
        0x0000241e:    4967        gI      LDR      r1,[pc,#412] ; [0x25bc] = 0x20000028
        0x00002420:    68c9        .h      LDR      r1,[r1,#0xc]
        0x00002422:    6008        .`      STR      r0,[r1,#0]
        0x00002424:    4865        eH      LDR      r0,[pc,#404] ; [0x25bc] = 0x20000028
        0x00002426:    68c0        .h      LDR      r0,[r0,#0xc]
        0x00002428:    6800        .h      LDR      r0,[r0,#0]
        0x0000242a:    21f8        .!      MOVS     r1,#0xf8
        0x0000242c:    4388        .C      BICS     r0,r0,r1
        0x0000242e:    3048        H0      ADDS     r0,r0,#0x48
        0x00002430:    4962        bI      LDR      r1,[pc,#392] ; [0x25bc] = 0x20000028
        0x00002432:    68c9        .h      LDR      r1,[r1,#0xc]
        0x00002434:    6008        .`      STR      r0,[r1,#0]
        0x00002436:    4861        aH      LDR      r0,[pc,#388] ; [0x25bc] = 0x20000028
        0x00002438:    68c0        .h      LDR      r0,[r0,#0xc]
        0x0000243a:    6800        .h      LDR      r0,[r0,#0]
        0x0000243c:    2104        .!      MOVS     r1,#4
        0x0000243e:    4388        .C      BICS     r0,r0,r1
        0x00002440:    1d00        ..      ADDS     r0,r0,#4
        0x00002442:    495e        ^I      LDR      r1,[pc,#376] ; [0x25bc] = 0x20000028
        0x00002444:    68c9        .h      LDR      r1,[r1,#0xc]
        0x00002446:    6008        .`      STR      r0,[r1,#0]
        0x00002448:    485c        \H      LDR      r0,[pc,#368] ; [0x25bc] = 0x20000028
        0x0000244a:    68c0        .h      LDR      r0,[r0,#0xc]
        0x0000244c:    6840        @h      LDR      r0,[r0,#4]
        0x0000244e:    0c00        ..      LSRS     r0,r0,#16
        0x00002450:    0400        ..      LSLS     r0,r0,#16
        0x00002452:    1cc0        ..      ADDS     r0,r0,#3
        0x00002454:    4959        YI      LDR      r1,[pc,#356] ; [0x25bc] = 0x20000028
        0x00002456:    68c9        .h      LDR      r1,[r1,#0xc]
        0x00002458:    6048        H`      STR      r0,[r1,#4]
        0x0000245a:    4858        XH      LDR      r0,[pc,#352] ; [0x25bc] = 0x20000028
        0x0000245c:    68c0        .h      LDR      r0,[r0,#0xc]
        0x0000245e:    6880        .h      LDR      r0,[r0,#8]
        0x00002460:    0880        ..      LSRS     r0,r0,#2
        0x00002462:    0080        ..      LSLS     r0,r0,#2
        0x00002464:    1c40        @.      ADDS     r0,r0,#1
        0x00002466:    4955        UI      LDR      r1,[pc,#340] ; [0x25bc] = 0x20000028
        0x00002468:    68c9        .h      LDR      r1,[r1,#0xc]
        0x0000246a:    6088        .`      STR      r0,[r1,#8]
        0x0000246c:    20eb        .       MOVS     r0,#0xeb
        0x0000246e:    4953        SI      LDR      r1,[pc,#332] ; [0x25bc] = 0x20000028
        0x00002470:    68c9        .h      LDR      r1,[r1,#0xc]
        0x00002472:    6208        .b      STR      r0,[r1,#0x20]
        0x00002474:    4851        QH      LDR      r0,[pc,#324] ; [0x25bc] = 0x20000028
        0x00002476:    68c0        .h      LDR      r0,[r0,#0xc]
        0x00002478:    6800        .h      LDR      r0,[r0,#0]
        0x0000247a:    0840        @.      LSRS     r0,r0,#1
        0x0000247c:    0040        @.      LSLS     r0,r0,#1
        0x0000247e:    1c40        @.      ADDS     r0,r0,#1
        0x00002480:    494e        NI      LDR      r1,[pc,#312] ; [0x25bc] = 0x20000028
        0x00002482:    68c9        .h      LDR      r1,[r1,#0xc]
        0x00002484:    6008        .`      STR      r0,[r1,#0]
        0x00002486:    bf00        ..      NOP      
        0x00002488:    484c        LH      LDR      r0,[pc,#304] ; [0x25bc] = 0x20000028
        0x0000248a:    68c0        .h      LDR      r0,[r0,#0xc]
        0x0000248c:    6800        .h      LDR      r0,[r0,#0]
        0x0000248e:    07c0        ..      LSLS     r0,r0,#31
        0x00002490:    0fc0        ..      LSRS     r0,r0,#31
        0x00002492:    2801        .(      CMP      r0,#1
        0x00002494:    d0f8        ..      BEQ      0x2488 ; Initial_pannel + 224
        0x00002496:    4849        IH      LDR      r0,[pc,#292] ; [0x25bc] = 0x20000028
        0x00002498:    68c0        .h      LDR      r0,[r0,#0xc]
        0x0000249a:    6880        .h      LDR      r0,[r0,#8]
        0x0000249c:    0880        ..      LSRS     r0,r0,#2
        0x0000249e:    0080        ..      LSLS     r0,r0,#2
        0x000024a0:    4946        FI      LDR      r1,[pc,#280] ; [0x25bc] = 0x20000028
        0x000024a2:    68c9        .h      LDR      r1,[r1,#0xc]
        0x000024a4:    6088        .`      STR      r0,[r1,#8]
        0x000024a6:    4845        EH      LDR      r0,[pc,#276] ; [0x25bc] = 0x20000028
        0x000024a8:    68c0        .h      LDR      r0,[r0,#0xc]
        0x000024aa:    6880        .h      LDR      r0,[r0,#8]
        0x000024ac:    0880        ..      LSRS     r0,r0,#2
        0x000024ae:    0080        ..      LSLS     r0,r0,#2
        0x000024b0:    1c40        @.      ADDS     r0,r0,#1
        0x000024b2:    4942        BI      LDR      r1,[pc,#264] ; [0x25bc] = 0x20000028
        0x000024b4:    68c9        .h      LDR      r1,[r1,#0xc]
        0x000024b6:    6088        .`      STR      r0,[r1,#8]
        0x000024b8:    2081        .       MOVS     r0,#0x81
        0x000024ba:    4940        @I      LDR      r1,[pc,#256] ; [0x25bc] = 0x20000028
        0x000024bc:    68c9        .h      LDR      r1,[r1,#0xc]
        0x000024be:    6208        .b      STR      r0,[r1,#0x20]
        0x000024c0:    483e        >H      LDR      r0,[pc,#248] ; [0x25bc] = 0x20000028
        0x000024c2:    68c0        .h      LDR      r0,[r0,#0xc]
        0x000024c4:    6800        .h      LDR      r0,[r0,#0]
        0x000024c6:    0840        @.      LSRS     r0,r0,#1
        0x000024c8:    0040        @.      LSLS     r0,r0,#1
        0x000024ca:    1c40        @.      ADDS     r0,r0,#1
        0x000024cc:    493b        ;I      LDR      r1,[pc,#236] ; [0x25bc] = 0x20000028
        0x000024ce:    68c9        .h      LDR      r1,[r1,#0xc]
        0x000024d0:    6008        .`      STR      r0,[r1,#0]
        0x000024d2:    bf00        ..      NOP      
        0x000024d4:    4839        9H      LDR      r0,[pc,#228] ; [0x25bc] = 0x20000028
        0x000024d6:    68c0        .h      LDR      r0,[r0,#0xc]
        0x000024d8:    6800        .h      LDR      r0,[r0,#0]
        0x000024da:    07c0        ..      LSLS     r0,r0,#31
        0x000024dc:    0fc0        ..      LSRS     r0,r0,#31
        0x000024de:    2801        .(      CMP      r0,#1
        0x000024e0:    d0f8        ..      BEQ      0x24d4 ; Initial_pannel + 300
        0x000024e2:    20a0        .       MOVS     r0,#0xa0
        0x000024e4:    4935        5I      LDR      r1,[pc,#212] ; [0x25bc] = 0x20000028
        0x000024e6:    68c9        .h      LDR      r1,[r1,#0xc]
        0x000024e8:    6208        .b      STR      r0,[r1,#0x20]
        0x000024ea:    4834        4H      LDR      r0,[pc,#208] ; [0x25bc] = 0x20000028
        0x000024ec:    68c0        .h      LDR      r0,[r0,#0xc]
        0x000024ee:    6800        .h      LDR      r0,[r0,#0]
        0x000024f0:    0840        @.      LSRS     r0,r0,#1
        0x000024f2:    0040        @.      LSLS     r0,r0,#1
        0x000024f4:    1c40        @.      ADDS     r0,r0,#1
        0x000024f6:    4931        1I      LDR      r1,[pc,#196] ; [0x25bc] = 0x20000028
        0x000024f8:    68c9        .h      LDR      r1,[r1,#0xc]
        0x000024fa:    6008        .`      STR      r0,[r1,#0]
        0x000024fc:    bf00        ..      NOP      
        0x000024fe:    482f        /H      LDR      r0,[pc,#188] ; [0x25bc] = 0x20000028
        0x00002500:    68c0        .h      LDR      r0,[r0,#0xc]
        0x00002502:    6800        .h      LDR      r0,[r0,#0]
        0x00002504:    07c0        ..      LSLS     r0,r0,#31
        0x00002506:    0fc0        ..      LSRS     r0,r0,#31
        0x00002508:    2801        .(      CMP      r0,#1
        0x0000250a:    d0f8        ..      BEQ      0x24fe ; Initial_pannel + 342
        0x0000250c:    482b        +H      LDR      r0,[pc,#172] ; [0x25bc] = 0x20000028
        0x0000250e:    68c0        .h      LDR      r0,[r0,#0xc]
        0x00002510:    6880        .h      LDR      r0,[r0,#8]
        0x00002512:    0880        ..      LSRS     r0,r0,#2
        0x00002514:    0080        ..      LSLS     r0,r0,#2
        0x00002516:    4929        )I      LDR      r1,[pc,#164] ; [0x25bc] = 0x20000028
        0x00002518:    68c9        .h      LDR      r1,[r1,#0xc]
        0x0000251a:    6088        .`      STR      r0,[r1,#8]
        0x0000251c:    4827        'H      LDR      r0,[pc,#156] ; [0x25bc] = 0x20000028
        0x0000251e:    68c0        .h      LDR      r0,[r0,#0xc]
        0x00002520:    6880        .h      LDR      r0,[r0,#8]
        0x00002522:    0880        ..      LSRS     r0,r0,#2
        0x00002524:    0080        ..      LSLS     r0,r0,#2
        0x00002526:    1c40        @.      ADDS     r0,r0,#1
        0x00002528:    4924        $I      LDR      r1,[pc,#144] ; [0x25bc] = 0x20000028
        0x0000252a:    68c9        .h      LDR      r1,[r1,#0xc]
        0x0000252c:    6088        .`      STR      r0,[r1,#8]
        0x0000252e:    20c0        .       MOVS     r0,#0xc0
        0x00002530:    4922        "I      LDR      r1,[pc,#136] ; [0x25bc] = 0x20000028
        0x00002532:    68c9        .h      LDR      r1,[r1,#0xc]
        0x00002534:    6208        .b      STR      r0,[r1,#0x20]
        0x00002536:    4821        !H      LDR      r0,[pc,#132] ; [0x25bc] = 0x20000028
        0x00002538:    68c0        .h      LDR      r0,[r0,#0xc]
        0x0000253a:    6800        .h      LDR      r0,[r0,#0]
        0x0000253c:    0840        @.      LSRS     r0,r0,#1
        0x0000253e:    0040        @.      LSLS     r0,r0,#1
        0x00002540:    1c40        @.      ADDS     r0,r0,#1
        0x00002542:    491e        .I      LDR      r1,[pc,#120] ; [0x25bc] = 0x20000028
        0x00002544:    68c9        .h      LDR      r1,[r1,#0xc]
        0x00002546:    6008        .`      STR      r0,[r1,#0]
        0x00002548:    bf00        ..      NOP      
        0x0000254a:    481c        .H      LDR      r0,[pc,#112] ; [0x25bc] = 0x20000028
        0x0000254c:    68c0        .h      LDR      r0,[r0,#0xc]
        0x0000254e:    6800        .h      LDR      r0,[r0,#0]
        0x00002550:    07c0        ..      LSLS     r0,r0,#31
        0x00002552:    0fc0        ..      LSRS     r0,r0,#31
        0x00002554:    2801        .(      CMP      r0,#1
        0x00002556:    d0f8        ..      BEQ      0x254a ; Initial_pannel + 418
        0x00002558:    4818        .H      LDR      r0,[pc,#96] ; [0x25bc] = 0x20000028
        0x0000255a:    68c0        .h      LDR      r0,[r0,#0xc]
        0x0000255c:    6880        .h      LDR      r0,[r0,#8]
        0x0000255e:    0880        ..      LSRS     r0,r0,#2
        0x00002560:    0080        ..      LSLS     r0,r0,#2
        0x00002562:    4916        .I      LDR      r1,[pc,#88] ; [0x25bc] = 0x20000028
        0x00002564:    68c9        .h      LDR      r1,[r1,#0xc]
        0x00002566:    6088        .`      STR      r0,[r1,#8]
        0x00002568:    4814        .H      LDR      r0,[pc,#80] ; [0x25bc] = 0x20000028
        0x0000256a:    68c0        .h      LDR      r0,[r0,#0xc]
        0x0000256c:    6880        .h      LDR      r0,[r0,#8]
        0x0000256e:    0880        ..      LSRS     r0,r0,#2
        0x00002570:    0080        ..      LSLS     r0,r0,#2
        0x00002572:    1c40        @.      ADDS     r0,r0,#1
        0x00002574:    4911        .I      LDR      r1,[pc,#68] ; [0x25bc] = 0x20000028
        0x00002576:    68c9        .h      LDR      r1,[r1,#0xc]
        0x00002578:    6088        .`      STR      r0,[r1,#8]
        0x0000257a:    20af        .       MOVS     r0,#0xaf
        0x0000257c:    490f        .I      LDR      r1,[pc,#60] ; [0x25bc] = 0x20000028
        0x0000257e:    68c9        .h      LDR      r1,[r1,#0xc]
        0x00002580:    6208        .b      STR      r0,[r1,#0x20]
        0x00002582:    480e        .H      LDR      r0,[pc,#56] ; [0x25bc] = 0x20000028
        0x00002584:    68c0        .h      LDR      r0,[r0,#0xc]
        0x00002586:    6800        .h      LDR      r0,[r0,#0]
        0x00002588:    0840        @.      LSRS     r0,r0,#1
        0x0000258a:    0040        @.      LSLS     r0,r0,#1
        0x0000258c:    1c40        @.      ADDS     r0,r0,#1
        0x0000258e:    490b        .I      LDR      r1,[pc,#44] ; [0x25bc] = 0x20000028
        0x00002590:    68c9        .h      LDR      r1,[r1,#0xc]
        0x00002592:    6008        .`      STR      r0,[r1,#0]
        0x00002594:    bf00        ..      NOP      
        0x00002596:    4809        .H      LDR      r0,[pc,#36] ; [0x25bc] = 0x20000028
        0x00002598:    68c0        .h      LDR      r0,[r0,#0xc]
        0x0000259a:    6800        .h      LDR      r0,[r0,#0]
        0x0000259c:    07c0        ..      LSLS     r0,r0,#31
        0x0000259e:    0fc0        ..      LSRS     r0,r0,#31
        0x000025a0:    2801        .(      CMP      r0,#1
        0x000025a2:    d0f8        ..      BEQ      0x2596 ; Initial_pannel + 494
        0x000025a4:    4805        .H      LDR      r0,[pc,#20] ; [0x25bc] = 0x20000028
        0x000025a6:    68c0        .h      LDR      r0,[r0,#0xc]
        0x000025a8:    6880        .h      LDR      r0,[r0,#8]
        0x000025aa:    0880        ..      LSRS     r0,r0,#2
        0x000025ac:    0080        ..      LSLS     r0,r0,#2
        0x000025ae:    4903        .I      LDR      r1,[pc,#12] ; [0x25bc] = 0x20000028
        0x000025b0:    68c9        .h      LDR      r1,[r1,#0xc]
        0x000025b2:    6088        .`      STR      r0,[r1,#8]
        0x000025b4:    4770        pG      BX       lr
    $d
        0x000025b6:    0000        ..      DCW    0
        0x000025b8:    50000200    ...P    DCD    1342177792
        0x000025bc:    20000028    (..     DCD    536870952
    $t
    i.LED_off
    LED_off
        0x000025c0:    b570        p.      PUSH     {r4-r6,lr}
        0x000025c2:    4606        .F      MOV      r6,r0
        0x000025c4:    460c        .F      MOV      r4,r1
        0x000025c6:    f000fe4a    ..J.    BL       clr_all_pannal ; 0x325e
        0x000025ca:    a120         .      ADR      r1,{pc}+0x82 ; 0x264c
        0x000025cc:    2000        .       MOVS     r0,#0
        0x000025ce:    f000fec5    ....    BL       print_lcd ; 0x335c
        0x000025d2:    2c05        .,      CMP      r4,#5
        0x000025d4:    d104        ..      BNE      0x25e0 ; LED_off + 32
        0x000025d6:    a121        !.      ADR      r1,{pc}+0x86 ; 0x265c
        0x000025d8:    2001        .       MOVS     r0,#1
        0x000025da:    f000febf    ....    BL       print_lcd ; 0x335c
        0x000025de:    e018        ..      B        0x2612 ; LED_off + 82
        0x000025e0:    2c06        .,      CMP      r4,#6
        0x000025e2:    d104        ..      BNE      0x25ee ; LED_off + 46
        0x000025e4:    a121        !.      ADR      r1,{pc}+0x88 ; 0x266c
        0x000025e6:    2001        .       MOVS     r0,#1
        0x000025e8:    f000feb8    ....    BL       print_lcd ; 0x335c
        0x000025ec:    e011        ..      B        0x2612 ; LED_off + 82
        0x000025ee:    2c07        .,      CMP      r4,#7
        0x000025f0:    d104        ..      BNE      0x25fc ; LED_off + 60
        0x000025f2:    a122        ".      ADR      r1,{pc}+0x8a ; 0x267c
        0x000025f4:    2001        .       MOVS     r0,#1
        0x000025f6:    f000feb1    ....    BL       print_lcd ; 0x335c
        0x000025fa:    e00a        ..      B        0x2612 ; LED_off + 82
        0x000025fc:    2c08        .,      CMP      r4,#8
        0x000025fe:    d104        ..      BNE      0x260a ; LED_off + 74
        0x00002600:    a122        ".      ADR      r1,{pc}+0x8c ; 0x268c
        0x00002602:    2001        .       MOVS     r0,#1
        0x00002604:    f000feaa    ....    BL       print_lcd ; 0x335c
        0x00002608:    e003        ..      B        0x2612 ; LED_off + 82
        0x0000260a:    a124        $.      ADR      r1,{pc}+0x92 ; 0x269c
        0x0000260c:    2001        .       MOVS     r0,#1
        0x0000260e:    f000fea5    ....    BL       print_lcd ; 0x335c
        0x00002612:    2c0f        .,      CMP      r4,#0xf
        0x00002614:    d009        ..      BEQ      0x262a ; LED_off + 106
        0x00002616:    2201        ."      MOVS     r2,#1
        0x00002618:    1de1        ..      ADDS     r1,r4,#7
        0x0000261a:    2002        .       MOVS     r0,#2
        0x0000261c:    f7fefcfa    ....    BL       DrvGPIO_Open ; 0x1014
        0x00002620:    1de1        ..      ADDS     r1,r4,#7
        0x00002622:    2002        .       MOVS     r0,#2
        0x00002624:    f7fefd32    ..2.    BL       DrvGPIO_SetBit ; 0x108c
        0x00002628:    e00e        ..      B        0x2648 ; LED_off + 136
        0x0000262a:    250c        .%      MOVS     r5,#0xc
        0x0000262c:    e00a        ..      B        0x2644 ; LED_off + 132
        0x0000262e:    2201        ."      MOVS     r2,#1
        0x00002630:    4629        )F      MOV      r1,r5
        0x00002632:    2002        .       MOVS     r0,#2
        0x00002634:    f7fefcee    ....    BL       DrvGPIO_Open ; 0x1014
        0x00002638:    4629        )F      MOV      r1,r5
        0x0000263a:    2002        .       MOVS     r0,#2
        0x0000263c:    f7fefd26    ..&.    BL       DrvGPIO_SetBit ; 0x108c
        0x00002640:    1c68        h.      ADDS     r0,r5,#1
        0x00002642:    b2c5        ..      UXTB     r5,r0
        0x00002644:    2d10        .-      CMP      r5,#0x10
        0x00002646:    dbf2        ..      BLT      0x262e ; LED_off + 110
        0x00002648:    bd70        p.      POP      {r4-r6,pc}
    $d
        0x0000264a:    0000        ..      DCW    0
        0x0000264c:    53204350    PC S    DCD    1394623312
        0x00002650:    20646e65    end     DCD    543452773
        0x00002654:    6d6d6f63    comm    DCD    1835888483
        0x00002658:    00646e61    and.    DCD    6581857
        0x0000265c:    2044454c    LED     DCD    541345100
        0x00002660:    666f2035    5 of    DCD    1718558773
        0x00002664:    20202066    f       DCD    538976358
        0x00002668:    00000000    ....    DCD    0
        0x0000266c:    2044454c    LED     DCD    541345100
        0x00002670:    666f2036    6 of    DCD    1718558774
        0x00002674:    20202066    f       DCD    538976358
        0x00002678:    00000000    ....    DCD    0
        0x0000267c:    2044454c    LED     DCD    541345100
        0x00002680:    666f2037    7 of    DCD    1718558775
        0x00002684:    20202066    f       DCD    538976358
        0x00002688:    00000020     ...    DCD    32
        0x0000268c:    2044454c    LED     DCD    541345100
        0x00002690:    666f2038    8 of    DCD    1718558776
        0x00002694:    20202066    f       DCD    538976358
        0x00002698:    00000020     ...    DCD    32
        0x0000269c:    2044454c    LED     DCD    541345100
        0x000026a0:    206c6c41    All     DCD    543976513
        0x000026a4:    2066666f    off     DCD    543581807
        0x000026a8:    00000020     ...    DCD    32
    $t
    i.LED_on
    LED_on
        0x000026ac:    b570        p.      PUSH     {r4-r6,lr}
        0x000026ae:    4606        .F      MOV      r6,r0
        0x000026b0:    460c        .F      MOV      r4,r1
        0x000026b2:    f000fdd4    ....    BL       clr_all_pannal ; 0x325e
        0x000026b6:    a120         .      ADR      r1,{pc}+0x82 ; 0x2738
        0x000026b8:    2000        .       MOVS     r0,#0
        0x000026ba:    f000fe4f    ..O.    BL       print_lcd ; 0x335c
        0x000026be:    2c05        .,      CMP      r4,#5
        0x000026c0:    d104        ..      BNE      0x26cc ; LED_on + 32
        0x000026c2:    a121        !.      ADR      r1,{pc}+0x86 ; 0x2748
        0x000026c4:    2001        .       MOVS     r0,#1
        0x000026c6:    f000fe49    ..I.    BL       print_lcd ; 0x335c
        0x000026ca:    e018        ..      B        0x26fe ; LED_on + 82
        0x000026cc:    2c06        .,      CMP      r4,#6
        0x000026ce:    d104        ..      BNE      0x26da ; LED_on + 46
        0x000026d0:    a121        !.      ADR      r1,{pc}+0x88 ; 0x2758
        0x000026d2:    2001        .       MOVS     r0,#1
        0x000026d4:    f000fe42    ..B.    BL       print_lcd ; 0x335c
        0x000026d8:    e011        ..      B        0x26fe ; LED_on + 82
        0x000026da:    2c07        .,      CMP      r4,#7
        0x000026dc:    d104        ..      BNE      0x26e8 ; LED_on + 60
        0x000026de:    a122        ".      ADR      r1,{pc}+0x8a ; 0x2768
        0x000026e0:    2001        .       MOVS     r0,#1
        0x000026e2:    f000fe3b    ..;.    BL       print_lcd ; 0x335c
        0x000026e6:    e00a        ..      B        0x26fe ; LED_on + 82
        0x000026e8:    2c08        .,      CMP      r4,#8
        0x000026ea:    d104        ..      BNE      0x26f6 ; LED_on + 74
        0x000026ec:    a122        ".      ADR      r1,{pc}+0x8c ; 0x2778
        0x000026ee:    2001        .       MOVS     r0,#1
        0x000026f0:    f000fe34    ..4.    BL       print_lcd ; 0x335c
        0x000026f4:    e003        ..      B        0x26fe ; LED_on + 82
        0x000026f6:    a124        $.      ADR      r1,{pc}+0x92 ; 0x2788
        0x000026f8:    2001        .       MOVS     r0,#1
        0x000026fa:    f000fe2f    ../.    BL       print_lcd ; 0x335c
        0x000026fe:    2c0f        .,      CMP      r4,#0xf
        0x00002700:    d009        ..      BEQ      0x2716 ; LED_on + 106
        0x00002702:    2201        ."      MOVS     r2,#1
        0x00002704:    1de1        ..      ADDS     r1,r4,#7
        0x00002706:    2002        .       MOVS     r0,#2
        0x00002708:    f7fefc84    ....    BL       DrvGPIO_Open ; 0x1014
        0x0000270c:    1de1        ..      ADDS     r1,r4,#7
        0x0000270e:    2002        .       MOVS     r0,#2
        0x00002710:    f7fef8aa    ....    BL       DrvGPIO_ClrBit ; 0x868
        0x00002714:    e00e        ..      B        0x2734 ; LED_on + 136
        0x00002716:    250c        .%      MOVS     r5,#0xc
        0x00002718:    e00a        ..      B        0x2730 ; LED_on + 132
        0x0000271a:    2201        ."      MOVS     r2,#1
        0x0000271c:    4629        )F      MOV      r1,r5
        0x0000271e:    2002        .       MOVS     r0,#2
        0x00002720:    f7fefc78    ..x.    BL       DrvGPIO_Open ; 0x1014
        0x00002724:    4629        )F      MOV      r1,r5
        0x00002726:    2002        .       MOVS     r0,#2
        0x00002728:    f7fef89e    ....    BL       DrvGPIO_ClrBit ; 0x868
        0x0000272c:    1c68        h.      ADDS     r0,r5,#1
        0x0000272e:    b2c5        ..      UXTB     r5,r0
        0x00002730:    2d10        .-      CMP      r5,#0x10
        0x00002732:    dbf2        ..      BLT      0x271a ; LED_on + 110
        0x00002734:    bd70        p.      POP      {r4-r6,pc}
    $d
        0x00002736:    0000        ..      DCW    0
        0x00002738:    53204350    PC S    DCD    1394623312
        0x0000273c:    20646e65    end     DCD    543452773
        0x00002740:    6d6d6f63    comm    DCD    1835888483
        0x00002744:    00646e61    and.    DCD    6581857
        0x00002748:    2044454c    LED     DCD    541345100
        0x0000274c:    6e6f2035    5 on    DCD    1852776501
        0x00002750:    20202020            DCD    538976288
        0x00002754:    00000000    ....    DCD    0
        0x00002758:    2044454c    LED     DCD    541345100
        0x0000275c:    6e6f2036    6 on    DCD    1852776502
        0x00002760:    20202020            DCD    538976288
        0x00002764:    00000000    ....    DCD    0
        0x00002768:    2044454c    LED     DCD    541345100
        0x0000276c:    6e6f2037    7 on    DCD    1852776503
        0x00002770:    20202020            DCD    538976288
        0x00002774:    00000000    ....    DCD    0
        0x00002778:    2044454c    LED     DCD    541345100
        0x0000277c:    6e6f2038    8 on    DCD    1852776504
        0x00002780:    20202020            DCD    538976288
        0x00002784:    00000000    ....    DCD    0
        0x00002788:    2044454c    LED     DCD    541345100
        0x0000278c:    206c6c41    All     DCD    543976513
        0x00002790:    20206e6f    on      DCD    538996335
        0x00002794:    00000000    ....    DCD    0
    $t
    i.NVIC_SetPriority
    NVIC_SetPriority
        0x00002798:    b510        ..      PUSH     {r4,lr}
        0x0000279a:    2800        .(      CMP      r0,#0
        0x0000279c:    da19        ..      BGE      0x27d2 ; NVIC_SetPriority + 58
        0x0000279e:    4a1a        .J      LDR      r2,[pc,#104] ; [0x2808] = 0xe000ed1c
        0x000027a0:    0703        ..      LSLS     r3,r0,#28
        0x000027a2:    0f1b        ..      LSRS     r3,r3,#28
        0x000027a4:    3b08        .;      SUBS     r3,r3,#8
        0x000027a6:    089b        ..      LSRS     r3,r3,#2
        0x000027a8:    009b        ..      LSLS     r3,r3,#2
        0x000027aa:    58d2        .X      LDR      r2,[r2,r3]
        0x000027ac:    0783        ..      LSLS     r3,r0,#30
        0x000027ae:    0edc        ..      LSRS     r4,r3,#27
        0x000027b0:    23ff        .#      MOVS     r3,#0xff
        0x000027b2:    40a3        .@      LSLS     r3,r3,r4
        0x000027b4:    439a        .C      BICS     r2,r2,r3
        0x000027b6:    078b        ..      LSLS     r3,r1,#30
        0x000027b8:    0e1b        ..      LSRS     r3,r3,#24
        0x000027ba:    0784        ..      LSLS     r4,r0,#30
        0x000027bc:    0ee4        ..      LSRS     r4,r4,#27
        0x000027be:    40a3        .@      LSLS     r3,r3,r4
        0x000027c0:    431a        .C      ORRS     r2,r2,r3
        0x000027c2:    4b11        .K      LDR      r3,[pc,#68] ; [0x2808] = 0xe000ed1c
        0x000027c4:    0704        ..      LSLS     r4,r0,#28
        0x000027c6:    0f24        $.      LSRS     r4,r4,#28
        0x000027c8:    3c08        .<      SUBS     r4,r4,#8
        0x000027ca:    08a4        ..      LSRS     r4,r4,#2
        0x000027cc:    00a4        ..      LSLS     r4,r4,#2
        0x000027ce:    511a        .Q      STR      r2,[r3,r4]
        0x000027d0:    e018        ..      B        0x2804 ; NVIC_SetPriority + 108
        0x000027d2:    4a0e        .J      LDR      r2,[pc,#56] ; [0x280c] = 0xe000e100
        0x000027d4:    2303        .#      MOVS     r3,#3
        0x000027d6:    021b        ..      LSLS     r3,r3,#8
        0x000027d8:    18d2        ..      ADDS     r2,r2,r3
        0x000027da:    0883        ..      LSRS     r3,r0,#2
        0x000027dc:    009b        ..      LSLS     r3,r3,#2
        0x000027de:    58d2        .X      LDR      r2,[r2,r3]
        0x000027e0:    0783        ..      LSLS     r3,r0,#30
        0x000027e2:    0edc        ..      LSRS     r4,r3,#27
        0x000027e4:    23ff        .#      MOVS     r3,#0xff
        0x000027e6:    40a3        .@      LSLS     r3,r3,r4
        0x000027e8:    439a        .C      BICS     r2,r2,r3
        0x000027ea:    078b        ..      LSLS     r3,r1,#30
        0x000027ec:    0e1b        ..      LSRS     r3,r3,#24
        0x000027ee:    0784        ..      LSLS     r4,r0,#30
        0x000027f0:    0ee4        ..      LSRS     r4,r4,#27
        0x000027f2:    40a3        .@      LSLS     r3,r3,r4
        0x000027f4:    431a        .C      ORRS     r2,r2,r3
        0x000027f6:    4b05        .K      LDR      r3,[pc,#20] ; [0x280c] = 0xe000e100
        0x000027f8:    2403        .$      MOVS     r4,#3
        0x000027fa:    0224        $.      LSLS     r4,r4,#8
        0x000027fc:    191b        ..      ADDS     r3,r3,r4
        0x000027fe:    0884        ..      LSRS     r4,r0,#2
        0x00002800:    00a4        ..      LSLS     r4,r4,#2
        0x00002802:    511a        .Q      STR      r2,[r3,r4]
        0x00002804:    bd10        ..      POP      {r4,pc}
    $d
        0x00002806:    0000        ..      DCW    0
        0x00002808:    e000ed1c    ....    DCD    3758157084
        0x0000280c:    e000e100    ....    DCD    3758153984
    $t
    i.OpenKeyPad
    OpenKeyPad
        0x00002810:    b510        ..      PUSH     {r4,lr}
        0x00002812:    2400        .$      MOVS     r4,#0
        0x00002814:    e006        ..      B        0x2824 ; OpenKeyPad + 20
        0x00002816:    2203        ."      MOVS     r2,#3
        0x00002818:    4621        !F      MOV      r1,r4
        0x0000281a:    2000        .       MOVS     r0,#0
        0x0000281c:    f7fefbfa    ....    BL       DrvGPIO_Open ; 0x1014
        0x00002820:    1c60        `.      ADDS     r0,r4,#1
        0x00002822:    b2c4        ..      UXTB     r4,r0
        0x00002824:    2c06        .,      CMP      r4,#6
        0x00002826:    dbf6        ..      BLT      0x2816 ; OpenKeyPad + 6
        0x00002828:    bd10        ..      POP      {r4,pc}
        0x0000282a:    0000        ..      MOVS     r0,r0
    i.PWRWU_IRQHandler
    PWRWU_IRQHandler
        0x0000282c:    b510        ..      PUSH     {r4,lr}
        0x0000282e:    4807        .H      LDR      r0,[pc,#28] ; [0x284c] = 0x50000200
        0x00002830:    6800        .h      LDR      r0,[r0,#0]
        0x00002832:    2140        @!      MOVS     r1,#0x40
        0x00002834:    4388        .C      BICS     r0,r0,r1
        0x00002836:    3040        @0      ADDS     r0,r0,#0x40
        0x00002838:    4904        .I      LDR      r1,[pc,#16] ; [0x284c] = 0x50000200
        0x0000283a:    6008        .`      STR      r0,[r1,#0]
        0x0000283c:    4804        .H      LDR      r0,[pc,#16] ; [0x2850] = 0x2000063c
        0x0000283e:    6800        .h      LDR      r0,[r0,#0]
        0x00002840:    2800        .(      CMP      r0,#0
        0x00002842:    d002        ..      BEQ      0x284a ; PWRWU_IRQHandler + 30
        0x00002844:    4802        .H      LDR      r0,[pc,#8] ; [0x2850] = 0x2000063c
        0x00002846:    6800        .h      LDR      r0,[r0,#0]
        0x00002848:    4780        .G      BLX      r0
        0x0000284a:    bd10        ..      POP      {r4,pc}
    $d
        0x0000284c:    50000200    ...P    DCD    1342177792
        0x00002850:    2000063c    <..     DCD    536872508
    $t
    i.Scankey
    Scankey
        0x00002854:    b5f8        ..      PUSH     {r3-r7,lr}
        0x00002856:    481f        .H      LDR      r0,[pc,#124] ; [0x28d4] = 0x3478
        0x00002858:    6800        .h      LDR      r0,[r0,#0]
        0x0000285a:    9000        ..      STR      r0,[sp,#0]
        0x0000285c:    2400        .$      MOVS     r4,#0
        0x0000285e:    e034        4.      B        0x28ca ; Scankey + 118
        0x00002860:    4668        hF      MOV      r0,sp
        0x00002862:    5d06        .]      LDRB     r6,[r0,r4]
        0x00002864:    2500        .%      MOVS     r5,#0
        0x00002866:    e00f        ..      B        0x2888 ; Scankey + 52
        0x00002868:    07f0        ..      LSLS     r0,r6,#31
        0x0000286a:    0fc0        ..      LSRS     r0,r0,#31
        0x0000286c:    2801        .(      CMP      r0,#1
        0x0000286e:    d104        ..      BNE      0x287a ; Scankey + 38
        0x00002870:    4629        )F      MOV      r1,r5
        0x00002872:    2000        .       MOVS     r0,#0
        0x00002874:    f7fefc0a    ....    BL       DrvGPIO_SetBit ; 0x108c
        0x00002878:    e003        ..      B        0x2882 ; Scankey + 46
        0x0000287a:    4629        )F      MOV      r1,r5
        0x0000287c:    2000        .       MOVS     r0,#0
        0x0000287e:    f7fdfff3    ....    BL       DrvGPIO_ClrBit ; 0x868
        0x00002882:    1076        v.      ASRS     r6,r6,#1
        0x00002884:    1c68        h.      ADDS     r0,r5,#1
        0x00002886:    b2c5        ..      UXTB     r5,r0
        0x00002888:    2d06        .-      CMP      r5,#6
        0x0000288a:    dbed        ..      BLT      0x2868 ; Scankey + 20
        0x0000288c:    f000fcfb    ....    BL       delay ; 0x3286
        0x00002890:    2103        .!      MOVS     r1,#3
        0x00002892:    2000        .       MOVS     r0,#0
        0x00002894:    f7fdfffe    ....    BL       DrvGPIO_GetBit ; 0x894
        0x00002898:    2800        .(      CMP      r0,#0
        0x0000289a:    d102        ..      BNE      0x28a2 ; Scankey + 78
        0x0000289c:    1c60        `.      ADDS     r0,r4,#1
        0x0000289e:    b2c0        ..      UXTB     r0,r0
        0x000028a0:    bdf8        ..      POP      {r3-r7,pc}
        0x000028a2:    2104        .!      MOVS     r1,#4
        0x000028a4:    2000        .       MOVS     r0,#0
        0x000028a6:    f7fdfff5    ....    BL       DrvGPIO_GetBit ; 0x894
        0x000028aa:    2800        .(      CMP      r0,#0
        0x000028ac:    d102        ..      BNE      0x28b4 ; Scankey + 96
        0x000028ae:    1d20         .      ADDS     r0,r4,#4
        0x000028b0:    b2c0        ..      UXTB     r0,r0
        0x000028b2:    e7f5        ..      B        0x28a0 ; Scankey + 76
        0x000028b4:    2105        .!      MOVS     r1,#5
        0x000028b6:    2000        .       MOVS     r0,#0
        0x000028b8:    f7fdffec    ....    BL       DrvGPIO_GetBit ; 0x894
        0x000028bc:    2800        .(      CMP      r0,#0
        0x000028be:    d102        ..      BNE      0x28c6 ; Scankey + 114
        0x000028c0:    1de0        ..      ADDS     r0,r4,#7
        0x000028c2:    b2c0        ..      UXTB     r0,r0
        0x000028c4:    e7ec        ..      B        0x28a0 ; Scankey + 76
        0x000028c6:    1c60        `.      ADDS     r0,r4,#1
        0x000028c8:    b2c4        ..      UXTB     r4,r0
        0x000028ca:    2c03        .,      CMP      r4,#3
        0x000028cc:    dbc8        ..      BLT      0x2860 ; Scankey + 12
        0x000028ce:    2000        .       MOVS     r0,#0
        0x000028d0:    e7e6        ..      B        0x28a0 ; Scankey + 76
    $d
        0x000028d2:    0000        ..      DCW    0
        0x000028d4:    00003478    x4..    DCD    13432
    $t
    i.SendChar
    SendChar
        0x000028d8:    b500        ..      PUSH     {lr}
        0x000028da:    4603        .F      MOV      r3,r0
        0x000028dc:    4618        .F      MOV      r0,r3
        0x000028de:    f000f801    ....    BL       SendChar_ToUART ; 0x28e4
        0x000028e2:    bd00        ..      POP      {pc}
    i.SendChar_ToUART
    SendChar_ToUART
        0x000028e4:    bf00        ..      NOP      
        0x000028e6:    490a        .I      LDR      r1,[pc,#40] ; [0x2910] = 0x40050000
        0x000028e8:    6989        .i      LDR      r1,[r1,#0x18]
        0x000028ea:    0209        ..      LSLS     r1,r1,#8
        0x000028ec:    0fc9        ..      LSRS     r1,r1,#31
        0x000028ee:    2901        .)      CMP      r1,#1
        0x000028f0:    d0f9        ..      BEQ      0x28e6 ; SendChar_ToUART + 2
        0x000028f2:    4907        .I      LDR      r1,[pc,#28] ; [0x2910] = 0x40050000
        0x000028f4:    6008        .`      STR      r0,[r1,#0]
        0x000028f6:    280a        .(      CMP      r0,#0xa
        0x000028f8:    d109        ..      BNE      0x290e ; SendChar_ToUART + 42
        0x000028fa:    bf00        ..      NOP      
        0x000028fc:    4904        .I      LDR      r1,[pc,#16] ; [0x2910] = 0x40050000
        0x000028fe:    6989        .i      LDR      r1,[r1,#0x18]
        0x00002900:    0209        ..      LSLS     r1,r1,#8
        0x00002902:    0fc9        ..      LSRS     r1,r1,#31
        0x00002904:    2901        .)      CMP      r1,#1
        0x00002906:    d0f9        ..      BEQ      0x28fc ; SendChar_ToUART + 24
        0x00002908:    210d        .!      MOVS     r1,#0xd
        0x0000290a:    4a01        .J      LDR      r2,[pc,#4] ; [0x2910] = 0x40050000
        0x0000290c:    6011        .`      STR      r1,[r2,#0]
        0x0000290e:    4770        pG      BX       lr
    $d
        0x00002910:    40050000    ...@    DCD    1074069504
    $t
    i.SetPACA
    SetPACA
        0x00002914:    4a3b        ;J      LDR      r2,[pc,#236] ; [0x2a04] = 0x20000028
        0x00002916:    68d2        .h      LDR      r2,[r2,#0xc]
        0x00002918:    6892        .h      LDR      r2,[r2,#8]
        0x0000291a:    0892        ..      LSRS     r2,r2,#2
        0x0000291c:    0092        ..      LSLS     r2,r2,#2
        0x0000291e:    1c52        R.      ADDS     r2,r2,#1
        0x00002920:    4b38        8K      LDR      r3,[pc,#224] ; [0x2a04] = 0x20000028
        0x00002922:    68db        .h      LDR      r3,[r3,#0xc]
        0x00002924:    609a        .`      STR      r2,[r3,#8]
        0x00002926:    22b0        ."      MOVS     r2,#0xb0
        0x00002928:    4302        .C      ORRS     r2,r2,r0
        0x0000292a:    4b36        6K      LDR      r3,[pc,#216] ; [0x2a04] = 0x20000028
        0x0000292c:    68db        .h      LDR      r3,[r3,#0xc]
        0x0000292e:    621a        .b      STR      r2,[r3,#0x20]
        0x00002930:    4a34        4J      LDR      r2,[pc,#208] ; [0x2a04] = 0x20000028
        0x00002932:    68d2        .h      LDR      r2,[r2,#0xc]
        0x00002934:    6812        .h      LDR      r2,[r2,#0]
        0x00002936:    0852        R.      LSRS     r2,r2,#1
        0x00002938:    0052        R.      LSLS     r2,r2,#1
        0x0000293a:    1c52        R.      ADDS     r2,r2,#1
        0x0000293c:    4b31        1K      LDR      r3,[pc,#196] ; [0x2a04] = 0x20000028
        0x0000293e:    68db        .h      LDR      r3,[r3,#0xc]
        0x00002940:    601a        .`      STR      r2,[r3,#0]
        0x00002942:    bf00        ..      NOP      
        0x00002944:    4a2f        /J      LDR      r2,[pc,#188] ; [0x2a04] = 0x20000028
        0x00002946:    68d2        .h      LDR      r2,[r2,#0xc]
        0x00002948:    6812        .h      LDR      r2,[r2,#0]
        0x0000294a:    07d2        ..      LSLS     r2,r2,#31
        0x0000294c:    0fd2        ..      LSRS     r2,r2,#31
        0x0000294e:    2a01        .*      CMP      r2,#1
        0x00002950:    d0f8        ..      BEQ      0x2944 ; SetPACA + 48
        0x00002952:    4a2c        ,J      LDR      r2,[pc,#176] ; [0x2a04] = 0x20000028
        0x00002954:    68d2        .h      LDR      r2,[r2,#0xc]
        0x00002956:    6892        .h      LDR      r2,[r2,#8]
        0x00002958:    0892        ..      LSRS     r2,r2,#2
        0x0000295a:    0092        ..      LSLS     r2,r2,#2
        0x0000295c:    4b29        )K      LDR      r3,[pc,#164] ; [0x2a04] = 0x20000028
        0x0000295e:    68db        .h      LDR      r3,[r3,#0xc]
        0x00002960:    609a        .`      STR      r2,[r3,#8]
        0x00002962:    4a28        (J      LDR      r2,[pc,#160] ; [0x2a04] = 0x20000028
        0x00002964:    68d2        .h      LDR      r2,[r2,#0xc]
        0x00002966:    6892        .h      LDR      r2,[r2,#8]
        0x00002968:    0892        ..      LSRS     r2,r2,#2
        0x0000296a:    0092        ..      LSLS     r2,r2,#2
        0x0000296c:    1c52        R.      ADDS     r2,r2,#1
        0x0000296e:    4b25        %K      LDR      r3,[pc,#148] ; [0x2a04] = 0x20000028
        0x00002970:    68db        .h      LDR      r3,[r3,#0xc]
        0x00002972:    609a        .`      STR      r2,[r3,#8]
        0x00002974:    110a        ..      ASRS     r2,r1,#4
        0x00002976:    2310        .#      MOVS     r3,#0x10
        0x00002978:    431a        .C      ORRS     r2,r2,r3
        0x0000297a:    4b22        "K      LDR      r3,[pc,#136] ; [0x2a04] = 0x20000028
        0x0000297c:    68db        .h      LDR      r3,[r3,#0xc]
        0x0000297e:    621a        .b      STR      r2,[r3,#0x20]
        0x00002980:    4a20         J      LDR      r2,[pc,#128] ; [0x2a04] = 0x20000028
        0x00002982:    68d2        .h      LDR      r2,[r2,#0xc]
        0x00002984:    6812        .h      LDR      r2,[r2,#0]
        0x00002986:    0852        R.      LSRS     r2,r2,#1
        0x00002988:    0052        R.      LSLS     r2,r2,#1
        0x0000298a:    1c52        R.      ADDS     r2,r2,#1
        0x0000298c:    4b1d        .K      LDR      r3,[pc,#116] ; [0x2a04] = 0x20000028
        0x0000298e:    68db        .h      LDR      r3,[r3,#0xc]
        0x00002990:    601a        .`      STR      r2,[r3,#0]
        0x00002992:    bf00        ..      NOP      
        0x00002994:    4a1b        .J      LDR      r2,[pc,#108] ; [0x2a04] = 0x20000028
        0x00002996:    68d2        .h      LDR      r2,[r2,#0xc]
        0x00002998:    6812        .h      LDR      r2,[r2,#0]
        0x0000299a:    07d2        ..      LSLS     r2,r2,#31
        0x0000299c:    0fd2        ..      LSRS     r2,r2,#31
        0x0000299e:    2a01        .*      CMP      r2,#1
        0x000029a0:    d0f8        ..      BEQ      0x2994 ; SetPACA + 128
        0x000029a2:    4a18        .J      LDR      r2,[pc,#96] ; [0x2a04] = 0x20000028
        0x000029a4:    68d2        .h      LDR      r2,[r2,#0xc]
        0x000029a6:    6892        .h      LDR      r2,[r2,#8]
        0x000029a8:    0892        ..      LSRS     r2,r2,#2
        0x000029aa:    0092        ..      LSLS     r2,r2,#2
        0x000029ac:    4b15        .K      LDR      r3,[pc,#84] ; [0x2a04] = 0x20000028
        0x000029ae:    68db        .h      LDR      r3,[r3,#0xc]
        0x000029b0:    609a        .`      STR      r2,[r3,#8]
        0x000029b2:    4a14        .J      LDR      r2,[pc,#80] ; [0x2a04] = 0x20000028
        0x000029b4:    68d2        .h      LDR      r2,[r2,#0xc]
        0x000029b6:    6892        .h      LDR      r2,[r2,#8]
        0x000029b8:    0892        ..      LSRS     r2,r2,#2
        0x000029ba:    0092        ..      LSLS     r2,r2,#2
        0x000029bc:    1c52        R.      ADDS     r2,r2,#1
        0x000029be:    4b11        .K      LDR      r3,[pc,#68] ; [0x2a04] = 0x20000028
        0x000029c0:    68db        .h      LDR      r3,[r3,#0xc]
        0x000029c2:    609a        .`      STR      r2,[r3,#8]
        0x000029c4:    070a        ..      LSLS     r2,r1,#28
        0x000029c6:    0f12        ..      LSRS     r2,r2,#28
        0x000029c8:    4b0e        .K      LDR      r3,[pc,#56] ; [0x2a04] = 0x20000028
        0x000029ca:    68db        .h      LDR      r3,[r3,#0xc]
        0x000029cc:    621a        .b      STR      r2,[r3,#0x20]
        0x000029ce:    4a0d        .J      LDR      r2,[pc,#52] ; [0x2a04] = 0x20000028
        0x000029d0:    68d2        .h      LDR      r2,[r2,#0xc]
        0x000029d2:    6812        .h      LDR      r2,[r2,#0]
        0x000029d4:    0852        R.      LSRS     r2,r2,#1
        0x000029d6:    0052        R.      LSLS     r2,r2,#1
        0x000029d8:    1c52        R.      ADDS     r2,r2,#1
        0x000029da:    4b0a        .K      LDR      r3,[pc,#40] ; [0x2a04] = 0x20000028
        0x000029dc:    68db        .h      LDR      r3,[r3,#0xc]
        0x000029de:    601a        .`      STR      r2,[r3,#0]
        0x000029e0:    bf00        ..      NOP      
        0x000029e2:    4a08        .J      LDR      r2,[pc,#32] ; [0x2a04] = 0x20000028
        0x000029e4:    68d2        .h      LDR      r2,[r2,#0xc]
        0x000029e6:    6812        .h      LDR      r2,[r2,#0]
        0x000029e8:    07d2        ..      LSLS     r2,r2,#31
        0x000029ea:    0fd2        ..      LSRS     r2,r2,#31
        0x000029ec:    2a01        .*      CMP      r2,#1
        0x000029ee:    d0f8        ..      BEQ      0x29e2 ; SetPACA + 206
        0x000029f0:    4a04        .J      LDR      r2,[pc,#16] ; [0x2a04] = 0x20000028
        0x000029f2:    68d2        .h      LDR      r2,[r2,#0xc]
        0x000029f4:    6892        .h      LDR      r2,[r2,#8]
        0x000029f6:    0892        ..      LSRS     r2,r2,#2
        0x000029f8:    0092        ..      LSLS     r2,r2,#2
        0x000029fa:    4b02        .K      LDR      r3,[pc,#8] ; [0x2a04] = 0x20000028
        0x000029fc:    68db        .h      LDR      r3,[r3,#0xc]
        0x000029fe:    609a        .`      STR      r2,[r3,#8]
        0x00002a00:    4770        pG      BX       lr
    $d
        0x00002a02:    0000        ..      DCW    0
        0x00002a04:    20000028    (..     DCD    536870952
    $t
    i.Show_Word
    Show_Word
        0x00002a08:    b5fc        ..      PUSH     {r2-r7,lr}
        0x00002a0a:    4605        .F      MOV      r5,r0
        0x00002a0c:    460e        .F      MOV      r6,r1
        0x00002a0e:    4617        .F      MOV      r7,r2
        0x00002a10:    2400        .$      MOVS     r4,#0
        0x00002a12:    2000        .       MOVS     r0,#0
        0x00002a14:    9001        ..      STR      r0,[sp,#4]
        0x00002a16:    4638        8F      MOV      r0,r7
        0x00002a18:    3820         8      SUBS     r0,r0,#0x20
        0x00002a1a:    0100        ..      LSLS     r0,r0,#4
        0x00002a1c:    9001        ..      STR      r0,[sp,#4]
        0x00002a1e:    bf00        ..      NOP      
        0x00002a20:    e011        ..      B        0x2a46 ; Show_Word + 62
        0x00002a22:    00f2        ..      LSLS     r2,r6,#3
        0x00002a24:    2381        .#      MOVS     r3,#0x81
        0x00002a26:    1a9a        ..      SUBS     r2,r3,r2
        0x00002a28:    1b12        ..      SUBS     r2,r2,r4
        0x00002a2a:    b2d1        ..      UXTB     r1,r2
        0x00002a2c:    066a        j.      LSLS     r2,r5,#25
        0x00002a2e:    0e10        ..      LSRS     r0,r2,#24
        0x00002a30:    f7ffff70    ..p.    BL       SetPACA ; 0x2914
        0x00002a34:    9801        ..      LDR      r0,[sp,#4]
        0x00002a36:    1900        ..      ADDS     r0,r0,r4
        0x00002a38:    4910        .I      LDR      r1,[pc,#64] ; [0x2a7c] = 0x20000038
        0x00002a3a:    5c08        .\      LDRB     r0,[r1,r0]
        0x00002a3c:    9000        ..      STR      r0,[sp,#0]
        0x00002a3e:    9800        ..      LDR      r0,[sp,#0]
        0x00002a40:    f000fbc2    ....    BL       WriteData ; 0x31c8
        0x00002a44:    1c64        d.      ADDS     r4,r4,#1
        0x00002a46:    2c08        .,      CMP      r4,#8
        0x00002a48:    dbeb        ..      BLT      0x2a22 ; Show_Word + 26
        0x00002a4a:    2400        .$      MOVS     r4,#0
        0x00002a4c:    e013        ..      B        0x2a76 ; Show_Word + 110
        0x00002a4e:    00f2        ..      LSLS     r2,r6,#3
        0x00002a50:    2381        .#      MOVS     r3,#0x81
        0x00002a52:    1a9a        ..      SUBS     r2,r3,r2
        0x00002a54:    1b12        ..      SUBS     r2,r2,r4
        0x00002a56:    b2d1        ..      UXTB     r1,r2
        0x00002a58:    006a        j.      LSLS     r2,r5,#1
        0x00002a5a:    1c52        R.      ADDS     r2,r2,#1
        0x00002a5c:    b2d0        ..      UXTB     r0,r2
        0x00002a5e:    f7ffff59    ..Y.    BL       SetPACA ; 0x2914
        0x00002a62:    9801        ..      LDR      r0,[sp,#4]
        0x00002a64:    1900        ..      ADDS     r0,r0,r4
        0x00002a66:    3008        .0      ADDS     r0,r0,#8
        0x00002a68:    4904        .I      LDR      r1,[pc,#16] ; [0x2a7c] = 0x20000038
        0x00002a6a:    5c08        .\      LDRB     r0,[r1,r0]
        0x00002a6c:    9000        ..      STR      r0,[sp,#0]
        0x00002a6e:    9800        ..      LDR      r0,[sp,#0]
        0x00002a70:    f000fbaa    ....    BL       WriteData ; 0x31c8
        0x00002a74:    1c64        d.      ADDS     r4,r4,#1
        0x00002a76:    2c08        .,      CMP      r4,#8
        0x00002a78:    dbe9        ..      BLT      0x2a4e ; Show_Word + 70
        0x00002a7a:    bdfc        ..      POP      {r2-r7,pc}
    $d
        0x00002a7c:    20000038    8..     DCD    536870968
    $t
    i.SystemCoreClockUpdate
    SystemCoreClockUpdate
        0x00002a80:    b570        p.      PUSH     {r4-r6,lr}
        0x00002a82:    4820         H      LDR      r0,[pc,#128] ; [0x2b04] = 0x50000200
        0x00002a84:    6900        .i      LDR      r0,[r0,#0x10]
        0x00002a86:    0746        F.      LSLS     r6,r0,#29
        0x00002a88:    0f76        v.      LSRS     r6,r6,#29
        0x00002a8a:    2e05        ..      CMP      r6,#5
        0x00002a8c:    d900        ..      BLS      0x2a90 ; SystemCoreClockUpdate + 16
        0x00002a8e:    2604        .&      MOVS     r6,#4
        0x00002a90:    2e02        ..      CMP      r6,#2
        0x00002a92:    d003        ..      BEQ      0x2a9c ; SystemCoreClockUpdate + 28
        0x00002a94:    00b0        ..      LSLS     r0,r6,#2
        0x00002a96:    491c        .I      LDR      r1,[pc,#112] ; [0x2b08] = 0x20000008
        0x00002a98:    580d        .X      LDR      r5,[r1,r0]
        0x00002a9a:    e01e        ..      B        0x2ada ; SystemCoreClockUpdate + 90
        0x00002a9c:    4819        .H      LDR      r0,[pc,#100] ; [0x2b04] = 0x50000200
        0x00002a9e:    6a00        .j      LDR      r0,[r0,#0x20]
        0x00002aa0:    0400        ..      LSLS     r0,r0,#16
        0x00002aa2:    0f84        ..      LSRS     r4,r0,#30
        0x00002aa4:    2c01        .,      CMP      r4,#1
        0x00002aa6:    d900        ..      BLS      0x2aaa ; SystemCoreClockUpdate + 42
        0x00002aa8:    1e64        d.      SUBS     r4,r4,#1
        0x00002aaa:    4a16        .J      LDR      r2,[pc,#88] ; [0x2b04] = 0x50000200
        0x00002aac:    6a12        .j      LDR      r2,[r2,#0x20]
        0x00002aae:    0312        ..      LSLS     r2,r2,#12
        0x00002ab0:    0fd2        ..      LSRS     r2,r2,#31
        0x00002ab2:    d001        ..      BEQ      0x2ab8 ; SystemCoreClockUpdate + 56
        0x00002ab4:    4a15        .J      LDR      r2,[pc,#84] ; [0x2b0c] = 0x1518000
        0x00002ab6:    e000        ..      B        0x2aba ; SystemCoreClockUpdate + 58
        0x00002ab8:    4a15        .J      LDR      r2,[pc,#84] ; [0x2b10] = 0xb71b00
        0x00002aba:    4b12        .K      LDR      r3,[pc,#72] ; [0x2b04] = 0x50000200
        0x00002abc:    6a1b        .j      LDR      r3,[r3,#0x20]
        0x00002abe:    05db        ..      LSLS     r3,r3,#23
        0x00002ac0:    0ddb        ..      LSRS     r3,r3,#23
        0x00002ac2:    1c9b        ..      ADDS     r3,r3,#2
        0x00002ac4:    4610        .F      MOV      r0,r2
        0x00002ac6:    4358        XC      MULS     r0,r3,r0
        0x00002ac8:    4a0e        .J      LDR      r2,[pc,#56] ; [0x2b04] = 0x50000200
        0x00002aca:    6a12        .j      LDR      r2,[r2,#0x20]
        0x00002acc:    0492        ..      LSLS     r2,r2,#18
        0x00002ace:    0ed2        ..      LSRS     r2,r2,#27
        0x00002ad0:    1c91        ..      ADDS     r1,r2,#2
        0x00002ad2:    f7fdfcc4    ....    BL       __aeabi_uidiv ; 0x45e
        0x00002ad6:    40e0        .@      LSRS     r0,r0,r4
        0x00002ad8:    4605        .F      MOV      r5,r0
        0x00002ada:    480a        .H      LDR      r0,[pc,#40] ; [0x2b04] = 0x50000200
        0x00002adc:    6980        .i      LDR      r0,[r0,#0x18]
        0x00002ade:    0700        ..      LSLS     r0,r0,#28
        0x00002ae0:    0f00        ..      LSRS     r0,r0,#28
        0x00002ae2:    1c41        A.      ADDS     r1,r0,#1
        0x00002ae4:    4628        (F      MOV      r0,r5
        0x00002ae6:    f7fdfcba    ....    BL       __aeabi_uidiv ; 0x45e
        0x00002aea:    490a        .I      LDR      r1,[pc,#40] ; [0x2b14] = 0x20000000
        0x00002aec:    6008        .`      STR      r0,[r1,#0]
        0x00002aee:    490a        .I      LDR      r1,[pc,#40] ; [0x2b18] = 0xf4240
        0x00002af0:    4808        .H      LDR      r0,[pc,#32] ; [0x2b14] = 0x20000000
        0x00002af2:    6800        .h      LDR      r0,[r0,#0]
        0x00002af4:    104a        J.      ASRS     r2,r1,#1
        0x00002af6:    1880        ..      ADDS     r0,r0,r2
        0x00002af8:    f7fdfcb1    ....    BL       __aeabi_uidiv ; 0x45e
        0x00002afc:    4907        .I      LDR      r1,[pc,#28] ; [0x2b1c] = 0x20000004
        0x00002afe:    6008        .`      STR      r0,[r1,#0]
        0x00002b00:    bd70        p.      POP      {r4-r6,pc}
    $d
        0x00002b02:    0000        ..      DCW    0
        0x00002b04:    50000200    ...P    DCD    1342177792
        0x00002b08:    20000008    ...     DCD    536870920
        0x00002b0c:    01518000    ..Q.    DCD    22118400
        0x00002b10:    00b71b00    ....    DCD    12000000
        0x00002b14:    20000000    ...     DCD    536870912
        0x00002b18:    000f4240    @B..    DCD    1000000
        0x00002b1c:    20000004    ...     DCD    536870916
    $t
    i.SystemInit
    SystemInit
        0x00002b20:    4770        pG      BX       lr
        0x00002b22:    0000        ..      MOVS     r0,r0
    i.UART02_IRQHandler
    UART02_IRQHandler
        0x00002b24:    b570        p.      PUSH     {r4-r6,lr}
        0x00002b26:    480a        .H      LDR      r0,[pc,#40] ; [0x2b50] = 0x40050000
        0x00002b28:    69c4        .i      LDR      r4,[r0,#0x1c]
        0x00002b2a:    480a        .H      LDR      r0,[pc,#40] ; [0x2b54] = 0x40154000
        0x00002b2c:    69c5        .i      LDR      r5,[r0,#0x1c]
        0x00002b2e:    480a        .H      LDR      r0,[pc,#40] ; [0x2b58] = 0x20000640
        0x00002b30:    6800        .h      LDR      r0,[r0,#0]
        0x00002b32:    2800        .(      CMP      r0,#0
        0x00002b34:    d003        ..      BEQ      0x2b3e ; UART02_IRQHandler + 26
        0x00002b36:    4620         F      MOV      r0,r4
        0x00002b38:    4907        .I      LDR      r1,[pc,#28] ; [0x2b58] = 0x20000640
        0x00002b3a:    6809        .h      LDR      r1,[r1,#0]
        0x00002b3c:    4788        .G      BLX      r1
        0x00002b3e:    4807        .H      LDR      r0,[pc,#28] ; [0x2b5c] = 0x20000648
        0x00002b40:    6800        .h      LDR      r0,[r0,#0]
        0x00002b42:    2800        .(      CMP      r0,#0
        0x00002b44:    d003        ..      BEQ      0x2b4e ; UART02_IRQHandler + 42
        0x00002b46:    4628        (F      MOV      r0,r5
        0x00002b48:    4904        .I      LDR      r1,[pc,#16] ; [0x2b5c] = 0x20000648
        0x00002b4a:    6809        .h      LDR      r1,[r1,#0]
        0x00002b4c:    4788        .G      BLX      r1
        0x00002b4e:    bd70        p.      POP      {r4-r6,pc}
    $d
        0x00002b50:    40050000    ...@    DCD    1074069504
        0x00002b54:    40154000    .@.@    DCD    1075134464
        0x00002b58:    20000640    @..     DCD    536872512
        0x00002b5c:    20000648    H..     DCD    536872520
    $t
    i.UART1_IRQHandler
    UART1_IRQHandler
        0x00002b60:    b510        ..      PUSH     {r4,lr}
        0x00002b62:    4805        .H      LDR      r0,[pc,#20] ; [0x2b78] = 0x40150000
        0x00002b64:    69c4        .i      LDR      r4,[r0,#0x1c]
        0x00002b66:    4805        .H      LDR      r0,[pc,#20] ; [0x2b7c] = 0x20000644
        0x00002b68:    6800        .h      LDR      r0,[r0,#0]
        0x00002b6a:    2800        .(      CMP      r0,#0
        0x00002b6c:    d003        ..      BEQ      0x2b76 ; UART1_IRQHandler + 22
        0x00002b6e:    4620         F      MOV      r0,r4
        0x00002b70:    4902        .I      LDR      r1,[pc,#8] ; [0x2b7c] = 0x20000644
        0x00002b72:    6809        .h      LDR      r1,[r1,#0]
        0x00002b74:    4788        .G      BLX      r1
        0x00002b76:    bd10        ..      POP      {r4,pc}
    $d
        0x00002b78:    40150000    ...@    DCD    1075118080
        0x00002b7c:    20000644    D..     DCD    536872516
    $t
    i.USBD_IRQHandler
    USBD_IRQHandler
        0x00002b80:    b510        ..      PUSH     {r4,lr}
        0x00002b82:    f7fffb1f    ....    BL       DrvUSB_PreDispatchEvent ; 0x21c4
        0x00002b86:    4804        .H      LDR      r0,[pc,#16] ; [0x2b98] = 0x2000064c
        0x00002b88:    6800        .h      LDR      r0,[r0,#0]
        0x00002b8a:    2800        .(      CMP      r0,#0
        0x00002b8c:    d003        ..      BEQ      0x2b96 ; USBD_IRQHandler + 22
        0x00002b8e:    4803        .H      LDR      r0,[pc,#12] ; [0x2b9c] = 0x2000088c
        0x00002b90:    4901        .I      LDR      r1,[pc,#4] ; [0x2b98] = 0x2000064c
        0x00002b92:    6809        .h      LDR      r1,[r1,#0]
        0x00002b94:    4788        .G      BLX      r1
        0x00002b96:    bd10        ..      POP      {r4,pc}
    $d
        0x00002b98:    2000064c    L..     DCD    536872524
        0x00002b9c:    2000088c    ...     DCD    536873100
    $t
    i.VCOM_BulkInAckCallback
    VCOM_BulkInAckCallback
        0x00002ba0:    b570        p.      PUSH     {r4-r6,lr}
        0x00002ba2:    4604        .F      MOV      r4,r0
        0x00002ba4:    4625        %F      MOV      r5,r4
        0x00002ba6:    4804        .H      LDR      r0,[pc,#16] ; [0x2bb8] = 0x20000824
        0x00002ba8:    6800        .h      LDR      r0,[r0,#0]
        0x00002baa:    2800        .(      CMP      r0,#0
        0x00002bac:    d003        ..      BEQ      0x2bb6 ; VCOM_BulkInAckCallback + 22
        0x00002bae:    4902        .I      LDR      r1,[pc,#8] ; [0x2bb8] = 0x20000824
        0x00002bb0:    6968        hi      LDR      r0,[r5,#0x14]
        0x00002bb2:    6809        .h      LDR      r1,[r1,#0]
        0x00002bb4:    4788        .G      BLX      r1
        0x00002bb6:    bd70        p.      POP      {r4-r6,pc}
    $d
        0x00002bb8:    20000824    $..     DCD    536872996
    $t
    i.VCOM_BulkOutAckCallback
    VCOM_BulkOutAckCallback
        0x00002bbc:    b538        8.      PUSH     {r3-r5,lr}
        0x00002bbe:    4605        .F      MOV      r5,r0
        0x00002bc0:    4669        iF      MOV      r1,sp
        0x00002bc2:    2002        .       MOVS     r0,#2
        0x00002bc4:    f7fff89c    ....    BL       DrvUSB_GetOutData ; 0x1d00
        0x00002bc8:    4604        .F      MOV      r4,r0
        0x00002bca:    4806        .H      LDR      r0,[pc,#24] ; [0x2be4] = 0x20000828
        0x00002bcc:    6800        .h      LDR      r0,[r0,#0]
        0x00002bce:    2800        .(      CMP      r0,#0
        0x00002bd0:    d003        ..      BEQ      0x2bda ; VCOM_BulkOutAckCallback + 30
        0x00002bd2:    4620         F      MOV      r0,r4
        0x00002bd4:    4903        .I      LDR      r1,[pc,#12] ; [0x2be4] = 0x20000828
        0x00002bd6:    6809        .h      LDR      r1,[r1,#0]
        0x00002bd8:    4788        .G      BLX      r1
        0x00002bda:    2140        @!      MOVS     r1,#0x40
        0x00002bdc:    2002        .       MOVS     r0,#2
        0x00002bde:    f7feffc1    ....    BL       DrvUSB_DataOutTrigger ; 0x1b64
        0x00002be2:    bd38        8.      POP      {r3-r5,pc}
    $d
        0x00002be4:    20000828    (..     DCD    536873000
    $t
    i.VCOM_CtrlDataInGetDescriptor
    VCOM_CtrlDataInGetDescriptor
        0x00002be8:    b570        p.      PUSH     {r4-r6,lr}
        0x00002bea:    4605        .F      MOV      r5,r0
        0x00002bec:    4c1f        .L      LDR      r4,[pc,#124] ; [0x2c6c] = 0x2000088c
        0x00002bee:    208c        .       MOVS     r0,#0x8c
        0x00002bf0:    5d00        .]      LDRB     r0,[r0,r4]
        0x00002bf2:    2180        .!      MOVS     r1,#0x80
        0x00002bf4:    4208        .B      TST      r0,r1
        0x00002bf6:    d037        7.      BEQ      0x2c68 ; VCOM_CtrlDataInGetDescriptor + 128
        0x00002bf8:    481d        .H      LDR      r0,[pc,#116] ; [0x2c70] = 0x20000846
        0x00002bfa:    8800        ..      LDRH     r0,[r0,#0]
        0x00002bfc:    2800        .(      CMP      r0,#0
        0x00002bfe:    d030        0.      BEQ      0x2c62 ; VCOM_CtrlDataInGetDescriptor + 122
        0x00002c00:    481b        .H      LDR      r0,[pc,#108] ; [0x2c70] = 0x20000846
        0x00002c02:    8800        ..      LDRH     r0,[r0,#0]
        0x00002c04:    491b        .I      LDR      r1,[pc,#108] ; [0x2c74] = 0x20000848
        0x00002c06:    8809        ..      LDRH     r1,[r1,#0]
        0x00002c08:    4288        .B      CMP      r0,r1
        0x00002c0a:    db17        ..      BLT      0x2c3c ; VCOM_CtrlDataInGetDescriptor + 84
        0x00002c0c:    481a        .H      LDR      r0,[pc,#104] ; [0x2c78] = 0x33d6
        0x00002c0e:    4a1b        .J      LDR      r2,[pc,#108] ; [0x2c7c] = 0x2000084a
        0x00002c10:    8812        ..      LDRH     r2,[r2,#0]
        0x00002c12:    1881        ..      ADDS     r1,r0,r2
        0x00002c14:    4817        .H      LDR      r0,[pc,#92] ; [0x2c74] = 0x20000848
        0x00002c16:    8802        ..      LDRH     r2,[r0,#0]
        0x00002c18:    2000        .       MOVS     r0,#0
        0x00002c1a:    f7feff37    ..7.    BL       DrvUSB_DataIn ; 0x1a8c
        0x00002c1e:    4814        .H      LDR      r0,[pc,#80] ; [0x2c70] = 0x20000846
        0x00002c20:    8800        ..      LDRH     r0,[r0,#0]
        0x00002c22:    4914        .I      LDR      r1,[pc,#80] ; [0x2c74] = 0x20000848
        0x00002c24:    8809        ..      LDRH     r1,[r1,#0]
        0x00002c26:    1a40        @.      SUBS     r0,r0,r1
        0x00002c28:    4911        .I      LDR      r1,[pc,#68] ; [0x2c70] = 0x20000846
        0x00002c2a:    8008        ..      STRH     r0,[r1,#0]
        0x00002c2c:    4813        .H      LDR      r0,[pc,#76] ; [0x2c7c] = 0x2000084a
        0x00002c2e:    8800        ..      LDRH     r0,[r0,#0]
        0x00002c30:    4910        .I      LDR      r1,[pc,#64] ; [0x2c74] = 0x20000848
        0x00002c32:    8809        ..      LDRH     r1,[r1,#0]
        0x00002c34:    1840        @.      ADDS     r0,r0,r1
        0x00002c36:    4911        .I      LDR      r1,[pc,#68] ; [0x2c7c] = 0x2000084a
        0x00002c38:    8008        ..      STRH     r0,[r1,#0]
        0x00002c3a:    e00b        ..      B        0x2c54 ; VCOM_CtrlDataInGetDescriptor + 108
        0x00002c3c:    480e        .H      LDR      r0,[pc,#56] ; [0x2c78] = 0x33d6
        0x00002c3e:    4a0f        .J      LDR      r2,[pc,#60] ; [0x2c7c] = 0x2000084a
        0x00002c40:    8812        ..      LDRH     r2,[r2,#0]
        0x00002c42:    1881        ..      ADDS     r1,r0,r2
        0x00002c44:    480a        .H      LDR      r0,[pc,#40] ; [0x2c70] = 0x20000846
        0x00002c46:    8802        ..      LDRH     r2,[r0,#0]
        0x00002c48:    2000        .       MOVS     r0,#0
        0x00002c4a:    f7feff1f    ....    BL       DrvUSB_DataIn ; 0x1a8c
        0x00002c4e:    2000        .       MOVS     r0,#0
        0x00002c50:    4907        .I      LDR      r1,[pc,#28] ; [0x2c70] = 0x20000846
        0x00002c52:    8008        ..      STRH     r0,[r1,#0]
        0x00002c54:    4806        .H      LDR      r0,[pc,#24] ; [0x2c70] = 0x20000846
        0x00002c56:    8800        ..      LDRH     r0,[r0,#0]
        0x00002c58:    2800        .(      CMP      r0,#0
        0x00002c5a:    d105        ..      BNE      0x2c68 ; VCOM_CtrlDataInGetDescriptor + 128
        0x00002c5c:    4908        .I      LDR      r1,[pc,#32] ; [0x2c80] = 0x40060000
        0x00002c5e:    6348        Hc      STR      r0,[r1,#0x34]
        0x00002c60:    e002        ..      B        0x2c68 ; VCOM_CtrlDataInGetDescriptor + 128
        0x00002c62:    2000        .       MOVS     r0,#0
        0x00002c64:    4906        .I      LDR      r1,[pc,#24] ; [0x2c80] = 0x40060000
        0x00002c66:    6348        Hc      STR      r0,[r1,#0x34]
        0x00002c68:    bd70        p.      POP      {r4-r6,pc}
    $d
        0x00002c6a:    0000        ..      DCW    0
        0x00002c6c:    2000088c    ...     DCD    536873100
        0x00002c70:    20000846    F..     DCD    536873030
        0x00002c74:    20000848    H..     DCD    536873032
        0x00002c78:    000033d6    .3..    DCD    13270
        0x00002c7c:    2000084a    J..     DCD    536873034
        0x00002c80:    40060000    ...@    DCD    1074135040
    $t
    i.VCOM_CtrlLineState
    VCOM_CtrlLineState
        0x00002c84:    b570        p.      PUSH     {r4-r6,lr}
        0x00002c86:    4604        .F      MOV      r4,r0
        0x00002c88:    69e5        .i      LDR      r5,[r4,#0x1c]
        0x00002c8a:    208f        .       MOVS     r0,#0x8f
        0x00002c8c:    5d40        @]      LDRB     r0,[r0,r5]
        0x00002c8e:    4908        .I      LDR      r1,[pc,#32] ; [0x2cb0] = 0x20000844
        0x00002c90:    8008        ..      STRH     r0,[r1,#0]
        0x00002c92:    4608        .F      MOV      r0,r1
        0x00002c94:    8800        ..      LDRH     r0,[r0,#0]
        0x00002c96:    0200        ..      LSLS     r0,r0,#8
        0x00002c98:    218e        .!      MOVS     r1,#0x8e
        0x00002c9a:    5d49        I]      LDRB     r1,[r1,r5]
        0x00002c9c:    4308        .C      ORRS     r0,r0,r1
        0x00002c9e:    4904        .I      LDR      r1,[pc,#16] ; [0x2cb0] = 0x20000844
        0x00002ca0:    8008        ..      STRH     r0,[r1,#0]
        0x00002ca2:    2200        ."      MOVS     r2,#0
        0x00002ca4:    4611        .F      MOV      r1,r2
        0x00002ca6:    4610        .F      MOV      r0,r2
        0x00002ca8:    f7fefef0    ....    BL       DrvUSB_DataIn ; 0x1a8c
        0x00002cac:    bd70        p.      POP      {r4-r6,pc}
    $d
        0x00002cae:    0000        ..      DCW    0
        0x00002cb0:    20000844    D..     DCD    536873028
    $t
    i.VCOM_CtrlSetupGetDescriptor
    VCOM_CtrlSetupGetDescriptor
        0x00002cb4:    b5f8        ..      PUSH     {r3-r7,lr}
        0x00002cb6:    4607        .F      MOV      r7,r0
        0x00002cb8:    463c        <F      MOV      r4,r7
        0x00002cba:    69e6        .i      LDR      r6,[r4,#0x1c]
        0x00002cbc:    2500        .%      MOVS     r5,#0
        0x00002cbe:    2093        .       MOVS     r0,#0x93
        0x00002cc0:    5d85        .]      LDRB     r5,[r0,r6]
        0x00002cc2:    022d        -.      LSLS     r5,r5,#8
        0x00002cc4:    2092        .       MOVS     r0,#0x92
        0x00002cc6:    5d80        .]      LDRB     r0,[r0,r6]
        0x00002cc8:    1940        @.      ADDS     r0,r0,r5
        0x00002cca:    b285        ..      UXTH     r5,r0
        0x00002ccc:    208f        .       MOVS     r0,#0x8f
        0x00002cce:    5d80        .]      LDRB     r0,[r0,r6]
        0x00002cd0:    2801        .(      CMP      r0,#1
        0x00002cd2:    d004        ..      BEQ      0x2cde ; VCOM_CtrlSetupGetDescriptor + 42
        0x00002cd4:    2802        .(      CMP      r0,#2
        0x00002cd6:    d00e        ..      BEQ      0x2cf6 ; VCOM_CtrlSetupGetDescriptor + 66
        0x00002cd8:    2803        .(      CMP      r0,#3
        0x00002cda:    d16f        o.      BNE      0x2dbc ; VCOM_CtrlSetupGetDescriptor + 264
        0x00002cdc:    e04f        O.      B        0x2d7e ; VCOM_CtrlSetupGetDescriptor + 202
        0x00002cde:    2d12        .-      CMP      r5,#0x12
        0x00002ce0:    da01        ..      BGE      0x2ce6 ; VCOM_CtrlSetupGetDescriptor + 50
        0x00002ce2:    4628        (F      MOV      r0,r5
        0x00002ce4:    e000        ..      B        0x2ce8 ; VCOM_CtrlSetupGetDescriptor + 52
        0x00002ce6:    2012        .       MOVS     r0,#0x12
        0x00002ce8:    b285        ..      UXTH     r5,r0
        0x00002cea:    462a        *F      MOV      r2,r5
        0x00002cec:    2000        .       MOVS     r0,#0
        0x00002cee:    6821        !h      LDR      r1,[r4,#0]
        0x00002cf0:    f7fefecc    ....    BL       DrvUSB_DataIn ; 0x1a8c
        0x00002cf4:    e092        ..      B        0x2e1c ; VCOM_CtrlSetupGetDescriptor + 360
        0x00002cf6:    6860        `h      LDR      r0,[r4,#4]
        0x00002cf8:    78c0        .x      LDRB     r0,[r0,#3]
        0x00002cfa:    9000        ..      STR      r0,[sp,#0]
        0x00002cfc:    9800        ..      LDR      r0,[sp,#0]
        0x00002cfe:    0200        ..      LSLS     r0,r0,#8
        0x00002d00:    9000        ..      STR      r0,[sp,#0]
        0x00002d02:    6860        `h      LDR      r0,[r4,#4]
        0x00002d04:    7880        .x      LDRB     r0,[r0,#2]
        0x00002d06:    9900        ..      LDR      r1,[sp,#0]
        0x00002d08:    4308        .C      ORRS     r0,r0,r1
        0x00002d0a:    9000        ..      STR      r0,[sp,#0]
        0x00002d0c:    9800        ..      LDR      r0,[sp,#0]
        0x00002d0e:    4285        .B      CMP      r5,r0
        0x00002d10:    da01        ..      BGE      0x2d16 ; VCOM_CtrlSetupGetDescriptor + 98
        0x00002d12:    4628        (F      MOV      r0,r5
        0x00002d14:    e000        ..      B        0x2d18 ; VCOM_CtrlSetupGetDescriptor + 100
        0x00002d16:    9800        ..      LDR      r0,[sp,#0]
        0x00002d18:    4941        AI      LDR      r1,[pc,#260] ; [0x2e20] = 0x20000846
        0x00002d1a:    8008        ..      STRH     r0,[r1,#0]
        0x00002d1c:    2040        @       MOVS     r0,#0x40
        0x00002d1e:    4941        AI      LDR      r1,[pc,#260] ; [0x2e24] = 0x20000848
        0x00002d20:    8008        ..      STRH     r0,[r1,#0]
        0x00002d22:    2000        .       MOVS     r0,#0
        0x00002d24:    4940        @I      LDR      r1,[pc,#256] ; [0x2e28] = 0x2000084a
        0x00002d26:    8008        ..      STRH     r0,[r1,#0]
        0x00002d28:    483d        =H      LDR      r0,[pc,#244] ; [0x2e20] = 0x20000846
        0x00002d2a:    8800        ..      LDRH     r0,[r0,#0]
        0x00002d2c:    493d        =I      LDR      r1,[pc,#244] ; [0x2e24] = 0x20000848
        0x00002d2e:    8809        ..      LDRH     r1,[r1,#0]
        0x00002d30:    4288        .B      CMP      r0,r1
        0x00002d32:    dd17        ..      BLE      0x2d64 ; VCOM_CtrlSetupGetDescriptor + 176
        0x00002d34:    4a3c        <J      LDR      r2,[pc,#240] ; [0x2e28] = 0x2000084a
        0x00002d36:    8812        ..      LDRH     r2,[r2,#0]
        0x00002d38:    6860        `h      LDR      r0,[r4,#4]
        0x00002d3a:    1881        ..      ADDS     r1,r0,r2
        0x00002d3c:    4839        9H      LDR      r0,[pc,#228] ; [0x2e24] = 0x20000848
        0x00002d3e:    8802        ..      LDRH     r2,[r0,#0]
        0x00002d40:    2000        .       MOVS     r0,#0
        0x00002d42:    f7fefea3    ....    BL       DrvUSB_DataIn ; 0x1a8c
        0x00002d46:    4836        6H      LDR      r0,[pc,#216] ; [0x2e20] = 0x20000846
        0x00002d48:    8800        ..      LDRH     r0,[r0,#0]
        0x00002d4a:    4936        6I      LDR      r1,[pc,#216] ; [0x2e24] = 0x20000848
        0x00002d4c:    8809        ..      LDRH     r1,[r1,#0]
        0x00002d4e:    1a40        @.      SUBS     r0,r0,r1
        0x00002d50:    4933        3I      LDR      r1,[pc,#204] ; [0x2e20] = 0x20000846
        0x00002d52:    8008        ..      STRH     r0,[r1,#0]
        0x00002d54:    4834        4H      LDR      r0,[pc,#208] ; [0x2e28] = 0x2000084a
        0x00002d56:    8800        ..      LDRH     r0,[r0,#0]
        0x00002d58:    4932        2I      LDR      r1,[pc,#200] ; [0x2e24] = 0x20000848
        0x00002d5a:    8809        ..      LDRH     r1,[r1,#0]
        0x00002d5c:    1840        @.      ADDS     r0,r0,r1
        0x00002d5e:    4932        2I      LDR      r1,[pc,#200] ; [0x2e28] = 0x2000084a
        0x00002d60:    8008        ..      STRH     r0,[r1,#0]
        0x00002d62:    e00b        ..      B        0x2d7c ; VCOM_CtrlSetupGetDescriptor + 200
        0x00002d64:    4a30        0J      LDR      r2,[pc,#192] ; [0x2e28] = 0x2000084a
        0x00002d66:    8812        ..      LDRH     r2,[r2,#0]
        0x00002d68:    6860        `h      LDR      r0,[r4,#4]
        0x00002d6a:    1881        ..      ADDS     r1,r0,r2
        0x00002d6c:    482c        ,H      LDR      r0,[pc,#176] ; [0x2e20] = 0x20000846
        0x00002d6e:    8802        ..      LDRH     r2,[r0,#0]
        0x00002d70:    2000        .       MOVS     r0,#0
        0x00002d72:    f7fefe8b    ....    BL       DrvUSB_DataIn ; 0x1a8c
        0x00002d76:    2000        .       MOVS     r0,#0
        0x00002d78:    4929        )I      LDR      r1,[pc,#164] ; [0x2e20] = 0x20000846
        0x00002d7a:    8008        ..      STRH     r0,[r1,#0]
        0x00002d7c:    e04e        N.      B        0x2e1c ; VCOM_CtrlSetupGetDescriptor + 360
        0x00002d7e:    208e        .       MOVS     r0,#0x8e
        0x00002d80:    5d80        .]      LDRB     r0,[r0,r6]
        0x00002d82:    2800        .(      CMP      r0,#0
        0x00002d84:    d10b        ..      BNE      0x2d9e ; VCOM_CtrlSetupGetDescriptor + 234
        0x00002d86:    2d04        .-      CMP      r5,#4
        0x00002d88:    da01        ..      BGE      0x2d8e ; VCOM_CtrlSetupGetDescriptor + 218
        0x00002d8a:    4628        (F      MOV      r0,r5
        0x00002d8c:    e000        ..      B        0x2d90 ; VCOM_CtrlSetupGetDescriptor + 220
        0x00002d8e:    2004        .       MOVS     r0,#4
        0x00002d90:    b285        ..      UXTH     r5,r0
        0x00002d92:    462a        *F      MOV      r2,r5
        0x00002d94:    4925        %I      LDR      r1,[pc,#148] ; [0x2e2c] = 0x3419
        0x00002d96:    2000        .       MOVS     r0,#0
        0x00002d98:    f7fefe78    ..x.    BL       DrvUSB_DataIn ; 0x1a8c
        0x00002d9c:    e03a        :.      B        0x2e14 ; VCOM_CtrlSetupGetDescriptor + 352
        0x00002d9e:    208e        .       MOVS     r0,#0x8e
        0x00002da0:    5d80        .]      LDRB     r0,[r0,r6]
        0x00002da2:    2801        .(      CMP      r0,#1
        0x00002da4:    d004        ..      BEQ      0x2db0 ; VCOM_CtrlSetupGetDescriptor + 252
        0x00002da6:    2802        .(      CMP      r0,#2
        0x00002da8:    d012        ..      BEQ      0x2dd0 ; VCOM_CtrlSetupGetDescriptor + 284
        0x00002daa:    2803        .(      CMP      r0,#3
        0x00002dac:    d12e        ..      BNE      0x2e0c ; VCOM_CtrlSetupGetDescriptor + 344
        0x00002dae:    e01e        ..      B        0x2dee ; VCOM_CtrlSetupGetDescriptor + 314
        0x00002db0:    68e0        .h      LDR      r0,[r4,#0xc]
        0x00002db2:    7800        .x      LDRB     r0,[r0,#0]
        0x00002db4:    42a8        .B      CMP      r0,r5
        0x00002db6:    dd02        ..      BLE      0x2dbe ; VCOM_CtrlSetupGetDescriptor + 266
        0x00002db8:    4628        (F      MOV      r0,r5
        0x00002dba:    e002        ..      B        0x2dc2 ; VCOM_CtrlSetupGetDescriptor + 270
        0x00002dbc:    e02b        +.      B        0x2e16 ; VCOM_CtrlSetupGetDescriptor + 354
        0x00002dbe:    68e0        .h      LDR      r0,[r4,#0xc]
        0x00002dc0:    7800        .x      LDRB     r0,[r0,#0]
        0x00002dc2:    b285        ..      UXTH     r5,r0
        0x00002dc4:    462a        *F      MOV      r2,r5
        0x00002dc6:    2000        .       MOVS     r0,#0
        0x00002dc8:    6921        !i      LDR      r1,[r4,#0x10]
        0x00002dca:    f7fefe5f    .._.    BL       DrvUSB_DataIn ; 0x1a8c
        0x00002dce:    e020         .      B        0x2e12 ; VCOM_CtrlSetupGetDescriptor + 350
        0x00002dd0:    6920         i      LDR      r0,[r4,#0x10]
        0x00002dd2:    7800        .x      LDRB     r0,[r0,#0]
        0x00002dd4:    42a8        .B      CMP      r0,r5
        0x00002dd6:    dd01        ..      BLE      0x2ddc ; VCOM_CtrlSetupGetDescriptor + 296
        0x00002dd8:    4628        (F      MOV      r0,r5
        0x00002dda:    e001        ..      B        0x2de0 ; VCOM_CtrlSetupGetDescriptor + 300
        0x00002ddc:    6920         i      LDR      r0,[r4,#0x10]
        0x00002dde:    7800        .x      LDRB     r0,[r0,#0]
        0x00002de0:    b285        ..      UXTH     r5,r0
        0x00002de2:    462a        *F      MOV      r2,r5
        0x00002de4:    2000        .       MOVS     r0,#0
        0x00002de6:    6921        !i      LDR      r1,[r4,#0x10]
        0x00002de8:    f7fefe50    ..P.    BL       DrvUSB_DataIn ; 0x1a8c
        0x00002dec:    e011        ..      B        0x2e12 ; VCOM_CtrlSetupGetDescriptor + 350
        0x00002dee:    4810        .H      LDR      r0,[pc,#64] ; [0x2e30] = 0x344d
        0x00002df0:    7800        .x      LDRB     r0,[r0,#0]
        0x00002df2:    42a8        .B      CMP      r0,r5
        0x00002df4:    dd01        ..      BLE      0x2dfa ; VCOM_CtrlSetupGetDescriptor + 326
        0x00002df6:    4628        (F      MOV      r0,r5
        0x00002df8:    e001        ..      B        0x2dfe ; VCOM_CtrlSetupGetDescriptor + 330
        0x00002dfa:    480d        .H      LDR      r0,[pc,#52] ; [0x2e30] = 0x344d
        0x00002dfc:    7800        .x      LDRB     r0,[r0,#0]
        0x00002dfe:    b285        ..      UXTH     r5,r0
        0x00002e00:    462a        *F      MOV      r2,r5
        0x00002e02:    490b        .I      LDR      r1,[pc,#44] ; [0x2e30] = 0x344d
        0x00002e04:    2000        .       MOVS     r0,#0
        0x00002e06:    f7fefe41    ..A.    BL       DrvUSB_DataIn ; 0x1a8c
        0x00002e0a:    e002        ..      B        0x2e12 ; VCOM_CtrlSetupGetDescriptor + 350
        0x00002e0c:    f7fefc5a    ..Z.    BL       DrvUSB_ClrCtrlReadyAndTrigStall ; 0x16c4
        0x00002e10:    bf00        ..      NOP      
        0x00002e12:    bf00        ..      NOP      
        0x00002e14:    e002        ..      B        0x2e1c ; VCOM_CtrlSetupGetDescriptor + 360
        0x00002e16:    f7fefc55    ..U.    BL       DrvUSB_ClrCtrlReadyAndTrigStall ; 0x16c4
        0x00002e1a:    bf00        ..      NOP      
        0x00002e1c:    bf00        ..      NOP      
        0x00002e1e:    bdf8        ..      POP      {r3-r7,pc}
    $d
        0x00002e20:    20000846    F..     DCD    536873030
        0x00002e24:    20000848    H..     DCD    536873032
        0x00002e28:    2000084a    J..     DCD    536873034
        0x00002e2c:    00003419    .4..    DCD    13337
        0x00002e30:    0000344d    M4..    DCD    13389
    $t
    i.VCOM_CtrlSetupSetConfiguration
    VCOM_CtrlSetupSetConfiguration
        0x00002e34:    b5f8        ..      PUSH     {r3-r7,lr}
        0x00002e36:    4607        .F      MOV      r7,r0
        0x00002e38:    4c1f        .L      LDR      r4,[pc,#124] ; [0x2eb8] = 0x2000088c
        0x00002e3a:    20a4        .       MOVS     r0,#0xa4
        0x00002e3c:    5905        .Y      LDR      r5,[r0,r4]
        0x00002e3e:    68a8        .h      LDR      r0,[r5,#8]
        0x00002e40:    2800        .(      CMP      r0,#0
        0x00002e42:    d004        ..      BEQ      0x2e4e ; VCOM_CtrlSetupSetConfiguration + 26
        0x00002e44:    228e        ."      MOVS     r2,#0x8e
        0x00002e46:    5d10        .]      LDRB     r0,[r2,r4]
        0x00002e48:    68a9        .h      LDR      r1,[r5,#8]
        0x00002e4a:    4788        .G      BLX      r1
        0x00002e4c:    e000        ..      B        0x2e50 ; VCOM_CtrlSetupSetConfiguration + 28
        0x00002e4e:    2001        .       MOVS     r0,#1
        0x00002e50:    4606        .F      MOV      r6,r0
        0x00002e52:    208e        .       MOVS     r0,#0x8e
        0x00002e54:    5d00        .]      LDRB     r0,[r0,r4]
        0x00002e56:    2800        .(      CMP      r0,#0
        0x00002e58:    d10c        ..      BNE      0x2e74 ; VCOM_CtrlSetupSetConfiguration + 64
        0x00002e5a:    200f        .       MOVS     r0,#0xf
        0x00002e5c:    f7fffa18    ....    BL       DrvUSB_SetUsbState ; 0x2290
        0x00002e60:    208e        .       MOVS     r0,#0x8e
        0x00002e62:    5d01        .]      LDRB     r1,[r0,r4]
        0x00002e64:    2095        .       MOVS     r0,#0x95
        0x00002e66:    5501        .U      STRB     r1,[r0,r4]
        0x00002e68:    2200        ."      MOVS     r2,#0
        0x00002e6a:    4611        .F      MOV      r1,r2
        0x00002e6c:    4610        .F      MOV      r0,r2
        0x00002e6e:    f7fefe0d    ....    BL       DrvUSB_DataIn ; 0x1a8c
        0x00002e72:    e01f        ..      B        0x2eb4 ; VCOM_CtrlSetupSetConfiguration + 128
        0x00002e74:    2e00        ..      CMP      r6,#0
        0x00002e76:    d01b        ..      BEQ      0x2eb0 ; VCOM_CtrlSetupSetConfiguration + 124
        0x00002e78:    201f        .       MOVS     r0,#0x1f
        0x00002e7a:    f7fffa09    ....    BL       DrvUSB_SetUsbState ; 0x2290
        0x00002e7e:    6868        hh      LDR      r0,[r5,#4]
        0x00002e80:    2800        .(      CMP      r0,#0
        0x00002e82:    d002        ..      BEQ      0x2e8a ; VCOM_CtrlSetupSetConfiguration + 86
        0x00002e84:    4638        8F      MOV      r0,r7
        0x00002e86:    6869        ih      LDR      r1,[r5,#4]
        0x00002e88:    4788        .G      BLX      r1
        0x00002e8a:    208e        .       MOVS     r0,#0x8e
        0x00002e8c:    5d01        .]      LDRB     r1,[r0,r4]
        0x00002e8e:    2095        .       MOVS     r0,#0x95
        0x00002e90:    5501        .U      STRB     r1,[r0,r4]
        0x00002e92:    2200        ."      MOVS     r2,#0
        0x00002e94:    4611        .F      MOV      r1,r2
        0x00002e96:    4610        .F      MOV      r0,r2
        0x00002e98:    f7fefdf8    ....    BL       DrvUSB_DataIn ; 0x1a8c
        0x00002e9c:    2140        @!      MOVS     r1,#0x40
        0x00002e9e:    2002        .       MOVS     r0,#2
        0x00002ea0:    f7fefe60    ..`.    BL       DrvUSB_DataOutTrigger ; 0x1b64
        0x00002ea4:    2200        ."      MOVS     r2,#0
        0x00002ea6:    4611        .F      MOV      r1,r2
        0x00002ea8:    2001        .       MOVS     r0,#1
        0x00002eaa:    f7fefdef    ....    BL       DrvUSB_DataIn ; 0x1a8c
        0x00002eae:    e001        ..      B        0x2eb4 ; VCOM_CtrlSetupSetConfiguration + 128
        0x00002eb0:    f7fefc08    ....    BL       DrvUSB_ClrCtrlReadyAndTrigStall ; 0x16c4
        0x00002eb4:    bdf8        ..      POP      {r3-r7,pc}
    $d
        0x00002eb6:    0000        ..      DCW    0
        0x00002eb8:    2000088c    ...     DCD    536873100
    $t
    i.VCOM_GetInData
    VCOM_GetInData
        0x00002ebc:    b510        ..      PUSH     {r4,lr}
        0x00002ebe:    b086        ..      SUB      sp,sp,#0x18
        0x00002ec0:    4604        .F      MOV      r4,r0
        0x00002ec2:    2100        .!      MOVS     r1,#0
        0x00002ec4:    9105        ..      STR      r1,[sp,#0x14]
        0x00002ec6:    4b20         K      LDR      r3,[pc,#128] ; [0x2f48] = 0x3468
        0x00002ec8:    cb0f        ..      LDM      r3,{r0-r3}
        0x00002eca:    9304        ..      STR      r3,[sp,#0x10]
        0x00002ecc:    ab01        ..      ADD      r3,sp,#4
        0x00002ece:    c307        ..      STM      r3!,{r0-r2}
        0x00002ed0:    f7fffcc0    ....    BL       Scankey ; 0x2854
        0x00002ed4:    9005        ..      STR      r0,[sp,#0x14]
        0x00002ed6:    4668        hF      MOV      r0,sp
        0x00002ed8:    7d00        .}      LDRB     r0,[r0,#0x14]
        0x00002eda:    2800        .(      CMP      r0,#0
        0x00002edc:    d02c        ,.      BEQ      0x2f38 ; VCOM_GetInData + 124
        0x00002ede:    f000f9be    ....    BL       clr_all_pannal ; 0x325e
        0x00002ee2:    a11a        ..      ADR      r1,{pc}+0x6a ; 0x2f4c
        0x00002ee4:    2000        .       MOVS     r0,#0
        0x00002ee6:    f000fa39    ..9.    BL       print_lcd ; 0x335c
        0x00002eea:    a11c        ..      ADR      r1,{pc}+0x72 ; 0x2f5c
        0x00002eec:    2001        .       MOVS     r0,#1
        0x00002eee:    f000fa35    ..5.    BL       print_lcd ; 0x335c
        0x00002ef2:    a11e        ..      ADR      r1,{pc}+0x7a ; 0x2f6c
        0x00002ef4:    2002        .       MOVS     r0,#2
        0x00002ef6:    f000fa31    ..1.    BL       print_lcd ; 0x335c
        0x00002efa:    4668        hF      MOV      r0,sp
        0x00002efc:    7d02        .}      LDRB     r2,[r0,#0x14]
        0x00002efe:    a11f        ..      ADR      r1,{pc}+0x7e ; 0x2f7c
        0x00002f00:    300e        .0      ADDS     r0,r0,#0xe
        0x00002f02:    f7fdf995    ....    BL       __2sprintf ; 0x230
        0x00002f06:    a901        ..      ADD      r1,sp,#4
        0x00002f08:    2002        .       MOVS     r0,#2
        0x00002f0a:    f000fa27    ..'.    BL       print_lcd ; 0x335c
        0x00002f0e:    4668        hF      MOV      r0,sp
        0x00002f10:    7d01        .}      LDRB     r1,[r0,#0x14]
        0x00002f12:    2000        .       MOVS     r0,#0
        0x00002f14:    f000fa36    ..6.    BL       show_seven_segment ; 0x3384
        0x00002f18:    4668        hF      MOV      r0,sp
        0x00002f1a:    7d00        .}      LDRB     r0,[r0,#0x14]
        0x00002f1c:    3030        00      ADDS     r0,r0,#0x30
        0x00002f1e:    b2c1        ..      UXTB     r1,r0
        0x00002f20:    9105        ..      STR      r1,[sp,#0x14]
        0x00002f22:    2001        .       MOVS     r0,#1
        0x00002f24:    4916        .I      LDR      r1,[pc,#88] ; [0x2f80] = 0x2000094c
        0x00002f26:    6188        .a      STR      r0,[r1,#0x18]
        0x00002f28:    ac05        ..      ADD      r4,sp,#0x14
        0x00002f2a:    4608        .F      MOV      r0,r1
        0x00002f2c:    4621        !F      MOV      r1,r4
        0x00002f2e:    6982        .i      LDR      r2,[r0,#0x18]
        0x00002f30:    2001        .       MOVS     r0,#1
        0x00002f32:    f7fefdab    ....    BL       DrvUSB_DataIn ; 0x1a8c
        0x00002f36:    e004        ..      B        0x2f42 ; VCOM_GetInData + 134
        0x00002f38:    2200        ."      MOVS     r2,#0
        0x00002f3a:    4621        !F      MOV      r1,r4
        0x00002f3c:    2001        .       MOVS     r0,#1
        0x00002f3e:    f7fefda5    ....    BL       DrvUSB_DataIn ; 0x1a8c
        0x00002f42:    b006        ..      ADD      sp,sp,#0x18
        0x00002f44:    bd10        ..      POP      {r4,pc}
    $d
        0x00002f46:    0000        ..      DCW    0
        0x00002f48:    00003468    h4..    DCD    13416
        0x00002f4c:    74726956    Virt    DCD    1953655126
        0x00002f50:    206c6175    ual     DCD    543973749
        0x00002f54:    204d4f43    COM     DCD    541937475
        0x00002f58:    00002020      ..    DCD    8224
        0x00002f5c:    2079654b    Key     DCD    544826699
        0x00002f60:    20646150    Pad     DCD    543449424
        0x00002f64:    74736574    test    DCD    1953719668
        0x00002f68:    00002020      ..    DCD    8224
        0x00002f6c:    20202020            DCD    538976288
        0x00002f70:    20202020            DCD    538976288
        0x00002f74:    20202020            DCD    538976288
        0x00002f78:    00002020      ..    DCD    8224
        0x00002f7c:    00006425    %d..    DCD    25637
        0x00002f80:    2000094c    L..     DCD    536873292
    $t
    i.VCOM_GetLineCoding
    VCOM_GetLineCoding
        0x00002f84:    b570        p.      PUSH     {r4-r6,lr}
        0x00002f86:    4604        .F      MOV      r4,r0
        0x00002f88:    69e5        .i      LDR      r5,[r4,#0x1c]
        0x00002f8a:    2001        .       MOVS     r0,#1
        0x00002f8c:    6128        (a      STR      r0,[r5,#0x10]
        0x00002f8e:    2207        ."      MOVS     r2,#7
        0x00002f90:    4902        .I      LDR      r1,[pc,#8] ; [0x2f9c] = 0x2000083c
        0x00002f92:    2000        .       MOVS     r0,#0
        0x00002f94:    f7fefd7a    ..z.    BL       DrvUSB_DataIn ; 0x1a8c
        0x00002f98:    bd70        p.      POP      {r4-r6,pc}
    $d
        0x00002f9a:    0000        ..      DCW    0
        0x00002f9c:    2000083c    <..     DCD    536873020
    $t
    i.VCOM_IntInAckCallback
    VCOM_IntInAckCallback
        0x00002fa0:    4770        pG      BX       lr
        0x00002fa2:    0000        ..      MOVS     r0,r0
    i.VCOM_MainProcess
    VCOM_MainProcess
        0x00002fa4:    b570        p.      PUSH     {r4-r6,lr}
        0x00002fa6:    2500        .%      MOVS     r5,#0
        0x00002fa8:    4818        .H      LDR      r0,[pc,#96] ; [0x300c] = 0x1c25
        0x00002faa:    f7feff41    ..A.    BL       DrvUSB_Open ; 0x1e30
        0x00002fae:    4605        .F      MOV      r5,r0
        0x00002fb0:    2d00        .-      CMP      r5,#0
        0x00002fb2:    d001        ..      BEQ      0x2fb8 ; VCOM_MainProcess + 20
        0x00002fb4:    4628        (F      MOV      r0,r5
        0x00002fb6:    bd70        p.      POP      {r4-r6,pc}
        0x00002fb8:    e027        '.      B        0x300a ; VCOM_MainProcess + 102
        0x00002fba:    2000        .       MOVS     r0,#0
        0x00002fbc:    4914        .I      LDR      r1,[pc,#80] ; [0x3010] = 0x40060000
        0x00002fbe:    6008        .`      STR      r0,[r1,#0]
        0x00002fc0:    4608        .F      MOV      r0,r1
        0x00002fc2:    6800        .h      LDR      r0,[r0,#0]
        0x00002fc4:    2104        .!      MOVS     r1,#4
        0x00002fc6:    4388        .C      BICS     r0,r0,r1
        0x00002fc8:    1d00        ..      ADDS     r0,r0,#4
        0x00002fca:    4911        .I      LDR      r1,[pc,#68] ; [0x3010] = 0x40060000
        0x00002fcc:    6008        .`      STR      r0,[r1,#0]
        0x00002fce:    e007        ..      B        0x2fe0 ; VCOM_MainProcess + 60
        0x00002fd0:    f7fefeb4    ....    BL       DrvUSB_GetUsbState ; 0x1d3c
        0x00002fd4:    4604        .F      MOV      r4,r0
        0x00002fd6:    2c01        .,      CMP      r4,#1
        0x00002fd8:    db02        ..      BLT      0x2fe0 ; VCOM_MainProcess + 60
        0x00002fda:    2c20         ,      CMP      r4,#0x20
        0x00002fdc:    d000        ..      BEQ      0x2fe0 ; VCOM_MainProcess + 60
        0x00002fde:    e000        ..      B        0x2fe2 ; VCOM_MainProcess + 62
        0x00002fe0:    e7f6        ..      B        0x2fd0 ; VCOM_MainProcess + 44
        0x00002fe2:    bf00        ..      NOP      
        0x00002fe4:    490b        .I      LDR      r1,[pc,#44] ; [0x3014] = 0x30c5
        0x00002fe6:    480c        .H      LDR      r0,[pc,#48] ; [0x3018] = 0x2ebd
        0x00002fe8:    f000f818    ....    BL       VCOM_Open ; 0x301c
        0x00002fec:    200f        .       MOVS     r0,#0xf
        0x00002fee:    4908        .I      LDR      r1,[pc,#32] ; [0x3010] = 0x40060000
        0x00002ff0:    6008        .`      STR      r0,[r1,#0]
        0x00002ff2:    e005        ..      B        0x3000 ; VCOM_MainProcess + 92
        0x00002ff4:    f7fefea2    ....    BL       DrvUSB_GetUsbState ; 0x1d3c
        0x00002ff8:    4604        .F      MOV      r4,r0
        0x00002ffa:    2c00        .,      CMP      r4,#0
        0x00002ffc:    d100        ..      BNE      0x3000 ; VCOM_MainProcess + 92
        0x00002ffe:    e000        ..      B        0x3002 ; VCOM_MainProcess + 94
        0x00003000:    e7f8        ..      B        0x2ff4 ; VCOM_MainProcess + 80
        0x00003002:    bf00        ..      NOP      
        0x00003004:    2000        .       MOVS     r0,#0
        0x00003006:    4902        .I      LDR      r1,[pc,#8] ; [0x3010] = 0x40060000
        0x00003008:    6008        .`      STR      r0,[r1,#0]
        0x0000300a:    e7d6        ..      B        0x2fba ; VCOM_MainProcess + 22
    $d
        0x0000300c:    00001c25    %...    DCD    7205
        0x00003010:    40060000    ...@    DCD    1074135040
        0x00003014:    000030c5    .0..    DCD    12485
        0x00003018:    00002ebd    ....    DCD    11965
    $t
    i.VCOM_Open
    VCOM_Open
        0x0000301c:    b570        p.      PUSH     {r4-r6,lr}
        0x0000301e:    4605        .F      MOV      r5,r0
        0x00003020:    460e        .F      MOV      r6,r1
        0x00003022:    4c0e        .L      LDR      r4,[pc,#56] ; [0x305c] = 0x2000094c
        0x00003024:    2d00        .-      CMP      r5,#0
        0x00003026:    d001        ..      BEQ      0x302c ; VCOM_Open + 16
        0x00003028:    480d        .H      LDR      r0,[pc,#52] ; [0x3060] = 0x20000824
        0x0000302a:    6005        .`      STR      r5,[r0,#0]
        0x0000302c:    2e00        ..      CMP      r6,#0
        0x0000302e:    d001        ..      BEQ      0x3034 ; VCOM_Open + 24
        0x00003030:    480c        .H      LDR      r0,[pc,#48] ; [0x3064] = 0x20000828
        0x00003032:    6006        .`      STR      r6,[r0,#0]
        0x00003034:    480c        .H      LDR      r0,[pc,#48] ; [0x3068] = 0x2000082c
        0x00003036:    f7fefec9    ....    BL       DrvUSB_InstallClassDevice ; 0x1dcc
        0x0000303a:    61e0        .a      STR      r0,[r4,#0x1c]
        0x0000303c:    480b        .H      LDR      r0,[pc,#44] ; [0x306c] = 0x33c4
        0x0000303e:    6020         `      STR      r0,[r4,#0]
        0x00003040:    480b        .H      LDR      r0,[pc,#44] ; [0x3070] = 0x33d6
        0x00003042:    6060        ``      STR      r0,[r4,#4]
        0x00003044:    480b        .H      LDR      r0,[pc,#44] ; [0x3074] = 0x341d
        0x00003046:    60e0        .`      STR      r0,[r4,#0xc]
        0x00003048:    480b        .H      LDR      r0,[pc,#44] ; [0x3078] = 0x342d
        0x0000304a:    6120         a      STR      r0,[r4,#0x10]
        0x0000304c:    220c        ."      MOVS     r2,#0xc
        0x0000304e:    490b        .I      LDR      r1,[pc,#44] ; [0x307c] = 0x20000734
        0x00003050:    69e0        .i      LDR      r0,[r4,#0x1c]
        0x00003052:    f7fefec3    ....    BL       DrvUSB_InstallCtrlHandler ; 0x1ddc
        0x00003056:    2000        .       MOVS     r0,#0
        0x00003058:    bd70        p.      POP      {r4-r6,pc}
    $d
        0x0000305a:    0000        ..      DCW    0
        0x0000305c:    2000094c    L..     DCD    536873292
        0x00003060:    20000824    $..     DCD    536872996
        0x00003064:    20000828    (..     DCD    536873000
        0x00003068:    2000082c    ,..     DCD    536873004
        0x0000306c:    000033c4    .3..    DCD    13252
        0x00003070:    000033d6    .3..    DCD    13270
        0x00003074:    0000341d    .4..    DCD    13341
        0x00003078:    0000342d    -4..    DCD    13357
        0x0000307c:    20000734    4..     DCD    536872756
    $t
    i.VCOM_SetLineCoding
    VCOM_SetLineCoding
        0x00003080:    b570        p.      PUSH     {r4-r6,lr}
        0x00003082:    4604        .F      MOV      r4,r0
        0x00003084:    69e5        .i      LDR      r5,[r4,#0x1c]
        0x00003086:    2000        .       MOVS     r0,#0
        0x00003088:    6128        (a      STR      r0,[r5,#0x10]
        0x0000308a:    2107        .!      MOVS     r1,#7
        0x0000308c:    f7fefd6a    ..j.    BL       DrvUSB_DataOutTrigger ; 0x1b64
        0x00003090:    bd70        p.      POP      {r4-r6,pc}
        0x00003092:    0000        ..      MOVS     r0,r0
    i.VCOM_SetLineCodingDataOut
    VCOM_SetLineCodingDataOut
        0x00003094:    b5f8        ..      PUSH     {r3-r7,lr}
        0x00003096:    4604        .F      MOV      r4,r0
        0x00003098:    69e5        .i      LDR      r5,[r4,#0x1c]
        0x0000309a:    4669        iF      MOV      r1,sp
        0x0000309c:    2000        .       MOVS     r0,#0
        0x0000309e:    f7fefe2f    ../.    BL       DrvUSB_GetOutData ; 0x1d00
        0x000030a2:    4606        .F      MOV      r6,r0
        0x000030a4:    4631        1F      MOV      r1,r6
        0x000030a6:    4806        .H      LDR      r0,[pc,#24] ; [0x30c0] = 0x2000083c
        0x000030a8:    9a00        ..      LDR      r2,[sp,#0]
        0x000030aa:    f7fdf997    ....    BL       __aeabi_memcpy ; 0x3dc
        0x000030ae:    2000        .       MOVS     r0,#0
        0x000030b0:    6128        (a      STR      r0,[r5,#0x10]
        0x000030b2:    2200        ."      MOVS     r2,#0
        0x000030b4:    4611        .F      MOV      r1,r2
        0x000030b6:    4610        .F      MOV      r0,r2
        0x000030b8:    f7fefce8    ....    BL       DrvUSB_DataIn ; 0x1a8c
        0x000030bc:    bdf8        ..      POP      {r3-r7,pc}
    $d
        0x000030be:    0000        ..      DCW    0
        0x000030c0:    2000083c    <..     DCD    536873020
    $t
    i.VCOM_SetOutData
    VCOM_SetOutData
        0x000030c4:    b538        8.      PUSH     {r3-r5,lr}
        0x000030c6:    4604        .F      MOV      r4,r0
        0x000030c8:    2240        @"      MOVS     r2,#0x40
        0x000030ca:    4621        !F      MOV      r1,r4
        0x000030cc:    4837        7H      LDR      r0,[pc,#220] ; [0x31ac] = 0x2000084c
        0x000030ce:    f7fdf985    ....    BL       __aeabi_memcpy ; 0x3dc
        0x000030d2:    7821        !x      LDRB     r1,[r4,#0]
        0x000030d4:    9100        ..      STR      r1,[sp,#0]
        0x000030d6:    4668        hF      MOV      r0,sp
        0x000030d8:    7803        .x      LDRB     r3,[r0,#0]
        0x000030da:    3b30        0;      SUBS     r3,r3,#0x30
        0x000030dc:    f000f8a0    ....    BL       __ARM_common_switch8 ; 0x3220
    $d
        0x000030e0:    180f330a    .3..    DCD    403649290
        0x000030e4:    453c2a21    !*<E    DCD    1161570849
        0x000030e8:    6006574e    NW.`    DCD    1611028302
    $t
        0x000030ec:    210f        .!      MOVS     r1,#0xf
        0x000030ee:    4620         F      MOV      r0,r4
        0x000030f0:    f7fffadc    ....    BL       LED_on ; 0x26ac
        0x000030f4:    2109        .!      MOVS     r1,#9
        0x000030f6:    2000        .       MOVS     r0,#0
        0x000030f8:    f000f944    ..D.    BL       show_seven_segment ; 0x3384
        0x000030fc:    e053        S.      B        0x31a6 ; VCOM_SetOutData + 226
        0x000030fe:    2105        .!      MOVS     r1,#5
        0x00003100:    4620         F      MOV      r0,r4
        0x00003102:    f7fffad3    ....    BL       LED_on ; 0x26ac
        0x00003106:    2101        .!      MOVS     r1,#1
        0x00003108:    2000        .       MOVS     r0,#0
        0x0000310a:    f000f93b    ..;.    BL       show_seven_segment ; 0x3384
        0x0000310e:    e04a        J.      B        0x31a6 ; VCOM_SetOutData + 226
        0x00003110:    2106        .!      MOVS     r1,#6
        0x00003112:    4620         F      MOV      r0,r4
        0x00003114:    f7fffaca    ....    BL       LED_on ; 0x26ac
        0x00003118:    2102        .!      MOVS     r1,#2
        0x0000311a:    2000        .       MOVS     r0,#0
        0x0000311c:    f000f932    ..2.    BL       show_seven_segment ; 0x3384
        0x00003120:    e041        A.      B        0x31a6 ; VCOM_SetOutData + 226
        0x00003122:    2107        .!      MOVS     r1,#7
        0x00003124:    4620         F      MOV      r0,r4
        0x00003126:    f7fffac1    ....    BL       LED_on ; 0x26ac
        0x0000312a:    2103        .!      MOVS     r1,#3
        0x0000312c:    2000        .       MOVS     r0,#0
        0x0000312e:    f000f929    ..).    BL       show_seven_segment ; 0x3384
        0x00003132:    e038        8.      B        0x31a6 ; VCOM_SetOutData + 226
        0x00003134:    2108        .!      MOVS     r1,#8
        0x00003136:    4620         F      MOV      r0,r4
        0x00003138:    f7fffab8    ....    BL       LED_on ; 0x26ac
        0x0000313c:    2104        .!      MOVS     r1,#4
        0x0000313e:    2000        .       MOVS     r0,#0
        0x00003140:    f000f920    .. .    BL       show_seven_segment ; 0x3384
        0x00003144:    e02f        /.      B        0x31a6 ; VCOM_SetOutData + 226
        0x00003146:    210f        .!      MOVS     r1,#0xf
        0x00003148:    4620         F      MOV      r0,r4
        0x0000314a:    f7fffa39    ..9.    BL       LED_off ; 0x25c0
        0x0000314e:    2100        .!      MOVS     r1,#0
        0x00003150:    4608        .F      MOV      r0,r1
        0x00003152:    f000f917    ....    BL       show_seven_segment ; 0x3384
        0x00003156:    e026        &.      B        0x31a6 ; VCOM_SetOutData + 226
        0x00003158:    2105        .!      MOVS     r1,#5
        0x0000315a:    4620         F      MOV      r0,r4
        0x0000315c:    f7fffa30    ..0.    BL       LED_off ; 0x25c0
        0x00003160:    2105        .!      MOVS     r1,#5
        0x00003162:    2000        .       MOVS     r0,#0
        0x00003164:    f000f90e    ....    BL       show_seven_segment ; 0x3384
        0x00003168:    e01d        ..      B        0x31a6 ; VCOM_SetOutData + 226
        0x0000316a:    2106        .!      MOVS     r1,#6
        0x0000316c:    4620         F      MOV      r0,r4
        0x0000316e:    f7fffa27    ..'.    BL       LED_off ; 0x25c0
        0x00003172:    2106        .!      MOVS     r1,#6
        0x00003174:    2000        .       MOVS     r0,#0
        0x00003176:    f000f905    ....    BL       show_seven_segment ; 0x3384
        0x0000317a:    e014        ..      B        0x31a6 ; VCOM_SetOutData + 226
        0x0000317c:    2107        .!      MOVS     r1,#7
        0x0000317e:    4620         F      MOV      r0,r4
        0x00003180:    f7fffa1e    ....    BL       LED_off ; 0x25c0
        0x00003184:    2107        .!      MOVS     r1,#7
        0x00003186:    2000        .       MOVS     r0,#0
        0x00003188:    f000f8fc    ....    BL       show_seven_segment ; 0x3384
        0x0000318c:    e00b        ..      B        0x31a6 ; VCOM_SetOutData + 226
        0x0000318e:    2108        .!      MOVS     r1,#8
        0x00003190:    4620         F      MOV      r0,r4
        0x00003192:    f7fffa15    ....    BL       LED_off ; 0x25c0
        0x00003196:    2108        .!      MOVS     r1,#8
        0x00003198:    2000        .       MOVS     r0,#0
        0x0000319a:    f000f8f3    ....    BL       show_seven_segment ; 0x3384
        0x0000319e:    e002        ..      B        0x31a6 ; VCOM_SetOutData + 226
        0x000031a0:    f000f84b    ..K.    BL       close_seven_segment ; 0x323a
        0x000031a4:    bf00        ..      NOP      
        0x000031a6:    bf00        ..      NOP      
        0x000031a8:    bd38        8.      POP      {r3-r5,pc}
    $d
        0x000031aa:    0000        ..      DCW    0
        0x000031ac:    2000084c    L..     DCD    536873036
    $t
    i.WordsCpy
    WordsCpy
        0x000031b0:    b570        p.      PUSH     {r4-r6,lr}
        0x000031b2:    4603        .F      MOV      r3,r0
        0x000031b4:    461d        .F      MOV      r5,r3
        0x000031b6:    460c        .F      MOV      r4,r1
        0x000031b8:    2000        .       MOVS     r0,#0
        0x000031ba:    e002        ..      B        0x31c2 ; WordsCpy + 18
        0x000031bc:    5c26        &\      LDRB     r6,[r4,r0]
        0x000031be:    542e        .T      STRB     r6,[r5,r0]
        0x000031c0:    1c40        @.      ADDS     r0,r0,#1
        0x000031c2:    4290        .B      CMP      r0,r2
        0x000031c4:    dbfa        ..      BLT      0x31bc ; WordsCpy + 12
        0x000031c6:    bd70        p.      POP      {r4-r6,pc}
    i.WriteData
    WriteData
        0x000031c8:    4914        .I      LDR      r1,[pc,#80] ; [0x321c] = 0x20000028
        0x000031ca:    68c9        .h      LDR      r1,[r1,#0xc]
        0x000031cc:    6889        .h      LDR      r1,[r1,#8]
        0x000031ce:    0889        ..      LSRS     r1,r1,#2
        0x000031d0:    0089        ..      LSLS     r1,r1,#2
        0x000031d2:    1c49        I.      ADDS     r1,r1,#1
        0x000031d4:    4a11        .J      LDR      r2,[pc,#68] ; [0x321c] = 0x20000028
        0x000031d6:    68d2        .h      LDR      r2,[r2,#0xc]
        0x000031d8:    6091        .`      STR      r1,[r2,#8]
        0x000031da:    21ff        .!      MOVS     r1,#0xff
        0x000031dc:    3101        .1      ADDS     r1,#1
        0x000031de:    4301        .C      ORRS     r1,r1,r0
        0x000031e0:    4a0e        .J      LDR      r2,[pc,#56] ; [0x321c] = 0x20000028
        0x000031e2:    68d2        .h      LDR      r2,[r2,#0xc]
        0x000031e4:    6211        .b      STR      r1,[r2,#0x20]
        0x000031e6:    490d        .I      LDR      r1,[pc,#52] ; [0x321c] = 0x20000028
        0x000031e8:    68c9        .h      LDR      r1,[r1,#0xc]
        0x000031ea:    6809        .h      LDR      r1,[r1,#0]
        0x000031ec:    0849        I.      LSRS     r1,r1,#1
        0x000031ee:    0049        I.      LSLS     r1,r1,#1
        0x000031f0:    1c49        I.      ADDS     r1,r1,#1
        0x000031f2:    4a0a        .J      LDR      r2,[pc,#40] ; [0x321c] = 0x20000028
        0x000031f4:    68d2        .h      LDR      r2,[r2,#0xc]
        0x000031f6:    6011        .`      STR      r1,[r2,#0]
        0x000031f8:    bf00        ..      NOP      
        0x000031fa:    4908        .I      LDR      r1,[pc,#32] ; [0x321c] = 0x20000028
        0x000031fc:    68c9        .h      LDR      r1,[r1,#0xc]
        0x000031fe:    6809        .h      LDR      r1,[r1,#0]
        0x00003200:    07c9        ..      LSLS     r1,r1,#31
        0x00003202:    0fc9        ..      LSRS     r1,r1,#31
        0x00003204:    2901        .)      CMP      r1,#1
        0x00003206:    d0f8        ..      BEQ      0x31fa ; WriteData + 50
        0x00003208:    4904        .I      LDR      r1,[pc,#16] ; [0x321c] = 0x20000028
        0x0000320a:    68c9        .h      LDR      r1,[r1,#0xc]
        0x0000320c:    6889        .h      LDR      r1,[r1,#8]
        0x0000320e:    0889        ..      LSRS     r1,r1,#2
        0x00003210:    0089        ..      LSLS     r1,r1,#2
        0x00003212:    4a02        .J      LDR      r2,[pc,#8] ; [0x321c] = 0x20000028
        0x00003214:    68d2        .h      LDR      r2,[r2,#0xc]
        0x00003216:    6091        .`      STR      r1,[r2,#8]
        0x00003218:    4770        pG      BX       lr
    $d
        0x0000321a:    0000        ..      DCW    0
        0x0000321c:    20000028    (..     DCD    536870952
    $t
    i.__ARM_common_switch8
    __ARM_common_switch8
        0x00003220:    b430        0.      PUSH     {r4,r5}
        0x00003222:    4674        tF      MOV      r4,lr
        0x00003224:    1e64        d.      SUBS     r4,r4,#1
        0x00003226:    7825        %x      LDRB     r5,[r4,#0]
        0x00003228:    1c64        d.      ADDS     r4,r4,#1
        0x0000322a:    42ab        .B      CMP      r3,r5
        0x0000322c:    d200        ..      BCS      0x3230 ; __ARM_common_switch8 + 16
        0x0000322e:    461d        .F      MOV      r5,r3
        0x00003230:    5d63        c]      LDRB     r3,[r4,r5]
        0x00003232:    005b        [.      LSLS     r3,r3,#1
        0x00003234:    18e3        ..      ADDS     r3,r4,r3
        0x00003236:    bc30        0.      POP      {r4,r5}
        0x00003238:    4718        .G      BX       r3
    i.close_seven_segment
    close_seven_segment
        0x0000323a:    b510        ..      PUSH     {r4,lr}
        0x0000323c:    2104        .!      MOVS     r1,#4
        0x0000323e:    2002        .       MOVS     r0,#2
        0x00003240:    f7fdfb12    ....    BL       DrvGPIO_ClrBit ; 0x868
        0x00003244:    2105        .!      MOVS     r1,#5
        0x00003246:    2002        .       MOVS     r0,#2
        0x00003248:    f7fdfb0e    ....    BL       DrvGPIO_ClrBit ; 0x868
        0x0000324c:    2106        .!      MOVS     r1,#6
        0x0000324e:    2002        .       MOVS     r0,#2
        0x00003250:    f7fdfb0a    ....    BL       DrvGPIO_ClrBit ; 0x868
        0x00003254:    2107        .!      MOVS     r1,#7
        0x00003256:    2002        .       MOVS     r0,#2
        0x00003258:    f7fdfb06    ....    BL       DrvGPIO_ClrBit ; 0x868
        0x0000325c:    bd10        ..      POP      {r4,pc}
    i.clr_all_pannal
    clr_all_pannal
        0x0000325e:    b510        ..      PUSH     {r4,lr}
        0x00003260:    2400        .$      MOVS     r4,#0
        0x00003262:    2100        .!      MOVS     r1,#0
        0x00003264:    4608        .F      MOV      r0,r1
        0x00003266:    f7fffb55    ..U.    BL       SetPACA ; 0x2914
        0x0000326a:    bf00        ..      NOP      
        0x0000326c:    e003        ..      B        0x3276 ; clr_all_pannal + 24
        0x0000326e:    2000        .       MOVS     r0,#0
        0x00003270:    f7ffffaa    ....    BL       WriteData ; 0x31c8
        0x00003274:    1c64        d.      ADDS     r4,r4,#1
        0x00003276:    2021        !       MOVS     r0,#0x21
        0x00003278:    0140        @.      LSLS     r0,r0,#5
        0x0000327a:    4284        .B      CMP      r4,r0
        0x0000327c:    dbf7        ..      BLT      0x326e ; clr_all_pannal + 16
        0x0000327e:    200f        .       MOVS     r0,#0xf
        0x00003280:    f7ffffa2    ....    BL       WriteData ; 0x31c8
        0x00003284:    bd10        ..      POP      {r4,pc}
    i.delay
    delay
        0x00003286:    2000        .       MOVS     r0,#0
        0x00003288:    e000        ..      B        0x328c ; delay + 6
        0x0000328a:    1c40        @.      ADDS     r0,r0,#1
        0x0000328c:    217d        }!      MOVS     r1,#0x7d
        0x0000328e:    00c9        ..      LSLS     r1,r1,#3
        0x00003290:    4288        .B      CMP      r0,r1
        0x00003292:    dbfa        ..      BLT      0x328a ; delay + 4
        0x00003294:    4770        pG      BX       lr
    i.ferror
    ferror
        0x00003296:    4601        .F      MOV      r1,r0
        0x00003298:    2000        .       MOVS     r0,#0
        0x0000329a:    43c0        .C      MVNS     r0,r0
        0x0000329c:    4770        pG      BX       lr
    i.fputc
    fputc
        0x0000329e:    b530        0.      PUSH     {r4,r5,lr}
        0x000032a0:    4604        .F      MOV      r4,r0
        0x000032a2:    460d        .F      MOV      r5,r1
        0x000032a4:    4620         F      MOV      r0,r4
        0x000032a6:    f7fffb17    ....    BL       SendChar ; 0x28d8
        0x000032aa:    4620         F      MOV      r0,r4
        0x000032ac:    bd30        0.      POP      {r4,r5,pc}
        0x000032ae:    0000        ..      MOVS     r0,r0
    i.main
    main
        0x000032b0:    b50e        ..      PUSH     {r1-r3,lr}
        0x000032b2:    2029        )       MOVS     r0,#0x29
        0x000032b4:    f7fdfb02    ....    BL       DrvGPIO_InitFunction ; 0x8bc
        0x000032b8:    20e1        .       MOVS     r0,#0xe1
        0x000032ba:    0240        @.      LSLS     r0,r0,#9
        0x000032bc:    9000        ..      STR      r0,[sp,#0]
        0x000032be:    2103        .!      MOVS     r1,#3
        0x000032c0:    4668        hF      MOV      r0,sp
        0x000032c2:    7101        .q      STRB     r1,[r0,#4]
        0x000032c4:    2100        .!      MOVS     r1,#0
        0x000032c6:    7141        Aq      STRB     r1,[r0,#5]
        0x000032c8:    7181        .q      STRB     r1,[r0,#6]
        0x000032ca:    71c1        .q      STRB     r1,[r0,#7]
        0x000032cc:    2006        .       MOVS     r0,#6
        0x000032ce:    f7fdff4f    ..O.    BL       DrvSYS_SelectIPClockSource ; 0x1170
        0x000032d2:    4669        iF      MOV      r1,sp
        0x000032d4:    2000        .       MOVS     r0,#0
        0x000032d6:    f7fef855    ..U.    BL       DrvUART_Open ; 0x1384
        0x000032da:    2059        Y       MOVS     r0,#0x59
        0x000032dc:    4914        .I      LDR      r1,[pc,#80] ; [0x3330] = 0x50000100
        0x000032de:    6008        .`      STR      r0,[r1,#0]
        0x000032e0:    2016        .       MOVS     r0,#0x16
        0x000032e2:    6008        .`      STR      r0,[r1,#0]
        0x000032e4:    2088        .       MOVS     r0,#0x88
        0x000032e6:    6008        .`      STR      r0,[r1,#0]
        0x000032e8:    2101        .!      MOVS     r1,#1
        0x000032ea:    2000        .       MOVS     r0,#0
        0x000032ec:    f7fdfff0    ....    BL       DrvSYS_SetOscCtrl ; 0x12d0
        0x000032f0:    2000        .       MOVS     r0,#0
        0x000032f2:    f7fef82d    ..-.    BL       DrvSYS_SetPLLMode ; 0x1350
        0x000032f6:    207d        }       MOVS     r0,#0x7d
        0x000032f8:    00c0        ..      LSLS     r0,r0,#3
        0x000032fa:    f7fdfaad    ....    BL       Delay ; 0x858
        0x000032fe:    2002        .       MOVS     r0,#2
        0x00003300:    f7fdff1a    ....    BL       DrvSYS_SelectHCLKSource ; 0x1138
        0x00003304:    2064        d       MOVS     r0,#0x64
        0x00003306:    f7fdfaa7    ....    BL       Delay ; 0x858
        0x0000330a:    a00a        ..      ADR      r0,{pc}+0x2a ; 0x3334
        0x0000330c:    f7fcff82    ....    BL       __2printf ; 0x214
        0x00003310:    f7fff84a    ..J.    BL       Initial_pannel ; 0x23a8
        0x00003314:    f7ffffa3    ....    BL       clr_all_pannal ; 0x325e
        0x00003318:    a10c        ..      ADR      r1,{pc}+0x34 ; 0x334c
        0x0000331a:    2000        .       MOVS     r0,#0
        0x0000331c:    f000f81e    ....    BL       print_lcd ; 0x335c
        0x00003320:    f7fffa76    ..v.    BL       OpenKeyPad ; 0x2810
        0x00003324:    f7ffff89    ....    BL       close_seven_segment ; 0x323a
        0x00003328:    f7fffe3c    ..<.    BL       VCOM_MainProcess ; 0x2fa4
        0x0000332c:    2000        .       MOVS     r0,#0
        0x0000332e:    bd0e        ..      POP      {r1-r3,pc}
    $d
        0x00003330:    50000100    ...P    DCD    1342177536
        0x00003334:    3143554e    NUC1    DCD    826496334
        0x00003338:    56203030    00 V    DCD    1444950064
        0x0000333c:    75747269    irtu    DCD    1970565737
        0x00003340:    43206c61    al C    DCD    1126198369
        0x00003344:    0a2e6d6f    om..    DCD    170814831
        0x00003348:    00000000    ....    DCD    0
        0x0000334c:    74696e49    Init    DCD    1953066569
        0x00003350:    206c6169    ial     DCD    543973737
        0x00003354:    4d4f4356    VCOM    DCD    1297040214
        0x00003358:    00002020      ..    DCD    8224
    $t
    i.print_lcd
    print_lcd
        0x0000335c:    b570        p.      PUSH     {r4-r6,lr}
        0x0000335e:    4606        .F      MOV      r6,r0
        0x00003360:    460c        .F      MOV      r4,r1
        0x00003362:    2500        .%      MOVS     r5,#0
        0x00003364:    bf00        ..      NOP      
        0x00003366:    7822        "x      LDRB     r2,[r4,#0]
        0x00003368:    1c64        d.      ADDS     r4,r4,#1
        0x0000336a:    b2e9        ..      UXTB     r1,r5
        0x0000336c:    4630        0F      MOV      r0,r6
        0x0000336e:    f7fffb4b    ..K.    BL       Show_Word ; 0x2a08
        0x00003372:    1c6d        m.      ADDS     r5,r5,#1
        0x00003374:    2d0f        .-      CMP      r5,#0xf
        0x00003376:    dd00        ..      BLE      0x337a ; print_lcd + 30
        0x00003378:    e002        ..      B        0x3380 ; print_lcd + 36
        0x0000337a:    7820         x      LDRB     r0,[r4,#0]
        0x0000337c:    2800        .(      CMP      r0,#0
        0x0000337e:    d1f2        ..      BNE      0x3366 ; print_lcd + 10
        0x00003380:    bf00        ..      NOP      
        0x00003382:    bd70        p.      POP      {r4-r6,pc}
    i.show_seven_segment
    show_seven_segment
        0x00003384:    b5f8        ..      PUSH     {r3-r7,lr}
        0x00003386:    4605        .F      MOV      r5,r0
        0x00003388:    460f        .F      MOV      r7,r1
        0x0000338a:    480d        .H      LDR      r0,[pc,#52] ; [0x33c0] = 0x2000001c
        0x0000338c:    5dc6        .]      LDRB     r6,[r0,r7]
        0x0000338e:    2400        .$      MOVS     r4,#0
        0x00003390:    e00f        ..      B        0x33b2 ; show_seven_segment + 46
        0x00003392:    07f0        ..      LSLS     r0,r6,#31
        0x00003394:    0fc0        ..      LSRS     r0,r0,#31
        0x00003396:    2801        .(      CMP      r0,#1
        0x00003398:    d104        ..      BNE      0x33a4 ; show_seven_segment + 32
        0x0000339a:    4621        !F      MOV      r1,r4
        0x0000339c:    2004        .       MOVS     r0,#4
        0x0000339e:    f7fdfe75    ..u.    BL       DrvGPIO_SetBit ; 0x108c
        0x000033a2:    e003        ..      B        0x33ac ; show_seven_segment + 40
        0x000033a4:    4621        !F      MOV      r1,r4
        0x000033a6:    2004        .       MOVS     r0,#4
        0x000033a8:    f7fdfa5e    ..^.    BL       DrvGPIO_ClrBit ; 0x868
        0x000033ac:    1076        v.      ASRS     r6,r6,#1
        0x000033ae:    1c60        `.      ADDS     r0,r4,#1
        0x000033b0:    b2c4        ..      UXTB     r4,r0
        0x000033b2:    2c08        .,      CMP      r4,#8
        0x000033b4:    dbed        ..      BLT      0x3392 ; show_seven_segment + 14
        0x000033b6:    1d29        ).      ADDS     r1,r5,#4
        0x000033b8:    2002        .       MOVS     r0,#2
        0x000033ba:    f7fdfe67    ..g.    BL       DrvGPIO_SetBit ; 0x108c
        0x000033be:    bdf8        ..      POP      {r3-r7,pc}
    $d
        0x000033c0:    2000001c    ...     DCD    536870940
    $d.realdata
    .constdata
    gau8DeviceDescriptor
        0x000033c4:    02000112    ....    DCD    33554706
        0x000033c8:    40000002    ...@    DCD    1073741826
        0x000033cc:    50110416    ...P    DCD    1343292438
        0x000033d0:    02010100    ....    DCD    33620224
        0x000033d4:    0103        ..      DCW    259
    gau8ConfigDescriptor
        0x000033d6:    0209        ..      DCW    521
        0x000033d8:    01020043    C...    DCD    16908355
        0x000033dc:    0932c000    ..2.    DCD    154320896
        0x000033e0:    01000004    ....    DCD    16777220
        0x000033e4:    00010202    ....    DCD    66050
        0x000033e8:    10002405    .$..    DCD    268444677
        0x000033ec:    01240501    ..$.    DCD    19137793
        0x000033f0:    24040100    ...$    DCD    604242176
        0x000033f4:    24050002    ...$    DCD    604307458
        0x000033f8:    07010006    ....    DCD    117506054
        0x000033fc:    08038305    ....    DCD    134447877
        0x00003400:    04090100    ....    DCD    67698944
        0x00003404:    0a020001    ....    DCD    167903233
        0x00003408:    07000000    ....    DCD    117440512
        0x0000340c:    40028105    ...@    DCD    1073905925
        0x00003410:    05070000    ....    DCD    84344832
        0x00003414:    00400202    ..@.    DCD    4194818
        0x00003418:    00          .       DCB    0
    gau8StringLang
        0x00003419:    040309      ...     DCB    4,3,9
        0x0000341c:    04          .       DCB    4
    gau8VendorStringDescriptor
        0x0000341d:    10034e      ..N     DCB    16,3,78
        0x00003420:    76007500    .u.v    DCD    1979741440
        0x00003424:    74006f00    .o.t    DCD    1946185472
        0x00003428:    6e006f00    .o.n    DCD    1845522176
        0x0000342c:    00          .       DCB    0
    gau8ProductStringDescriptor
        0x0000342d:    200355       .U     DCB    32,3,85
        0x00003430:    42005300    .S.B    DCD    1107317504
        0x00003434:    56002000    . .V    DCD    1442848768
        0x00003438:    72006900    .i.r    DCD    1912629504
        0x0000343c:    75007400    .t.u    DCD    1962963968
        0x00003440:    6c006100    .a.l    DCD    1811964160
        0x00003444:    43002000    . .C    DCD    1124081664
        0x00003448:    4d004f00    .O.M    DCD    1291865856
        0x0000344c:    00          .       DCB    0
    gau8StringSerial
        0x0000344d:    1a034e      ..N     DCB    26,3,78
        0x00003450:    32005400    .T.2    DCD    838882304
        0x00003454:    30003000    .0.0    DCD    805318656
        0x00003458:    31003900    .9.1    DCD    822098176
        0x0000345c:    31003000    .0.1    DCD    822095872
        0x00003460:    30003400    .4.0    DCD    805319680
        0x00003464:    00003000    .0..    DCD    12288
        0x00003468:    2079654b    Key     DCD    544826699
        0x0000346c:    756c6156    Valu    DCD    1970037078
        0x00003470:    00003a65    e:..    DCD    14949
        0x00003474:    00000000    ....    DCD    0
    .constdata
        0x00003478:    003e3d3b    ;=>.    DCD    4078907
    .constdata
        0x0000347c:    00000001    ....    DCD    1
        0x00003480:    00000002    ....    DCD    2
        0x00003484:    00000002    ....    DCD    2
        0x00003488:    00000004    ....    DCD    4
    Region$$Table$$Base
        0x0000348c:    000034ac    .4..    DCD    13484
        0x00003490:    20000000    ...     DCD    536870912
        0x00003494:    0000084c    L...    DCD    2124
        0x00003498:    00000104    ....    DCD    260
        0x0000349c:    00003cf8    .<..    DCD    15608
        0x000034a0:    2000084c    L..     DCD    536873036
        0x000034a4:    00000584    ....    DCD    1412
        0x000034a8:    00000120     ...    DCD    288
    Region$$Table$$Limit

** Section #2 'ER_RW' (SHT_PROGBITS) [SHF_ALLOC + SHF_WRITE]
    Size   : 2124 bytes (alignment 4)
    Address: 0x20000000


** Section #3 'ER_ZI' (SHT_NOBITS) [SHF_ALLOC + SHF_WRITE]
    Size   : 1412 bytes (alignment 8)
    Address: 0x2000084c


** Section #4 '.debug_abbrev' (SHT_PROGBITS)
    Size   : 1476 bytes


** Section #5 '.debug_frame' (SHT_PROGBITS)
    Size   : 3448 bytes


** Section #6 '.debug_info' (SHT_PROGBITS)
    Size   : 146128 bytes


** Section #7 '.debug_line' (SHT_PROGBITS)
    Size   : 17892 bytes


** Section #8 '.debug_loc' (SHT_PROGBITS)
    Size   : 7408 bytes


** Section #9 '.debug_macinfo' (SHT_PROGBITS)
    Size   : 174916 bytes


** Section #10 '.debug_pubnames' (SHT_PROGBITS)
    Size   : 4918 bytes


** Section #11 '.symtab' (SHT_SYMTAB)
    Size   : 11760 bytes (alignment 4)
    String table #12 '.strtab'
    Last local symbol no. 497


** Section #12 '.strtab' (SHT_STRTAB)
    Size   : 9344 bytes


** Section #13 '.note' (SHT_NOTE)
    Size   : 28 bytes (alignment 4)


** Section #14 '.comment' (SHT_PROGBITS)
    Size   : 7320 bytes


** Section #15 '.shstrtab' (SHT_STRTAB)
    Size   : 156 bytes


