
========================================================================

** ELF Header Information

    File Name: .\obj\Smpl_UART0.axf

    Machine class: ELFCLASS32 (32-bit)
    Data encoding: ELFDATA2LSB (Little endian)
    Header version: EV_CURRENT (Current version)
    Operating System ABI: none
    ABI Version: 0
    File Type: ET_EXEC (Executable) (2)
    Machine: EM_ARM (ARM)

    Image Entry point: 0x0000017d
    Flags: EF_ARM_HASENTRY + EF_ARM_ABI_FLOAT_SOFT (0x05000202)

    ARM ELF revision: 5 (ABI version 2)

    Conforms to Soft float procedure-call standard

    Built with
    Component: ARM Compiler 5.06 update 4 (build 422) Tool: armasm [4d35cf]
    Component: ARM Compiler 5.06 update 4 (build 422) Tool: armlink [4d35d2]

    Header size: 52 bytes (0x34)
    Program header entry size: 32 bytes (0x20)
    Section header entry size: 40 bytes (0x28)

    Program header entries: 1
    Section header entries: 16

    Program header offset: 321004 (0x0004e5ec)
    Section header offset: 321036 (0x0004e60c)

    Section header string table index: 15

========================================================================

** Program header #0 (PT_LOAD) [PF_X + PF_W + PF_R + PF_ARM_ENTRY]
    Size : 11096 bytes (9976 bytes in file)
    Virtual address: 0x00000000 (Alignment 8)


========================================================================

** Section #1 'ER_RO' (SHT_PROGBITS) [SHF_ALLOC + SHF_EXECINSTR]
    Size   : 8256 bytes (alignment 4)
    Address: 0x00000000

    $d.realdata
    RESET
    __Vectors
        0x00000000:    20000b18    ...     DCD    536873752
        0x00000004:    0000017d    }...    DCD    381
        0x00000008:    0000019d    ....    DCD    413
        0x0000000c:    0000019f    ....    DCD    415
        0x00000010:    00000000    ....    DCD    0
        0x00000014:    00000000    ....    DCD    0
        0x00000018:    00000000    ....    DCD    0
        0x0000001c:    00000000    ....    DCD    0
        0x00000020:    00000000    ....    DCD    0
        0x00000024:    00000000    ....    DCD    0
        0x00000028:    00000000    ....    DCD    0
        0x0000002c:    000001a1    ....    DCD    417
        0x00000030:    00000000    ....    DCD    0
        0x00000034:    00000000    ....    DCD    0
        0x00000038:    000001a3    ....    DCD    419
        0x0000003c:    000001a5    ....    DCD    421
        0x00000040:    0000063d    =...    DCD    1597
        0x00000044:    000001a7    ....    DCD    423
        0x00000048:    000015ed    ....    DCD    5613
        0x0000004c:    00001611    ....    DCD    5649
        0x00000050:    00001635    5...    DCD    5685
        0x00000054:    00001679    y...    DCD    5753
        0x00000058:    000001a7    ....    DCD    423
        0x0000005c:    000001a7    ....    DCD    423
        0x00000060:    000001a7    ....    DCD    423
        0x00000064:    000001a7    ....    DCD    423
        0x00000068:    000001a7    ....    DCD    423
        0x0000006c:    000001a7    ....    DCD    423
        0x00000070:    00001b75    u...    DCD    7029
        0x00000074:    00001bb1    ....    DCD    7089
        0x00000078:    000001a7    ....    DCD    423
        0x0000007c:    000001a7    ....    DCD    423
        0x00000080:    000001a7    ....    DCD    423
        0x00000084:    000001a7    ....    DCD    423
        0x00000088:    000001a7    ....    DCD    423
        0x0000008c:    000001a7    ....    DCD    423
        0x00000090:    000001a7    ....    DCD    423
        0x00000094:    000001a7    ....    DCD    423
        0x00000098:    000001a7    ....    DCD    423
        0x0000009c:    000001a7    ....    DCD    423
        0x000000a0:    000001a7    ....    DCD    423
        0x000000a4:    000001a7    ....    DCD    423
        0x000000a8:    000001a7    ....    DCD    423
        0x000000ac:    000001a7    ....    DCD    423
        0x000000b0:    0000193d    =...    DCD    6461
        0x000000b4:    000001a7    ....    DCD    423
        0x000000b8:    000001a7    ....    DCD    423
        0x000000bc:    000001a7    ....    DCD    423
    $t
    !!!main
    __main
        0x000000c0:    f000f802    ....    BL       __scatterload ; 0xc8
        0x000000c4:    f000f84b    ..K.    BL       __rt_entry ; 0x15e
    !!!scatter
    __scatterload
    __scatterload_rt2
    __scatterload_rt2_thumb_only
        0x000000c8:    a00c        ..      ADR      r0,{pc}+0x34 ; 0xfc
        0x000000ca:    c830        0.      LDM      r0!,{r4,r5}
        0x000000cc:    3808        .8      SUBS     r0,r0,#8
        0x000000ce:    1824        $.      ADDS     r4,r4,r0
        0x000000d0:    182d        -.      ADDS     r5,r5,r0
        0x000000d2:    46a2        .F      MOV      r10,r4
        0x000000d4:    1e67        g.      SUBS     r7,r4,#1
        0x000000d6:    46ab        .F      MOV      r11,r5
    __scatterload_null
        0x000000d8:    4654        TF      MOV      r4,r10
        0x000000da:    465d        ]F      MOV      r5,r11
        0x000000dc:    42ac        .B      CMP      r4,r5
        0x000000de:    d101        ..      BNE      0xe4 ; __scatterload_null + 12
        0x000000e0:    f000f83d    ..=.    BL       __rt_entry ; 0x15e
        0x000000e4:    467e        ~F      MOV      r6,pc
        0x000000e6:    3e0f        .>      SUBS     r6,r6,#0xf
        0x000000e8:    cc0f        ..      LDM      r4!,{r0-r3}
        0x000000ea:    46b6        .F      MOV      lr,r6
        0x000000ec:    2601        .&      MOVS     r6,#1
        0x000000ee:    4233        3B      TST      r3,r6
        0x000000f0:    d000        ..      BEQ      0xf4 ; __scatterload_null + 28
        0x000000f2:    1afb        ..      SUBS     r3,r7,r3
        0x000000f4:    46a2        .F      MOV      r10,r4
        0x000000f6:    46ab        .F      MOV      r11,r5
        0x000000f8:    4333        3C      ORRS     r3,r3,r6
        0x000000fa:    4718        .G      BX       r3
    $d
        0x000000fc:    00001f24    $...    DCD    7972
        0x00000100:    00001f44    D...    DCD    8004
    $t
    !!handler_copy
    __scatterload_copy
        0x00000104:    3a10        .:      SUBS     r2,r2,#0x10
        0x00000106:    d302        ..      BCC      0x10e ; __scatterload_copy + 10
        0x00000108:    c878        x.      LDM      r0!,{r3-r6}
        0x0000010a:    c178        x.      STM      r1!,{r3-r6}
        0x0000010c:    d8fa        ..      BHI      __scatterload_copy ; 0x104
        0x0000010e:    0752        R.      LSLS     r2,r2,#29
        0x00000110:    d301        ..      BCC      0x116 ; __scatterload_copy + 18
        0x00000112:    c830        0.      LDM      r0!,{r4,r5}
        0x00000114:    c130        0.      STM      r1!,{r4,r5}
        0x00000116:    d501        ..      BPL      0x11c ; __scatterload_copy + 24
        0x00000118:    6804        .h      LDR      r4,[r0,#0]
        0x0000011a:    600c        .`      STR      r4,[r1,#0]
        0x0000011c:    4770        pG      BX       lr
        0x0000011e:    0000        ..      MOVS     r0,r0
    !!handler_zi
    __scatterload_zeroinit
        0x00000120:    2300        .#      MOVS     r3,#0
        0x00000122:    2400        .$      MOVS     r4,#0
        0x00000124:    2500        .%      MOVS     r5,#0
        0x00000126:    2600        .&      MOVS     r6,#0
        0x00000128:    3a10        .:      SUBS     r2,r2,#0x10
        0x0000012a:    d301        ..      BCC      0x130 ; __scatterload_zeroinit + 16
        0x0000012c:    c178        x.      STM      r1!,{r3-r6}
        0x0000012e:    d8fb        ..      BHI      0x128 ; __scatterload_zeroinit + 8
        0x00000130:    0752        R.      LSLS     r2,r2,#29
        0x00000132:    d300        ..      BCC      0x136 ; __scatterload_zeroinit + 22
        0x00000134:    c130        0.      STM      r1!,{r4,r5}
        0x00000136:    d500        ..      BPL      0x13a ; __scatterload_zeroinit + 26
        0x00000138:    600b        .`      STR      r3,[r1,#0]
        0x0000013a:    4770        pG      BX       lr
    .ARM.Collect$$_printf_percent$$00000000
    _printf_percent
        0x0000013c:    b510        ..      PUSH     {r4,lr}
    .ARM.Collect$$_printf_percent$$00000009
    _printf_d
        0x0000013e:    2964        d)      CMP      r1,#0x64
        0x00000140:    d102        ..      BNE      _printf_c ; 0x148
        0x00000142:    f000f8c1    ....    BL       _printf_int_dec ; 0x2c8
        0x00000146:    bd10        ..      POP      {r4,pc}
    .ARM.Collect$$_printf_percent$$00000013
    _printf_c
        0x00000148:    2963        c)      CMP      r1,#0x63
        0x0000014a:    d102        ..      BNE      _printf_percent_end ; 0x152
        0x0000014c:    f000fa22    ..".    BL       _printf_char ; 0x594
        0x00000150:    bd10        ..      POP      {r4,pc}
    .ARM.Collect$$_printf_percent$$00000017
    _printf_percent_end
        0x00000152:    2000        .       MOVS     r0,#0
        0x00000154:    bd10        ..      POP      {r4,pc}
    .ARM.Collect$$libinit$$00000000
    __rt_lib_init
        0x00000156:    b51f        ..      PUSH     {r0-r4,lr}
    .ARM.Collect$$libinit$$00000002
    .ARM.Collect$$libinit$$00000004
    .ARM.Collect$$libinit$$0000000A
    .ARM.Collect$$libinit$$0000000C
    .ARM.Collect$$libinit$$0000000E
    .ARM.Collect$$libinit$$00000011
    .ARM.Collect$$libinit$$00000013
    .ARM.Collect$$libinit$$00000015
    .ARM.Collect$$libinit$$00000017
    .ARM.Collect$$libinit$$00000019
    .ARM.Collect$$libinit$$0000001B
    .ARM.Collect$$libinit$$0000001D
    .ARM.Collect$$libinit$$0000001F
    .ARM.Collect$$libinit$$00000021
    .ARM.Collect$$libinit$$00000023
    .ARM.Collect$$libinit$$00000025
    .ARM.Collect$$libinit$$0000002C
    .ARM.Collect$$libinit$$0000002E
    .ARM.Collect$$libinit$$00000030
    .ARM.Collect$$libinit$$00000032
    .ARM.Collect$$libinit$$00000033
    __rt_lib_init_alloca_1
    __rt_lib_init_argv_1
    __rt_lib_init_atexit_1
    __rt_lib_init_clock_1
    __rt_lib_init_cpp_1
    __rt_lib_init_exceptions_1
    __rt_lib_init_fp_1
    __rt_lib_init_fp_trap_1
    __rt_lib_init_getenv_1
    __rt_lib_init_heap_1
    __rt_lib_init_lc_collate_1
    __rt_lib_init_lc_ctype_1
    __rt_lib_init_lc_monetary_1
    __rt_lib_init_lc_numeric_1
    __rt_lib_init_lc_time_1
    __rt_lib_init_preinit_1
    __rt_lib_init_rand_1
    __rt_lib_init_return
    __rt_lib_init_signal_1
    __rt_lib_init_stdio_1
    __rt_lib_init_user_alloc_1
        0x00000158:    bd1f        ..      POP      {r0-r4,pc}
    .ARM.Collect$$libshutdown$$00000000
    __rt_lib_shutdown
        0x0000015a:    b510        ..      PUSH     {r4,lr}
    .ARM.Collect$$libshutdown$$00000002
    .ARM.Collect$$libshutdown$$00000004
    .ARM.Collect$$libshutdown$$00000007
    .ARM.Collect$$libshutdown$$0000000A
    .ARM.Collect$$libshutdown$$0000000C
    .ARM.Collect$$libshutdown$$0000000F
    .ARM.Collect$$libshutdown$$00000010
    __rt_lib_shutdown_cpp_1
    __rt_lib_shutdown_fp_trap_1
    __rt_lib_shutdown_heap_1
    __rt_lib_shutdown_return
    __rt_lib_shutdown_signal_1
    __rt_lib_shutdown_stdio_1
    __rt_lib_shutdown_user_alloc_1
        0x0000015c:    bd10        ..      POP      {r4,pc}
    .ARM.Collect$$rtentry$$00000000
    .ARM.Collect$$rtentry$$00000002
    .ARM.Collect$$rtentry$$00000004
    __rt_entry
    __rt_entry_presh_1
    __rt_entry_sh
        0x0000015e:    f000fa39    ..9.    BL       __user_setup_stackheap ; 0x5d4
        0x00000162:    4611        .F      MOV      r1,r2
    .ARM.Collect$$rtentry$$00000009
    .ARM.Collect$$rtentry$$0000000A
    __rt_entry_li
    __rt_entry_postsh_1
        0x00000164:    f7fffff7    ....    BL       __rt_lib_init ; 0x156
    .ARM.Collect$$rtentry$$0000000C
    .ARM.Collect$$rtentry$$0000000D
    __rt_entry_main
    __rt_entry_postli_1
        0x00000168:    f001fee6    ....    BL       main ; 0x1f38
        0x0000016c:    f000fa51    ..Q.    BL       exit ; 0x612
    .ARM.Collect$$rtexit$$00000000
    __rt_exit
        0x00000170:    b403        ..      PUSH     {r0,r1}
    .ARM.Collect$$rtexit$$00000002
    .ARM.Collect$$rtexit$$00000003
    __rt_exit_ls
    __rt_exit_prels_1
        0x00000172:    f7fffff2    ....    BL       __rt_lib_shutdown ; 0x15a
    .ARM.Collect$$rtexit$$00000004
    __rt_exit_exit
        0x00000176:    bc03        ..      POP      {r0,r1}
        0x00000178:    f000fa58    ..X.    BL       _sys_exit ; 0x62c
    .text
    Reset_Handler
        0x0000017c:    480d        .H      LDR      r0,[pc,#52] ; [0x1b4] = 0x50000100
        0x0000017e:    490e        .I      LDR      r1,[pc,#56] ; [0x1b8] = 0x59
        0x00000180:    6001        .`      STR      r1,[r0,#0]
        0x00000182:    490e        .I      LDR      r1,[pc,#56] ; [0x1bc] = 0x16
        0x00000184:    6001        .`      STR      r1,[r0,#0]
        0x00000186:    490e        .I      LDR      r1,[pc,#56] ; [0x1c0] = 0x88
        0x00000188:    6001        .`      STR      r1,[r0,#0]
        0x0000018a:    4a0e        .J      LDR      r2,[pc,#56] ; [0x1c4] = 0x50000024
        0x0000018c:    490e        .I      LDR      r1,[pc,#56] ; [0x1c8] = 0x5aa5
        0x0000018e:    6011        .`      STR      r1,[r2,#0]
        0x00000190:    2100        .!      MOVS     r1,#0
        0x00000192:    6001        .`      STR      r1,[r0,#0]
        0x00000194:    480d        .H      LDR      r0,[pc,#52] ; [0x1cc] = 0x1b71
        0x00000196:    4780        .G      BLX      r0
        0x00000198:    480d        .H      LDR      r0,[pc,#52] ; [0x1d0] = 0xc1
        0x0000019a:    4700        .G      BX       r0
    NMI_Handler
        0x0000019c:    e7fe        ..      B        NMI_Handler ; 0x19c
    HardFault_Handler
        0x0000019e:    e7fe        ..      B        HardFault_Handler ; 0x19e
    SVC_Handler
        0x000001a0:    e7fe        ..      B        SVC_Handler ; 0x1a0
    PendSV_Handler
        0x000001a2:    e7fe        ..      B        PendSV_Handler ; 0x1a2
    SysTick_Handler
        0x000001a4:    e7fe        ..      B        SysTick_Handler ; 0x1a4
    Default_Handler
    ACMP_IRQHandler
    ADC_IRQHandler
    CAN0_IRQHandler
    I2C0_IRQHandler
    I2C1_IRQHandler
    I2S_IRQHandler
    PDMA_IRQHandler
    PS2_IRQHandler
    PWMA_IRQHandler
    PWMB_IRQHandler
    RTC_IRQHandler
    SPI0_IRQHandler
    SPI1_IRQHandler
    SPI2_IRQHandler
    SPI3_IRQHandler
    TMR0_IRQHandler
    TMR1_IRQHandler
    TMR2_IRQHandler
    TMR3_IRQHandler
    USBD_IRQHandler
    WDT_IRQHandler
        0x000001a6:    e7fe        ..      B        Default_Handler ; 0x1a6
    __user_initial_stackheap
        0x000001a8:    480a        .H      LDR      r0,[pc,#40] ; [0x1d4] = 0x20000718
        0x000001aa:    490b        .I      LDR      r1,[pc,#44] ; [0x1d8] = 0x20000b18
        0x000001ac:    4a09        .J      LDR      r2,[pc,#36] ; [0x1d4] = 0x20000718
        0x000001ae:    4b0b        .K      LDR      r3,[pc,#44] ; [0x1dc] = 0x20000718
        0x000001b0:    4770        pG      BX       lr
    $d
        0x000001b2:    0000        ..      DCW    0
        0x000001b4:    50000100    ...P    DCD    1342177536
        0x000001b8:    00000059    Y...    DCD    89
        0x000001bc:    00000016    ....    DCD    22
        0x000001c0:    00000088    ....    DCD    136
        0x000001c4:    50000024    $..P    DCD    1342177316
        0x000001c8:    00005aa5    .Z..    DCD    23205
        0x000001cc:    00001b71    q...    DCD    7025
        0x000001d0:    000000c1    ....    DCD    193
        0x000001d4:    20000718    ...     DCD    536872728
        0x000001d8:    20000b18    ...     DCD    536873752
        0x000001dc:    20000718    ...     DCD    536872728
    $t
    .text
    __2sprintf
        0x000001e0:    b40f        ..      PUSH     {r0-r3}
        0x000001e2:    b51c        ..      PUSH     {r2-r4,lr}
        0x000001e4:    4b07        .K      LDR      r3,[pc,#28] ; [0x204] = 0x389
        0x000001e6:    aa06        ..      ADD      r2,sp,#0x18
        0x000001e8:    447b        {D      ADD      r3,r3,pc
        0x000001ea:    4669        iF      MOV      r1,sp
        0x000001ec:    9000        ..      STR      r0,[sp,#0]
        0x000001ee:    9805        ..      LDR      r0,[sp,#0x14]
        0x000001f0:    f000f9ad    ....    BL       _printf_char_common ; 0x54e
        0x000001f4:    2000        .       MOVS     r0,#0
        0x000001f6:    4669        iF      MOV      r1,sp
        0x000001f8:    f000f9bc    ....    BL       _sputc ; 0x574
        0x000001fc:    bc1c        ..      POP      {r2-r4}
        0x000001fe:    bc08        ..      POP      {r3}
        0x00000200:    b004        ..      ADD      sp,sp,#0x10
        0x00000202:    4718        .G      BX       r3
    $d
        0x00000204:    00000389    ....    DCD    905
    $t
    .text
    __printf
        0x00000208:    b5f8        ..      PUSH     {r3-r7,lr}
        0x0000020a:    460e        .F      MOV      r6,r1
        0x0000020c:    4604        .F      MOV      r4,r0
        0x0000020e:    2000        .       MOVS     r0,#0
        0x00000210:    6220         b      STR      r0,[r4,#0x20]
        0x00000212:    4620         F      MOV      r0,r4
        0x00000214:    68e1        .h      LDR      r1,[r4,#0xc]
        0x00000216:    4788        .G      BLX      r1
        0x00000218:    2800        .(      CMP      r0,#0
        0x0000021a:    d029        ).      BEQ      0x270 ; __printf + 104
        0x0000021c:    2825        %(      CMP      r0,#0x25
        0x0000021e:    d002        ..      BEQ      0x226 ; __printf + 30
        0x00000220:    6862        bh      LDR      r2,[r4,#4]
        0x00000222:    68a1        .h      LDR      r1,[r4,#8]
        0x00000224:    e020         .      B        0x268 ; __printf + 96
        0x00000226:    68e1        .h      LDR      r1,[r4,#0xc]
        0x00000228:    4620         F      MOV      r0,r4
        0x0000022a:    2700        .'      MOVS     r7,#0
        0x0000022c:    4788        .G      BLX      r1
        0x0000022e:    0005        ..      MOVS     r5,r0
        0x00000230:    d01e        ..      BEQ      0x270 ; __printf + 104
        0x00000232:    4628        (F      MOV      r0,r5
        0x00000234:    3841        A8      SUBS     r0,r0,#0x41
        0x00000236:    2819        .(      CMP      r0,#0x19
        0x00000238:    d802        ..      BHI      0x240 ; __printf + 56
        0x0000023a:    2701        .'      MOVS     r7,#1
        0x0000023c:    02ff        ..      LSLS     r7,r7,#11
        0x0000023e:    3520         5      ADDS     r5,r5,#0x20
        0x00000240:    4632        2F      MOV      r2,r6
        0x00000242:    4620         F      MOV      r0,r4
        0x00000244:    6027        '`      STR      r7,[r4,#0]
        0x00000246:    4629        )F      MOV      r1,r5
        0x00000248:    f7ffff78    ..x.    BL       _printf_percent ; 0x13c
        0x0000024c:    2800        .(      CMP      r0,#0
        0x0000024e:    d008        ..      BEQ      0x262 ; __printf + 90
        0x00000250:    2801        .(      CMP      r0,#1
        0x00000252:    d004        ..      BEQ      0x25e ; __printf + 86
        0x00000254:    1df6        ..      ADDS     r6,r6,#7
        0x00000256:    08f6        ..      LSRS     r6,r6,#3
        0x00000258:    00f6        ..      LSLS     r6,r6,#3
        0x0000025a:    3608        .6      ADDS     r6,r6,#8
        0x0000025c:    e7d9        ..      B        0x212 ; __printf + 10
        0x0000025e:    1d36        6.      ADDS     r6,r6,#4
        0x00000260:    e7d7        ..      B        0x212 ; __printf + 10
        0x00000262:    6862        bh      LDR      r2,[r4,#4]
        0x00000264:    4628        (F      MOV      r0,r5
        0x00000266:    68a1        .h      LDR      r1,[r4,#8]
        0x00000268:    4790        .G      BLX      r2
        0x0000026a:    6a20         j      LDR      r0,[r4,#0x20]
        0x0000026c:    1c40        @.      ADDS     r0,r0,#1
        0x0000026e:    e7cf        ..      B        0x210 ; __printf + 8
        0x00000270:    6a20         j      LDR      r0,[r4,#0x20]
        0x00000272:    bdf8        ..      POP      {r3-r7,pc}
    .text
    _printf_str
        0x00000274:    b570        p.      PUSH     {r4-r6,lr}
        0x00000276:    460c        .F      MOV      r4,r1
        0x00000278:    4605        .F      MOV      r5,r0
        0x0000027a:    2a01        .*      CMP      r2,#1
        0x0000027c:    d005        ..      BEQ      0x28a ; _printf_str + 22
        0x0000027e:    7828        (x      LDRB     r0,[r5,#0]
        0x00000280:    0680        ..      LSLS     r0,r0,#26
        0x00000282:    d500        ..      BPL      0x286 ; _printf_str + 18
        0x00000284:    69ea        .i      LDR      r2,[r5,#0x1c]
        0x00000286:    2300        .#      MOVS     r3,#0
        0x00000288:    e002        ..      B        0x290 ; _printf_str + 28
        0x0000028a:    2301        .#      MOVS     r3,#1
        0x0000028c:    e005        ..      B        0x29a ; _printf_str + 38
        0x0000028e:    1c5b        [.      ADDS     r3,r3,#1
        0x00000290:    4293        .B      CMP      r3,r2
        0x00000292:    d202        ..      BCS      0x29a ; _printf_str + 38
        0x00000294:    5ce0        .\      LDRB     r0,[r4,r3]
        0x00000296:    2800        .(      CMP      r0,#0
        0x00000298:    d1f9        ..      BNE      0x28e ; _printf_str + 26
        0x0000029a:    69a8        .i      LDR      r0,[r5,#0x18]
        0x0000029c:    18e6        ..      ADDS     r6,r4,r3
        0x0000029e:    1ac0        ..      SUBS     r0,r0,r3
        0x000002a0:    61a8        .a      STR      r0,[r5,#0x18]
        0x000002a2:    6a28        (j      LDR      r0,[r5,#0x20]
        0x000002a4:    18c0        ..      ADDS     r0,r0,r3
        0x000002a6:    6228        (b      STR      r0,[r5,#0x20]
        0x000002a8:    4628        (F      MOV      r0,r5
        0x000002aa:    46c0        .F      MOV      r8,r8
        0x000002ac:    46c0        .F      MOV      r8,r8
        0x000002ae:    e004        ..      B        0x2ba ; _printf_str + 70
        0x000002b0:    686a        jh      LDR      r2,[r5,#4]
        0x000002b2:    7820         x      LDRB     r0,[r4,#0]
        0x000002b4:    68a9        .h      LDR      r1,[r5,#8]
        0x000002b6:    1c64        d.      ADDS     r4,r4,#1
        0x000002b8:    4790        .G      BLX      r2
        0x000002ba:    42b4        .B      CMP      r4,r6
        0x000002bc:    d3f8        ..      BCC      0x2b0 ; _printf_str + 60
        0x000002be:    4628        (F      MOV      r0,r5
        0x000002c0:    46c0        .F      MOV      r8,r8
        0x000002c2:    46c0        .F      MOV      r8,r8
        0x000002c4:    bd70        p.      POP      {r4-r6,pc}
        0x000002c6:    0000        ..      MOVS     r0,r0
    .text
    _printf_int_dec
        0x000002c8:    b5f7        ..      PUSH     {r0-r2,r4-r7,lr}
        0x000002ca:    2500        .%      MOVS     r5,#0
        0x000002cc:    2975        u)      CMP      r1,#0x75
        0x000002ce:    6810        .h      LDR      r0,[r2,#0]
        0x000002d0:    9900        ..      LDR      r1,[sp,#0]
        0x000002d2:    a614        ..      ADR      r6,{pc}+0x52 ; 0x324
        0x000002d4:    d011        ..      BEQ      0x2fa ; _printf_int_dec + 50
        0x000002d6:    46c0        .F      MOV      r8,r8
        0x000002d8:    46c0        .F      MOV      r8,r8
        0x000002da:    2800        .(      CMP      r0,#0
        0x000002dc:    da02        ..      BGE      0x2e4 ; _printf_int_dec + 28
        0x000002de:    4240        @B      RSBS     r0,r0,#0
        0x000002e0:    a611        ..      ADR      r6,{pc}+0x48 ; 0x328
        0x000002e2:    e008        ..      B        0x2f6 ; _printf_int_dec + 46
        0x000002e4:    9900        ..      LDR      r1,[sp,#0]
        0x000002e6:    6809        .h      LDR      r1,[r1,#0]
        0x000002e8:    078a        ..      LSLS     r2,r1,#30
        0x000002ea:    d501        ..      BPL      0x2f0 ; _printf_int_dec + 40
        0x000002ec:    a60f        ..      ADR      r6,{pc}+0x40 ; 0x32c
        0x000002ee:    e002        ..      B        0x2f6 ; _printf_int_dec + 46
        0x000002f0:    0749        I.      LSLS     r1,r1,#29
        0x000002f2:    d504        ..      BPL      0x2fe ; _printf_int_dec + 54
        0x000002f4:    a60e        ..      ADR      r6,{pc}+0x3c ; 0x330
        0x000002f6:    2501        .%      MOVS     r5,#1
        0x000002f8:    e001        ..      B        0x2fe ; _printf_int_dec + 54
        0x000002fa:    46c0        .F      MOV      r8,r8
        0x000002fc:    46c0        .F      MOV      r8,r8
        0x000002fe:    9f00        ..      LDR      r7,[sp,#0]
        0x00000300:    2400        .$      MOVS     r4,#0
        0x00000302:    3724        $7      ADDS     r7,r7,#0x24
        0x00000304:    e004        ..      B        0x310 ; _printf_int_dec + 72
        0x00000306:    f000f951    ..Q.    BL       __rt_udiv10 ; 0x5ac
        0x0000030a:    3130        01      ADDS     r1,r1,#0x30
        0x0000030c:    5539        9U      STRB     r1,[r7,r4]
        0x0000030e:    1c64        d.      ADDS     r4,r4,#1
        0x00000310:    2800        .(      CMP      r0,#0
        0x00000312:    d1f8        ..      BNE      0x306 ; _printf_int_dec + 62
        0x00000314:    462b        +F      MOV      r3,r5
        0x00000316:    4632        2F      MOV      r2,r6
        0x00000318:    4621        !F      MOV      r1,r4
        0x0000031a:    9800        ..      LDR      r0,[sp,#0]
        0x0000031c:    f000f8ba    ....    BL       _printf_int_common ; 0x494
        0x00000320:    bdfe        ..      POP      {r1-r7,pc}
    $d
        0x00000322:    0000        ..      DCW    0
        0x00000324:    00000000    ....    DCD    0
        0x00000328:    0000002d    -...    DCD    45
        0x0000032c:    0000002b    +...    DCD    43
        0x00000330:    00000020     ...    DCD    32
    $t
    .text
    __aeabi_uidiv
    __aeabi_uidivmod
        0x00000334:    2200        ."      MOVS     r2,#0
        0x00000336:    0903        ..      LSRS     r3,r0,#4
        0x00000338:    428b        .B      CMP      r3,r1
        0x0000033a:    d32c        ,.      BCC      0x396 ; __aeabi_idiv + 78
        0x0000033c:    0a03        ..      LSRS     r3,r0,#8
        0x0000033e:    428b        .B      CMP      r3,r1
        0x00000340:    d311        ..      BCC      0x366 ; __aeabi_idiv + 30
        0x00000342:    2300        .#      MOVS     r3,#0
        0x00000344:    469c        .F      MOV      r12,r3
        0x00000346:    e04e        N.      B        0x3e6 ; __aeabi_idiv + 158
    __aeabi_idiv
    __aeabi_idivmod
        0x00000348:    4603        .F      MOV      r3,r0
        0x0000034a:    430b        .C      ORRS     r3,r3,r1
        0x0000034c:    d43c        <.      BMI      0x3c8 ; __aeabi_idiv + 128
        0x0000034e:    2200        ."      MOVS     r2,#0
        0x00000350:    0843        C.      LSRS     r3,r0,#1
        0x00000352:    428b        .B      CMP      r3,r1
        0x00000354:    d331        1.      BCC      0x3ba ; __aeabi_idiv + 114
        0x00000356:    0903        ..      LSRS     r3,r0,#4
        0x00000358:    428b        .B      CMP      r3,r1
        0x0000035a:    d31c        ..      BCC      0x396 ; __aeabi_idiv + 78
        0x0000035c:    0a03        ..      LSRS     r3,r0,#8
        0x0000035e:    428b        .B      CMP      r3,r1
        0x00000360:    d301        ..      BCC      0x366 ; __aeabi_idiv + 30
        0x00000362:    4694        .F      MOV      r12,r2
        0x00000364:    e03f        ?.      B        0x3e6 ; __aeabi_idiv + 158
        0x00000366:    09c3        ..      LSRS     r3,r0,#7
        0x00000368:    428b        .B      CMP      r3,r1
        0x0000036a:    d301        ..      BCC      0x370 ; __aeabi_idiv + 40
        0x0000036c:    01cb        ..      LSLS     r3,r1,#7
        0x0000036e:    1ac0        ..      SUBS     r0,r0,r3
        0x00000370:    4152        RA      ADCS     r2,r2,r2
        0x00000372:    0983        ..      LSRS     r3,r0,#6
        0x00000374:    428b        .B      CMP      r3,r1
        0x00000376:    d301        ..      BCC      0x37c ; __aeabi_idiv + 52
        0x00000378:    018b        ..      LSLS     r3,r1,#6
        0x0000037a:    1ac0        ..      SUBS     r0,r0,r3
        0x0000037c:    4152        RA      ADCS     r2,r2,r2
        0x0000037e:    0943        C.      LSRS     r3,r0,#5
        0x00000380:    428b        .B      CMP      r3,r1
        0x00000382:    d301        ..      BCC      0x388 ; __aeabi_idiv + 64
        0x00000384:    014b        K.      LSLS     r3,r1,#5
        0x00000386:    1ac0        ..      SUBS     r0,r0,r3
        0x00000388:    4152        RA      ADCS     r2,r2,r2
        0x0000038a:    0903        ..      LSRS     r3,r0,#4
        0x0000038c:    428b        .B      CMP      r3,r1
        0x0000038e:    d301        ..      BCC      0x394 ; __aeabi_idiv + 76
        0x00000390:    010b        ..      LSLS     r3,r1,#4
        0x00000392:    1ac0        ..      SUBS     r0,r0,r3
        0x00000394:    4152        RA      ADCS     r2,r2,r2
        0x00000396:    08c3        ..      LSRS     r3,r0,#3
        0x00000398:    428b        .B      CMP      r3,r1
        0x0000039a:    d301        ..      BCC      0x3a0 ; __aeabi_idiv + 88
        0x0000039c:    00cb        ..      LSLS     r3,r1,#3
        0x0000039e:    1ac0        ..      SUBS     r0,r0,r3
        0x000003a0:    4152        RA      ADCS     r2,r2,r2
        0x000003a2:    0883        ..      LSRS     r3,r0,#2
        0x000003a4:    428b        .B      CMP      r3,r1
        0x000003a6:    d301        ..      BCC      0x3ac ; __aeabi_idiv + 100
        0x000003a8:    008b        ..      LSLS     r3,r1,#2
        0x000003aa:    1ac0        ..      SUBS     r0,r0,r3
        0x000003ac:    4152        RA      ADCS     r2,r2,r2
        0x000003ae:    0843        C.      LSRS     r3,r0,#1
        0x000003b0:    428b        .B      CMP      r3,r1
        0x000003b2:    d301        ..      BCC      0x3b8 ; __aeabi_idiv + 112
        0x000003b4:    004b        K.      LSLS     r3,r1,#1
        0x000003b6:    1ac0        ..      SUBS     r0,r0,r3
        0x000003b8:    4152        RA      ADCS     r2,r2,r2
        0x000003ba:    1a41        A.      SUBS     r1,r0,r1
        0x000003bc:    d200        ..      BCS      0x3c0 ; __aeabi_idiv + 120
        0x000003be:    4601        .F      MOV      r1,r0
        0x000003c0:    4152        RA      ADCS     r2,r2,r2
        0x000003c2:    4610        .F      MOV      r0,r2
        0x000003c4:    4770        pG      BX       lr
        0x000003c6:    e05d        ].      B        0x484 ; __aeabi_idiv + 316
        0x000003c8:    0fca        ..      LSRS     r2,r1,#31
        0x000003ca:    d000        ..      BEQ      0x3ce ; __aeabi_idiv + 134
        0x000003cc:    4249        IB      RSBS     r1,r1,#0
        0x000003ce:    1003        ..      ASRS     r3,r0,#32
        0x000003d0:    d300        ..      BCC      0x3d4 ; __aeabi_idiv + 140
        0x000003d2:    4240        @B      RSBS     r0,r0,#0
        0x000003d4:    4053        S@      EORS     r3,r3,r2
        0x000003d6:    2200        ."      MOVS     r2,#0
        0x000003d8:    469c        .F      MOV      r12,r3
        0x000003da:    0903        ..      LSRS     r3,r0,#4
        0x000003dc:    428b        .B      CMP      r3,r1
        0x000003de:    d32d        -.      BCC      0x43c ; __aeabi_idiv + 244
        0x000003e0:    0a03        ..      LSRS     r3,r0,#8
        0x000003e2:    428b        .B      CMP      r3,r1
        0x000003e4:    d312        ..      BCC      0x40c ; __aeabi_idiv + 196
        0x000003e6:    22fc        ."      MOVS     r2,#0xfc
        0x000003e8:    0189        ..      LSLS     r1,r1,#6
        0x000003ea:    ba12        ..      REV      r2,r2
        0x000003ec:    0a03        ..      LSRS     r3,r0,#8
        0x000003ee:    428b        .B      CMP      r3,r1
        0x000003f0:    d30c        ..      BCC      0x40c ; __aeabi_idiv + 196
        0x000003f2:    0189        ..      LSLS     r1,r1,#6
        0x000003f4:    1192        ..      ASRS     r2,r2,#6
        0x000003f6:    428b        .B      CMP      r3,r1
        0x000003f8:    d308        ..      BCC      0x40c ; __aeabi_idiv + 196
        0x000003fa:    0189        ..      LSLS     r1,r1,#6
        0x000003fc:    1192        ..      ASRS     r2,r2,#6
        0x000003fe:    428b        .B      CMP      r3,r1
        0x00000400:    d304        ..      BCC      0x40c ; __aeabi_idiv + 196
        0x00000402:    0189        ..      LSLS     r1,r1,#6
        0x00000404:    d03a        :.      BEQ      0x47c ; __aeabi_idiv + 308
        0x00000406:    1192        ..      ASRS     r2,r2,#6
        0x00000408:    e000        ..      B        0x40c ; __aeabi_idiv + 196
        0x0000040a:    0989        ..      LSRS     r1,r1,#6
        0x0000040c:    09c3        ..      LSRS     r3,r0,#7
        0x0000040e:    428b        .B      CMP      r3,r1
        0x00000410:    d301        ..      BCC      0x416 ; __aeabi_idiv + 206
        0x00000412:    01cb        ..      LSLS     r3,r1,#7
        0x00000414:    1ac0        ..      SUBS     r0,r0,r3
        0x00000416:    4152        RA      ADCS     r2,r2,r2
        0x00000418:    0983        ..      LSRS     r3,r0,#6
        0x0000041a:    428b        .B      CMP      r3,r1
        0x0000041c:    d301        ..      BCC      0x422 ; __aeabi_idiv + 218
        0x0000041e:    018b        ..      LSLS     r3,r1,#6
        0x00000420:    1ac0        ..      SUBS     r0,r0,r3
        0x00000422:    4152        RA      ADCS     r2,r2,r2
        0x00000424:    0943        C.      LSRS     r3,r0,#5
        0x00000426:    428b        .B      CMP      r3,r1
        0x00000428:    d301        ..      BCC      0x42e ; __aeabi_idiv + 230
        0x0000042a:    014b        K.      LSLS     r3,r1,#5
        0x0000042c:    1ac0        ..      SUBS     r0,r0,r3
        0x0000042e:    4152        RA      ADCS     r2,r2,r2
        0x00000430:    0903        ..      LSRS     r3,r0,#4
        0x00000432:    428b        .B      CMP      r3,r1
        0x00000434:    d301        ..      BCC      0x43a ; __aeabi_idiv + 242
        0x00000436:    010b        ..      LSLS     r3,r1,#4
        0x00000438:    1ac0        ..      SUBS     r0,r0,r3
        0x0000043a:    4152        RA      ADCS     r2,r2,r2
        0x0000043c:    08c3        ..      LSRS     r3,r0,#3
        0x0000043e:    428b        .B      CMP      r3,r1
        0x00000440:    d301        ..      BCC      0x446 ; __aeabi_idiv + 254
        0x00000442:    00cb        ..      LSLS     r3,r1,#3
        0x00000444:    1ac0        ..      SUBS     r0,r0,r3
        0x00000446:    4152        RA      ADCS     r2,r2,r2
        0x00000448:    0883        ..      LSRS     r3,r0,#2
        0x0000044a:    428b        .B      CMP      r3,r1
        0x0000044c:    d301        ..      BCC      0x452 ; __aeabi_idiv + 266
        0x0000044e:    008b        ..      LSLS     r3,r1,#2
        0x00000450:    1ac0        ..      SUBS     r0,r0,r3
        0x00000452:    4152        RA      ADCS     r2,r2,r2
        0x00000454:    d2d9        ..      BCS      0x40a ; __aeabi_idiv + 194
        0x00000456:    0843        C.      LSRS     r3,r0,#1
        0x00000458:    428b        .B      CMP      r3,r1
        0x0000045a:    d301        ..      BCC      0x460 ; __aeabi_idiv + 280
        0x0000045c:    004b        K.      LSLS     r3,r1,#1
        0x0000045e:    1ac0        ..      SUBS     r0,r0,r3
        0x00000460:    4152        RA      ADCS     r2,r2,r2
        0x00000462:    1a41        A.      SUBS     r1,r0,r1
        0x00000464:    d200        ..      BCS      0x468 ; __aeabi_idiv + 288
        0x00000466:    4601        .F      MOV      r1,r0
        0x00000468:    4663        cF      MOV      r3,r12
        0x0000046a:    4152        RA      ADCS     r2,r2,r2
        0x0000046c:    105b        [.      ASRS     r3,r3,#1
        0x0000046e:    4610        .F      MOV      r0,r2
        0x00000470:    d301        ..      BCC      0x476 ; __aeabi_idiv + 302
        0x00000472:    4240        @B      RSBS     r0,r0,#0
        0x00000474:    2b00        .+      CMP      r3,#0
        0x00000476:    d500        ..      BPL      0x47a ; __aeabi_idiv + 306
        0x00000478:    4249        IB      RSBS     r1,r1,#0
        0x0000047a:    4770        pG      BX       lr
        0x0000047c:    4663        cF      MOV      r3,r12
        0x0000047e:    105b        [.      ASRS     r3,r3,#1
        0x00000480:    d300        ..      BCC      0x484 ; __aeabi_idiv + 316
        0x00000482:    4240        @B      RSBS     r0,r0,#0
        0x00000484:    b501        ..      PUSH     {r0,lr}
        0x00000486:    2000        .       MOVS     r0,#0
        0x00000488:    46c0        .F      MOV      r8,r8
        0x0000048a:    46c0        .F      MOV      r8,r8
        0x0000048c:    bd02        ..      POP      {r1,pc}
    .text
    __use_two_region_memory
        0x0000048e:    4770        pG      BX       lr
    __rt_heap_escrow$2region
        0x00000490:    4770        pG      BX       lr
    __rt_heap_expand$2region
        0x00000492:    4770        pG      BX       lr
    .text
    _printf_int_common
        0x00000494:    b5ff        ..      PUSH     {r0-r7,lr}
        0x00000496:    4604        .F      MOV      r4,r0
        0x00000498:    460d        .F      MOV      r5,r1
        0x0000049a:    b081        ..      SUB      sp,sp,#4
        0x0000049c:    3024        $0      ADDS     r0,r0,#0x24
        0x0000049e:    9000        ..      STR      r0,[sp,#0]
        0x000004a0:    6821        !h      LDR      r1,[r4,#0]
        0x000004a2:    0688        ..      LSLS     r0,r1,#26
        0x000004a4:    d504        ..      BPL      0x4b0 ; _printf_int_common + 28
        0x000004a6:    2210        ."      MOVS     r2,#0x10
        0x000004a8:    69e0        .i      LDR      r0,[r4,#0x1c]
        0x000004aa:    4391        .C      BICS     r1,r1,r2
        0x000004ac:    6021        !`      STR      r1,[r4,#0]
        0x000004ae:    e000        ..      B        0x4b2 ; _printf_int_common + 30
        0x000004b0:    2001        .       MOVS     r0,#1
        0x000004b2:    42a8        .B      CMP      r0,r5
        0x000004b4:    dd01        ..      BLE      0x4ba ; _printf_int_common + 38
        0x000004b6:    1b47        G.      SUBS     r7,r0,r5
        0x000004b8:    e000        ..      B        0x4bc ; _printf_int_common + 40
        0x000004ba:    2700        .'      MOVS     r7,#0
        0x000004bc:    9804        ..      LDR      r0,[sp,#0x10]
        0x000004be:    69a1        .i      LDR      r1,[r4,#0x18]
        0x000004c0:    197a        z.      ADDS     r2,r7,r5
        0x000004c2:    1810        ..      ADDS     r0,r2,r0
        0x000004c4:    1a08        ..      SUBS     r0,r1,r0
        0x000004c6:    61a0        .a      STR      r0,[r4,#0x18]
        0x000004c8:    7820         x      LDRB     r0,[r4,#0]
        0x000004ca:    06c0        ..      LSLS     r0,r0,#27
        0x000004cc:    d402        ..      BMI      0x4d4 ; _printf_int_common + 64
        0x000004ce:    4620         F      MOV      r0,r4
        0x000004d0:    46c0        .F      MOV      r8,r8
        0x000004d2:    46c0        .F      MOV      r8,r8
        0x000004d4:    2600        .&      MOVS     r6,#0
        0x000004d6:    e008        ..      B        0x4ea ; _printf_int_common + 86
        0x000004d8:    9803        ..      LDR      r0,[sp,#0xc]
        0x000004da:    6862        bh      LDR      r2,[r4,#4]
        0x000004dc:    68a1        .h      LDR      r1,[r4,#8]
        0x000004de:    5d80        .]      LDRB     r0,[r0,r6]
        0x000004e0:    4790        .G      BLX      r2
        0x000004e2:    6a20         j      LDR      r0,[r4,#0x20]
        0x000004e4:    1c40        @.      ADDS     r0,r0,#1
        0x000004e6:    1c76        v.      ADDS     r6,r6,#1
        0x000004e8:    6220         b      STR      r0,[r4,#0x20]
        0x000004ea:    9804        ..      LDR      r0,[sp,#0x10]
        0x000004ec:    4286        .B      CMP      r6,r0
        0x000004ee:    dbf3        ..      BLT      0x4d8 ; _printf_int_common + 68
        0x000004f0:    7820         x      LDRB     r0,[r4,#0]
        0x000004f2:    06c0        ..      LSLS     r0,r0,#27
        0x000004f4:    d50a        ..      BPL      0x50c ; _printf_int_common + 120
        0x000004f6:    4620         F      MOV      r0,r4
        0x000004f8:    46c0        .F      MOV      r8,r8
        0x000004fa:    46c0        .F      MOV      r8,r8
        0x000004fc:    e006        ..      B        0x50c ; _printf_int_common + 120
        0x000004fe:    6862        bh      LDR      r2,[r4,#4]
        0x00000500:    68a1        .h      LDR      r1,[r4,#8]
        0x00000502:    2030        0       MOVS     r0,#0x30
        0x00000504:    4790        .G      BLX      r2
        0x00000506:    6a20         j      LDR      r0,[r4,#0x20]
        0x00000508:    1c40        @.      ADDS     r0,r0,#1
        0x0000050a:    6220         b      STR      r0,[r4,#0x20]
        0x0000050c:    4638        8F      MOV      r0,r7
        0x0000050e:    1e7f        ..      SUBS     r7,r7,#1
        0x00000510:    2800        .(      CMP      r0,#0
        0x00000512:    dcf4        ..      BGT      0x4fe ; _printf_int_common + 106
        0x00000514:    e007        ..      B        0x526 ; _printf_int_common + 146
        0x00000516:    9800        ..      LDR      r0,[sp,#0]
        0x00000518:    6862        bh      LDR      r2,[r4,#4]
        0x0000051a:    68a1        .h      LDR      r1,[r4,#8]
        0x0000051c:    5d40        @]      LDRB     r0,[r0,r5]
        0x0000051e:    4790        .G      BLX      r2
        0x00000520:    6a20         j      LDR      r0,[r4,#0x20]
        0x00000522:    1c40        @.      ADDS     r0,r0,#1
        0x00000524:    6220         b      STR      r0,[r4,#0x20]
        0x00000526:    4628        (F      MOV      r0,r5
        0x00000528:    1e6d        m.      SUBS     r5,r5,#1
        0x0000052a:    2800        .(      CMP      r0,#0
        0x0000052c:    dcf3        ..      BGT      0x516 ; _printf_int_common + 130
        0x0000052e:    4620         F      MOV      r0,r4
        0x00000530:    46c0        .F      MOV      r8,r8
        0x00000532:    46c0        .F      MOV      r8,r8
        0x00000534:    7820         x      LDRB     r0,[r4,#0]
        0x00000536:    0600        ..      LSLS     r0,r0,#24
        0x00000538:    d502        ..      BPL      0x540 ; _printf_int_common + 172
        0x0000053a:    2002        .       MOVS     r0,#2
        0x0000053c:    b005        ..      ADD      sp,sp,#0x14
        0x0000053e:    bdf0        ..      POP      {r4-r7,pc}
        0x00000540:    2001        .       MOVS     r0,#1
        0x00000542:    e7fb        ..      B        0x53c ; _printf_int_common + 168
    .text
    _printf_input_char
        0x00000544:    6901        .i      LDR      r1,[r0,#0x10]
        0x00000546:    1c4a        J.      ADDS     r2,r1,#1
        0x00000548:    6102        .a      STR      r2,[r0,#0x10]
        0x0000054a:    7808        .x      LDRB     r0,[r1,#0]
        0x0000054c:    4770        pG      BX       lr
    _printf_char_common
        0x0000054e:    b500        ..      PUSH     {lr}
        0x00000550:    b08f        ..      SUB      sp,sp,#0x3c
        0x00000552:    9102        ..      STR      r1,[sp,#8]
        0x00000554:    2100        .!      MOVS     r1,#0
        0x00000556:    9105        ..      STR      r1,[sp,#0x14]
        0x00000558:    4905        .I      LDR      r1,[pc,#20] ; [0x570] = 0xffffffe5
        0x0000055a:    9301        ..      STR      r3,[sp,#4]
        0x0000055c:    4479        yD      ADD      r1,r1,pc
        0x0000055e:    9103        ..      STR      r1,[sp,#0xc]
        0x00000560:    4611        .F      MOV      r1,r2
        0x00000562:    9004        ..      STR      r0,[sp,#0x10]
        0x00000564:    4668        hF      MOV      r0,sp
        0x00000566:    f7fffe4f    ..O.    BL       __printf ; 0x208
        0x0000056a:    b00f        ..      ADD      sp,sp,#0x3c
        0x0000056c:    bd00        ..      POP      {pc}
    $d
        0x0000056e:    0000        ..      DCW    0
        0x00000570:    ffffffe5    ....    DCD    4294967269
    $t
    .text
    _sputc
        0x00000574:    680a        .h      LDR      r2,[r1,#0]
        0x00000576:    7010        .p      STRB     r0,[r2,#0]
        0x00000578:    1c52        R.      ADDS     r2,r2,#1
        0x0000057a:    600a        .`      STR      r2,[r1,#0]
        0x0000057c:    4770        pG      BX       lr
    .text
    _printf_cs_common
        0x0000057e:    b510        ..      PUSH     {r4,lr}
        0x00000580:    6943        Ci      LDR      r3,[r0,#0x14]
        0x00000582:    2b00        .+      CMP      r3,#0
        0x00000584:    d002        ..      BEQ      0x58c ; _printf_cs_common + 14
        0x00000586:    46c0        .F      MOV      r8,r8
        0x00000588:    46c0        .F      MOV      r8,r8
        0x0000058a:    e001        ..      B        0x590 ; _printf_cs_common + 18
        0x0000058c:    f7fffe72    ..r.    BL       _printf_str ; 0x274
        0x00000590:    2001        .       MOVS     r0,#1
        0x00000592:    bd10        ..      POP      {r4,pc}
    _printf_char
        0x00000594:    7812        .x      LDRB     r2,[r2,#0]
        0x00000596:    4601        .F      MOV      r1,r0
        0x00000598:    3124        $1      ADDS     r1,r1,#0x24
        0x0000059a:    700a        .p      STRB     r2,[r1,#0]
        0x0000059c:    2200        ."      MOVS     r2,#0
        0x0000059e:    704a        Jp      STRB     r2,[r1,#1]
        0x000005a0:    2201        ."      MOVS     r2,#1
        0x000005a2:    e7ec        ..      B        _printf_cs_common ; 0x57e
    _printf_string
        0x000005a4:    6811        .h      LDR      r1,[r2,#0]
        0x000005a6:    2200        ."      MOVS     r2,#0
        0x000005a8:    43d2        .C      MVNS     r2,r2
        0x000005aa:    e7e8        ..      B        _printf_cs_common ; 0x57e
    .text
    __rt_udiv10
        0x000005ac:    4601        .F      MOV      r1,r0
        0x000005ae:    0880        ..      LSRS     r0,r0,#2
        0x000005b0:    1a08        ..      SUBS     r0,r1,r0
        0x000005b2:    0902        ..      LSRS     r2,r0,#4
        0x000005b4:    1810        ..      ADDS     r0,r2,r0
        0x000005b6:    0a02        ..      LSRS     r2,r0,#8
        0x000005b8:    1810        ..      ADDS     r0,r2,r0
        0x000005ba:    0c02        ..      LSRS     r2,r0,#16
        0x000005bc:    1810        ..      ADDS     r0,r2,r0
        0x000005be:    08c0        ..      LSRS     r0,r0,#3
        0x000005c0:    0082        ..      LSLS     r2,r0,#2
        0x000005c2:    1812        ..      ADDS     r2,r2,r0
        0x000005c4:    0052        R.      LSLS     r2,r2,#1
        0x000005c6:    1a89        ..      SUBS     r1,r1,r2
        0x000005c8:    e001        ..      B        0x5ce ; __rt_udiv10 + 34
        0x000005ca:    1c40        @.      ADDS     r0,r0,#1
        0x000005cc:    390a        .9      SUBS     r1,r1,#0xa
        0x000005ce:    290a        .)      CMP      r1,#0xa
        0x000005d0:    d2fb        ..      BCS      0x5ca ; __rt_udiv10 + 30
        0x000005d2:    4770        pG      BX       lr
    .text
    __user_setup_stackheap
        0x000005d4:    4675        uF      MOV      r5,lr
        0x000005d6:    f000f825    ..%.    BL       __user_libspace ; 0x624
        0x000005da:    46ae        .F      MOV      lr,r5
        0x000005dc:    0005        ..      MOVS     r5,r0
        0x000005de:    4669        iF      MOV      r1,sp
        0x000005e0:    4653        SF      MOV      r3,r10
        0x000005e2:    08c0        ..      LSRS     r0,r0,#3
        0x000005e4:    00c0        ..      LSLS     r0,r0,#3
        0x000005e6:    4685        .F      MOV      sp,r0
        0x000005e8:    b018        ..      ADD      sp,sp,#0x60
        0x000005ea:    b520         .      PUSH     {r5,lr}
        0x000005ec:    f7fffddc    ....    BL       __user_initial_stackheap ; 0x1a8
        0x000005f0:    bc60        `.      POP      {r5,r6}
        0x000005f2:    2700        .'      MOVS     r7,#0
        0x000005f4:    0849        I.      LSRS     r1,r1,#1
        0x000005f6:    46b6        .F      MOV      lr,r6
        0x000005f8:    2600        .&      MOVS     r6,#0
        0x000005fa:    c5c0        ..      STM      r5!,{r6,r7}
        0x000005fc:    c5c0        ..      STM      r5!,{r6,r7}
        0x000005fe:    c5c0        ..      STM      r5!,{r6,r7}
        0x00000600:    c5c0        ..      STM      r5!,{r6,r7}
        0x00000602:    c5c0        ..      STM      r5!,{r6,r7}
        0x00000604:    c5c0        ..      STM      r5!,{r6,r7}
        0x00000606:    c5c0        ..      STM      r5!,{r6,r7}
        0x00000608:    c5c0        ..      STM      r5!,{r6,r7}
        0x0000060a:    3d40        @=      SUBS     r5,r5,#0x40
        0x0000060c:    0049        I.      LSLS     r1,r1,#1
        0x0000060e:    468d        .F      MOV      sp,r1
        0x00000610:    4770        pG      BX       lr
    .text
    exit
        0x00000612:    b510        ..      PUSH     {r4,lr}
        0x00000614:    4604        .F      MOV      r4,r0
        0x00000616:    46c0        .F      MOV      r8,r8
        0x00000618:    46c0        .F      MOV      r8,r8
        0x0000061a:    4620         F      MOV      r0,r4
        0x0000061c:    f7fffda8    ....    BL       __rt_exit ; 0x170
        0x00000620:    bd10        ..      POP      {r4,pc}
        0x00000622:    0000        ..      MOVS     r0,r0
    .text
    __user_libspace
    __user_perproc_libspace
    __user_perthread_libspace
        0x00000624:    4800        .H      LDR      r0,[pc,#0] ; [0x628] = 0x200006b8
        0x00000626:    4770        pG      BX       lr
    $d
        0x00000628:    200006b8    ...     DCD    536872632
    $t
    .text
    _sys_exit
        0x0000062c:    4901        .I      LDR      r1,[pc,#4] ; [0x634] = 0x20026
        0x0000062e:    2018        .       MOVS     r0,#0x18
        0x00000630:    beab        ..      BKPT     #0xab
        0x00000632:    e7fe        ..      B        0x632 ; _sys_exit + 6
    $d
        0x00000634:    00020026    &...    DCD    131110
    $t
    .text
    __I$use$semihosting
    __use_no_semihosting_swi
        0x00000638:    4770        pG      BX       lr
    .text
    __semihosting_library_function
        0x0000063a:    0000        ..      MOVS     r0,r0
    i.BOD_IRQHandler
    BOD_IRQHandler
        0x0000063c:    b510        ..      PUSH     {r4,lr}
        0x0000063e:    2005        .       MOVS     r0,#5
        0x00000640:    0700        ..      LSLS     r0,r0,#28
        0x00000642:    6980        .i      LDR      r0,[r0,#0x18]
        0x00000644:    2110        .!      MOVS     r1,#0x10
        0x00000646:    4388        .C      BICS     r0,r0,r1
        0x00000648:    3010        .0      ADDS     r0,r0,#0x10
        0x0000064a:    2105        .!      MOVS     r1,#5
        0x0000064c:    0709        ..      LSLS     r1,r1,#28
        0x0000064e:    6188        .a      STR      r0,[r1,#0x18]
        0x00000650:    4803        .H      LDR      r0,[pc,#12] ; [0x660] = 0x20000694
        0x00000652:    6800        .h      LDR      r0,[r0,#0]
        0x00000654:    2800        .(      CMP      r0,#0
        0x00000656:    d002        ..      BEQ      0x65e ; BOD_IRQHandler + 34
        0x00000658:    4801        .H      LDR      r0,[pc,#4] ; [0x660] = 0x20000694
        0x0000065a:    6800        .h      LDR      r0,[r0,#0]
        0x0000065c:    4780        .G      BLX      r0
        0x0000065e:    bd10        ..      POP      {r4,pc}
    $d
        0x00000660:    20000694    ...     DCD    536872596
    $t
    i.BaudRateCalculator
    BaudRateCalculator
        0x00000664:    b5f7        ..      PUSH     {r0-r2,r4-r7,lr}
        0x00000666:    b082        ..      SUB      sp,sp,#8
        0x00000668:    4617        .F      MOV      r7,r2
        0x0000066a:    4831        1H      LDR      r0,[pc,#196] ; [0x730] = 0x40050000
        0x0000066c:    183c        <.      ADDS     r4,r7,r0
        0x0000066e:    9903        ..      LDR      r1,[sp,#0xc]
        0x00000670:    9802        ..      LDR      r0,[sp,#8]
        0x00000672:    f7fffe5f    .._.    BL       __aeabi_uidiv ; 0x334
        0x00000676:    0700        ..      LSLS     r0,r0,#28
        0x00000678:    0f00        ..      LSRS     r0,r0,#28
        0x0000067a:    2803        .(      CMP      r0,#3
        0x0000067c:    d20f        ..      BCS      0x69e ; BaudRateCalculator + 58
        0x0000067e:    6a60        `j      LDR      r0,[r4,#0x24]
        0x00000680:    2101        .!      MOVS     r1,#1
        0x00000682:    0749        I.      LSLS     r1,r1,#29
        0x00000684:    4388        .C      BICS     r0,r0,r1
        0x00000686:    6260        `b      STR      r0,[r4,#0x24]
        0x00000688:    6a60        `j      LDR      r0,[r4,#0x24]
        0x0000068a:    1049        I.      ASRS     r1,r1,#1
        0x0000068c:    4388        .C      BICS     r0,r0,r1
        0x0000068e:    6260        `b      STR      r0,[r4,#0x24]
        0x00000690:    9903        ..      LDR      r1,[sp,#0xc]
        0x00000692:    9802        ..      LDR      r0,[sp,#8]
        0x00000694:    f7fffe4e    ..N.    BL       __aeabi_uidiv ; 0x334
        0x00000698:    0900        ..      LSRS     r0,r0,#4
        0x0000069a:    1e86        ..      SUBS     r6,r0,#2
        0x0000069c:    e040        @.      B        0x720 ; BaudRateCalculator + 188
        0x0000069e:    6a60        `j      LDR      r0,[r4,#0x24]
        0x000006a0:    2101        .!      MOVS     r1,#1
        0x000006a2:    0749        I.      LSLS     r1,r1,#29
        0x000006a4:    4388        .C      BICS     r0,r0,r1
        0x000006a6:    1840        @.      ADDS     r0,r0,r1
        0x000006a8:    6260        `b      STR      r0,[r4,#0x24]
        0x000006aa:    6a60        `j      LDR      r0,[r4,#0x24]
        0x000006ac:    1049        I.      ASRS     r1,r1,#1
        0x000006ae:    4388        .C      BICS     r0,r0,r1
        0x000006b0:    1840        @.      ADDS     r0,r0,r1
        0x000006b2:    6260        `b      STR      r0,[r4,#0x24]
        0x000006b4:    9903        ..      LDR      r1,[sp,#0xc]
        0x000006b6:    9802        ..      LDR      r0,[sp,#8]
        0x000006b8:    f7fffe3c    ..<.    BL       __aeabi_uidiv ; 0x334
        0x000006bc:    1e86        ..      SUBS     r6,r0,#2
        0x000006be:    481d        .H      LDR      r0,[pc,#116] ; [0x734] = 0xffff
        0x000006c0:    4286        .B      CMP      r6,r0
        0x000006c2:    dd2d        -.      BLE      0x720 ; BaudRateCalculator + 188
        0x000006c4:    6a60        `j      LDR      r0,[r4,#0x24]
        0x000006c6:    2101        .!      MOVS     r1,#1
        0x000006c8:    0749        I.      LSLS     r1,r1,#29
        0x000006ca:    4388        .C      BICS     r0,r0,r1
        0x000006cc:    1840        @.      ADDS     r0,r0,r1
        0x000006ce:    6260        `b      STR      r0,[r4,#0x24]
        0x000006d0:    6a60        `j      LDR      r0,[r4,#0x24]
        0x000006d2:    1049        I.      ASRS     r1,r1,#1
        0x000006d4:    4388        .C      BICS     r0,r0,r1
        0x000006d6:    6260        `b      STR      r0,[r4,#0x24]
        0x000006d8:    2508        .%      MOVS     r5,#8
        0x000006da:    e01e        ..      B        0x71a ; BaudRateCalculator + 182
        0x000006dc:    9903        ..      LDR      r1,[sp,#0xc]
        0x000006de:    9802        ..      LDR      r0,[sp,#8]
        0x000006e0:    f7fffe28    ..(.    BL       __aeabi_uidiv ; 0x334
        0x000006e4:    1c69        i.      ADDS     r1,r5,#1
        0x000006e6:    9001        ..      STR      r0,[sp,#4]
        0x000006e8:    f7fffe24    ..$.    BL       __aeabi_uidiv ; 0x334
        0x000006ec:    2903        .)      CMP      r1,#3
        0x000006ee:    d213        ..      BCS      0x718 ; BaudRateCalculator + 180
        0x000006f0:    6a60        `j      LDR      r0,[r4,#0x24]
        0x000006f2:    210f        .!      MOVS     r1,#0xf
        0x000006f4:    0609        ..      LSLS     r1,r1,#24
        0x000006f6:    4388        .C      BICS     r0,r0,r1
        0x000006f8:    0629        ).      LSLS     r1,r5,#24
        0x000006fa:    220f        ."      MOVS     r2,#0xf
        0x000006fc:    0612        ..      LSLS     r2,r2,#24
        0x000006fe:    4011        .@      ANDS     r1,r1,r2
        0x00000700:    4308        .C      ORRS     r0,r0,r1
        0x00000702:    6260        `b      STR      r0,[r4,#0x24]
        0x00000704:    9903        ..      LDR      r1,[sp,#0xc]
        0x00000706:    9802        ..      LDR      r0,[sp,#8]
        0x00000708:    f7fffe14    ....    BL       __aeabi_uidiv ; 0x334
        0x0000070c:    1c69        i.      ADDS     r1,r5,#1
        0x0000070e:    9001        ..      STR      r0,[sp,#4]
        0x00000710:    f7fffe10    ....    BL       __aeabi_uidiv ; 0x334
        0x00000714:    1e86        ..      SUBS     r6,r0,#2
        0x00000716:    e002        ..      B        0x71e ; BaudRateCalculator + 186
        0x00000718:    1c6d        m.      ADDS     r5,r5,#1
        0x0000071a:    2d10        .-      CMP      r5,#0x10
        0x0000071c:    dbde        ..      BLT      0x6dc ; BaudRateCalculator + 120
        0x0000071e:    bf00        ..      NOP      
        0x00000720:    6a60        `j      LDR      r0,[r4,#0x24]
        0x00000722:    0c00        ..      LSRS     r0,r0,#16
        0x00000724:    0400        ..      LSLS     r0,r0,#16
        0x00000726:    b2b1        ..      UXTH     r1,r6
        0x00000728:    4308        .C      ORRS     r0,r0,r1
        0x0000072a:    6260        `b      STR      r0,[r4,#0x24]
        0x0000072c:    b005        ..      ADD      sp,sp,#0x14
        0x0000072e:    bdf0        ..      POP      {r4-r7,pc}
    $d
        0x00000730:    40050000    ...@    DCD    1074069504
        0x00000734:    0000ffff    ....    DCD    65535
    $t
    i.DrvGPIO_InitFunction
    DrvGPIO_InitFunction
        0x00000738:    b510        ..      PUSH     {r4,lr}
        0x0000073a:    4601        .F      MOV      r1,r0
        0x0000073c:    000b        ..      MOVS     r3,r1
        0x0000073e:    f001fbd9    ....    BL       __ARM_common_switch8 ; 0x1ef4
    $d
        0x00000742:    203e        >       DCW    8254
        0x00000744:    5c4b412a    *AK\    DCD    1548435754
        0x00000748:    947e7d74    t}~.    DCD    2491317620
        0x0000074c:    eff1b4a4    ....    DCD    4025595044
        0x00000750:    ebecedee    ....    DCD    3958173166
        0x00000754:    e7e8e9ea    ....    DCD    3890801130
        0x00000758:    e3e4e5e6    ....    DCD    3823429094
        0x0000075c:    dfe0e1e2    ....    DCD    3756057058
        0x00000760:    dbdcddde    ....    DCD    3688685022
        0x00000764:    d7d8d9da    ....    DCD    3621312986
        0x00000768:    d3d4d5d6    ....    DCD    3553940950
        0x0000076c:    cfd0d1d2    ....    DCD    3486568914
        0x00000770:    cbcccdce    ....    DCD    3419196878
        0x00000774:    c7c8c9ca    ....    DCD    3351824842
        0x00000778:    c3c4c5c6    ....    DCD    3284452806
        0x0000077c:    bfc0c1c2    ....    DCD    3217080770
        0x00000780:    bdbe        ..      DCW    48574
    $t
        0x00000782:    2000        .       MOVS     r0,#0
        0x00000784:    2305        .#      MOVS     r3,#5
        0x00000786:    071b        ..      LSLS     r3,r3,#28
        0x00000788:    6318        .c      STR      r0,[r3,#0x30]
        0x0000078a:    6358        Xc      STR      r0,[r3,#0x34]
        0x0000078c:    6398        .c      STR      r0,[r3,#0x38]
        0x0000078e:    63d8        .c      STR      r0,[r3,#0x3c]
        0x00000790:    4bfa        .K      LDR      r3,[pc,#1000] ; [0xb7c] = 0x50000040
        0x00000792:    6018        .`      STR      r0,[r3,#0]
        0x00000794:    e371        q.      B        0xe7a ; DrvGPIO_InitFunction + 1858
        0x00000796:    2005        .       MOVS     r0,#5
        0x00000798:    0700        ..      LSLS     r0,r0,#28
        0x0000079a:    6b40        @k      LDR      r0,[r0,#0x34]
        0x0000079c:    2301        .#      MOVS     r3,#1
        0x0000079e:    031b        ..      LSLS     r3,r3,#12
        0x000007a0:    4318        .C      ORRS     r0,r0,r3
        0x000007a2:    2305        .#      MOVS     r3,#5
        0x000007a4:    071b        ..      LSLS     r3,r3,#28
        0x000007a6:    6358        Xc      STR      r0,[r3,#0x34]
        0x000007a8:    48f4        .H      LDR      r0,[pc,#976] ; [0xb7c] = 0x50000040
        0x000007aa:    6900        .i      LDR      r0,[r0,#0x10]
        0x000007ac:    2301        .#      MOVS     r3,#1
        0x000007ae:    029b        ..      LSLS     r3,r3,#10
        0x000007b0:    4318        .C      ORRS     r0,r0,r3
        0x000007b2:    4bf2        .K      LDR      r3,[pc,#968] ; [0xb7c] = 0x50000040
        0x000007b4:    6118        .a      STR      r0,[r3,#0x10]
        0x000007b6:    4618        .F      MOV      r0,r3
        0x000007b8:    6900        .i      LDR      r0,[r0,#0x10]
        0x000007ba:    015b        [.      LSLS     r3,r3,#5
        0x000007bc:    4398        .C      BICS     r0,r0,r3
        0x000007be:    4bef        .K      LDR      r3,[pc,#956] ; [0xb7c] = 0x50000040
        0x000007c0:    6118        .a      STR      r0,[r3,#0x10]
        0x000007c2:    e35a        Z.      B        0xe7a ; DrvGPIO_InitFunction + 1858
        0x000007c4:    2005        .       MOVS     r0,#5
        0x000007c6:    0700        ..      LSLS     r0,r0,#28
        0x000007c8:    6b00        .k      LDR      r0,[r0,#0x30]
        0x000007ca:    2303        .#      MOVS     r3,#3
        0x000007cc:    021b        ..      LSLS     r3,r3,#8
        0x000007ce:    4318        .C      ORRS     r0,r0,r3
        0x000007d0:    2305        .#      MOVS     r3,#5
        0x000007d2:    071b        ..      LSLS     r3,r3,#28
        0x000007d4:    6318        .c      STR      r0,[r3,#0x30]
        0x000007d6:    e350        P.      B        0xe7a ; DrvGPIO_InitFunction + 1858
        0x000007d8:    2005        .       MOVS     r0,#5
        0x000007da:    0700        ..      LSLS     r0,r0,#28
        0x000007dc:    6b00        .k      LDR      r0,[r0,#0x30]
        0x000007de:    2303        .#      MOVS     r3,#3
        0x000007e0:    029b        ..      LSLS     r3,r3,#10
        0x000007e2:    4318        .C      ORRS     r0,r0,r3
        0x000007e4:    2305        .#      MOVS     r3,#5
        0x000007e6:    071b        ..      LSLS     r3,r3,#28
        0x000007e8:    6318        .c      STR      r0,[r3,#0x30]
        0x000007ea:    48e4        .H      LDR      r0,[pc,#912] ; [0xb7c] = 0x50000040
        0x000007ec:    6900        .i      LDR      r0,[r0,#0x10]
        0x000007ee:    2301        .#      MOVS     r3,#1
        0x000007f0:    02db        ..      LSLS     r3,r3,#11
        0x000007f2:    4398        .C      BICS     r0,r0,r3
        0x000007f4:    4be1        .K      LDR      r3,[pc,#900] ; [0xb7c] = 0x50000040
        0x000007f6:    6118        .a      STR      r0,[r3,#0x10]
        0x000007f8:    e33f        ?.      B        0xe7a ; DrvGPIO_InitFunction + 1858
        0x000007fa:    2005        .       MOVS     r0,#5
        0x000007fc:    0700        ..      LSLS     r0,r0,#28
        0x000007fe:    6b80        .k      LDR      r0,[r0,#0x38]
        0x00000800:    230f        .#      MOVS     r3,#0xf
        0x00000802:    4318        .C      ORRS     r0,r0,r3
        0x00000804:    2305        .#      MOVS     r3,#5
        0x00000806:    071b        ..      LSLS     r3,r3,#28
        0x00000808:    6398        .c      STR      r0,[r3,#0x38]
        0x0000080a:    4618        .F      MOV      r0,r3
        0x0000080c:    6b00        .k      LDR      r0,[r0,#0x30]
        0x0000080e:    2301        .#      MOVS     r3,#1
        0x00000810:    03db        ..      LSLS     r3,r3,#15
        0x00000812:    4318        .C      ORRS     r0,r0,r3
        0x00000814:    2305        .#      MOVS     r3,#5
        0x00000816:    071b        ..      LSLS     r3,r3,#28
        0x00000818:    6318        .c      STR      r0,[r3,#0x30]
        0x0000081a:    48d8        .H      LDR      r0,[pc,#864] ; [0xb7c] = 0x50000040
        0x0000081c:    6900        .i      LDR      r0,[r0,#0x10]
        0x0000081e:    231f        .#      MOVS     r3,#0x1f
        0x00000820:    015b        [.      LSLS     r3,r3,#5
        0x00000822:    4318        .C      ORRS     r0,r0,r3
        0x00000824:    4bd5        .K      LDR      r3,[pc,#852] ; [0xb7c] = 0x50000040
        0x00000826:    6118        .a      STR      r0,[r3,#0x10]
        0x00000828:    e327        '.      B        0xe7a ; DrvGPIO_InitFunction + 1858
        0x0000082a:    2005        .       MOVS     r0,#5
        0x0000082c:    0700        ..      LSLS     r0,r0,#28
        0x0000082e:    6bc0        .k      LDR      r0,[r0,#0x3c]
        0x00000830:    23c0        .#      MOVS     r3,#0xc0
        0x00000832:    4318        .C      ORRS     r0,r0,r3
        0x00000834:    2305        .#      MOVS     r3,#5
        0x00000836:    071b        ..      LSLS     r3,r3,#28
        0x00000838:    63d8        .c      STR      r0,[r3,#0x3c]
        0x0000083a:    e31e        ..      B        0xe7a ; DrvGPIO_InitFunction + 1858
        0x0000083c:    bf00        ..      NOP      
        0x0000083e:    2906        .)      CMP      r1,#6
        0x00000840:    d101        ..      BNE      0x846 ; DrvGPIO_InitFunction + 270
        0x00000842:    2206        ."      MOVS     r2,#6
        0x00000844:    e000        ..      B        0x848 ; DrvGPIO_InitFunction + 272
        0x00000846:    220e        ."      MOVS     r2,#0xe
        0x00000848:    2005        .       MOVS     r0,#5
        0x0000084a:    0700        ..      LSLS     r0,r0,#28
        0x0000084c:    6b80        .k      LDR      r0,[r0,#0x38]
        0x0000084e:    2303        .#      MOVS     r3,#3
        0x00000850:    4093        .@      LSLS     r3,r3,r2
        0x00000852:    4318        .C      ORRS     r0,r0,r3
        0x00000854:    2305        .#      MOVS     r3,#5
        0x00000856:    071b        ..      LSLS     r3,r3,#28
        0x00000858:    6398        .c      STR      r0,[r3,#0x38]
        0x0000085a:    48c8        .H      LDR      r0,[pc,#800] ; [0xb7c] = 0x50000040
        0x0000085c:    6900        .i      LDR      r0,[r0,#0x10]
        0x0000085e:    2301        .#      MOVS     r3,#1
        0x00000860:    02db        ..      LSLS     r3,r3,#11
        0x00000862:    4398        .C      BICS     r0,r0,r3
        0x00000864:    4bc5        .K      LDR      r3,[pc,#788] ; [0xb7c] = 0x50000040
        0x00000866:    6118        .a      STR      r0,[r3,#0x10]
        0x00000868:    e307        ..      B        0xe7a ; DrvGPIO_InitFunction + 1858
        0x0000086a:    2005        .       MOVS     r0,#5
        0x0000086c:    0700        ..      LSLS     r0,r0,#28
        0x0000086e:    6b80        .k      LDR      r0,[r0,#0x38]
        0x00000870:    230f        .#      MOVS     r3,#0xf
        0x00000872:    4318        .C      ORRS     r0,r0,r3
        0x00000874:    2305        .#      MOVS     r3,#5
        0x00000876:    071b        ..      LSLS     r3,r3,#28
        0x00000878:    6398        .c      STR      r0,[r3,#0x38]
        0x0000087a:    48c0        .H      LDR      r0,[pc,#768] ; [0xb7c] = 0x50000040
        0x0000087c:    6900        .i      LDR      r0,[r0,#0x10]
        0x0000087e:    23ff        .#      MOVS     r3,#0xff
        0x00000880:    33e1        .3      ADDS     r3,r3,#0xe1
        0x00000882:    4398        .C      BICS     r0,r0,r3
        0x00000884:    4bbd        .K      LDR      r3,[pc,#756] ; [0xb7c] = 0x50000040
        0x00000886:    6118        .a      STR      r0,[r3,#0x10]
        0x00000888:    e2f7        ..      B        0xe7a ; DrvGPIO_InitFunction + 1858
        0x0000088a:    2005        .       MOVS     r0,#5
        0x0000088c:    0700        ..      LSLS     r0,r0,#28
        0x0000088e:    6b40        @k      LDR      r0,[r0,#0x34]
        0x00000890:    2301        .#      MOVS     r3,#1
        0x00000892:    029b        ..      LSLS     r3,r3,#10
        0x00000894:    4318        .C      ORRS     r0,r0,r3
        0x00000896:    2305        .#      MOVS     r3,#5
        0x00000898:    071b        ..      LSLS     r3,r3,#28
        0x0000089a:    6358        Xc      STR      r0,[r3,#0x34]
        0x0000089c:    48b7        .H      LDR      r0,[pc,#732] ; [0xb7c] = 0x50000040
        0x0000089e:    6900        .i      LDR      r0,[r0,#0x10]
        0x000008a0:    2301        .#      MOVS     r3,#1
        0x000008a2:    4318        .C      ORRS     r0,r0,r3
        0x000008a4:    4bb5        .K      LDR      r3,[pc,#724] ; [0xb7c] = 0x50000040
        0x000008a6:    6118        .a      STR      r0,[r3,#0x10]
        0x000008a8:    e2e7        ..      B        0xe7a ; DrvGPIO_InitFunction + 1858
        0x000008aa:    2005        .       MOVS     r0,#5
        0x000008ac:    0700        ..      LSLS     r0,r0,#28
        0x000008ae:    6b80        .k      LDR      r0,[r0,#0x38]
        0x000008b0:    2330        0#      MOVS     r3,#0x30
        0x000008b2:    4318        .C      ORRS     r0,r0,r3
        0x000008b4:    2305        .#      MOVS     r3,#5
        0x000008b6:    071b        ..      LSLS     r3,r3,#28
        0x000008b8:    6398        .c      STR      r0,[r3,#0x38]
        0x000008ba:    e2de        ..      B        0xe7a ; DrvGPIO_InitFunction + 1858
        0x000008bc:    e2db        ..      B        0xe76 ; DrvGPIO_InitFunction + 1854
        0x000008be:    e264        d.      B        0xd8a ; DrvGPIO_InitFunction + 1618
        0x000008c0:    e282        ..      B        0xdc8 ; DrvGPIO_InitFunction + 1680
        0x000008c2:    e248        H.      B        0xd56 ; DrvGPIO_InitFunction + 1566
        0x000008c4:    e246        F.      B        0xd54 ; DrvGPIO_InitFunction + 1564
        0x000008c6:    e213        ..      B        0xcf0 ; DrvGPIO_InitFunction + 1464
        0x000008c8:    e211        ..      B        0xcee ; DrvGPIO_InitFunction + 1462
        0x000008ca:    e1d9        ..      B        0xc80 ; DrvGPIO_InitFunction + 1352
        0x000008cc:    e1d7        ..      B        0xc7e ; DrvGPIO_InitFunction + 1350
        0x000008ce:    e1b7        ..      B        0xc40 ; DrvGPIO_InitFunction + 1288
        0x000008d0:    e1b5        ..      B        0xc3e ; DrvGPIO_InitFunction + 1286
        0x000008d2:    e241        A.      B        0xd58 ; DrvGPIO_InitFunction + 1568
        0x000008d4:    e20d        ..      B        0xcf2 ; DrvGPIO_InitFunction + 1466
        0x000008d6:    e1d4        ..      B        0xc82 ; DrvGPIO_InitFunction + 1354
        0x000008d8:    e1b3        ..      B        0xc42 ; DrvGPIO_InitFunction + 1290
        0x000008da:    e1a6        ..      B        0xc2a ; DrvGPIO_InitFunction + 1266
        0x000008dc:    e165        e.      B        0xbaa ; DrvGPIO_InitFunction + 1138
        0x000008de:    e163        c.      B        0xba8 ; DrvGPIO_InitFunction + 1136
        0x000008e0:    e161        a.      B        0xba6 ; DrvGPIO_InitFunction + 1134
        0x000008e2:    e15f        _.      B        0xba4 ; DrvGPIO_InitFunction + 1132
        0x000008e4:    e15d        ].      B        0xba2 ; DrvGPIO_InitFunction + 1130
        0x000008e6:    e15b        [.      B        0xba0 ; DrvGPIO_InitFunction + 1128
        0x000008e8:    e14a        J.      B        0xb80 ; DrvGPIO_InitFunction + 1096
        0x000008ea:    e137        7.      B        0xb5c ; DrvGPIO_InitFunction + 1060
        0x000008ec:    e129        ).      B        0xb42 ; DrvGPIO_InitFunction + 1034
        0x000008ee:    e117        ..      B        0xb20 ; DrvGPIO_InitFunction + 1000
        0x000008f0:    e106        ..      B        0xb00 ; DrvGPIO_InitFunction + 968
        0x000008f2:    e0f5        ..      B        0xae0 ; DrvGPIO_InitFunction + 936
        0x000008f4:    e0e4        ..      B        0xac0 ; DrvGPIO_InitFunction + 904
        0x000008f6:    e0d9        ..      B        0xaac ; DrvGPIO_InitFunction + 884
        0x000008f8:    e0cc        ..      B        0xa94 ; DrvGPIO_InitFunction + 860
        0x000008fa:    e0c4        ..      B        0xa86 ; DrvGPIO_InitFunction + 846
        0x000008fc:    e0a3        ..      B        0xa46 ; DrvGPIO_InitFunction + 782
        0x000008fe:    e0ae        ..      B        0xa5e ; DrvGPIO_InitFunction + 806
        0x00000900:    e0ac        ..      B        0xa5c ; DrvGPIO_InitFunction + 804
        0x00000902:    e0aa        ..      B        0xa5a ; DrvGPIO_InitFunction + 802
        0x00000904:    e0a8        ..      B        0xa58 ; DrvGPIO_InitFunction + 800
        0x00000906:    e0a6        ..      B        0xa56 ; DrvGPIO_InitFunction + 798
        0x00000908:    e0a4        ..      B        0xa54 ; DrvGPIO_InitFunction + 796
        0x0000090a:    e0b0        ..      B        0xa6e ; DrvGPIO_InitFunction + 822
        0x0000090c:    e092        ..      B        0xa34 ; DrvGPIO_InitFunction + 764
        0x0000090e:    e088        ..      B        0xa22 ; DrvGPIO_InitFunction + 746
        0x00000910:    e07e        ~.      B        0xa10 ; DrvGPIO_InitFunction + 728
        0x00000912:    e073        s.      B        0x9fc ; DrvGPIO_InitFunction + 708
        0x00000914:    e062        b.      B        0x9dc ; DrvGPIO_InitFunction + 676
        0x00000916:    e057        W.      B        0x9c8 ; DrvGPIO_InitFunction + 656
        0x00000918:    e04d        M.      B        0x9b6 ; DrvGPIO_InitFunction + 638
        0x0000091a:    e037        7.      B        0x98c ; DrvGPIO_InitFunction + 596
        0x0000091c:    e02d        -.      B        0x97a ; DrvGPIO_InitFunction + 578
        0x0000091e:    e022        ".      B        0x966 ; DrvGPIO_InitFunction + 558
        0x00000920:    e011        ..      B        0x946 ; DrvGPIO_InitFunction + 526
        0x00000922:    e7ff        ..      B        0x924 ; DrvGPIO_InitFunction + 492
        0x00000924:    2005        .       MOVS     r0,#5
        0x00000926:    0700        ..      LSLS     r0,r0,#28
        0x00000928:    6b80        .k      LDR      r0,[r0,#0x38]
        0x0000092a:    230f        .#      MOVS     r3,#0xf
        0x0000092c:    021b        ..      LSLS     r3,r3,#8
        0x0000092e:    4318        .C      ORRS     r0,r0,r3
        0x00000930:    2305        .#      MOVS     r3,#5
        0x00000932:    071b        ..      LSLS     r3,r3,#28
        0x00000934:    6398        .c      STR      r0,[r3,#0x38]
        0x00000936:    4891        .H      LDR      r0,[pc,#580] ; [0xb7c] = 0x50000040
        0x00000938:    6900        .i      LDR      r0,[r0,#0x10]
        0x0000093a:    2301        .#      MOVS     r3,#1
        0x0000093c:    02db        ..      LSLS     r3,r3,#11
        0x0000093e:    4398        .C      BICS     r0,r0,r3
        0x00000940:    4b8e        .K      LDR      r3,[pc,#568] ; [0xb7c] = 0x50000040
        0x00000942:    6118        .a      STR      r0,[r3,#0x10]
        0x00000944:    e299        ..      B        0xe7a ; DrvGPIO_InitFunction + 1858
        0x00000946:    2005        .       MOVS     r0,#5
        0x00000948:    0700        ..      LSLS     r0,r0,#28
        0x0000094a:    6b40        @k      LDR      r0,[r0,#0x34]
        0x0000094c:    2301        .#      MOVS     r3,#1
        0x0000094e:    025b        [.      LSLS     r3,r3,#9
        0x00000950:    4318        .C      ORRS     r0,r0,r3
        0x00000952:    2305        .#      MOVS     r3,#5
        0x00000954:    071b        ..      LSLS     r3,r3,#28
        0x00000956:    6358        Xc      STR      r0,[r3,#0x34]
        0x00000958:    4888        .H      LDR      r0,[pc,#544] ; [0xb7c] = 0x50000040
        0x0000095a:    6900        .i      LDR      r0,[r0,#0x10]
        0x0000095c:    2302        .#      MOVS     r3,#2
        0x0000095e:    4318        .C      ORRS     r0,r0,r3
        0x00000960:    4b86        .K      LDR      r3,[pc,#536] ; [0xb7c] = 0x50000040
        0x00000962:    6118        .a      STR      r0,[r3,#0x10]
        0x00000964:    e289        ..      B        0xe7a ; DrvGPIO_InitFunction + 1858
        0x00000966:    2005        .       MOVS     r0,#5
        0x00000968:    0700        ..      LSLS     r0,r0,#28
        0x0000096a:    6b80        .k      LDR      r0,[r0,#0x38]
        0x0000096c:    2303        .#      MOVS     r3,#3
        0x0000096e:    031b        ..      LSLS     r3,r3,#12
        0x00000970:    4318        .C      ORRS     r0,r0,r3
        0x00000972:    2305        .#      MOVS     r3,#5
        0x00000974:    071b        ..      LSLS     r3,r3,#28
        0x00000976:    6398        .c      STR      r0,[r3,#0x38]
        0x00000978:    e27f        ..      B        0xe7a ; DrvGPIO_InitFunction + 1858
        0x0000097a:    2005        .       MOVS     r0,#5
        0x0000097c:    0700        ..      LSLS     r0,r0,#28
        0x0000097e:    6bc0        .k      LDR      r0,[r0,#0x3c]
        0x00000980:    230f        .#      MOVS     r3,#0xf
        0x00000982:    4318        .C      ORRS     r0,r0,r3
        0x00000984:    2305        .#      MOVS     r3,#5
        0x00000986:    071b        ..      LSLS     r3,r3,#28
        0x00000988:    63d8        .c      STR      r0,[r3,#0x3c]
        0x0000098a:    e276        v.      B        0xe7a ; DrvGPIO_InitFunction + 1858
        0x0000098c:    2005        .       MOVS     r0,#5
        0x0000098e:    0700        ..      LSLS     r0,r0,#28
        0x00000990:    6b00        .k      LDR      r0,[r0,#0x30]
        0x00000992:    2380        .#      MOVS     r3,#0x80
        0x00000994:    4318        .C      ORRS     r0,r0,r3
        0x00000996:    2305        .#      MOVS     r3,#5
        0x00000998:    071b        ..      LSLS     r3,r3,#28
        0x0000099a:    6318        .c      STR      r0,[r3,#0x30]
        0x0000099c:    4877        wH      LDR      r0,[pc,#476] ; [0xb7c] = 0x50000040
        0x0000099e:    6900        .i      LDR      r0,[r0,#0x10]
        0x000009a0:    2304        .#      MOVS     r3,#4
        0x000009a2:    4318        .C      ORRS     r0,r0,r3
        0x000009a4:    4b75        uK      LDR      r3,[pc,#468] ; [0xb7c] = 0x50000040
        0x000009a6:    6118        .a      STR      r0,[r3,#0x10]
        0x000009a8:    4618        .F      MOV      r0,r3
        0x000009aa:    6900        .i      LDR      r0,[r0,#0x10]
        0x000009ac:    015b        [.      LSLS     r3,r3,#5
        0x000009ae:    4398        .C      BICS     r0,r0,r3
        0x000009b0:    4b72        rK      LDR      r3,[pc,#456] ; [0xb7c] = 0x50000040
        0x000009b2:    6118        .a      STR      r0,[r3,#0x10]
        0x000009b4:    e261        a.      B        0xe7a ; DrvGPIO_InitFunction + 1858
        0x000009b6:    2005        .       MOVS     r0,#5
        0x000009b8:    0700        ..      LSLS     r0,r0,#28
        0x000009ba:    6bc0        .k      LDR      r0,[r0,#0x3c]
        0x000009bc:    2330        0#      MOVS     r3,#0x30
        0x000009be:    4318        .C      ORRS     r0,r0,r3
        0x000009c0:    2305        .#      MOVS     r3,#5
        0x000009c2:    071b        ..      LSLS     r3,r3,#28
        0x000009c4:    63d8        .c      STR      r0,[r3,#0x3c]
        0x000009c6:    e258        X.      B        0xe7a ; DrvGPIO_InitFunction + 1858
        0x000009c8:    2005        .       MOVS     r0,#5
        0x000009ca:    0700        ..      LSLS     r0,r0,#28
        0x000009cc:    6bc0        .k      LDR      r0,[r0,#0x3c]
        0x000009ce:    230f        .#      MOVS     r3,#0xf
        0x000009d0:    021b        ..      LSLS     r3,r3,#8
        0x000009d2:    4318        .C      ORRS     r0,r0,r3
        0x000009d4:    2305        .#      MOVS     r3,#5
        0x000009d6:    071b        ..      LSLS     r3,r3,#28
        0x000009d8:    63d8        .c      STR      r0,[r3,#0x3c]
        0x000009da:    e24e        N.      B        0xe7a ; DrvGPIO_InitFunction + 1858
        0x000009dc:    2005        .       MOVS     r0,#5
        0x000009de:    0700        ..      LSLS     r0,r0,#28
        0x000009e0:    6b40        @k      LDR      r0,[r0,#0x34]
        0x000009e2:    2301        .#      MOVS     r3,#1
        0x000009e4:    039b        ..      LSLS     r3,r3,#14
        0x000009e6:    4318        .C      ORRS     r0,r0,r3
        0x000009e8:    2305        .#      MOVS     r3,#5
        0x000009ea:    071b        ..      LSLS     r3,r3,#28
        0x000009ec:    6358        Xc      STR      r0,[r3,#0x34]
        0x000009ee:    4863        cH      LDR      r0,[pc,#396] ; [0xb7c] = 0x50000040
        0x000009f0:    6900        .i      LDR      r0,[r0,#0x10]
        0x000009f2:    2308        .#      MOVS     r3,#8
        0x000009f4:    4318        .C      ORRS     r0,r0,r3
        0x000009f6:    4b61        aK      LDR      r3,[pc,#388] ; [0xb7c] = 0x50000040
        0x000009f8:    6118        .a      STR      r0,[r3,#0x10]
        0x000009fa:    e23e        >.      B        0xe7a ; DrvGPIO_InitFunction + 1858
        0x000009fc:    2005        .       MOVS     r0,#5
        0x000009fe:    0700        ..      LSLS     r0,r0,#28
        0x00000a00:    6bc0        .k      LDR      r0,[r0,#0x3c]
        0x00000a02:    2303        .#      MOVS     r3,#3
        0x00000a04:    031b        ..      LSLS     r3,r3,#12
        0x00000a06:    4318        .C      ORRS     r0,r0,r3
        0x00000a08:    2305        .#      MOVS     r3,#5
        0x00000a0a:    071b        ..      LSLS     r3,r3,#28
        0x00000a0c:    63d8        .c      STR      r0,[r3,#0x3c]
        0x00000a0e:    e234        4.      B        0xe7a ; DrvGPIO_InitFunction + 1858
        0x00000a10:    2005        .       MOVS     r0,#5
        0x00000a12:    0700        ..      LSLS     r0,r0,#28
        0x00000a14:    6b80        .k      LDR      r0,[r0,#0x38]
        0x00000a16:    230f        .#      MOVS     r3,#0xf
        0x00000a18:    4318        .C      ORRS     r0,r0,r3
        0x00000a1a:    2305        .#      MOVS     r3,#5
        0x00000a1c:    071b        ..      LSLS     r3,r3,#28
        0x00000a1e:    6398        .c      STR      r0,[r3,#0x38]
        0x00000a20:    e22b        +.      B        0xe7a ; DrvGPIO_InitFunction + 1858
        0x00000a22:    2005        .       MOVS     r0,#5
        0x00000a24:    0700        ..      LSLS     r0,r0,#28
        0x00000a26:    6bc0        .k      LDR      r0,[r0,#0x3c]
        0x00000a28:    2302        .#      MOVS     r3,#2
        0x00000a2a:    4318        .C      ORRS     r0,r0,r3
        0x00000a2c:    2305        .#      MOVS     r3,#5
        0x00000a2e:    071b        ..      LSLS     r3,r3,#28
        0x00000a30:    63d8        .c      STR      r0,[r3,#0x3c]
        0x00000a32:    e222        ".      B        0xe7a ; DrvGPIO_InitFunction + 1858
        0x00000a34:    2005        .       MOVS     r0,#5
        0x00000a36:    0700        ..      LSLS     r0,r0,#28
        0x00000a38:    6bc0        .k      LDR      r0,[r0,#0x3c]
        0x00000a3a:    2304        .#      MOVS     r3,#4
        0x00000a3c:    4318        .C      ORRS     r0,r0,r3
        0x00000a3e:    2305        .#      MOVS     r3,#5
        0x00000a40:    071b        ..      LSLS     r3,r3,#28
        0x00000a42:    63d8        .c      STR      r0,[r3,#0x3c]
        0x00000a44:    e219        ..      B        0xe7a ; DrvGPIO_InitFunction + 1858
        0x00000a46:    484d        MH      LDR      r0,[pc,#308] ; [0xb7c] = 0x50000040
        0x00000a48:    6900        .i      LDR      r0,[r0,#0x10]
        0x00000a4a:    2304        .#      MOVS     r3,#4
        0x00000a4c:    4398        .C      BICS     r0,r0,r3
        0x00000a4e:    4b4b        KK      LDR      r3,[pc,#300] ; [0xb7c] = 0x50000040
        0x00000a50:    6118        .a      STR      r0,[r3,#0x10]
        0x00000a52:    bf00        ..      NOP      
        0x00000a54:    bf00        ..      NOP      
        0x00000a56:    bf00        ..      NOP      
        0x00000a58:    bf00        ..      NOP      
        0x00000a5a:    bf00        ..      NOP      
        0x00000a5c:    bf00        ..      NOP      
        0x00000a5e:    4847        GH      LDR      r0,[pc,#284] ; [0xb7c] = 0x50000040
        0x00000a60:    6900        .i      LDR      r0,[r0,#0x10]
        0x00000a62:    2301        .#      MOVS     r3,#1
        0x00000a64:    02db        ..      LSLS     r3,r3,#11
        0x00000a66:    4398        .C      BICS     r0,r0,r3
        0x00000a68:    4b44        DK      LDR      r3,[pc,#272] ; [0xb7c] = 0x50000040
        0x00000a6a:    6118        .a      STR      r0,[r3,#0x10]
        0x00000a6c:    bf00        ..      NOP      
        0x00000a6e:    2005        .       MOVS     r0,#5
        0x00000a70:    0700        ..      LSLS     r0,r0,#28
        0x00000a72:    6b00        .k      LDR      r0,[r0,#0x30]
        0x00000a74:    460b        .F      MOV      r3,r1
        0x00000a76:    3b17        .;      SUBS     r3,r3,#0x17
        0x00000a78:    2401        .$      MOVS     r4,#1
        0x00000a7a:    409c        .@      LSLS     r4,r4,r3
        0x00000a7c:    4320         C      ORRS     r0,r0,r4
        0x00000a7e:    2305        .#      MOVS     r3,#5
        0x00000a80:    071b        ..      LSLS     r3,r3,#28
        0x00000a82:    6318        .c      STR      r0,[r3,#0x30]
        0x00000a84:    e1f9        ..      B        0xe7a ; DrvGPIO_InitFunction + 1858
        0x00000a86:    483d        =H      LDR      r0,[pc,#244] ; [0xb7c] = 0x50000040
        0x00000a88:    6900        .i      LDR      r0,[r0,#0x10]
        0x00000a8a:    2308        .#      MOVS     r3,#8
        0x00000a8c:    4398        .C      BICS     r0,r0,r3
        0x00000a8e:    4b3b        ;K      LDR      r3,[pc,#236] ; [0xb7c] = 0x50000040
        0x00000a90:    6118        .a      STR      r0,[r3,#0x10]
        0x00000a92:    bf00        ..      NOP      
        0x00000a94:    2005        .       MOVS     r0,#5
        0x00000a96:    0700        ..      LSLS     r0,r0,#28
        0x00000a98:    6b43        Ck      LDR      r3,[r0,#0x34]
        0x00000a9a:    4608        .F      MOV      r0,r1
        0x00000a9c:    3811        .8      SUBS     r0,r0,#0x11
        0x00000a9e:    2401        .$      MOVS     r4,#1
        0x00000aa0:    4084        .@      LSLS     r4,r4,r0
        0x00000aa2:    4323        #C      ORRS     r3,r3,r4
        0x00000aa4:    2005        .       MOVS     r0,#5
        0x00000aa6:    0700        ..      LSLS     r0,r0,#28
        0x00000aa8:    6343        Cc      STR      r3,[r0,#0x34]
        0x00000aaa:    e1e6        ..      B        0xe7a ; DrvGPIO_InitFunction + 1858
        0x00000aac:    2005        .       MOVS     r0,#5
        0x00000aae:    0700        ..      LSLS     r0,r0,#28
        0x00000ab0:    6b40        @k      LDR      r0,[r0,#0x34]
        0x00000ab2:    23ff        .#      MOVS     r3,#0xff
        0x00000ab4:    3301        .3      ADDS     r3,#1
        0x00000ab6:    4318        .C      ORRS     r0,r0,r3
        0x00000ab8:    2305        .#      MOVS     r3,#5
        0x00000aba:    071b        ..      LSLS     r3,r3,#28
        0x00000abc:    6358        Xc      STR      r0,[r3,#0x34]
        0x00000abe:    e1dc        ..      B        0xe7a ; DrvGPIO_InitFunction + 1858
        0x00000ac0:    2005        .       MOVS     r0,#5
        0x00000ac2:    0700        ..      LSLS     r0,r0,#28
        0x00000ac4:    6b40        @k      LDR      r0,[r0,#0x34]
        0x00000ac6:    2301        .#      MOVS     r3,#1
        0x00000ac8:    025b        [.      LSLS     r3,r3,#9
        0x00000aca:    4318        .C      ORRS     r0,r0,r3
        0x00000acc:    2305        .#      MOVS     r3,#5
        0x00000ace:    071b        ..      LSLS     r3,r3,#28
        0x00000ad0:    6358        Xc      STR      r0,[r3,#0x34]
        0x00000ad2:    482a        *H      LDR      r0,[pc,#168] ; [0xb7c] = 0x50000040
        0x00000ad4:    6900        .i      LDR      r0,[r0,#0x10]
        0x00000ad6:    2302        .#      MOVS     r3,#2
        0x00000ad8:    4398        .C      BICS     r0,r0,r3
        0x00000ada:    4b28        (K      LDR      r3,[pc,#160] ; [0xb7c] = 0x50000040
        0x00000adc:    6118        .a      STR      r0,[r3,#0x10]
        0x00000ade:    e1cc        ..      B        0xe7a ; DrvGPIO_InitFunction + 1858
        0x00000ae0:    2005        .       MOVS     r0,#5
        0x00000ae2:    0700        ..      LSLS     r0,r0,#28
        0x00000ae4:    6b40        @k      LDR      r0,[r0,#0x34]
        0x00000ae6:    2301        .#      MOVS     r3,#1
        0x00000ae8:    029b        ..      LSLS     r3,r3,#10
        0x00000aea:    4318        .C      ORRS     r0,r0,r3
        0x00000aec:    2305        .#      MOVS     r3,#5
        0x00000aee:    071b        ..      LSLS     r3,r3,#28
        0x00000af0:    6358        Xc      STR      r0,[r3,#0x34]
        0x00000af2:    4822        "H      LDR      r0,[pc,#136] ; [0xb7c] = 0x50000040
        0x00000af4:    6900        .i      LDR      r0,[r0,#0x10]
        0x00000af6:    0840        @.      LSRS     r0,r0,#1
        0x00000af8:    0040        @.      LSLS     r0,r0,#1
        0x00000afa:    4b20         K      LDR      r3,[pc,#128] ; [0xb7c] = 0x50000040
        0x00000afc:    6118        .a      STR      r0,[r3,#0x10]
        0x00000afe:    e1bc        ..      B        0xe7a ; DrvGPIO_InitFunction + 1858
        0x00000b00:    2005        .       MOVS     r0,#5
        0x00000b02:    0700        ..      LSLS     r0,r0,#28
        0x00000b04:    6b40        @k      LDR      r0,[r0,#0x34]
        0x00000b06:    2301        .#      MOVS     r3,#1
        0x00000b08:    02db        ..      LSLS     r3,r3,#11
        0x00000b0a:    4318        .C      ORRS     r0,r0,r3
        0x00000b0c:    2305        .#      MOVS     r3,#5
        0x00000b0e:    071b        ..      LSLS     r3,r3,#28
        0x00000b10:    6358        Xc      STR      r0,[r3,#0x34]
        0x00000b12:    481a        .H      LDR      r0,[pc,#104] ; [0xb7c] = 0x50000040
        0x00000b14:    6900        .i      LDR      r0,[r0,#0x10]
        0x00000b16:    2310        .#      MOVS     r3,#0x10
        0x00000b18:    4398        .C      BICS     r0,r0,r3
        0x00000b1a:    4b18        .K      LDR      r3,[pc,#96] ; [0xb7c] = 0x50000040
        0x00000b1c:    6118        .a      STR      r0,[r3,#0x10]
        0x00000b1e:    e1ac        ..      B        0xe7a ; DrvGPIO_InitFunction + 1858
        0x00000b20:    2005        .       MOVS     r0,#5
        0x00000b22:    0700        ..      LSLS     r0,r0,#28
        0x00000b24:    6b40        @k      LDR      r0,[r0,#0x34]
        0x00000b26:    2301        .#      MOVS     r3,#1
        0x00000b28:    03db        ..      LSLS     r3,r3,#15
        0x00000b2a:    4318        .C      ORRS     r0,r0,r3
        0x00000b2c:    2305        .#      MOVS     r3,#5
        0x00000b2e:    071b        ..      LSLS     r3,r3,#28
        0x00000b30:    6358        Xc      STR      r0,[r3,#0x34]
        0x00000b32:    4812        .H      LDR      r0,[pc,#72] ; [0xb7c] = 0x50000040
        0x00000b34:    6900        .i      LDR      r0,[r0,#0x10]
        0x00000b36:    2301        .#      MOVS     r3,#1
        0x00000b38:    061b        ..      LSLS     r3,r3,#24
        0x00000b3a:    4318        .C      ORRS     r0,r0,r3
        0x00000b3c:    4b0f        .K      LDR      r3,[pc,#60] ; [0xb7c] = 0x50000040
        0x00000b3e:    6118        .a      STR      r0,[r3,#0x10]
        0x00000b40:    e19b        ..      B        0xe7a ; DrvGPIO_InitFunction + 1858
        0x00000b42:    480e        .H      LDR      r0,[pc,#56] ; [0xb7c] = 0x50000040
        0x00000b44:    6800        .h      LDR      r0,[r0,#0]
        0x00000b46:    2320         #      MOVS     r3,#0x20
        0x00000b48:    4318        .C      ORRS     r0,r0,r3
        0x00000b4a:    4b0c        .K      LDR      r3,[pc,#48] ; [0xb7c] = 0x50000040
        0x00000b4c:    6018        .`      STR      r0,[r3,#0]
        0x00000b4e:    4618        .F      MOV      r0,r3
        0x00000b50:    6900        .i      LDR      r0,[r0,#0x10]
        0x00000b52:    04db        ..      LSLS     r3,r3,#19
        0x00000b54:    4318        .C      ORRS     r0,r0,r3
        0x00000b56:    4b09        .K      LDR      r3,[pc,#36] ; [0xb7c] = 0x50000040
        0x00000b58:    6118        .a      STR      r0,[r3,#0x10]
        0x00000b5a:    e18e        ..      B        0xe7a ; DrvGPIO_InitFunction + 1858
        0x00000b5c:    2005        .       MOVS     r0,#5
        0x00000b5e:    0700        ..      LSLS     r0,r0,#28
        0x00000b60:    6b40        @k      LDR      r0,[r0,#0x34]
        0x00000b62:    2304        .#      MOVS     r3,#4
        0x00000b64:    4318        .C      ORRS     r0,r0,r3
        0x00000b66:    2305        .#      MOVS     r3,#5
        0x00000b68:    071b        ..      LSLS     r3,r3,#28
        0x00000b6a:    6358        Xc      STR      r0,[r3,#0x34]
        0x00000b6c:    4803        .H      LDR      r0,[pc,#12] ; [0xb7c] = 0x50000040
        0x00000b6e:    6900        .i      LDR      r0,[r0,#0x10]
        0x00000b70:    2301        .#      MOVS     r3,#1
        0x00000b72:    069b        ..      LSLS     r3,r3,#26
        0x00000b74:    4318        .C      ORRS     r0,r0,r3
        0x00000b76:    4b01        .K      LDR      r3,[pc,#4] ; [0xb7c] = 0x50000040
        0x00000b78:    6118        .a      STR      r0,[r3,#0x10]
        0x00000b7a:    e17e        ~.      B        0xe7a ; DrvGPIO_InitFunction + 1858
    $d
        0x00000b7c:    50000040    @..P    DCD    1342177344
    $t
        0x00000b80:    2005        .       MOVS     r0,#5
        0x00000b82:    0700        ..      LSLS     r0,r0,#28
        0x00000b84:    6b40        @k      LDR      r0,[r0,#0x34]
        0x00000b86:    2308        .#      MOVS     r3,#8
        0x00000b88:    4318        .C      ORRS     r0,r0,r3
        0x00000b8a:    2305        .#      MOVS     r3,#5
        0x00000b8c:    071b        ..      LSLS     r3,r3,#28
        0x00000b8e:    6358        Xc      STR      r0,[r3,#0x34]
        0x00000b90:    48bb        .H      LDR      r0,[pc,#748] ; [0xe80] = 0x50000040
        0x00000b92:    6900        .i      LDR      r0,[r0,#0x10]
        0x00000b94:    2301        .#      MOVS     r3,#1
        0x00000b96:    06db        ..      LSLS     r3,r3,#27
        0x00000b98:    4318        .C      ORRS     r0,r0,r3
        0x00000b9a:    4bb9        .K      LDR      r3,[pc,#740] ; [0xe80] = 0x50000040
        0x00000b9c:    6118        .a      STR      r0,[r3,#0x10]
        0x00000b9e:    e16c        l.      B        0xe7a ; DrvGPIO_InitFunction + 1858
        0x00000ba0:    bf00        ..      NOP      
        0x00000ba2:    bf00        ..      NOP      
        0x00000ba4:    bf00        ..      NOP      
        0x00000ba6:    bf00        ..      NOP      
        0x00000ba8:    bf00        ..      NOP      
        0x00000baa:    2929        ))      CMP      r1,#0x29
        0x00000bac:    db03        ..      BLT      0xbb6 ; DrvGPIO_InitFunction + 1150
        0x00000bae:    292b        +)      CMP      r1,#0x2b
        0x00000bb0:    dc01        ..      BGT      0xbb6 ; DrvGPIO_InitFunction + 1150
        0x00000bb2:    2200        ."      MOVS     r2,#0
        0x00000bb4:    e000        ..      B        0xbb8 ; DrvGPIO_InitFunction + 1152
        0x00000bb6:    2204        ."      MOVS     r2,#4
        0x00000bb8:    2929        ))      CMP      r1,#0x29
        0x00000bba:    d001        ..      BEQ      0xbc0 ; DrvGPIO_InitFunction + 1160
        0x00000bbc:    292c        ,)      CMP      r1,#0x2c
        0x00000bbe:    d110        ..      BNE      0xbe2 ; DrvGPIO_InitFunction + 1194
        0x00000bc0:    2005        .       MOVS     r0,#5
        0x00000bc2:    0700        ..      LSLS     r0,r0,#28
        0x00000bc4:    6b40        @k      LDR      r0,[r0,#0x34]
        0x00000bc6:    230f        .#      MOVS     r3,#0xf
        0x00000bc8:    4093        .@      LSLS     r3,r3,r2
        0x00000bca:    4318        .C      ORRS     r0,r0,r3
        0x00000bcc:    2305        .#      MOVS     r3,#5
        0x00000bce:    071b        ..      LSLS     r3,r3,#28
        0x00000bd0:    6358        Xc      STR      r0,[r3,#0x34]
        0x00000bd2:    48ab        .H      LDR      r0,[pc,#684] ; [0xe80] = 0x50000040
        0x00000bd4:    6900        .i      LDR      r0,[r0,#0x10]
        0x00000bd6:    2301        .#      MOVS     r3,#1
        0x00000bd8:    02db        ..      LSLS     r3,r3,#11
        0x00000bda:    4398        .C      BICS     r0,r0,r3
        0x00000bdc:    4ba8        .K      LDR      r3,[pc,#672] ; [0xe80] = 0x50000040
        0x00000bde:    6118        .a      STR      r0,[r3,#0x10]
        0x00000be0:    e022        ".      B        0xc28 ; DrvGPIO_InitFunction + 1264
        0x00000be2:    292a        *)      CMP      r1,#0x2a
        0x00000be4:    d001        ..      BEQ      0xbea ; DrvGPIO_InitFunction + 1202
        0x00000be6:    292d        -)      CMP      r1,#0x2d
        0x00000be8:    d109        ..      BNE      0xbfe ; DrvGPIO_InitFunction + 1222
        0x00000bea:    2005        .       MOVS     r0,#5
        0x00000bec:    0700        ..      LSLS     r0,r0,#28
        0x00000bee:    6b40        @k      LDR      r0,[r0,#0x34]
        0x00000bf0:    2303        .#      MOVS     r3,#3
        0x00000bf2:    4093        .@      LSLS     r3,r3,r2
        0x00000bf4:    4318        .C      ORRS     r0,r0,r3
        0x00000bf6:    2305        .#      MOVS     r3,#5
        0x00000bf8:    071b        ..      LSLS     r3,r3,#28
        0x00000bfa:    6358        Xc      STR      r0,[r3,#0x34]
        0x00000bfc:    e014        ..      B        0xc28 ; DrvGPIO_InitFunction + 1264
        0x00000bfe:    292b        +)      CMP      r1,#0x2b
        0x00000c00:    d001        ..      BEQ      0xc06 ; DrvGPIO_InitFunction + 1230
        0x00000c02:    292e        .)      CMP      r1,#0x2e
        0x00000c04:    d110        ..      BNE      0xc28 ; DrvGPIO_InitFunction + 1264
        0x00000c06:    2005        .       MOVS     r0,#5
        0x00000c08:    0700        ..      LSLS     r0,r0,#28
        0x00000c0a:    6b40        @k      LDR      r0,[r0,#0x34]
        0x00000c0c:    1c93        ..      ADDS     r3,r2,#2
        0x00000c0e:    2403        .$      MOVS     r4,#3
        0x00000c10:    409c        .@      LSLS     r4,r4,r3
        0x00000c12:    4320         C      ORRS     r0,r0,r4
        0x00000c14:    2305        .#      MOVS     r3,#5
        0x00000c16:    071b        ..      LSLS     r3,r3,#28
        0x00000c18:    6358        Xc      STR      r0,[r3,#0x34]
        0x00000c1a:    4899        .H      LDR      r0,[pc,#612] ; [0xe80] = 0x50000040
        0x00000c1c:    6900        .i      LDR      r0,[r0,#0x10]
        0x00000c1e:    2301        .#      MOVS     r3,#1
        0x00000c20:    02db        ..      LSLS     r3,r3,#11
        0x00000c22:    4398        .C      BICS     r0,r0,r3
        0x00000c24:    4b96        .K      LDR      r3,[pc,#600] ; [0xe80] = 0x50000040
        0x00000c26:    6118        .a      STR      r0,[r3,#0x10]
        0x00000c28:    e127        '.      B        0xe7a ; DrvGPIO_InitFunction + 1858
        0x00000c2a:    2005        .       MOVS     r0,#5
        0x00000c2c:    0700        ..      LSLS     r0,r0,#28
        0x00000c2e:    6bc0        .k      LDR      r0,[r0,#0x3c]
        0x00000c30:    2303        .#      MOVS     r3,#3
        0x00000c32:    039b        ..      LSLS     r3,r3,#14
        0x00000c34:    4318        .C      ORRS     r0,r0,r3
        0x00000c36:    2305        .#      MOVS     r3,#5
        0x00000c38:    071b        ..      LSLS     r3,r3,#28
        0x00000c3a:    63d8        .c      STR      r0,[r3,#0x3c]
        0x00000c3c:    e11d        ..      B        0xe7a ; DrvGPIO_InitFunction + 1858
        0x00000c3e:    bf00        ..      NOP      
        0x00000c40:    bf00        ..      NOP      
        0x00000c42:    2930        0)      CMP      r1,#0x30
        0x00000c44:    d108        ..      BNE      0xc58 ; DrvGPIO_InitFunction + 1312
        0x00000c46:    2005        .       MOVS     r0,#5
        0x00000c48:    0700        ..      LSLS     r0,r0,#28
        0x00000c4a:    6b00        .k      LDR      r0,[r0,#0x30]
        0x00000c4c:    020b        ..      LSLS     r3,r1,#8
        0x00000c4e:    4318        .C      ORRS     r0,r0,r3
        0x00000c50:    2305        .#      MOVS     r3,#5
        0x00000c52:    071b        ..      LSLS     r3,r3,#28
        0x00000c54:    6318        .c      STR      r0,[r3,#0x30]
        0x00000c56:    e00a        ..      B        0xc6e ; DrvGPIO_InitFunction + 1334
        0x00000c58:    2005        .       MOVS     r0,#5
        0x00000c5a:    0700        ..      LSLS     r0,r0,#28
        0x00000c5c:    6b03        .k      LDR      r3,[r0,#0x30]
        0x00000c5e:    4608        .F      MOV      r0,r1
        0x00000c60:    3828        (8      SUBS     r0,r0,#0x28
        0x00000c62:    2401        .$      MOVS     r4,#1
        0x00000c64:    4084        .@      LSLS     r4,r4,r0
        0x00000c66:    4323        #C      ORRS     r3,r3,r4
        0x00000c68:    2005        .       MOVS     r0,#5
        0x00000c6a:    0700        ..      LSLS     r0,r0,#28
        0x00000c6c:    6303        .c      STR      r3,[r0,#0x30]
        0x00000c6e:    4884        .H      LDR      r0,[pc,#528] ; [0xe80] = 0x50000040
        0x00000c70:    6900        .i      LDR      r0,[r0,#0x10]
        0x00000c72:    2301        .#      MOVS     r3,#1
        0x00000c74:    02db        ..      LSLS     r3,r3,#11
        0x00000c76:    4398        .C      BICS     r0,r0,r3
        0x00000c78:    4b81        .K      LDR      r3,[pc,#516] ; [0xe80] = 0x50000040
        0x00000c7a:    6118        .a      STR      r0,[r3,#0x10]
        0x00000c7c:    e0fd        ..      B        0xe7a ; DrvGPIO_InitFunction + 1858
        0x00000c7e:    bf00        ..      NOP      
        0x00000c80:    bf00        ..      NOP      
        0x00000c82:    2931        1)      CMP      r1,#0x31
        0x00000c84:    d116        ..      BNE      0xcb4 ; DrvGPIO_InitFunction + 1404
        0x00000c86:    2005        .       MOVS     r0,#5
        0x00000c88:    0700        ..      LSLS     r0,r0,#28
        0x00000c8a:    6b00        .k      LDR      r0,[r0,#0x30]
        0x00000c8c:    2303        .#      MOVS     r3,#3
        0x00000c8e:    039b        ..      LSLS     r3,r3,#14
        0x00000c90:    4318        .C      ORRS     r0,r0,r3
        0x00000c92:    2305        .#      MOVS     r3,#5
        0x00000c94:    071b        ..      LSLS     r3,r3,#28
        0x00000c96:    6318        .c      STR      r0,[r3,#0x30]
        0x00000c98:    4879        yH      LDR      r0,[pc,#484] ; [0xe80] = 0x50000040
        0x00000c9a:    6900        .i      LDR      r0,[r0,#0x10]
        0x00000c9c:    2301        .#      MOVS     r3,#1
        0x00000c9e:    025b        [.      LSLS     r3,r3,#9
        0x00000ca0:    4398        .C      BICS     r0,r0,r3
        0x00000ca2:    4b77        wK      LDR      r3,[pc,#476] ; [0xe80] = 0x50000040
        0x00000ca4:    6118        .a      STR      r0,[r3,#0x10]
        0x00000ca6:    4618        .F      MOV      r0,r3
        0x00000ca8:    6900        .i      LDR      r0,[r0,#0x10]
        0x00000caa:    015b        [.      LSLS     r3,r3,#5
        0x00000cac:    4398        .C      BICS     r0,r0,r3
        0x00000cae:    4b74        tK      LDR      r3,[pc,#464] ; [0xe80] = 0x50000040
        0x00000cb0:    6118        .a      STR      r0,[r3,#0x10]
        0x00000cb2:    e01b        ..      B        0xcec ; DrvGPIO_InitFunction + 1460
        0x00000cb4:    2005        .       MOVS     r0,#5
        0x00000cb6:    0700        ..      LSLS     r0,r0,#28
        0x00000cb8:    6b03        .k      LDR      r3,[r0,#0x30]
        0x00000cba:    4608        .F      MOV      r0,r1
        0x00000cbc:    3828        (8      SUBS     r0,r0,#0x28
        0x00000cbe:    2401        .$      MOVS     r4,#1
        0x00000cc0:    4084        .@      LSLS     r4,r4,r0
        0x00000cc2:    4323        #C      ORRS     r3,r3,r4
        0x00000cc4:    2005        .       MOVS     r0,#5
        0x00000cc6:    0700        ..      LSLS     r0,r0,#28
        0x00000cc8:    6303        .c      STR      r3,[r0,#0x30]
        0x00000cca:    2936        6)      CMP      r1,#0x36
        0x00000ccc:    d107        ..      BNE      0xcde ; DrvGPIO_InitFunction + 1446
        0x00000cce:    486c        lH      LDR      r0,[pc,#432] ; [0xe80] = 0x50000040
        0x00000cd0:    6900        .i      LDR      r0,[r0,#0x10]
        0x00000cd2:    2301        .#      MOVS     r3,#1
        0x00000cd4:    02db        ..      LSLS     r3,r3,#11
        0x00000cd6:    4398        .C      BICS     r0,r0,r3
        0x00000cd8:    4b69        iK      LDR      r3,[pc,#420] ; [0xe80] = 0x50000040
        0x00000cda:    6118        .a      STR      r0,[r3,#0x10]
        0x00000cdc:    e006        ..      B        0xcec ; DrvGPIO_InitFunction + 1460
        0x00000cde:    4868        hH      LDR      r0,[pc,#416] ; [0xe80] = 0x50000040
        0x00000ce0:    6900        .i      LDR      r0,[r0,#0x10]
        0x00000ce2:    2301        .#      MOVS     r3,#1
        0x00000ce4:    025b        [.      LSLS     r3,r3,#9
        0x00000ce6:    4398        .C      BICS     r0,r0,r3
        0x00000ce8:    4b65        eK      LDR      r3,[pc,#404] ; [0xe80] = 0x50000040
        0x00000cea:    6118        .a      STR      r0,[r3,#0x10]
        0x00000cec:    e0c5        ..      B        0xe7a ; DrvGPIO_InitFunction + 1858
        0x00000cee:    bf00        ..      NOP      
        0x00000cf0:    bf00        ..      NOP      
        0x00000cf2:    2932        2)      CMP      r1,#0x32
        0x00000cf4:    d115        ..      BNE      0xd22 ; DrvGPIO_InitFunction + 1514
        0x00000cf6:    2005        .       MOVS     r0,#5
        0x00000cf8:    0700        ..      LSLS     r0,r0,#28
        0x00000cfa:    6b40        @k      LDR      r0,[r0,#0x34]
        0x00000cfc:    2301        .#      MOVS     r3,#1
        0x00000cfe:    02db        ..      LSLS     r3,r3,#11
        0x00000d00:    4318        .C      ORRS     r0,r0,r3
        0x00000d02:    2305        .#      MOVS     r3,#5
        0x00000d04:    071b        ..      LSLS     r3,r3,#28
        0x00000d06:    6358        Xc      STR      r0,[r3,#0x34]
        0x00000d08:    485d        ]H      LDR      r0,[pc,#372] ; [0xe80] = 0x50000040
        0x00000d0a:    6900        .i      LDR      r0,[r0,#0x10]
        0x00000d0c:    2310        .#      MOVS     r3,#0x10
        0x00000d0e:    4318        .C      ORRS     r0,r0,r3
        0x00000d10:    4b5b        [K      LDR      r3,[pc,#364] ; [0xe80] = 0x50000040
        0x00000d12:    6118        .a      STR      r0,[r3,#0x10]
        0x00000d14:    4618        .F      MOV      r0,r3
        0x00000d16:    6800        .h      LDR      r0,[r0,#0]
        0x00000d18:    2320         #      MOVS     r3,#0x20
        0x00000d1a:    4318        .C      ORRS     r0,r0,r3
        0x00000d1c:    4b58        XK      LDR      r3,[pc,#352] ; [0xe80] = 0x50000040
        0x00000d1e:    6018        .`      STR      r0,[r3,#0]
        0x00000d20:    e017        ..      B        0xd52 ; DrvGPIO_InitFunction + 1562
        0x00000d22:    2938        8)      CMP      r1,#0x38
        0x00000d24:    d10f        ..      BNE      0xd46 ; DrvGPIO_InitFunction + 1550
        0x00000d26:    2005        .       MOVS     r0,#5
        0x00000d28:    0700        ..      LSLS     r0,r0,#28
        0x00000d2a:    6b40        @k      LDR      r0,[r0,#0x34]
        0x00000d2c:    2301        .#      MOVS     r3,#1
        0x00000d2e:    02db        ..      LSLS     r3,r3,#11
        0x00000d30:    4318        .C      ORRS     r0,r0,r3
        0x00000d32:    2305        .#      MOVS     r3,#5
        0x00000d34:    071b        ..      LSLS     r3,r3,#28
        0x00000d36:    6358        Xc      STR      r0,[r3,#0x34]
        0x00000d38:    4851        QH      LDR      r0,[pc,#324] ; [0xe80] = 0x50000040
        0x00000d3a:    6900        .i      LDR      r0,[r0,#0x10]
        0x00000d3c:    2310        .#      MOVS     r3,#0x10
        0x00000d3e:    4318        .C      ORRS     r0,r0,r3
        0x00000d40:    4b4f        OK      LDR      r3,[pc,#316] ; [0xe80] = 0x50000040
        0x00000d42:    6118        .a      STR      r0,[r3,#0x10]
        0x00000d44:    e005        ..      B        0xd52 ; DrvGPIO_InitFunction + 1562
        0x00000d46:    484e        NH      LDR      r0,[pc,#312] ; [0xe80] = 0x50000040
        0x00000d48:    6800        .h      LDR      r0,[r0,#0]
        0x00000d4a:    2320         #      MOVS     r3,#0x20
        0x00000d4c:    4318        .C      ORRS     r0,r0,r3
        0x00000d4e:    4b4c        LK      LDR      r3,[pc,#304] ; [0xe80] = 0x50000040
        0x00000d50:    6018        .`      STR      r0,[r3,#0]
        0x00000d52:    e092        ..      B        0xe7a ; DrvGPIO_InitFunction + 1858
        0x00000d54:    bf00        ..      NOP      
        0x00000d56:    bf00        ..      NOP      
        0x00000d58:    2933        3)      CMP      r1,#0x33
        0x00000d5a:    d106        ..      BNE      0xd6a ; DrvGPIO_InitFunction + 1586
        0x00000d5c:    4848        HH      LDR      r0,[pc,#288] ; [0xe80] = 0x50000040
        0x00000d5e:    6800        .h      LDR      r0,[r0,#0]
        0x00000d60:    2303        .#      MOVS     r3,#3
        0x00000d62:    4318        .C      ORRS     r0,r0,r3
        0x00000d64:    4b46        FK      LDR      r3,[pc,#280] ; [0xe80] = 0x50000040
        0x00000d66:    6018        .`      STR      r0,[r3,#0]
        0x00000d68:    e00e        ..      B        0xd88 ; DrvGPIO_InitFunction + 1616
        0x00000d6a:    293a        :)      CMP      r1,#0x3a
        0x00000d6c:    d106        ..      BNE      0xd7c ; DrvGPIO_InitFunction + 1604
        0x00000d6e:    4844        DH      LDR      r0,[pc,#272] ; [0xe80] = 0x50000040
        0x00000d70:    6800        .h      LDR      r0,[r0,#0]
        0x00000d72:    2301        .#      MOVS     r3,#1
        0x00000d74:    4318        .C      ORRS     r0,r0,r3
        0x00000d76:    4b42        BK      LDR      r3,[pc,#264] ; [0xe80] = 0x50000040
        0x00000d78:    6018        .`      STR      r0,[r3,#0]
        0x00000d7a:    e005        ..      B        0xd88 ; DrvGPIO_InitFunction + 1616
        0x00000d7c:    4840        @H      LDR      r0,[pc,#256] ; [0xe80] = 0x50000040
        0x00000d7e:    6800        .h      LDR      r0,[r0,#0]
        0x00000d80:    2302        .#      MOVS     r3,#2
        0x00000d82:    4318        .C      ORRS     r0,r0,r3
        0x00000d84:    4b3e        >K      LDR      r3,[pc,#248] ; [0xe80] = 0x50000040
        0x00000d86:    6018        .`      STR      r0,[r3,#0]
        0x00000d88:    e077        w.      B        0xe7a ; DrvGPIO_InitFunction + 1858
        0x00000d8a:    2005        .       MOVS     r0,#5
        0x00000d8c:    0700        ..      LSLS     r0,r0,#28
        0x00000d8e:    6b40        @k      LDR      r0,[r0,#0x34]
        0x00000d90:    230c        .#      MOVS     r3,#0xc
        0x00000d92:    4318        .C      ORRS     r0,r0,r3
        0x00000d94:    2305        .#      MOVS     r3,#5
        0x00000d96:    071b        ..      LSLS     r3,r3,#28
        0x00000d98:    6358        Xc      STR      r0,[r3,#0x34]
        0x00000d9a:    4839        9H      LDR      r0,[pc,#228] ; [0xe80] = 0x50000040
        0x00000d9c:    6900        .i      LDR      r0,[r0,#0x10]
        0x00000d9e:    2303        .#      MOVS     r3,#3
        0x00000da0:    035b        [.      LSLS     r3,r3,#13
        0x00000da2:    4318        .C      ORRS     r0,r0,r3
        0x00000da4:    4b36        6K      LDR      r3,[pc,#216] ; [0xe80] = 0x50000040
        0x00000da6:    6118        .a      STR      r0,[r3,#0x10]
        0x00000da8:    2005        .       MOVS     r0,#5
        0x00000daa:    0700        ..      LSLS     r0,r0,#28
        0x00000dac:    6b00        .k      LDR      r0,[r0,#0x30]
        0x00000dae:    4b35        5K      LDR      r3,[pc,#212] ; [0xe84] = 0x703e
        0x00000db0:    4318        .C      ORRS     r0,r0,r3
        0x00000db2:    2305        .#      MOVS     r3,#5
        0x00000db4:    071b        ..      LSLS     r3,r3,#28
        0x00000db6:    6318        .c      STR      r0,[r3,#0x30]
        0x00000db8:    4831        1H      LDR      r0,[pc,#196] ; [0xe80] = 0x50000040
        0x00000dba:    6900        .i      LDR      r0,[r0,#0x10]
        0x00000dbc:    23ff        .#      MOVS     r3,#0xff
        0x00000dbe:    041b        ..      LSLS     r3,r3,#16
        0x00000dc0:    4318        .C      ORRS     r0,r0,r3
        0x00000dc2:    4b2f        /K      LDR      r3,[pc,#188] ; [0xe80] = 0x50000040
        0x00000dc4:    6118        .a      STR      r0,[r3,#0x10]
        0x00000dc6:    bf00        ..      NOP      
        0x00000dc8:    293c        <)      CMP      r1,#0x3c
        0x00000dca:    d11e        ..      BNE      0xe0a ; DrvGPIO_InitFunction + 1746
        0x00000dcc:    2005        .       MOVS     r0,#5
        0x00000dce:    0700        ..      LSLS     r0,r0,#28
        0x00000dd0:    6b40        @k      LDR      r0,[r0,#0x34]
        0x00000dd2:    230c        .#      MOVS     r3,#0xc
        0x00000dd4:    4398        .C      BICS     r0,r0,r3
        0x00000dd6:    2305        .#      MOVS     r3,#5
        0x00000dd8:    071b        ..      LSLS     r3,r3,#28
        0x00000dda:    6358        Xc      STR      r0,[r3,#0x34]
        0x00000ddc:    4828        (H      LDR      r0,[pc,#160] ; [0xe80] = 0x50000040
        0x00000dde:    6900        .i      LDR      r0,[r0,#0x10]
        0x00000de0:    2303        .#      MOVS     r3,#3
        0x00000de2:    035b        [.      LSLS     r3,r3,#13
        0x00000de4:    4398        .C      BICS     r0,r0,r3
        0x00000de6:    4b26        &K      LDR      r3,[pc,#152] ; [0xe80] = 0x50000040
        0x00000de8:    6118        .a      STR      r0,[r3,#0x10]
        0x00000dea:    2005        .       MOVS     r0,#5
        0x00000dec:    0700        ..      LSLS     r0,r0,#28
        0x00000dee:    6b00        .k      LDR      r0,[r0,#0x30]
        0x00000df0:    4b24        $K      LDR      r3,[pc,#144] ; [0xe84] = 0x703e
        0x00000df2:    43db        .C      MVNS     r3,r3
        0x00000df4:    4018        .@      ANDS     r0,r0,r3
        0x00000df6:    2305        .#      MOVS     r3,#5
        0x00000df8:    071b        ..      LSLS     r3,r3,#28
        0x00000dfa:    6318        .c      STR      r0,[r3,#0x30]
        0x00000dfc:    4820         H      LDR      r0,[pc,#128] ; [0xe80] = 0x50000040
        0x00000dfe:    6900        .i      LDR      r0,[r0,#0x10]
        0x00000e00:    23ff        .#      MOVS     r3,#0xff
        0x00000e02:    041b        ..      LSLS     r3,r3,#16
        0x00000e04:    4398        .C      BICS     r0,r0,r3
        0x00000e06:    4b1e        .K      LDR      r3,[pc,#120] ; [0xe80] = 0x50000040
        0x00000e08:    6118        .a      STR      r0,[r3,#0x10]
        0x00000e0a:    481d        .H      LDR      r0,[pc,#116] ; [0xe80] = 0x50000040
        0x00000e0c:    6900        .i      LDR      r0,[r0,#0x10]
        0x00000e0e:    2303        .#      MOVS     r3,#3
        0x00000e10:    02db        ..      LSLS     r3,r3,#11
        0x00000e12:    4318        .C      ORRS     r0,r0,r3
        0x00000e14:    4b1a        .K      LDR      r3,[pc,#104] ; [0xe80] = 0x50000040
        0x00000e16:    6118        .a      STR      r0,[r3,#0x10]
        0x00000e18:    2005        .       MOVS     r0,#5
        0x00000e1a:    0700        ..      LSLS     r0,r0,#28
        0x00000e1c:    6b80        .k      LDR      r0,[r0,#0x38]
        0x00000e1e:    23ff        .#      MOVS     r3,#0xff
        0x00000e20:    3301        .3      ADDS     r3,#1
        0x00000e22:    4318        .C      ORRS     r0,r0,r3
        0x00000e24:    2305        .#      MOVS     r3,#5
        0x00000e26:    071b        ..      LSLS     r3,r3,#28
        0x00000e28:    6398        .c      STR      r0,[r3,#0x38]
        0x00000e2a:    4618        .F      MOV      r0,r3
        0x00000e2c:    6b00        .k      LDR      r0,[r0,#0x30]
        0x00000e2e:    2303        .#      MOVS     r3,#3
        0x00000e30:    029b        ..      LSLS     r3,r3,#10
        0x00000e32:    4318        .C      ORRS     r0,r0,r3
        0x00000e34:    2305        .#      MOVS     r3,#5
        0x00000e36:    071b        ..      LSLS     r3,r3,#28
        0x00000e38:    6318        .c      STR      r0,[r3,#0x30]
        0x00000e3a:    4618        .F      MOV      r0,r3
        0x00000e3c:    6b40        @k      LDR      r0,[r0,#0x34]
        0x00000e3e:    23c0        .#      MOVS     r3,#0xc0
        0x00000e40:    4318        .C      ORRS     r0,r0,r3
        0x00000e42:    2305        .#      MOVS     r3,#5
        0x00000e44:    071b        ..      LSLS     r3,r3,#28
        0x00000e46:    6358        Xc      STR      r0,[r3,#0x34]
        0x00000e48:    4618        .F      MOV      r0,r3
        0x00000e4a:    6b00        .k      LDR      r0,[r0,#0x30]
        0x00000e4c:    23c0        .#      MOVS     r3,#0xc0
        0x00000e4e:    4318        .C      ORRS     r0,r0,r3
        0x00000e50:    2305        .#      MOVS     r3,#5
        0x00000e52:    071b        ..      LSLS     r3,r3,#28
        0x00000e54:    6318        .c      STR      r0,[r3,#0x30]
        0x00000e56:    4618        .F      MOV      r0,r3
        0x00000e58:    6b80        .k      LDR      r0,[r0,#0x38]
        0x00000e5a:    4b0b        .K      LDR      r3,[pc,#44] ; [0xe88] = 0xc0c0
        0x00000e5c:    4318        .C      ORRS     r0,r0,r3
        0x00000e5e:    2305        .#      MOVS     r3,#5
        0x00000e60:    071b        ..      LSLS     r3,r3,#28
        0x00000e62:    6398        .c      STR      r0,[r3,#0x38]
        0x00000e64:    4618        .F      MOV      r0,r3
        0x00000e66:    6b40        @k      LDR      r0,[r0,#0x34]
        0x00000e68:    2303        .#      MOVS     r3,#3
        0x00000e6a:    031b        ..      LSLS     r3,r3,#12
        0x00000e6c:    4318        .C      ORRS     r0,r0,r3
        0x00000e6e:    2305        .#      MOVS     r3,#5
        0x00000e70:    071b        ..      LSLS     r3,r3,#28
        0x00000e72:    6358        Xc      STR      r0,[r3,#0x34]
        0x00000e74:    e001        ..      B        0xe7a ; DrvGPIO_InitFunction + 1858
        0x00000e76:    4805        .H      LDR      r0,[pc,#20] ; [0xe8c] = 0xffff8901
        0x00000e78:    bd10        ..      POP      {r4,pc}
        0x00000e7a:    bf00        ..      NOP      
        0x00000e7c:    2000        .       MOVS     r0,#0
        0x00000e7e:    e7fb        ..      B        0xe78 ; DrvGPIO_InitFunction + 1856
    $d
        0x00000e80:    50000040    @..P    DCD    1342177344
        0x00000e84:    0000703e    >p..    DCD    28734
        0x00000e88:    0000c0c0    ....    DCD    49344
        0x00000e8c:    ffff8901    ....    DCD    4294936833
    $t
    i.DrvGPIO_Open
    DrvGPIO_Open
        0x00000e90:    b538        8.      PUSH     {r3-r5,lr}
        0x00000e92:    4603        .F      MOV      r3,r0
        0x00000e94:    2900        .)      CMP      r1,#0
        0x00000e96:    db01        ..      BLT      0xe9c ; DrvGPIO_Open + 12
        0x00000e98:    2910        .)      CMP      r1,#0x10
        0x00000e9a:    dd01        ..      BLE      0xea0 ; DrvGPIO_Open + 16
        0x00000e9c:    481c        .H      LDR      r0,[pc,#112] ; [0xf10] = 0xffff8901
        0x00000e9e:    bd38        8.      POP      {r3-r5,pc}
        0x00000ea0:    0198        ..      LSLS     r0,r3,#6
        0x00000ea2:    4c1c        .L      LDR      r4,[pc,#112] ; [0xf14] = 0x50004000
        0x00000ea4:    1900        ..      ADDS     r0,r0,r4
        0x00000ea6:    9000        ..      STR      r0,[sp,#0]
        0x00000ea8:    2a00        .*      CMP      r2,#0
        0x00000eaa:    d003        ..      BEQ      0xeb4 ; DrvGPIO_Open + 36
        0x00000eac:    2a01        .*      CMP      r2,#1
        0x00000eae:    d001        ..      BEQ      0xeb4 ; DrvGPIO_Open + 36
        0x00000eb0:    2a02        .*      CMP      r2,#2
        0x00000eb2:    d11d        ..      BNE      0xef0 ; DrvGPIO_Open + 96
        0x00000eb4:    9800        ..      LDR      r0,[sp,#0]
        0x00000eb6:    6800        .h      LDR      r0,[r0,#0]
        0x00000eb8:    004d        M.      LSLS     r5,r1,#1
        0x00000eba:    2403        .$      MOVS     r4,#3
        0x00000ebc:    40ac        .@      LSLS     r4,r4,r5
        0x00000ebe:    43a0        .C      BICS     r0,r0,r4
        0x00000ec0:    9c00        ..      LDR      r4,[sp,#0]
        0x00000ec2:    6020         `      STR      r0,[r4,#0]
        0x00000ec4:    2a01        .*      CMP      r2,#1
        0x00000ec6:    d108        ..      BNE      0xeda ; DrvGPIO_Open + 74
        0x00000ec8:    9800        ..      LDR      r0,[sp,#0]
        0x00000eca:    6800        .h      LDR      r0,[r0,#0]
        0x00000ecc:    004d        M.      LSLS     r5,r1,#1
        0x00000ece:    2401        .$      MOVS     r4,#1
        0x00000ed0:    40ac        .@      LSLS     r4,r4,r5
        0x00000ed2:    4320         C      ORRS     r0,r0,r4
        0x00000ed4:    9c00        ..      LDR      r4,[sp,#0]
        0x00000ed6:    6020         `      STR      r0,[r4,#0]
        0x00000ed8:    e017        ..      B        0xf0a ; DrvGPIO_Open + 122
        0x00000eda:    2a02        .*      CMP      r2,#2
        0x00000edc:    d115        ..      BNE      0xf0a ; DrvGPIO_Open + 122
        0x00000ede:    9800        ..      LDR      r0,[sp,#0]
        0x00000ee0:    6800        .h      LDR      r0,[r0,#0]
        0x00000ee2:    004d        M.      LSLS     r5,r1,#1
        0x00000ee4:    2402        .$      MOVS     r4,#2
        0x00000ee6:    40ac        .@      LSLS     r4,r4,r5
        0x00000ee8:    4320         C      ORRS     r0,r0,r4
        0x00000eea:    9c00        ..      LDR      r4,[sp,#0]
        0x00000eec:    6020         `      STR      r0,[r4,#0]
        0x00000eee:    e00c        ..      B        0xf0a ; DrvGPIO_Open + 122
        0x00000ef0:    2a03        .*      CMP      r2,#3
        0x00000ef2:    d108        ..      BNE      0xf06 ; DrvGPIO_Open + 118
        0x00000ef4:    9800        ..      LDR      r0,[sp,#0]
        0x00000ef6:    6800        .h      LDR      r0,[r0,#0]
        0x00000ef8:    004d        M.      LSLS     r5,r1,#1
        0x00000efa:    2403        .$      MOVS     r4,#3
        0x00000efc:    40ac        .@      LSLS     r4,r4,r5
        0x00000efe:    4320         C      ORRS     r0,r0,r4
        0x00000f00:    9c00        ..      LDR      r4,[sp,#0]
        0x00000f02:    6020         `      STR      r0,[r4,#0]
        0x00000f04:    e001        ..      B        0xf0a ; DrvGPIO_Open + 122
        0x00000f06:    4802        .H      LDR      r0,[pc,#8] ; [0xf10] = 0xffff8901
        0x00000f08:    e7c9        ..      B        0xe9e ; DrvGPIO_Open + 14
        0x00000f0a:    2000        .       MOVS     r0,#0
        0x00000f0c:    e7c7        ..      B        0xe9e ; DrvGPIO_Open + 14
    $d
        0x00000f0e:    0000        ..      DCW    0
        0x00000f10:    ffff8901    ....    DCD    4294936833
        0x00000f14:    50004000    .@.P    DCD    1342193664
    $t
    i.DrvGPIO_SetBit
    DrvGPIO_SetBit
        0x00000f18:    b510        ..      PUSH     {r4,lr}
        0x00000f1a:    4603        .F      MOV      r3,r0
        0x00000f1c:    2900        .)      CMP      r1,#0
        0x00000f1e:    db01        ..      BLT      0xf24 ; DrvGPIO_SetBit + 12
        0x00000f20:    2910        .)      CMP      r1,#0x10
        0x00000f22:    dd01        ..      BLE      0xf28 ; DrvGPIO_SetBit + 16
        0x00000f24:    4805        .H      LDR      r0,[pc,#20] ; [0xf3c] = 0xffff8901
        0x00000f26:    bd10        ..      POP      {r4,pc}
        0x00000f28:    0198        ..      LSLS     r0,r3,#6
        0x00000f2a:    4c05        .L      LDR      r4,[pc,#20] ; [0xf40] = 0x50004000
        0x00000f2c:    1902        ..      ADDS     r2,r0,r4
        0x00000f2e:    6890        .h      LDR      r0,[r2,#8]
        0x00000f30:    2401        .$      MOVS     r4,#1
        0x00000f32:    408c        .@      LSLS     r4,r4,r1
        0x00000f34:    4320         C      ORRS     r0,r0,r4
        0x00000f36:    6090        .`      STR      r0,[r2,#8]
        0x00000f38:    2000        .       MOVS     r0,#0
        0x00000f3a:    e7f4        ..      B        0xf26 ; DrvGPIO_SetBit + 14
    $d
        0x00000f3c:    ffff8901    ....    DCD    4294936833
        0x00000f40:    50004000    .@.P    DCD    1342193664
    $t
    i.DrvSYS_Delay
    DrvSYS_Delay
        0x00000f44:    4908        .I      LDR      r1,[pc,#32] ; [0xf68] = 0x20000004
        0x00000f46:    6809        .h      LDR      r1,[r1,#0]
        0x00000f48:    4341        AC      MULS     r1,r0,r1
        0x00000f4a:    4a08        .J      LDR      r2,[pc,#32] ; [0xf6c] = 0xe000e000
        0x00000f4c:    6151        Qa      STR      r1,[r2,#0x14]
        0x00000f4e:    2100        .!      MOVS     r1,#0
        0x00000f50:    6191        .a      STR      r1,[r2,#0x18]
        0x00000f52:    2105        .!      MOVS     r1,#5
        0x00000f54:    6111        .a      STR      r1,[r2,#0x10]
        0x00000f56:    bf00        ..      NOP      
        0x00000f58:    4904        .I      LDR      r1,[pc,#16] ; [0xf6c] = 0xe000e000
        0x00000f5a:    6909        .i      LDR      r1,[r1,#0x10]
        0x00000f5c:    2201        ."      MOVS     r2,#1
        0x00000f5e:    0412        ..      LSLS     r2,r2,#16
        0x00000f60:    4011        .@      ANDS     r1,r1,r2
        0x00000f62:    2900        .)      CMP      r1,#0
        0x00000f64:    d0f8        ..      BEQ      0xf58 ; DrvSYS_Delay + 20
        0x00000f66:    4770        pG      BX       lr
    $d
        0x00000f68:    20000004    ...     DCD    536870916
        0x00000f6c:    e000e000    ....    DCD    3758153728
    $t
    i.DrvSYS_GetExtClockFreq
    DrvSYS_GetExtClockFreq
        0x00000f70:    4800        .H      LDR      r0,[pc,#0] ; [0xf74] = 0xb71b00
        0x00000f72:    4770        pG      BX       lr
    $d
        0x00000f74:    00b71b00    ....    DCD    12000000
    $t
    i.DrvSYS_GetPLLClockFreq
    DrvSYS_GetPLLClockFreq
        0x00000f78:    b57f        ..      PUSH     {r0-r6,lr}
        0x00000f7a:    2500        .%      MOVS     r5,#0
        0x00000f7c:    4b18        .K      LDR      r3,[pc,#96] ; [0xfe0] = 0x2010
        0x00000f7e:    cb0f        ..      LDM      r3,{r0-r3}
        0x00000f80:    466c        lF      MOV      r4,sp
        0x00000f82:    c40f        ..      STM      r4!,{r0-r3}
        0x00000f84:    4817        .H      LDR      r0,[pc,#92] ; [0xfe4] = 0x50000200
        0x00000f86:    6a00        .j      LDR      r0,[r0,#0x20]
        0x00000f88:    0300        ..      LSLS     r0,r0,#12
        0x00000f8a:    0fc0        ..      LSRS     r0,r0,#31
        0x00000f8c:    2800        .(      CMP      r0,#0
        0x00000f8e:    d001        ..      BEQ      0xf94 ; DrvSYS_GetPLLClockFreq + 28
        0x00000f90:    4c15        .L      LDR      r4,[pc,#84] ; [0xfe8] = 0x1518000
        0x00000f92:    e000        ..      B        0xf96 ; DrvSYS_GetPLLClockFreq + 30
        0x00000f94:    4c15        .L      LDR      r4,[pc,#84] ; [0xfec] = 0xb71b00
        0x00000f96:    4813        .H      LDR      r0,[pc,#76] ; [0xfe4] = 0x50000200
        0x00000f98:    6a00        .j      LDR      r0,[r0,#0x20]
        0x00000f9a:    03c0        ..      LSLS     r0,r0,#15
        0x00000f9c:    0fc0        ..      LSRS     r0,r0,#31
        0x00000f9e:    2800        .(      CMP      r0,#0
        0x00000fa0:    d001        ..      BEQ      0xfa6 ; DrvSYS_GetPLLClockFreq + 46
        0x00000fa2:    2500        .%      MOVS     r5,#0
        0x00000fa4:    e019        ..      B        0xfda ; DrvSYS_GetPLLClockFreq + 98
        0x00000fa6:    4a0f        .J      LDR      r2,[pc,#60] ; [0xfe4] = 0x50000200
        0x00000fa8:    6a12        .j      LDR      r2,[r2,#0x20]
        0x00000faa:    0492        ..      LSLS     r2,r2,#18
        0x00000fac:    0ed2        ..      LSRS     r2,r2,#27
        0x00000fae:    1c91        ..      ADDS     r1,r2,#2
        0x00000fb0:    4a0c        .J      LDR      r2,[pc,#48] ; [0xfe4] = 0x50000200
        0x00000fb2:    6a12        .j      LDR      r2,[r2,#0x20]
        0x00000fb4:    05d2        ..      LSLS     r2,r2,#23
        0x00000fb6:    0dd2        ..      LSRS     r2,r2,#23
        0x00000fb8:    1c92        ..      ADDS     r2,r2,#2
        0x00000fba:    4362        bC      MULS     r2,r4,r2
        0x00000fbc:    4610        .F      MOV      r0,r2
        0x00000fbe:    f7fff9b9    ....    BL       __aeabi_uidiv ; 0x334
        0x00000fc2:    4606        .F      MOV      r6,r0
        0x00000fc4:    4807        .H      LDR      r0,[pc,#28] ; [0xfe4] = 0x50000200
        0x00000fc6:    6a00        .j      LDR      r0,[r0,#0x20]
        0x00000fc8:    0400        ..      LSLS     r0,r0,#16
        0x00000fca:    0f80        ..      LSRS     r0,r0,#30
        0x00000fcc:    0080        ..      LSLS     r0,r0,#2
        0x00000fce:    466a        jF      MOV      r2,sp
        0x00000fd0:    5811        .X      LDR      r1,[r2,r0]
        0x00000fd2:    4630        0F      MOV      r0,r6
        0x00000fd4:    f7fff9ae    ....    BL       __aeabi_uidiv ; 0x334
        0x00000fd8:    4605        .F      MOV      r5,r0
        0x00000fda:    4628        (F      MOV      r0,r5
        0x00000fdc:    b004        ..      ADD      sp,sp,#0x10
        0x00000fde:    bd70        p.      POP      {r4-r6,pc}
    $d
        0x00000fe0:    00002010    . ..    DCD    8208
        0x00000fe4:    50000200    ...P    DCD    1342177792
        0x00000fe8:    01518000    ..Q.    DCD    22118400
        0x00000fec:    00b71b00    ....    DCD    12000000
    $t
    i.DrvSYS_GetPLLContent
    DrvSYS_GetPLLContent
        0x00000ff0:    b5f3        ..      PUSH     {r0,r1,r4-r7,lr}
        0x00000ff2:    b083        ..      SUB      sp,sp,#0xc
        0x00000ff4:    460c        .F      MOV      r4,r1
        0x00000ff6:    4828        (H      LDR      r0,[pc,#160] ; [0x1098] = 0xb71b00
        0x00000ff8:    9002        ..      STR      r0,[sp,#8]
        0x00000ffa:    2000        .       MOVS     r0,#0
        0x00000ffc:    9001        ..      STR      r0,[sp,#4]
        0x00000ffe:    4827        'H      LDR      r0,[pc,#156] ; [0x109c] = 0xbebc200
        0x00001000:    4284        .B      CMP      r4,r0
        0x00001002:    d804        ..      BHI      0x100e ; DrvSYS_GetPLLContent + 30
        0x00001004:    1040        @.      ASRS     r0,r0,#1
        0x00001006:    4284        .B      CMP      r4,r0
        0x00001008:    d901        ..      BLS      0x100e ; DrvSYS_GetPLLContent + 30
        0x0000100a:    2700        .'      MOVS     r7,#0
        0x0000100c:    e014        ..      B        0x1038 ; DrvSYS_GetPLLContent + 72
        0x0000100e:    4824        $H      LDR      r0,[pc,#144] ; [0x10a0] = 0x5f5e100
        0x00001010:    4284        .B      CMP      r4,r0
        0x00001012:    d805        ..      BHI      0x1020 ; DrvSYS_GetPLLContent + 48
        0x00001014:    1040        @.      ASRS     r0,r0,#1
        0x00001016:    4284        .B      CMP      r4,r0
        0x00001018:    d902        ..      BLS      0x1020 ; DrvSYS_GetPLLContent + 48
        0x0000101a:    2701        .'      MOVS     r7,#1
        0x0000101c:    0064        d.      LSLS     r4,r4,#1
        0x0000101e:    e00b        ..      B        0x1038 ; DrvSYS_GetPLLContent + 72
        0x00001020:    4820         H      LDR      r0,[pc,#128] ; [0x10a4] = 0x2faf080
        0x00001022:    4284        .B      CMP      r4,r0
        0x00001024:    d805        ..      BHI      0x1032 ; DrvSYS_GetPLLContent + 66
        0x00001026:    1040        @.      ASRS     r0,r0,#1
        0x00001028:    4284        .B      CMP      r4,r0
        0x0000102a:    d302        ..      BCC      0x1032 ; DrvSYS_GetPLLContent + 66
        0x0000102c:    2703        .'      MOVS     r7,#3
        0x0000102e:    00a4        ..      LSLS     r4,r4,#2
        0x00001030:    e002        ..      B        0x1038 ; DrvSYS_GetPLLContent + 72
        0x00001032:    481d        .H      LDR      r0,[pc,#116] ; [0x10a8] = 0xc22e
        0x00001034:    b005        ..      ADD      sp,sp,#0x14
        0x00001036:    bdf0        ..      POP      {r4-r7,pc}
        0x00001038:    9803        ..      LDR      r0,[sp,#0xc]
        0x0000103a:    2800        .(      CMP      r0,#0
        0x0000103c:    d102        ..      BNE      0x1044 ; DrvSYS_GetPLLContent + 84
        0x0000103e:    4816        .H      LDR      r0,[pc,#88] ; [0x1098] = 0xb71b00
        0x00001040:    9002        ..      STR      r0,[sp,#8]
        0x00001042:    e004        ..      B        0x104e ; DrvSYS_GetPLLContent + 94
        0x00001044:    9803        ..      LDR      r0,[sp,#0xc]
        0x00001046:    2801        .(      CMP      r0,#1
        0x00001048:    d101        ..      BNE      0x104e ; DrvSYS_GetPLLContent + 94
        0x0000104a:    4818        .H      LDR      r0,[pc,#96] ; [0x10ac] = 0x1518000
        0x0000104c:    9002        ..      STR      r0,[sp,#8]
        0x0000104e:    4918        .I      LDR      r1,[pc,#96] ; [0x10b0] = 0xf4240
        0x00001050:    4620         F      MOV      r0,r4
        0x00001052:    f7fff96f    ..o.    BL       __aeabi_uidiv ; 0x334
        0x00001056:    4606        .F      MOV      r6,r0
        0x00001058:    4915        .I      LDR      r1,[pc,#84] ; [0x10b0] = 0xf4240
        0x0000105a:    9802        ..      LDR      r0,[sp,#8]
        0x0000105c:    f7fff96a    ..j.    BL       __aeabi_uidiv ; 0x334
        0x00001060:    4605        .F      MOV      r5,r0
        0x00001062:    e00e        ..      B        0x1082 ; DrvSYS_GetPLLContent + 146
        0x00001064:    07e8        ..      LSLS     r0,r5,#31
        0x00001066:    0fc0        ..      LSRS     r0,r0,#31
        0x00001068:    2800        .(      CMP      r0,#0
        0x0000106a:    d107        ..      BNE      0x107c ; DrvSYS_GetPLLContent + 140
        0x0000106c:    07f0        ..      LSLS     r0,r6,#31
        0x0000106e:    0fc0        ..      LSRS     r0,r0,#31
        0x00001070:    2800        .(      CMP      r0,#0
        0x00001072:    d103        ..      BNE      0x107c ; DrvSYS_GetPLLContent + 140
        0x00001074:    2d02        .-      CMP      r5,#2
        0x00001076:    d001        ..      BEQ      0x107c ; DrvSYS_GetPLLContent + 140
        0x00001078:    2e02        ..      CMP      r6,#2
        0x0000107a:    d100        ..      BNE      0x107e ; DrvSYS_GetPLLContent + 142
        0x0000107c:    e002        ..      B        0x1084 ; DrvSYS_GetPLLContent + 148
        0x0000107e:    086d        m.      LSRS     r5,r5,#1
        0x00001080:    0876        v.      LSRS     r6,r6,#1
        0x00001082:    e7ef        ..      B        0x1064 ; DrvSYS_GetPLLContent + 116
        0x00001084:    bf00        ..      NOP      
        0x00001086:    03b8        ..      LSLS     r0,r7,#14
        0x00001088:    1ea9        ..      SUBS     r1,r5,#2
        0x0000108a:    0249        I.      LSLS     r1,r1,#9
        0x0000108c:    4308        .C      ORRS     r0,r0,r1
        0x0000108e:    1eb1        ..      SUBS     r1,r6,#2
        0x00001090:    4308        .C      ORRS     r0,r0,r1
        0x00001092:    9001        ..      STR      r0,[sp,#4]
        0x00001094:    9801        ..      LDR      r0,[sp,#4]
        0x00001096:    e7cd        ..      B        0x1034 ; DrvSYS_GetPLLContent + 68
    $d
        0x00001098:    00b71b00    ....    DCD    12000000
        0x0000109c:    0bebc200    ....    DCD    200000000
        0x000010a0:    05f5e100    ....    DCD    100000000
        0x000010a4:    02faf080    ....    DCD    50000000
        0x000010a8:    0000c22e    ....    DCD    49710
        0x000010ac:    01518000    ..Q.    DCD    22118400
        0x000010b0:    000f4240    @B..    DCD    1000000
    $t
    i.DrvSYS_IsProtectedRegLocked
    DrvSYS_IsProtectedRegLocked
        0x000010b4:    4802        .H      LDR      r0,[pc,#8] ; [0x10c0] = 0x50000100
        0x000010b6:    6800        .h      LDR      r0,[r0,#0]
        0x000010b8:    07c0        ..      LSLS     r0,r0,#31
        0x000010ba:    0fc0        ..      LSRS     r0,r0,#31
        0x000010bc:    4770        pG      BX       lr
    $d
        0x000010be:    0000        ..      DCW    0
        0x000010c0:    50000100    ...P    DCD    1342177536
    $t
    i.DrvSYS_Open
    DrvSYS_Open
        0x000010c4:    b5f8        ..      PUSH     {r3-r7,lr}
        0x000010c6:    4604        .F      MOV      r4,r0
        0x000010c8:    2500        .%      MOVS     r5,#0
        0x000010ca:    482a        *H      LDR      r0,[pc,#168] ; [0x1174] = 0x2faf080
        0x000010cc:    4284        .B      CMP      r4,r0
        0x000010ce:    d802        ..      BHI      0x10d6 ; DrvSYS_Open + 18
        0x000010d0:    1040        @.      ASRS     r0,r0,#1
        0x000010d2:    4284        .B      CMP      r4,r0
        0x000010d4:    d201        ..      BCS      0x10da ; DrvSYS_Open + 22
        0x000010d6:    4828        (H      LDR      r0,[pc,#160] ; [0x1178] = 0xffff9606
        0x000010d8:    bdf8        ..      POP      {r3-r7,pc}
        0x000010da:    f7ffffeb    ....    BL       DrvSYS_IsProtectedRegLocked ; 0x10b4
        0x000010de:    2800        .(      CMP      r0,#0
        0x000010e0:    d102        ..      BNE      0x10e8 ; DrvSYS_Open + 36
        0x000010e2:    4825        %H      LDR      r0,[pc,#148] ; [0x1178] = 0xffff9606
        0x000010e4:    1c40        @.      ADDS     r0,r0,#1
        0x000010e6:    e7f7        ..      B        0x10d8 ; DrvSYS_Open + 20
        0x000010e8:    4824        $H      LDR      r0,[pc,#144] ; [0x117c] = 0x50000200
        0x000010ea:    6a00        .j      LDR      r0,[r0,#0x20]
        0x000010ec:    0300        ..      LSLS     r0,r0,#12
        0x000010ee:    0fc0        ..      LSRS     r0,r0,#31
        0x000010f0:    2800        .(      CMP      r0,#0
        0x000010f2:    d108        ..      BNE      0x1106 ; DrvSYS_Open + 66
        0x000010f4:    4821        !H      LDR      r0,[pc,#132] ; [0x117c] = 0x50000200
        0x000010f6:    6800        .h      LDR      r0,[r0,#0]
        0x000010f8:    0840        @.      LSRS     r0,r0,#1
        0x000010fa:    0040        @.      LSLS     r0,r0,#1
        0x000010fc:    1c40        @.      ADDS     r0,r0,#1
        0x000010fe:    491f        .I      LDR      r1,[pc,#124] ; [0x117c] = 0x50000200
        0x00001100:    6008        .`      STR      r0,[r1,#0]
        0x00001102:    2500        .%      MOVS     r5,#0
        0x00001104:    e007        ..      B        0x1116 ; DrvSYS_Open + 82
        0x00001106:    481d        .H      LDR      r0,[pc,#116] ; [0x117c] = 0x50000200
        0x00001108:    6800        .h      LDR      r0,[r0,#0]
        0x0000110a:    2104        .!      MOVS     r1,#4
        0x0000110c:    4388        .C      BICS     r0,r0,r1
        0x0000110e:    1d00        ..      ADDS     r0,r0,#4
        0x00001110:    491a        .I      LDR      r1,[pc,#104] ; [0x117c] = 0x50000200
        0x00001112:    6008        .`      STR      r0,[r1,#0]
        0x00001114:    2501        .%      MOVS     r5,#1
        0x00001116:    4621        !F      MOV      r1,r4
        0x00001118:    4628        (F      MOV      r0,r5
        0x0000111a:    f7ffff69    ..i.    BL       DrvSYS_GetPLLContent ; 0xff0
        0x0000111e:    4606        .F      MOV      r6,r0
        0x00001120:    2000        .       MOVS     r0,#0
        0x00001122:    9000        ..      STR      r0,[sp,#0]
        0x00001124:    e002        ..      B        0x112c ; DrvSYS_Open + 104
        0x00001126:    9800        ..      LDR      r0,[sp,#0]
        0x00001128:    1c40        @.      ADDS     r0,r0,#1
        0x0000112a:    9000        ..      STR      r0,[sp,#0]
        0x0000112c:    4914        .I      LDR      r1,[pc,#80] ; [0x1180] = 0x2710
        0x0000112e:    9800        ..      LDR      r0,[sp,#0]
        0x00001130:    4288        .B      CMP      r0,r1
        0x00001132:    d3f8        ..      BCC      0x1126 ; DrvSYS_Open + 98
        0x00001134:    4630        0F      MOV      r0,r6
        0x00001136:    f000f841    ..A.    BL       DrvSYS_SetPLLContent ; 0x11bc
        0x0000113a:    4810        .H      LDR      r0,[pc,#64] ; [0x117c] = 0x50000200
        0x0000113c:    6a00        .j      LDR      r0,[r0,#0x20]
        0x0000113e:    2101        .!      MOVS     r1,#1
        0x00001140:    0489        ..      LSLS     r1,r1,#18
        0x00001142:    4388        .C      BICS     r0,r0,r1
        0x00001144:    490d        .I      LDR      r1,[pc,#52] ; [0x117c] = 0x50000200
        0x00001146:    6208        .b      STR      r0,[r1,#0x20]
        0x00001148:    4608        .F      MOV      r0,r1
        0x0000114a:    6a00        .j      LDR      r0,[r0,#0x20]
        0x0000114c:    01c9        ..      LSLS     r1,r1,#7
        0x0000114e:    4388        .C      BICS     r0,r0,r1
        0x00001150:    490a        .I      LDR      r1,[pc,#40] ; [0x117c] = 0x50000200
        0x00001152:    6208        .b      STR      r0,[r1,#0x20]
        0x00001154:    2000        .       MOVS     r0,#0
        0x00001156:    9000        ..      STR      r0,[sp,#0]
        0x00001158:    e002        ..      B        0x1160 ; DrvSYS_Open + 156
        0x0000115a:    9800        ..      LDR      r0,[sp,#0]
        0x0000115c:    1c40        @.      ADDS     r0,r0,#1
        0x0000115e:    9000        ..      STR      r0,[sp,#0]
        0x00001160:    4907        .I      LDR      r1,[pc,#28] ; [0x1180] = 0x2710
        0x00001162:    9800        ..      LDR      r0,[sp,#0]
        0x00001164:    4288        .B      CMP      r0,r1
        0x00001166:    d3f8        ..      BCC      0x115a ; DrvSYS_Open + 150
        0x00001168:    2002        .       MOVS     r0,#2
        0x0000116a:    f000f80b    ....    BL       DrvSYS_SelectHCLKSource ; 0x1184
        0x0000116e:    2000        .       MOVS     r0,#0
        0x00001170:    e7b2        ..      B        0x10d8 ; DrvSYS_Open + 20
    $d
        0x00001172:    0000        ..      DCW    0
        0x00001174:    02faf080    ....    DCD    50000000
        0x00001178:    ffff9606    ....    DCD    4294940166
        0x0000117c:    50000200    ...P    DCD    1342177792
        0x00001180:    00002710    .'..    DCD    10000
    $t
    i.DrvSYS_SelectHCLKSource
    DrvSYS_SelectHCLKSource
        0x00001184:    b510        ..      PUSH     {r4,lr}
        0x00001186:    4604        .F      MOV      r4,r0
        0x00001188:    2c07        .,      CMP      r4,#7
        0x0000118a:    dc03        ..      BGT      0x1194 ; DrvSYS_SelectHCLKSource + 16
        0x0000118c:    2c03        .,      CMP      r4,#3
        0x0000118e:    dd03        ..      BLE      0x1198 ; DrvSYS_SelectHCLKSource + 20
        0x00001190:    2c07        .,      CMP      r4,#7
        0x00001192:    da01        ..      BGE      0x1198 ; DrvSYS_SelectHCLKSource + 20
        0x00001194:    4807        .H      LDR      r0,[pc,#28] ; [0x11b4] = 0xffff9603
        0x00001196:    bd10        ..      POP      {r4,pc}
        0x00001198:    4807        .H      LDR      r0,[pc,#28] ; [0x11b8] = 0x50000200
        0x0000119a:    6900        .i      LDR      r0,[r0,#0x10]
        0x0000119c:    08c0        ..      LSRS     r0,r0,#3
        0x0000119e:    00c0        ..      LSLS     r0,r0,#3
        0x000011a0:    0761        a.      LSLS     r1,r4,#29
        0x000011a2:    0f49        I.      LSRS     r1,r1,#29
        0x000011a4:    4308        .C      ORRS     r0,r0,r1
        0x000011a6:    4904        .I      LDR      r1,[pc,#16] ; [0x11b8] = 0x50000200
        0x000011a8:    6108        .a      STR      r0,[r1,#0x10]
        0x000011aa:    f000fc91    ....    BL       SystemCoreClockUpdate ; 0x1ad0
        0x000011ae:    2000        .       MOVS     r0,#0
        0x000011b0:    e7f1        ..      B        0x1196 ; DrvSYS_SelectHCLKSource + 18
    $d
        0x000011b2:    0000        ..      DCW    0
        0x000011b4:    ffff9603    ....    DCD    4294940163
        0x000011b8:    50000200    ...P    DCD    1342177792
    $t
    i.DrvSYS_SetPLLContent
    DrvSYS_SetPLLContent
        0x000011bc:    4911        .I      LDR      r1,[pc,#68] ; [0x1204] = 0x50000200
        0x000011be:    6a09        .j      LDR      r1,[r1,#0x20]
        0x000011c0:    0a49        I.      LSRS     r1,r1,#9
        0x000011c2:    0249        I.      LSLS     r1,r1,#9
        0x000011c4:    05c2        ..      LSLS     r2,r0,#23
        0x000011c6:    0dd2        ..      LSRS     r2,r2,#23
        0x000011c8:    4311        .C      ORRS     r1,r1,r2
        0x000011ca:    4a0e        .J      LDR      r2,[pc,#56] ; [0x1204] = 0x50000200
        0x000011cc:    6211        .b      STR      r1,[r2,#0x20]
        0x000011ce:    4611        .F      MOV      r1,r2
        0x000011d0:    6a09        .j      LDR      r1,[r1,#0x20]
        0x000011d2:    221f        ."      MOVS     r2,#0x1f
        0x000011d4:    0252        R.      LSLS     r2,r2,#9
        0x000011d6:    4391        .C      BICS     r1,r1,r2
        0x000011d8:    0a42        B.      LSRS     r2,r0,#9
        0x000011da:    0252        R.      LSLS     r2,r2,#9
        0x000011dc:    231f        .#      MOVS     r3,#0x1f
        0x000011de:    025b        [.      LSLS     r3,r3,#9
        0x000011e0:    401a        .@      ANDS     r2,r2,r3
        0x000011e2:    4311        .C      ORRS     r1,r1,r2
        0x000011e4:    4a07        .J      LDR      r2,[pc,#28] ; [0x1204] = 0x50000200
        0x000011e6:    6211        .b      STR      r1,[r2,#0x20]
        0x000011e8:    4611        .F      MOV      r1,r2
        0x000011ea:    6a09        .j      LDR      r1,[r1,#0x20]
        0x000011ec:    2203        ."      MOVS     r2,#3
        0x000011ee:    0392        ..      LSLS     r2,r2,#14
        0x000011f0:    4391        .C      BICS     r1,r1,r2
        0x000011f2:    0b82        ..      LSRS     r2,r0,#14
        0x000011f4:    0392        ..      LSLS     r2,r2,#14
        0x000011f6:    2303        .#      MOVS     r3,#3
        0x000011f8:    039b        ..      LSLS     r3,r3,#14
        0x000011fa:    401a        .@      ANDS     r2,r2,r3
        0x000011fc:    4311        .C      ORRS     r1,r1,r2
        0x000011fe:    4a01        .J      LDR      r2,[pc,#4] ; [0x1204] = 0x50000200
        0x00001200:    6211        .b      STR      r1,[r2,#0x20]
        0x00001202:    4770        pG      BX       lr
    $d
        0x00001204:    50000200    ...P    DCD    1342177792
    $t
    i.DrvUART_EnableInt
    DrvUART_EnableInt
        0x00001208:    b5f8        ..      PUSH     {r3-r7,lr}
        0x0000120a:    4606        .F      MOV      r6,r0
        0x0000120c:    460d        .F      MOV      r5,r1
        0x0000120e:    4617        .F      MOV      r7,r2
        0x00001210:    4838        8H      LDR      r0,[pc,#224] ; [0x12f4] = 0x40050000
        0x00001212:    1834        4.      ADDS     r4,r6,r0
        0x00001214:    6860        `h      LDR      r0,[r4,#4]
        0x00001216:    0840        @.      LSRS     r0,r0,#1
        0x00001218:    0040        @.      LSLS     r0,r0,#1
        0x0000121a:    07e9        ..      LSLS     r1,r5,#31
        0x0000121c:    0fc9        ..      LSRS     r1,r1,#31
        0x0000121e:    4308        .C      ORRS     r0,r0,r1
        0x00001220:    6060        ``      STR      r0,[r4,#4]
        0x00001222:    6860        `h      LDR      r0,[r4,#4]
        0x00001224:    2102        .!      MOVS     r1,#2
        0x00001226:    4388        .C      BICS     r0,r0,r1
        0x00001228:    4029        )@      ANDS     r1,r1,r5
        0x0000122a:    0849        I.      LSRS     r1,r1,#1
        0x0000122c:    0049        I.      LSLS     r1,r1,#1
        0x0000122e:    2202        ."      MOVS     r2,#2
        0x00001230:    4011        .@      ANDS     r1,r1,r2
        0x00001232:    4308        .C      ORRS     r0,r0,r1
        0x00001234:    6060        ``      STR      r0,[r4,#4]
        0x00001236:    6860        `h      LDR      r0,[r4,#4]
        0x00001238:    2104        .!      MOVS     r1,#4
        0x0000123a:    4388        .C      BICS     r0,r0,r1
        0x0000123c:    4029        )@      ANDS     r1,r1,r5
        0x0000123e:    0889        ..      LSRS     r1,r1,#2
        0x00001240:    0089        ..      LSLS     r1,r1,#2
        0x00001242:    2204        ."      MOVS     r2,#4
        0x00001244:    4011        .@      ANDS     r1,r1,r2
        0x00001246:    4308        .C      ORRS     r0,r0,r1
        0x00001248:    6060        ``      STR      r0,[r4,#4]
        0x0000124a:    6860        `h      LDR      r0,[r4,#4]
        0x0000124c:    2108        .!      MOVS     r1,#8
        0x0000124e:    4388        .C      BICS     r0,r0,r1
        0x00001250:    4029        )@      ANDS     r1,r1,r5
        0x00001252:    08c9        ..      LSRS     r1,r1,#3
        0x00001254:    00c9        ..      LSLS     r1,r1,#3
        0x00001256:    2208        ."      MOVS     r2,#8
        0x00001258:    4011        .@      ANDS     r1,r1,r2
        0x0000125a:    4308        .C      ORRS     r0,r0,r1
        0x0000125c:    6060        ``      STR      r0,[r4,#4]
        0x0000125e:    6860        `h      LDR      r0,[r4,#4]
        0x00001260:    0211        ..      LSLS     r1,r2,#8
        0x00001262:    4388        .C      BICS     r0,r0,r1
        0x00001264:    2110        .!      MOVS     r1,#0x10
        0x00001266:    4029        )@      ANDS     r1,r1,r5
        0x00001268:    0909        ..      LSRS     r1,r1,#4
        0x0000126a:    02c9        ..      LSLS     r1,r1,#11
        0x0000126c:    0212        ..      LSLS     r2,r2,#8
        0x0000126e:    4011        .@      ANDS     r1,r1,r2
        0x00001270:    4308        .C      ORRS     r0,r0,r1
        0x00001272:    6060        ``      STR      r0,[r4,#4]
        0x00001274:    6860        `h      LDR      r0,[r4,#4]
        0x00001276:    2110        .!      MOVS     r1,#0x10
        0x00001278:    4388        .C      BICS     r0,r0,r1
        0x0000127a:    4029        )@      ANDS     r1,r1,r5
        0x0000127c:    0909        ..      LSRS     r1,r1,#4
        0x0000127e:    0109        ..      LSLS     r1,r1,#4
        0x00001280:    2210        ."      MOVS     r2,#0x10
        0x00001282:    4011        .@      ANDS     r1,r1,r2
        0x00001284:    4308        .C      ORRS     r0,r0,r1
        0x00001286:    6060        ``      STR      r0,[r4,#4]
        0x00001288:    6860        `h      LDR      r0,[r4,#4]
        0x0000128a:    2120         !      MOVS     r1,#0x20
        0x0000128c:    4388        .C      BICS     r0,r0,r1
        0x0000128e:    4029        )@      ANDS     r1,r1,r5
        0x00001290:    0949        I.      LSRS     r1,r1,#5
        0x00001292:    0149        I.      LSLS     r1,r1,#5
        0x00001294:    2220         "      MOVS     r2,#0x20
        0x00001296:    4011        .@      ANDS     r1,r1,r2
        0x00001298:    4308        .C      ORRS     r0,r0,r1
        0x0000129a:    6060        ``      STR      r0,[r4,#4]
        0x0000129c:    6860        `h      LDR      r0,[r4,#4]
        0x0000129e:    2140        @!      MOVS     r1,#0x40
        0x000012a0:    4388        .C      BICS     r0,r0,r1
        0x000012a2:    4029        )@      ANDS     r1,r1,r5
        0x000012a4:    0989        ..      LSRS     r1,r1,#6
        0x000012a6:    0189        ..      LSLS     r1,r1,#6
        0x000012a8:    2240        @"      MOVS     r2,#0x40
        0x000012aa:    4011        .@      ANDS     r1,r1,r2
        0x000012ac:    4308        .C      ORRS     r0,r0,r1
        0x000012ae:    6060        ``      STR      r0,[r4,#4]
        0x000012b0:    6860        `h      LDR      r0,[r4,#4]
        0x000012b2:    0091        ..      LSLS     r1,r2,#2
        0x000012b4:    4388        .C      BICS     r0,r0,r1
        0x000012b6:    4029        )@      ANDS     r1,r1,r5
        0x000012b8:    0a09        ..      LSRS     r1,r1,#8
        0x000012ba:    0209        ..      LSLS     r1,r1,#8
        0x000012bc:    0092        ..      LSLS     r2,r2,#2
        0x000012be:    4011        .@      ANDS     r1,r1,r2
        0x000012c0:    4308        .C      ORRS     r0,r0,r1
        0x000012c2:    6060        ``      STR      r0,[r4,#4]
        0x000012c4:    2e00        ..      CMP      r6,#0
        0x000012c6:    d105        ..      BNE      0x12d4 ; DrvUART_EnableInt + 204
        0x000012c8:    480b        .H      LDR      r0,[pc,#44] ; [0x12f8] = 0x2000069c
        0x000012ca:    6007        .`      STR      r7,[r0,#0]
        0x000012cc:    200c        .       MOVS     r0,#0xc
        0x000012ce:    f000fb2b    ..+.    BL       NVIC_EnableIRQ ; 0x1928
        0x000012d2:    e00e        ..      B        0x12f2 ; DrvUART_EnableInt + 234
        0x000012d4:    2001        .       MOVS     r0,#1
        0x000012d6:    0500        ..      LSLS     r0,r0,#20
        0x000012d8:    4286        .B      CMP      r6,r0
        0x000012da:    d105        ..      BNE      0x12e8 ; DrvUART_EnableInt + 224
        0x000012dc:    4807        .H      LDR      r0,[pc,#28] ; [0x12fc] = 0x200006a0
        0x000012de:    6007        .`      STR      r7,[r0,#0]
        0x000012e0:    200d        .       MOVS     r0,#0xd
        0x000012e2:    f000fb21    ..!.    BL       NVIC_EnableIRQ ; 0x1928
        0x000012e6:    e004        ..      B        0x12f2 ; DrvUART_EnableInt + 234
        0x000012e8:    4805        .H      LDR      r0,[pc,#20] ; [0x1300] = 0x200006a4
        0x000012ea:    6007        .`      STR      r7,[r0,#0]
        0x000012ec:    200c        .       MOVS     r0,#0xc
        0x000012ee:    f000fb1b    ....    BL       NVIC_EnableIRQ ; 0x1928
        0x000012f2:    bdf8        ..      POP      {r3-r7,pc}
    $d
        0x000012f4:    40050000    ...@    DCD    1074069504
        0x000012f8:    2000069c    ...     DCD    536872604
        0x000012fc:    200006a0    ...     DCD    536872608
        0x00001300:    200006a4    ...     DCD    536872612
    $t
    i.DrvUART_Open
    DrvUART_Open
        0x00001304:    b5f8        ..      PUSH     {r3-r7,lr}
        0x00001306:    4606        .F      MOV      r6,r0
        0x00001308:    460c        .F      MOV      r4,r1
        0x0000130a:    2e00        ..      CMP      r6,#0
        0x0000130c:    d009        ..      BEQ      0x1322 ; DrvUART_Open + 30
        0x0000130e:    2001        .       MOVS     r0,#1
        0x00001310:    0500        ..      LSLS     r0,r0,#20
        0x00001312:    4286        .B      CMP      r6,r0
        0x00001314:    d005        ..      BEQ      0x1322 ; DrvUART_Open + 30
        0x00001316:    2041        A       MOVS     r0,#0x41
        0x00001318:    0380        ..      LSLS     r0,r0,#14
        0x0000131a:    4286        .B      CMP      r6,r0
        0x0000131c:    d001        ..      BEQ      0x1322 ; DrvUART_Open + 30
        0x0000131e:    4890        .H      LDR      r0,[pc,#576] ; [0x1560] = 0xffff9802
        0x00001320:    bdf8        ..      POP      {r3-r7,pc}
        0x00001322:    79a0        .y      LDRB     r0,[r4,#6]
        0x00001324:    2800        .(      CMP      r0,#0
        0x00001326:    d00e        ..      BEQ      0x1346 ; DrvUART_Open + 66
        0x00001328:    79a0        .y      LDRB     r0,[r4,#6]
        0x0000132a:    2803        .(      CMP      r0,#3
        0x0000132c:    d00b        ..      BEQ      0x1346 ; DrvUART_Open + 66
        0x0000132e:    79a0        .y      LDRB     r0,[r4,#6]
        0x00001330:    2801        .(      CMP      r0,#1
        0x00001332:    d008        ..      BEQ      0x1346 ; DrvUART_Open + 66
        0x00001334:    79a0        .y      LDRB     r0,[r4,#6]
        0x00001336:    2805        .(      CMP      r0,#5
        0x00001338:    d005        ..      BEQ      0x1346 ; DrvUART_Open + 66
        0x0000133a:    79a0        .y      LDRB     r0,[r4,#6]
        0x0000133c:    2807        .(      CMP      r0,#7
        0x0000133e:    d002        ..      BEQ      0x1346 ; DrvUART_Open + 66
        0x00001340:    4887        .H      LDR      r0,[pc,#540] ; [0x1560] = 0xffff9802
        0x00001342:    1c40        @.      ADDS     r0,r0,#1
        0x00001344:    e7ec        ..      B        0x1320 ; DrvUART_Open + 28
        0x00001346:    7920         y      LDRB     r0,[r4,#4]
        0x00001348:    2800        .(      CMP      r0,#0
        0x0000134a:    d00b        ..      BEQ      0x1364 ; DrvUART_Open + 96
        0x0000134c:    7920         y      LDRB     r0,[r4,#4]
        0x0000134e:    2801        .(      CMP      r0,#1
        0x00001350:    d008        ..      BEQ      0x1364 ; DrvUART_Open + 96
        0x00001352:    7920         y      LDRB     r0,[r4,#4]
        0x00001354:    2802        .(      CMP      r0,#2
        0x00001356:    d005        ..      BEQ      0x1364 ; DrvUART_Open + 96
        0x00001358:    7920         y      LDRB     r0,[r4,#4]
        0x0000135a:    2803        .(      CMP      r0,#3
        0x0000135c:    d002        ..      BEQ      0x1364 ; DrvUART_Open + 96
        0x0000135e:    4880        .H      LDR      r0,[pc,#512] ; [0x1560] = 0xffff9802
        0x00001360:    1c80        ..      ADDS     r0,r0,#2
        0x00001362:    e7dd        ..      B        0x1320 ; DrvUART_Open + 28
        0x00001364:    7960        `y      LDRB     r0,[r4,#5]
        0x00001366:    2800        .(      CMP      r0,#0
        0x00001368:    d008        ..      BEQ      0x137c ; DrvUART_Open + 120
        0x0000136a:    7960        `y      LDRB     r0,[r4,#5]
        0x0000136c:    2801        .(      CMP      r0,#1
        0x0000136e:    d005        ..      BEQ      0x137c ; DrvUART_Open + 120
        0x00001370:    7960        `y      LDRB     r0,[r4,#5]
        0x00001372:    2801        .(      CMP      r0,#1
        0x00001374:    d002        ..      BEQ      0x137c ; DrvUART_Open + 120
        0x00001376:    487a        zH      LDR      r0,[pc,#488] ; [0x1560] = 0xffff9802
        0x00001378:    1cc0        ..      ADDS     r0,r0,#3
        0x0000137a:    e7d1        ..      B        0x1320 ; DrvUART_Open + 28
        0x0000137c:    79e0        .y      LDRB     r0,[r4,#7]
        0x0000137e:    2800        .(      CMP      r0,#0
        0x00001380:    d014        ..      BEQ      0x13ac ; DrvUART_Open + 168
        0x00001382:    79e0        .y      LDRB     r0,[r4,#7]
        0x00001384:    2801        .(      CMP      r0,#1
        0x00001386:    d011        ..      BEQ      0x13ac ; DrvUART_Open + 168
        0x00001388:    79e0        .y      LDRB     r0,[r4,#7]
        0x0000138a:    2802        .(      CMP      r0,#2
        0x0000138c:    d00e        ..      BEQ      0x13ac ; DrvUART_Open + 168
        0x0000138e:    79e0        .y      LDRB     r0,[r4,#7]
        0x00001390:    2803        .(      CMP      r0,#3
        0x00001392:    d00b        ..      BEQ      0x13ac ; DrvUART_Open + 168
        0x00001394:    79e0        .y      LDRB     r0,[r4,#7]
        0x00001396:    2804        .(      CMP      r0,#4
        0x00001398:    d008        ..      BEQ      0x13ac ; DrvUART_Open + 168
        0x0000139a:    79e0        .y      LDRB     r0,[r4,#7]
        0x0000139c:    2805        .(      CMP      r0,#5
        0x0000139e:    d005        ..      BEQ      0x13ac ; DrvUART_Open + 168
        0x000013a0:    79e0        .y      LDRB     r0,[r4,#7]
        0x000013a2:    2806        .(      CMP      r0,#6
        0x000013a4:    d002        ..      BEQ      0x13ac ; DrvUART_Open + 168
        0x000013a6:    486e        nH      LDR      r0,[pc,#440] ; [0x1560] = 0xffff9802
        0x000013a8:    1d00        ..      ADDS     r0,r0,#4
        0x000013aa:    e7b9        ..      B        0x1320 ; DrvUART_Open + 28
        0x000013ac:    2e00        ..      CMP      r6,#0
        0x000013ae:    d11a        ..      BNE      0x13e6 ; DrvUART_Open + 226
        0x000013b0:    2005        .       MOVS     r0,#5
        0x000013b2:    0700        ..      LSLS     r0,r0,#28
        0x000013b4:    68c0        .h      LDR      r0,[r0,#0xc]
        0x000013b6:    2101        .!      MOVS     r1,#1
        0x000013b8:    0409        ..      LSLS     r1,r1,#16
        0x000013ba:    4388        .C      BICS     r0,r0,r1
        0x000013bc:    1840        @.      ADDS     r0,r0,r1
        0x000013be:    2105        .!      MOVS     r1,#5
        0x000013c0:    0709        ..      LSLS     r1,r1,#28
        0x000013c2:    60c8        .`      STR      r0,[r1,#0xc]
        0x000013c4:    4608        .F      MOV      r0,r1
        0x000013c6:    68c0        .h      LDR      r0,[r0,#0xc]
        0x000013c8:    2101        .!      MOVS     r1,#1
        0x000013ca:    0409        ..      LSLS     r1,r1,#16
        0x000013cc:    4388        .C      BICS     r0,r0,r1
        0x000013ce:    2105        .!      MOVS     r1,#5
        0x000013d0:    0709        ..      LSLS     r1,r1,#28
        0x000013d2:    60c8        .`      STR      r0,[r1,#0xc]
        0x000013d4:    4863        cH      LDR      r0,[pc,#396] ; [0x1564] = 0x50000200
        0x000013d6:    6880        .h      LDR      r0,[r0,#8]
        0x000013d8:    2101        .!      MOVS     r1,#1
        0x000013da:    0409        ..      LSLS     r1,r1,#16
        0x000013dc:    4388        .C      BICS     r0,r0,r1
        0x000013de:    1840        @.      ADDS     r0,r0,r1
        0x000013e0:    4960        `I      LDR      r1,[pc,#384] ; [0x1564] = 0x50000200
        0x000013e2:    6088        .`      STR      r0,[r1,#8]
        0x000013e4:    e035        5.      B        0x1452 ; DrvUART_Open + 334
        0x000013e6:    2001        .       MOVS     r0,#1
        0x000013e8:    0500        ..      LSLS     r0,r0,#20
        0x000013ea:    4286        .B      CMP      r6,r0
        0x000013ec:    d117        ..      BNE      0x141e ; DrvUART_Open + 282
        0x000013ee:    2005        .       MOVS     r0,#5
        0x000013f0:    0700        ..      LSLS     r0,r0,#28
        0x000013f2:    68c0        .h      LDR      r0,[r0,#0xc]
        0x000013f4:    10f1        ..      ASRS     r1,r6,#3
        0x000013f6:    4388        .C      BICS     r0,r0,r1
        0x000013f8:    1840        @.      ADDS     r0,r0,r1
        0x000013fa:    2105        .!      MOVS     r1,#5
        0x000013fc:    0709        ..      LSLS     r1,r1,#28
        0x000013fe:    60c8        .`      STR      r0,[r1,#0xc]
        0x00001400:    4608        .F      MOV      r0,r1
        0x00001402:    68c0        .h      LDR      r0,[r0,#0xc]
        0x00001404:    10f1        ..      ASRS     r1,r6,#3
        0x00001406:    4388        .C      BICS     r0,r0,r1
        0x00001408:    2105        .!      MOVS     r1,#5
        0x0000140a:    0709        ..      LSLS     r1,r1,#28
        0x0000140c:    60c8        .`      STR      r0,[r1,#0xc]
        0x0000140e:    4855        UH      LDR      r0,[pc,#340] ; [0x1564] = 0x50000200
        0x00001410:    6880        .h      LDR      r0,[r0,#8]
        0x00001412:    10f1        ..      ASRS     r1,r6,#3
        0x00001414:    4388        .C      BICS     r0,r0,r1
        0x00001416:    1840        @.      ADDS     r0,r0,r1
        0x00001418:    4952        RI      LDR      r1,[pc,#328] ; [0x1564] = 0x50000200
        0x0000141a:    6088        .`      STR      r0,[r1,#8]
        0x0000141c:    e019        ..      B        0x1452 ; DrvUART_Open + 334
        0x0000141e:    2005        .       MOVS     r0,#5
        0x00001420:    0700        ..      LSLS     r0,r0,#28
        0x00001422:    68c0        .h      LDR      r0,[r0,#0xc]
        0x00001424:    2101        .!      MOVS     r1,#1
        0x00001426:    0489        ..      LSLS     r1,r1,#18
        0x00001428:    4388        .C      BICS     r0,r0,r1
        0x0000142a:    1840        @.      ADDS     r0,r0,r1
        0x0000142c:    2105        .!      MOVS     r1,#5
        0x0000142e:    0709        ..      LSLS     r1,r1,#28
        0x00001430:    60c8        .`      STR      r0,[r1,#0xc]
        0x00001432:    4608        .F      MOV      r0,r1
        0x00001434:    68c0        .h      LDR      r0,[r0,#0xc]
        0x00001436:    2101        .!      MOVS     r1,#1
        0x00001438:    0489        ..      LSLS     r1,r1,#18
        0x0000143a:    4388        .C      BICS     r0,r0,r1
        0x0000143c:    2105        .!      MOVS     r1,#5
        0x0000143e:    0709        ..      LSLS     r1,r1,#28
        0x00001440:    60c8        .`      STR      r0,[r1,#0xc]
        0x00001442:    4848        HH      LDR      r0,[pc,#288] ; [0x1564] = 0x50000200
        0x00001444:    6880        .h      LDR      r0,[r0,#8]
        0x00001446:    2101        .!      MOVS     r1,#1
        0x00001448:    0489        ..      LSLS     r1,r1,#18
        0x0000144a:    4388        .C      BICS     r0,r0,r1
        0x0000144c:    1840        @.      ADDS     r0,r0,r1
        0x0000144e:    4945        EI      LDR      r1,[pc,#276] ; [0x1564] = 0x50000200
        0x00001450:    6088        .`      STR      r0,[r1,#8]
        0x00001452:    4845        EH      LDR      r0,[pc,#276] ; [0x1568] = 0x40050000
        0x00001454:    1835        5.      ADDS     r5,r6,r0
        0x00001456:    68a8        .h      LDR      r0,[r5,#8]
        0x00001458:    2104        .!      MOVS     r1,#4
        0x0000145a:    4388        .C      BICS     r0,r0,r1
        0x0000145c:    1d00        ..      ADDS     r0,r0,#4
        0x0000145e:    60a8        .`      STR      r0,[r5,#8]
        0x00001460:    68a8        .h      LDR      r0,[r5,#8]
        0x00001462:    2102        .!      MOVS     r1,#2
        0x00001464:    4388        .C      BICS     r0,r0,r1
        0x00001466:    1c80        ..      ADDS     r0,r0,#2
        0x00001468:    60a8        .`      STR      r0,[r5,#8]
        0x0000146a:    68a8        .h      LDR      r0,[r5,#8]
        0x0000146c:    21f0        .!      MOVS     r1,#0xf0
        0x0000146e:    4388        .C      BICS     r0,r0,r1
        0x00001470:    79e1        .y      LDRB     r1,[r4,#7]
        0x00001472:    0109        ..      LSLS     r1,r1,#4
        0x00001474:    22f0        ."      MOVS     r2,#0xf0
        0x00001476:    4011        .@      ANDS     r1,r1,r2
        0x00001478:    4308        .C      ORRS     r0,r0,r1
        0x0000147a:    60a8        .`      STR      r0,[r5,#8]
        0x0000147c:    68e8        .h      LDR      r0,[r5,#0xc]
        0x0000147e:    2120         !      MOVS     r1,#0x20
        0x00001480:    4388        .C      BICS     r0,r0,r1
        0x00001482:    79a1        .y      LDRB     r1,[r4,#6]
        0x00001484:    2204        ."      MOVS     r2,#4
        0x00001486:    4011        .@      ANDS     r1,r1,r2
        0x00001488:    0889        ..      LSRS     r1,r1,#2
        0x0000148a:    0149        I.      LSLS     r1,r1,#5
        0x0000148c:    2220         "      MOVS     r2,#0x20
        0x0000148e:    4011        .@      ANDS     r1,r1,r2
        0x00001490:    4308        .C      ORRS     r0,r0,r1
        0x00001492:    60e8        .`      STR      r0,[r5,#0xc]
        0x00001494:    68e8        .h      LDR      r0,[r5,#0xc]
        0x00001496:    2110        .!      MOVS     r1,#0x10
        0x00001498:    4388        .C      BICS     r0,r0,r1
        0x0000149a:    79a1        .y      LDRB     r1,[r4,#6]
        0x0000149c:    2202        ."      MOVS     r2,#2
        0x0000149e:    4011        .@      ANDS     r1,r1,r2
        0x000014a0:    0849        I.      LSRS     r1,r1,#1
        0x000014a2:    0109        ..      LSLS     r1,r1,#4
        0x000014a4:    2210        ."      MOVS     r2,#0x10
        0x000014a6:    4011        .@      ANDS     r1,r1,r2
        0x000014a8:    4308        .C      ORRS     r0,r0,r1
        0x000014aa:    60e8        .`      STR      r0,[r5,#0xc]
        0x000014ac:    68e8        .h      LDR      r0,[r5,#0xc]
        0x000014ae:    2108        .!      MOVS     r1,#8
        0x000014b0:    4388        .C      BICS     r0,r0,r1
        0x000014b2:    79a1        .y      LDRB     r1,[r4,#6]
        0x000014b4:    00c9        ..      LSLS     r1,r1,#3
        0x000014b6:    2208        ."      MOVS     r2,#8
        0x000014b8:    4011        .@      ANDS     r1,r1,r2
        0x000014ba:    4308        .C      ORRS     r0,r0,r1
        0x000014bc:    60e8        .`      STR      r0,[r5,#0xc]
        0x000014be:    68e8        .h      LDR      r0,[r5,#0xc]
        0x000014c0:    0880        ..      LSRS     r0,r0,#2
        0x000014c2:    0080        ..      LSLS     r0,r0,#2
        0x000014c4:    7921        !y      LDRB     r1,[r4,#4]
        0x000014c6:    0789        ..      LSLS     r1,r1,#30
        0x000014c8:    0f89        ..      LSRS     r1,r1,#30
        0x000014ca:    4308        .C      ORRS     r0,r0,r1
        0x000014cc:    60e8        .`      STR      r0,[r5,#0xc]
        0x000014ce:    68e8        .h      LDR      r0,[r5,#0xc]
        0x000014d0:    2104        .!      MOVS     r1,#4
        0x000014d2:    4388        .C      BICS     r0,r0,r1
        0x000014d4:    7961        ay      LDRB     r1,[r4,#5]
        0x000014d6:    0089        ..      LSLS     r1,r1,#2
        0x000014d8:    2204        ."      MOVS     r2,#4
        0x000014da:    4011        .@      ANDS     r1,r1,r2
        0x000014dc:    4308        .C      ORRS     r0,r0,r1
        0x000014de:    60e8        .`      STR      r0,[r5,#0xc]
        0x000014e0:    6a28        (j      LDR      r0,[r5,#0x20]
        0x000014e2:    0a00        ..      LSRS     r0,r0,#8
        0x000014e4:    0200        ..      LSLS     r0,r0,#8
        0x000014e6:    7a21        !z      LDRB     r1,[r4,#8]
        0x000014e8:    4308        .C      ORRS     r0,r0,r1
        0x000014ea:    6228        (b      STR      r0,[r5,#0x20]
        0x000014ec:    481d        .H      LDR      r0,[pc,#116] ; [0x1564] = 0x50000200
        0x000014ee:    6800        .h      LDR      r0,[r0,#0]
        0x000014f0:    07c0        ..      LSLS     r0,r0,#31
        0x000014f2:    0fc0        ..      LSRS     r0,r0,#31
        0x000014f4:    2800        .(      CMP      r0,#0
        0x000014f6:    d007        ..      BEQ      0x1508 ; DrvUART_Open + 516
        0x000014f8:    481a        .H      LDR      r0,[pc,#104] ; [0x1564] = 0x50000200
        0x000014fa:    6940        @i      LDR      r0,[r0,#0x14]
        0x000014fc:    2103        .!      MOVS     r1,#3
        0x000014fe:    0609        ..      LSLS     r1,r1,#24
        0x00001500:    4388        .C      BICS     r0,r0,r1
        0x00001502:    4918        .I      LDR      r1,[pc,#96] ; [0x1564] = 0x50000200
        0x00001504:    6148        Ha      STR      r0,[r1,#0x14]
        0x00001506:    e022        ".      B        0x154e ; DrvUART_Open + 586
        0x00001508:    4816        .H      LDR      r0,[pc,#88] ; [0x1564] = 0x50000200
        0x0000150a:    6a00        .j      LDR      r0,[r0,#0x20]
        0x0000150c:    03c0        ..      LSLS     r0,r0,#15
        0x0000150e:    0fc0        ..      LSRS     r0,r0,#31
        0x00001510:    2800        .(      CMP      r0,#0
        0x00001512:    d10a        ..      BNE      0x152a ; DrvUART_Open + 550
        0x00001514:    4813        .H      LDR      r0,[pc,#76] ; [0x1564] = 0x50000200
        0x00001516:    6940        @i      LDR      r0,[r0,#0x14]
        0x00001518:    2103        .!      MOVS     r1,#3
        0x0000151a:    0609        ..      LSLS     r1,r1,#24
        0x0000151c:    4388        .C      BICS     r0,r0,r1
        0x0000151e:    2101        .!      MOVS     r1,#1
        0x00001520:    0609        ..      LSLS     r1,r1,#24
        0x00001522:    1840        @.      ADDS     r0,r0,r1
        0x00001524:    490f        .I      LDR      r1,[pc,#60] ; [0x1564] = 0x50000200
        0x00001526:    6148        Ha      STR      r0,[r1,#0x14]
        0x00001528:    e011        ..      B        0x154e ; DrvUART_Open + 586
        0x0000152a:    480e        .H      LDR      r0,[pc,#56] ; [0x1564] = 0x50000200
        0x0000152c:    6800        .h      LDR      r0,[r0,#0]
        0x0000152e:    0740        @.      LSLS     r0,r0,#29
        0x00001530:    0fc0        ..      LSRS     r0,r0,#31
        0x00001532:    2800        .(      CMP      r0,#0
        0x00001534:    d008        ..      BEQ      0x1548 ; DrvUART_Open + 580
        0x00001536:    480b        .H      LDR      r0,[pc,#44] ; [0x1564] = 0x50000200
        0x00001538:    6940        @i      LDR      r0,[r0,#0x14]
        0x0000153a:    2103        .!      MOVS     r1,#3
        0x0000153c:    0609        ..      LSLS     r1,r1,#24
        0x0000153e:    4388        .C      BICS     r0,r0,r1
        0x00001540:    1840        @.      ADDS     r0,r0,r1
        0x00001542:    4908        .I      LDR      r1,[pc,#32] ; [0x1564] = 0x50000200
        0x00001544:    6148        Ha      STR      r0,[r1,#0x14]
        0x00001546:    e002        ..      B        0x154e ; DrvUART_Open + 586
        0x00001548:    4805        .H      LDR      r0,[pc,#20] ; [0x1560] = 0xffff9802
        0x0000154a:    1d80        ..      ADDS     r0,r0,#6
        0x0000154c:    e6e8        ..      B        0x1320 ; DrvUART_Open + 28
        0x0000154e:    f000f8b9    ....    BL       GetUartClk ; 0x16c4
        0x00001552:    4607        .F      MOV      r7,r0
        0x00001554:    4632        2F      MOV      r2,r6
        0x00001556:    6821        !h      LDR      r1,[r4,#0]
        0x00001558:    f7fff884    ....    BL       BaudRateCalculator ; 0x664
        0x0000155c:    2000        .       MOVS     r0,#0
        0x0000155e:    e6df        ..      B        0x1320 ; DrvUART_Open + 28
    $d
        0x00001560:    ffff9802    ....    DCD    4294940674
        0x00001564:    50000200    ...P    DCD    1342177792
        0x00001568:    40050000    ...@    DCD    1074069504
    $t
    i.DrvUART_Read
    DrvUART_Read
        0x0000156c:    b570        p.      PUSH     {r4-r6,lr}
        0x0000156e:    4603        .F      MOV      r3,r0
        0x00001570:    460c        .F      MOV      r4,r1
        0x00001572:    480c        .H      LDR      r0,[pc,#48] ; [0x15a4] = 0x40050000
        0x00001574:    181d        ..      ADDS     r5,r3,r0
        0x00001576:    2100        .!      MOVS     r1,#0
        0x00001578:    e010        ..      B        0x159c ; DrvUART_Read + 48
        0x0000157a:    2600        .&      MOVS     r6,#0
        0x0000157c:    e006        ..      B        0x158c ; DrvUART_Read + 32
        0x0000157e:    1c76        v.      ADDS     r6,r6,#1
        0x00001580:    2001        .       MOVS     r0,#1
        0x00001582:    0780        ..      LSLS     r0,r0,#30
        0x00001584:    4286        .B      CMP      r6,r0
        0x00001586:    d301        ..      BCC      0x158c ; DrvUART_Read + 32
        0x00001588:    4807        .H      LDR      r0,[pc,#28] ; [0x15a8] = 0xffff9801
        0x0000158a:    bd70        p.      POP      {r4-r6,pc}
        0x0000158c:    69a8        .i      LDR      r0,[r5,#0x18]
        0x0000158e:    0440        @.      LSLS     r0,r0,#17
        0x00001590:    0fc0        ..      LSRS     r0,r0,#31
        0x00001592:    2800        .(      CMP      r0,#0
        0x00001594:    d1f3        ..      BNE      0x157e ; DrvUART_Read + 18
        0x00001596:    6828        (h      LDR      r0,[r5,#0]
        0x00001598:    5460        `T      STRB     r0,[r4,r1]
        0x0000159a:    1c49        I.      ADDS     r1,r1,#1
        0x0000159c:    4291        .B      CMP      r1,r2
        0x0000159e:    d3ec        ..      BCC      0x157a ; DrvUART_Read + 14
        0x000015a0:    2000        .       MOVS     r0,#0
        0x000015a2:    e7f2        ..      B        0x158a ; DrvUART_Read + 30
    $d
        0x000015a4:    40050000    ...@    DCD    1074069504
        0x000015a8:    ffff9801    ....    DCD    4294940673
    $t
    i.DrvUART_Write
    DrvUART_Write
        0x000015ac:    b570        p.      PUSH     {r4-r6,lr}
        0x000015ae:    4603        .F      MOV      r3,r0
        0x000015b0:    460c        .F      MOV      r4,r1
        0x000015b2:    480c        .H      LDR      r0,[pc,#48] ; [0x15e4] = 0x40050000
        0x000015b4:    181d        ..      ADDS     r5,r3,r0
        0x000015b6:    2100        .!      MOVS     r1,#0
        0x000015b8:    e010        ..      B        0x15dc ; DrvUART_Write + 48
        0x000015ba:    2600        .&      MOVS     r6,#0
        0x000015bc:    e006        ..      B        0x15cc ; DrvUART_Write + 32
        0x000015be:    1c76        v.      ADDS     r6,r6,#1
        0x000015c0:    2001        .       MOVS     r0,#1
        0x000015c2:    0780        ..      LSLS     r0,r0,#30
        0x000015c4:    4286        .B      CMP      r6,r0
        0x000015c6:    d301        ..      BCC      0x15cc ; DrvUART_Write + 32
        0x000015c8:    4807        .H      LDR      r0,[pc,#28] ; [0x15e8] = 0xffff9801
        0x000015ca:    bd70        p.      POP      {r4-r6,pc}
        0x000015cc:    69a8        .i      LDR      r0,[r5,#0x18]
        0x000015ce:    00c0        ..      LSLS     r0,r0,#3
        0x000015d0:    0fc0        ..      LSRS     r0,r0,#31
        0x000015d2:    2800        .(      CMP      r0,#0
        0x000015d4:    d0f3        ..      BEQ      0x15be ; DrvUART_Write + 18
        0x000015d6:    5c60        `\      LDRB     r0,[r4,r1]
        0x000015d8:    6028        (`      STR      r0,[r5,#0]
        0x000015da:    1c49        I.      ADDS     r1,r1,#1
        0x000015dc:    4291        .B      CMP      r1,r2
        0x000015de:    d3ec        ..      BCC      0x15ba ; DrvUART_Write + 14
        0x000015e0:    2000        .       MOVS     r0,#0
        0x000015e2:    e7f2        ..      B        0x15ca ; DrvUART_Write + 30
    $d
        0x000015e4:    40050000    ...@    DCD    1074069504
        0x000015e8:    ffff9801    ....    DCD    4294940673
    $t
    i.EINT0_IRQHandler
    EINT0_IRQHandler
        0x000015ec:    b510        ..      PUSH     {r4,lr}
        0x000015ee:    2001        .       MOVS     r0,#1
        0x000015f0:    0380        ..      LSLS     r0,r0,#14
        0x000015f2:    4905        .I      LDR      r1,[pc,#20] ; [0x1608] = 0x50004040
        0x000015f4:    6208        .b      STR      r0,[r1,#0x20]
        0x000015f6:    4805        .H      LDR      r0,[pc,#20] ; [0x160c] = 0x200006b0
        0x000015f8:    6800        .h      LDR      r0,[r0,#0]
        0x000015fa:    2800        .(      CMP      r0,#0
        0x000015fc:    d002        ..      BEQ      0x1604 ; EINT0_IRQHandler + 24
        0x000015fe:    4803        .H      LDR      r0,[pc,#12] ; [0x160c] = 0x200006b0
        0x00001600:    6800        .h      LDR      r0,[r0,#0]
        0x00001602:    4780        .G      BLX      r0
        0x00001604:    bd10        ..      POP      {r4,pc}
    $d
        0x00001606:    0000        ..      DCW    0
        0x00001608:    50004040    @@.P    DCD    1342193728
        0x0000160c:    200006b0    ...     DCD    536872624
    $t
    i.EINT1_IRQHandler
    EINT1_IRQHandler
        0x00001610:    b510        ..      PUSH     {r4,lr}
        0x00001612:    2001        .       MOVS     r0,#1
        0x00001614:    03c0        ..      LSLS     r0,r0,#15
        0x00001616:    4905        .I      LDR      r1,[pc,#20] ; [0x162c] = 0x50004040
        0x00001618:    6208        .b      STR      r0,[r1,#0x20]
        0x0000161a:    4805        .H      LDR      r0,[pc,#20] ; [0x1630] = 0x200006b4
        0x0000161c:    6800        .h      LDR      r0,[r0,#0]
        0x0000161e:    2800        .(      CMP      r0,#0
        0x00001620:    d002        ..      BEQ      0x1628 ; EINT1_IRQHandler + 24
        0x00001622:    4803        .H      LDR      r0,[pc,#12] ; [0x1630] = 0x200006b4
        0x00001624:    6800        .h      LDR      r0,[r0,#0]
        0x00001626:    4780        .G      BLX      r0
        0x00001628:    bd10        ..      POP      {r4,pc}
    $d
        0x0000162a:    0000        ..      DCW    0
        0x0000162c:    50004040    @@.P    DCD    1342193728
        0x00001630:    200006b4    ...     DCD    536872628
    $t
    i.GPAB_IRQHandler
    GPAB_IRQHandler
        0x00001634:    b51c        ..      PUSH     {r2-r4,lr}
        0x00001636:    480e        .H      LDR      r0,[pc,#56] ; [0x1670] = 0x50004000
        0x00001638:    6a00        .j      LDR      r0,[r0,#0x20]
        0x0000163a:    9001        ..      STR      r0,[sp,#4]
        0x0000163c:    480c        .H      LDR      r0,[pc,#48] ; [0x1670] = 0x50004000
        0x0000163e:    3040        @0      ADDS     r0,r0,#0x40
        0x00001640:    6a00        .j      LDR      r0,[r0,#0x20]
        0x00001642:    9000        ..      STR      r0,[sp,#0]
        0x00001644:    2103        .!      MOVS     r1,#3
        0x00001646:    0389        ..      LSLS     r1,r1,#14
        0x00001648:    9800        ..      LDR      r0,[sp,#0]
        0x0000164a:    4388        .C      BICS     r0,r0,r1
        0x0000164c:    9000        ..      STR      r0,[sp,#0]
        0x0000164e:    4908        .I      LDR      r1,[pc,#32] ; [0x1670] = 0x50004000
        0x00001650:    9801        ..      LDR      r0,[sp,#4]
        0x00001652:    6208        .b      STR      r0,[r1,#0x20]
        0x00001654:    4906        .I      LDR      r1,[pc,#24] ; [0x1670] = 0x50004000
        0x00001656:    3140        @1      ADDS     r1,r1,#0x40
        0x00001658:    9800        ..      LDR      r0,[sp,#0]
        0x0000165a:    6208        .b      STR      r0,[r1,#0x20]
        0x0000165c:    4805        .H      LDR      r0,[pc,#20] ; [0x1674] = 0x200006a8
        0x0000165e:    6800        .h      LDR      r0,[r0,#0]
        0x00001660:    2800        .(      CMP      r0,#0
        0x00001662:    d004        ..      BEQ      0x166e ; GPAB_IRQHandler + 58
        0x00001664:    4a03        .J      LDR      r2,[pc,#12] ; [0x1674] = 0x200006a8
        0x00001666:    9900        ..      LDR      r1,[sp,#0]
        0x00001668:    9801        ..      LDR      r0,[sp,#4]
        0x0000166a:    6812        .h      LDR      r2,[r2,#0]
        0x0000166c:    4790        .G      BLX      r2
        0x0000166e:    bd1c        ..      POP      {r2-r4,pc}
    $d
        0x00001670:    50004000    .@.P    DCD    1342193664
        0x00001674:    200006a8    ...     DCD    536872616
    $t
    i.GPCDE_IRQHandler
    GPCDE_IRQHandler
        0x00001678:    b50e        ..      PUSH     {r1-r3,lr}
        0x0000167a:    4810        .H      LDR      r0,[pc,#64] ; [0x16bc] = 0x50004080
        0x0000167c:    6a00        .j      LDR      r0,[r0,#0x20]
        0x0000167e:    9002        ..      STR      r0,[sp,#8]
        0x00001680:    480e        .H      LDR      r0,[pc,#56] ; [0x16bc] = 0x50004080
        0x00001682:    3040        @0      ADDS     r0,r0,#0x40
        0x00001684:    6a00        .j      LDR      r0,[r0,#0x20]
        0x00001686:    9001        ..      STR      r0,[sp,#4]
        0x00001688:    480c        .H      LDR      r0,[pc,#48] ; [0x16bc] = 0x50004080
        0x0000168a:    3080        .0      ADDS     r0,r0,#0x80
        0x0000168c:    6a00        .j      LDR      r0,[r0,#0x20]
        0x0000168e:    9000        ..      STR      r0,[sp,#0]
        0x00001690:    490a        .I      LDR      r1,[pc,#40] ; [0x16bc] = 0x50004080
        0x00001692:    9802        ..      LDR      r0,[sp,#8]
        0x00001694:    6208        .b      STR      r0,[r1,#0x20]
        0x00001696:    4909        .I      LDR      r1,[pc,#36] ; [0x16bc] = 0x50004080
        0x00001698:    3140        @1      ADDS     r1,r1,#0x40
        0x0000169a:    9801        ..      LDR      r0,[sp,#4]
        0x0000169c:    6208        .b      STR      r0,[r1,#0x20]
        0x0000169e:    4907        .I      LDR      r1,[pc,#28] ; [0x16bc] = 0x50004080
        0x000016a0:    3180        .1      ADDS     r1,r1,#0x80
        0x000016a2:    9800        ..      LDR      r0,[sp,#0]
        0x000016a4:    6208        .b      STR      r0,[r1,#0x20]
        0x000016a6:    4806        .H      LDR      r0,[pc,#24] ; [0x16c0] = 0x200006ac
        0x000016a8:    6800        .h      LDR      r0,[r0,#0]
        0x000016aa:    2800        .(      CMP      r0,#0
        0x000016ac:    d005        ..      BEQ      0x16ba ; GPCDE_IRQHandler + 66
        0x000016ae:    4b04        .K      LDR      r3,[pc,#16] ; [0x16c0] = 0x200006ac
        0x000016b0:    9a00        ..      LDR      r2,[sp,#0]
        0x000016b2:    9901        ..      LDR      r1,[sp,#4]
        0x000016b4:    9802        ..      LDR      r0,[sp,#8]
        0x000016b6:    681b        .h      LDR      r3,[r3,#0]
        0x000016b8:    4798        .G      BLX      r3
        0x000016ba:    bd0e        ..      POP      {r1-r3,pc}
    $d
        0x000016bc:    50004080    .@.P    DCD    1342193792
        0x000016c0:    200006ac    ...     DCD    536872620
    $t
    i.GetUartClk
    GetUartClk
        0x000016c4:    b570        p.      PUSH     {r4-r6,lr}
        0x000016c6:    2500        .%      MOVS     r5,#0
        0x000016c8:    480f        .H      LDR      r0,[pc,#60] ; [0x1708] = 0x50000200
        0x000016ca:    6940        @i      LDR      r0,[r0,#0x14]
        0x000016cc:    0180        ..      LSLS     r0,r0,#6
        0x000016ce:    0f80        ..      LSRS     r0,r0,#30
        0x000016d0:    2800        .(      CMP      r0,#0
        0x000016d2:    d103        ..      BNE      0x16dc ; GetUartClk + 24
        0x000016d4:    f7fffc4c    ..L.    BL       DrvSYS_GetExtClockFreq ; 0xf70
        0x000016d8:    4605        .F      MOV      r5,r0
        0x000016da:    e012        ..      B        0x1702 ; GetUartClk + 62
        0x000016dc:    480a        .H      LDR      r0,[pc,#40] ; [0x1708] = 0x50000200
        0x000016de:    6940        @i      LDR      r0,[r0,#0x14]
        0x000016e0:    0180        ..      LSLS     r0,r0,#6
        0x000016e2:    0f80        ..      LSRS     r0,r0,#30
        0x000016e4:    2801        .(      CMP      r0,#1
        0x000016e6:    d10b        ..      BNE      0x1700 ; GetUartClk + 60
        0x000016e8:    4807        .H      LDR      r0,[pc,#28] ; [0x1708] = 0x50000200
        0x000016ea:    6980        .i      LDR      r0,[r0,#0x18]
        0x000016ec:    0500        ..      LSLS     r0,r0,#20
        0x000016ee:    0f04        ..      LSRS     r4,r0,#28
        0x000016f0:    f7fffc42    ..B.    BL       DrvSYS_GetPLLClockFreq ; 0xf78
        0x000016f4:    4606        .F      MOV      r6,r0
        0x000016f6:    1c61        a.      ADDS     r1,r4,#1
        0x000016f8:    f7fefe1c    ....    BL       __aeabi_uidiv ; 0x334
        0x000016fc:    4605        .F      MOV      r5,r0
        0x000016fe:    e000        ..      B        0x1702 ; GetUartClk + 62
        0x00001700:    4d02        .M      LDR      r5,[pc,#8] ; [0x170c] = 0x1518000
        0x00001702:    4628        (F      MOV      r0,r5
        0x00001704:    bd70        p.      POP      {r4-r6,pc}
    $d
        0x00001706:    0000        ..      DCW    0
        0x00001708:    50000200    ...P    DCD    1342177792
        0x0000170c:    01518000    ..Q.    DCD    22118400
    $t
    i.Initial_pannel
    Initial_pannel
        0x00001710:    4883        .H      LDR      r0,[pc,#524] ; [0x1920] = 0x50000200
        0x00001712:    6880        .h      LDR      r0,[r0,#8]
        0x00001714:    2101        .!      MOVS     r1,#1
        0x00001716:    03c9        ..      LSLS     r1,r1,#15
        0x00001718:    4388        .C      BICS     r0,r0,r1
        0x0000171a:    1840        @.      ADDS     r0,r0,r1
        0x0000171c:    4980        .I      LDR      r1,[pc,#512] ; [0x1920] = 0x50000200
        0x0000171e:    6088        .`      STR      r0,[r1,#8]
        0x00001720:    2005        .       MOVS     r0,#5
        0x00001722:    0700        ..      LSLS     r0,r0,#28
        0x00001724:    68c0        .h      LDR      r0,[r0,#0xc]
        0x00001726:    0189        ..      LSLS     r1,r1,#6
        0x00001728:    4388        .C      BICS     r0,r0,r1
        0x0000172a:    1840        @.      ADDS     r0,r0,r1
        0x0000172c:    2105        .!      MOVS     r1,#5
        0x0000172e:    0709        ..      LSLS     r1,r1,#28
        0x00001730:    60c8        .`      STR      r0,[r1,#0xc]
        0x00001732:    4608        .F      MOV      r0,r1
        0x00001734:    68c0        .h      LDR      r0,[r0,#0xc]
        0x00001736:    2101        .!      MOVS     r1,#1
        0x00001738:    03c9        ..      LSLS     r1,r1,#15
        0x0000173a:    4388        .C      BICS     r0,r0,r1
        0x0000173c:    2105        .!      MOVS     r1,#5
        0x0000173e:    0709        ..      LSLS     r1,r1,#28
        0x00001740:    60c8        .`      STR      r0,[r1,#0xc]
        0x00001742:    4608        .F      MOV      r0,r1
        0x00001744:    6bc0        .k      LDR      r0,[r0,#0x3c]
        0x00001746:    21ff        .!      MOVS     r1,#0xff
        0x00001748:    3101        .1      ADDS     r1,#1
        0x0000174a:    4388        .C      BICS     r0,r0,r1
        0x0000174c:    1840        @.      ADDS     r0,r0,r1
        0x0000174e:    2105        .!      MOVS     r1,#5
        0x00001750:    0709        ..      LSLS     r1,r1,#28
        0x00001752:    63c8        .c      STR      r0,[r1,#0x3c]
        0x00001754:    4608        .F      MOV      r0,r1
        0x00001756:    6bc0        .k      LDR      r0,[r0,#0x3c]
        0x00001758:    2101        .!      MOVS     r1,#1
        0x0000175a:    0249        I.      LSLS     r1,r1,#9
        0x0000175c:    4388        .C      BICS     r0,r0,r1
        0x0000175e:    1840        @.      ADDS     r0,r0,r1
        0x00001760:    2105        .!      MOVS     r1,#5
        0x00001762:    0709        ..      LSLS     r1,r1,#28
        0x00001764:    63c8        .c      STR      r0,[r1,#0x3c]
        0x00001766:    4608        .F      MOV      r0,r1
        0x00001768:    6bc0        .k      LDR      r0,[r0,#0x3c]
        0x0000176a:    2101        .!      MOVS     r1,#1
        0x0000176c:    02c9        ..      LSLS     r1,r1,#11
        0x0000176e:    4388        .C      BICS     r0,r0,r1
        0x00001770:    1840        @.      ADDS     r0,r0,r1
        0x00001772:    2105        .!      MOVS     r1,#5
        0x00001774:    0709        ..      LSLS     r1,r1,#28
        0x00001776:    63c8        .c      STR      r0,[r1,#0x3c]
        0x00001778:    486a        jH      LDR      r0,[pc,#424] ; [0x1924] = 0x2000001c
        0x0000177a:    68c0        .h      LDR      r0,[r0,#0xc]
        0x0000177c:    6800        .h      LDR      r0,[r0,#0]
        0x0000177e:    2101        .!      MOVS     r1,#1
        0x00001780:    02c9        ..      LSLS     r1,r1,#11
        0x00001782:    4388        .C      BICS     r0,r0,r1
        0x00001784:    1840        @.      ADDS     r0,r0,r1
        0x00001786:    4967        gI      LDR      r1,[pc,#412] ; [0x1924] = 0x2000001c
        0x00001788:    68c9        .h      LDR      r1,[r1,#0xc]
        0x0000178a:    6008        .`      STR      r0,[r1,#0]
        0x0000178c:    4865        eH      LDR      r0,[pc,#404] ; [0x1924] = 0x2000001c
        0x0000178e:    68c0        .h      LDR      r0,[r0,#0xc]
        0x00001790:    6800        .h      LDR      r0,[r0,#0]
        0x00001792:    21f8        .!      MOVS     r1,#0xf8
        0x00001794:    4388        .C      BICS     r0,r0,r1
        0x00001796:    3048        H0      ADDS     r0,r0,#0x48
        0x00001798:    4962        bI      LDR      r1,[pc,#392] ; [0x1924] = 0x2000001c
        0x0000179a:    68c9        .h      LDR      r1,[r1,#0xc]
        0x0000179c:    6008        .`      STR      r0,[r1,#0]
        0x0000179e:    4861        aH      LDR      r0,[pc,#388] ; [0x1924] = 0x2000001c
        0x000017a0:    68c0        .h      LDR      r0,[r0,#0xc]
        0x000017a2:    6800        .h      LDR      r0,[r0,#0]
        0x000017a4:    2104        .!      MOVS     r1,#4
        0x000017a6:    4388        .C      BICS     r0,r0,r1
        0x000017a8:    1d00        ..      ADDS     r0,r0,#4
        0x000017aa:    495e        ^I      LDR      r1,[pc,#376] ; [0x1924] = 0x2000001c
        0x000017ac:    68c9        .h      LDR      r1,[r1,#0xc]
        0x000017ae:    6008        .`      STR      r0,[r1,#0]
        0x000017b0:    485c        \H      LDR      r0,[pc,#368] ; [0x1924] = 0x2000001c
        0x000017b2:    68c0        .h      LDR      r0,[r0,#0xc]
        0x000017b4:    6840        @h      LDR      r0,[r0,#4]
        0x000017b6:    0c00        ..      LSRS     r0,r0,#16
        0x000017b8:    0400        ..      LSLS     r0,r0,#16
        0x000017ba:    1cc0        ..      ADDS     r0,r0,#3
        0x000017bc:    4959        YI      LDR      r1,[pc,#356] ; [0x1924] = 0x2000001c
        0x000017be:    68c9        .h      LDR      r1,[r1,#0xc]
        0x000017c0:    6048        H`      STR      r0,[r1,#4]
        0x000017c2:    4858        XH      LDR      r0,[pc,#352] ; [0x1924] = 0x2000001c
        0x000017c4:    68c0        .h      LDR      r0,[r0,#0xc]
        0x000017c6:    6880        .h      LDR      r0,[r0,#8]
        0x000017c8:    0880        ..      LSRS     r0,r0,#2
        0x000017ca:    0080        ..      LSLS     r0,r0,#2
        0x000017cc:    1c40        @.      ADDS     r0,r0,#1
        0x000017ce:    4955        UI      LDR      r1,[pc,#340] ; [0x1924] = 0x2000001c
        0x000017d0:    68c9        .h      LDR      r1,[r1,#0xc]
        0x000017d2:    6088        .`      STR      r0,[r1,#8]
        0x000017d4:    20eb        .       MOVS     r0,#0xeb
        0x000017d6:    4953        SI      LDR      r1,[pc,#332] ; [0x1924] = 0x2000001c
        0x000017d8:    68c9        .h      LDR      r1,[r1,#0xc]
        0x000017da:    6208        .b      STR      r0,[r1,#0x20]
        0x000017dc:    4851        QH      LDR      r0,[pc,#324] ; [0x1924] = 0x2000001c
        0x000017de:    68c0        .h      LDR      r0,[r0,#0xc]
        0x000017e0:    6800        .h      LDR      r0,[r0,#0]
        0x000017e2:    0840        @.      LSRS     r0,r0,#1
        0x000017e4:    0040        @.      LSLS     r0,r0,#1
        0x000017e6:    1c40        @.      ADDS     r0,r0,#1
        0x000017e8:    494e        NI      LDR      r1,[pc,#312] ; [0x1924] = 0x2000001c
        0x000017ea:    68c9        .h      LDR      r1,[r1,#0xc]
        0x000017ec:    6008        .`      STR      r0,[r1,#0]
        0x000017ee:    bf00        ..      NOP      
        0x000017f0:    484c        LH      LDR      r0,[pc,#304] ; [0x1924] = 0x2000001c
        0x000017f2:    68c0        .h      LDR      r0,[r0,#0xc]
        0x000017f4:    6800        .h      LDR      r0,[r0,#0]
        0x000017f6:    07c0        ..      LSLS     r0,r0,#31
        0x000017f8:    0fc0        ..      LSRS     r0,r0,#31
        0x000017fa:    2800        .(      CMP      r0,#0
        0x000017fc:    d1f8        ..      BNE      0x17f0 ; Initial_pannel + 224
        0x000017fe:    4849        IH      LDR      r0,[pc,#292] ; [0x1924] = 0x2000001c
        0x00001800:    68c0        .h      LDR      r0,[r0,#0xc]
        0x00001802:    6880        .h      LDR      r0,[r0,#8]
        0x00001804:    0880        ..      LSRS     r0,r0,#2
        0x00001806:    0080        ..      LSLS     r0,r0,#2
        0x00001808:    4946        FI      LDR      r1,[pc,#280] ; [0x1924] = 0x2000001c
        0x0000180a:    68c9        .h      LDR      r1,[r1,#0xc]
        0x0000180c:    6088        .`      STR      r0,[r1,#8]
        0x0000180e:    4845        EH      LDR      r0,[pc,#276] ; [0x1924] = 0x2000001c
        0x00001810:    68c0        .h      LDR      r0,[r0,#0xc]
        0x00001812:    6880        .h      LDR      r0,[r0,#8]
        0x00001814:    0880        ..      LSRS     r0,r0,#2
        0x00001816:    0080        ..      LSLS     r0,r0,#2
        0x00001818:    1c40        @.      ADDS     r0,r0,#1
        0x0000181a:    4942        BI      LDR      r1,[pc,#264] ; [0x1924] = 0x2000001c
        0x0000181c:    68c9        .h      LDR      r1,[r1,#0xc]
        0x0000181e:    6088        .`      STR      r0,[r1,#8]
        0x00001820:    2081        .       MOVS     r0,#0x81
        0x00001822:    4940        @I      LDR      r1,[pc,#256] ; [0x1924] = 0x2000001c
        0x00001824:    68c9        .h      LDR      r1,[r1,#0xc]
        0x00001826:    6208        .b      STR      r0,[r1,#0x20]
        0x00001828:    483e        >H      LDR      r0,[pc,#248] ; [0x1924] = 0x2000001c
        0x0000182a:    68c0        .h      LDR      r0,[r0,#0xc]
        0x0000182c:    6800        .h      LDR      r0,[r0,#0]
        0x0000182e:    0840        @.      LSRS     r0,r0,#1
        0x00001830:    0040        @.      LSLS     r0,r0,#1
        0x00001832:    1c40        @.      ADDS     r0,r0,#1
        0x00001834:    493b        ;I      LDR      r1,[pc,#236] ; [0x1924] = 0x2000001c
        0x00001836:    68c9        .h      LDR      r1,[r1,#0xc]
        0x00001838:    6008        .`      STR      r0,[r1,#0]
        0x0000183a:    bf00        ..      NOP      
        0x0000183c:    4839        9H      LDR      r0,[pc,#228] ; [0x1924] = 0x2000001c
        0x0000183e:    68c0        .h      LDR      r0,[r0,#0xc]
        0x00001840:    6800        .h      LDR      r0,[r0,#0]
        0x00001842:    07c0        ..      LSLS     r0,r0,#31
        0x00001844:    0fc0        ..      LSRS     r0,r0,#31
        0x00001846:    2800        .(      CMP      r0,#0
        0x00001848:    d1f8        ..      BNE      0x183c ; Initial_pannel + 300
        0x0000184a:    20a0        .       MOVS     r0,#0xa0
        0x0000184c:    4935        5I      LDR      r1,[pc,#212] ; [0x1924] = 0x2000001c
        0x0000184e:    68c9        .h      LDR      r1,[r1,#0xc]
        0x00001850:    6208        .b      STR      r0,[r1,#0x20]
        0x00001852:    4834        4H      LDR      r0,[pc,#208] ; [0x1924] = 0x2000001c
        0x00001854:    68c0        .h      LDR      r0,[r0,#0xc]
        0x00001856:    6800        .h      LDR      r0,[r0,#0]
        0x00001858:    0840        @.      LSRS     r0,r0,#1
        0x0000185a:    0040        @.      LSLS     r0,r0,#1
        0x0000185c:    1c40        @.      ADDS     r0,r0,#1
        0x0000185e:    4931        1I      LDR      r1,[pc,#196] ; [0x1924] = 0x2000001c
        0x00001860:    68c9        .h      LDR      r1,[r1,#0xc]
        0x00001862:    6008        .`      STR      r0,[r1,#0]
        0x00001864:    bf00        ..      NOP      
        0x00001866:    482f        /H      LDR      r0,[pc,#188] ; [0x1924] = 0x2000001c
        0x00001868:    68c0        .h      LDR      r0,[r0,#0xc]
        0x0000186a:    6800        .h      LDR      r0,[r0,#0]
        0x0000186c:    07c0        ..      LSLS     r0,r0,#31
        0x0000186e:    0fc0        ..      LSRS     r0,r0,#31
        0x00001870:    2800        .(      CMP      r0,#0
        0x00001872:    d1f8        ..      BNE      0x1866 ; Initial_pannel + 342
        0x00001874:    482b        +H      LDR      r0,[pc,#172] ; [0x1924] = 0x2000001c
        0x00001876:    68c0        .h      LDR      r0,[r0,#0xc]
        0x00001878:    6880        .h      LDR      r0,[r0,#8]
        0x0000187a:    0880        ..      LSRS     r0,r0,#2
        0x0000187c:    0080        ..      LSLS     r0,r0,#2
        0x0000187e:    4929        )I      LDR      r1,[pc,#164] ; [0x1924] = 0x2000001c
        0x00001880:    68c9        .h      LDR      r1,[r1,#0xc]
        0x00001882:    6088        .`      STR      r0,[r1,#8]
        0x00001884:    4827        'H      LDR      r0,[pc,#156] ; [0x1924] = 0x2000001c
        0x00001886:    68c0        .h      LDR      r0,[r0,#0xc]
        0x00001888:    6880        .h      LDR      r0,[r0,#8]
        0x0000188a:    0880        ..      LSRS     r0,r0,#2
        0x0000188c:    0080        ..      LSLS     r0,r0,#2
        0x0000188e:    1c40        @.      ADDS     r0,r0,#1
        0x00001890:    4924        $I      LDR      r1,[pc,#144] ; [0x1924] = 0x2000001c
        0x00001892:    68c9        .h      LDR      r1,[r1,#0xc]
        0x00001894:    6088        .`      STR      r0,[r1,#8]
        0x00001896:    20c0        .       MOVS     r0,#0xc0
        0x00001898:    4922        "I      LDR      r1,[pc,#136] ; [0x1924] = 0x2000001c
        0x0000189a:    68c9        .h      LDR      r1,[r1,#0xc]
        0x0000189c:    6208        .b      STR      r0,[r1,#0x20]
        0x0000189e:    4821        !H      LDR      r0,[pc,#132] ; [0x1924] = 0x2000001c
        0x000018a0:    68c0        .h      LDR      r0,[r0,#0xc]
        0x000018a2:    6800        .h      LDR      r0,[r0,#0]
        0x000018a4:    0840        @.      LSRS     r0,r0,#1
        0x000018a6:    0040        @.      LSLS     r0,r0,#1
        0x000018a8:    1c40        @.      ADDS     r0,r0,#1
        0x000018aa:    491e        .I      LDR      r1,[pc,#120] ; [0x1924] = 0x2000001c
        0x000018ac:    68c9        .h      LDR      r1,[r1,#0xc]
        0x000018ae:    6008        .`      STR      r0,[r1,#0]
        0x000018b0:    bf00        ..      NOP      
        0x000018b2:    481c        .H      LDR      r0,[pc,#112] ; [0x1924] = 0x2000001c
        0x000018b4:    68c0        .h      LDR      r0,[r0,#0xc]
        0x000018b6:    6800        .h      LDR      r0,[r0,#0]
        0x000018b8:    07c0        ..      LSLS     r0,r0,#31
        0x000018ba:    0fc0        ..      LSRS     r0,r0,#31
        0x000018bc:    2800        .(      CMP      r0,#0
        0x000018be:    d1f8        ..      BNE      0x18b2 ; Initial_pannel + 418
        0x000018c0:    4818        .H      LDR      r0,[pc,#96] ; [0x1924] = 0x2000001c
        0x000018c2:    68c0        .h      LDR      r0,[r0,#0xc]
        0x000018c4:    6880        .h      LDR      r0,[r0,#8]
        0x000018c6:    0880        ..      LSRS     r0,r0,#2
        0x000018c8:    0080        ..      LSLS     r0,r0,#2
        0x000018ca:    4916        .I      LDR      r1,[pc,#88] ; [0x1924] = 0x2000001c
        0x000018cc:    68c9        .h      LDR      r1,[r1,#0xc]
        0x000018ce:    6088        .`      STR      r0,[r1,#8]
        0x000018d0:    4814        .H      LDR      r0,[pc,#80] ; [0x1924] = 0x2000001c
        0x000018d2:    68c0        .h      LDR      r0,[r0,#0xc]
        0x000018d4:    6880        .h      LDR      r0,[r0,#8]
        0x000018d6:    0880        ..      LSRS     r0,r0,#2
        0x000018d8:    0080        ..      LSLS     r0,r0,#2
        0x000018da:    1c40        @.      ADDS     r0,r0,#1
        0x000018dc:    4911        .I      LDR      r1,[pc,#68] ; [0x1924] = 0x2000001c
        0x000018de:    68c9        .h      LDR      r1,[r1,#0xc]
        0x000018e0:    6088        .`      STR      r0,[r1,#8]
        0x000018e2:    20af        .       MOVS     r0,#0xaf
        0x000018e4:    490f        .I      LDR      r1,[pc,#60] ; [0x1924] = 0x2000001c
        0x000018e6:    68c9        .h      LDR      r1,[r1,#0xc]
        0x000018e8:    6208        .b      STR      r0,[r1,#0x20]
        0x000018ea:    480e        .H      LDR      r0,[pc,#56] ; [0x1924] = 0x2000001c
        0x000018ec:    68c0        .h      LDR      r0,[r0,#0xc]
        0x000018ee:    6800        .h      LDR      r0,[r0,#0]
        0x000018f0:    0840        @.      LSRS     r0,r0,#1
        0x000018f2:    0040        @.      LSLS     r0,r0,#1
        0x000018f4:    1c40        @.      ADDS     r0,r0,#1
        0x000018f6:    490b        .I      LDR      r1,[pc,#44] ; [0x1924] = 0x2000001c
        0x000018f8:    68c9        .h      LDR      r1,[r1,#0xc]
        0x000018fa:    6008        .`      STR      r0,[r1,#0]
        0x000018fc:    bf00        ..      NOP      
        0x000018fe:    4809        .H      LDR      r0,[pc,#36] ; [0x1924] = 0x2000001c
        0x00001900:    68c0        .h      LDR      r0,[r0,#0xc]
        0x00001902:    6800        .h      LDR      r0,[r0,#0]
        0x00001904:    07c0        ..      LSLS     r0,r0,#31
        0x00001906:    0fc0        ..      LSRS     r0,r0,#31
        0x00001908:    2800        .(      CMP      r0,#0
        0x0000190a:    d1f8        ..      BNE      0x18fe ; Initial_pannel + 494
        0x0000190c:    4805        .H      LDR      r0,[pc,#20] ; [0x1924] = 0x2000001c
        0x0000190e:    68c0        .h      LDR      r0,[r0,#0xc]
        0x00001910:    6880        .h      LDR      r0,[r0,#8]
        0x00001912:    0880        ..      LSRS     r0,r0,#2
        0x00001914:    0080        ..      LSLS     r0,r0,#2
        0x00001916:    4903        .I      LDR      r1,[pc,#12] ; [0x1924] = 0x2000001c
        0x00001918:    68c9        .h      LDR      r1,[r1,#0xc]
        0x0000191a:    6088        .`      STR      r0,[r1,#8]
        0x0000191c:    4770        pG      BX       lr
    $d
        0x0000191e:    0000        ..      DCW    0
        0x00001920:    50000200    ...P    DCD    1342177792
        0x00001924:    2000001c    ...     DCD    536870940
    $t
    i.NVIC_EnableIRQ
    NVIC_EnableIRQ
        0x00001928:    06c2        ..      LSLS     r2,r0,#27
        0x0000192a:    0ed2        ..      LSRS     r2,r2,#27
        0x0000192c:    2101        .!      MOVS     r1,#1
        0x0000192e:    4091        .@      LSLS     r1,r1,r2
        0x00001930:    4a01        .J      LDR      r2,[pc,#4] ; [0x1938] = 0xe000e100
        0x00001932:    6011        .`      STR      r1,[r2,#0]
        0x00001934:    4770        pG      BX       lr
    $d
        0x00001936:    0000        ..      DCW    0
        0x00001938:    e000e100    ....    DCD    3758153984
    $t
    i.PWRWU_IRQHandler
    PWRWU_IRQHandler
        0x0000193c:    b510        ..      PUSH     {r4,lr}
        0x0000193e:    4807        .H      LDR      r0,[pc,#28] ; [0x195c] = 0x50000200
        0x00001940:    6800        .h      LDR      r0,[r0,#0]
        0x00001942:    2140        @!      MOVS     r1,#0x40
        0x00001944:    4388        .C      BICS     r0,r0,r1
        0x00001946:    3040        @0      ADDS     r0,r0,#0x40
        0x00001948:    4904        .I      LDR      r1,[pc,#16] ; [0x195c] = 0x50000200
        0x0000194a:    6008        .`      STR      r0,[r1,#0]
        0x0000194c:    4804        .H      LDR      r0,[pc,#16] ; [0x1960] = 0x20000698
        0x0000194e:    6800        .h      LDR      r0,[r0,#0]
        0x00001950:    2800        .(      CMP      r0,#0
        0x00001952:    d002        ..      BEQ      0x195a ; PWRWU_IRQHandler + 30
        0x00001954:    4802        .H      LDR      r0,[pc,#8] ; [0x1960] = 0x20000698
        0x00001956:    6800        .h      LDR      r0,[r0,#0]
        0x00001958:    4780        .G      BLX      r0
        0x0000195a:    bd10        ..      POP      {r4,pc}
    $d
        0x0000195c:    50000200    ...P    DCD    1342177792
        0x00001960:    20000698    ...     DCD    536872600
    $t
    i.SetPACA
    SetPACA
        0x00001964:    4a3b        ;J      LDR      r2,[pc,#236] ; [0x1a54] = 0x2000001c
        0x00001966:    68d2        .h      LDR      r2,[r2,#0xc]
        0x00001968:    6892        .h      LDR      r2,[r2,#8]
        0x0000196a:    0892        ..      LSRS     r2,r2,#2
        0x0000196c:    0092        ..      LSLS     r2,r2,#2
        0x0000196e:    1c52        R.      ADDS     r2,r2,#1
        0x00001970:    4b38        8K      LDR      r3,[pc,#224] ; [0x1a54] = 0x2000001c
        0x00001972:    68db        .h      LDR      r3,[r3,#0xc]
        0x00001974:    609a        .`      STR      r2,[r3,#8]
        0x00001976:    22b0        ."      MOVS     r2,#0xb0
        0x00001978:    4302        .C      ORRS     r2,r2,r0
        0x0000197a:    4b36        6K      LDR      r3,[pc,#216] ; [0x1a54] = 0x2000001c
        0x0000197c:    68db        .h      LDR      r3,[r3,#0xc]
        0x0000197e:    621a        .b      STR      r2,[r3,#0x20]
        0x00001980:    4a34        4J      LDR      r2,[pc,#208] ; [0x1a54] = 0x2000001c
        0x00001982:    68d2        .h      LDR      r2,[r2,#0xc]
        0x00001984:    6812        .h      LDR      r2,[r2,#0]
        0x00001986:    0852        R.      LSRS     r2,r2,#1
        0x00001988:    0052        R.      LSLS     r2,r2,#1
        0x0000198a:    1c52        R.      ADDS     r2,r2,#1
        0x0000198c:    4b31        1K      LDR      r3,[pc,#196] ; [0x1a54] = 0x2000001c
        0x0000198e:    68db        .h      LDR      r3,[r3,#0xc]
        0x00001990:    601a        .`      STR      r2,[r3,#0]
        0x00001992:    bf00        ..      NOP      
        0x00001994:    4a2f        /J      LDR      r2,[pc,#188] ; [0x1a54] = 0x2000001c
        0x00001996:    68d2        .h      LDR      r2,[r2,#0xc]
        0x00001998:    6812        .h      LDR      r2,[r2,#0]
        0x0000199a:    07d2        ..      LSLS     r2,r2,#31
        0x0000199c:    0fd2        ..      LSRS     r2,r2,#31
        0x0000199e:    2a00        .*      CMP      r2,#0
        0x000019a0:    d1f8        ..      BNE      0x1994 ; SetPACA + 48
        0x000019a2:    4a2c        ,J      LDR      r2,[pc,#176] ; [0x1a54] = 0x2000001c
        0x000019a4:    68d2        .h      LDR      r2,[r2,#0xc]
        0x000019a6:    6892        .h      LDR      r2,[r2,#8]
        0x000019a8:    0892        ..      LSRS     r2,r2,#2
        0x000019aa:    0092        ..      LSLS     r2,r2,#2
        0x000019ac:    4b29        )K      LDR      r3,[pc,#164] ; [0x1a54] = 0x2000001c
        0x000019ae:    68db        .h      LDR      r3,[r3,#0xc]
        0x000019b0:    609a        .`      STR      r2,[r3,#8]
        0x000019b2:    4a28        (J      LDR      r2,[pc,#160] ; [0x1a54] = 0x2000001c
        0x000019b4:    68d2        .h      LDR      r2,[r2,#0xc]
        0x000019b6:    6892        .h      LDR      r2,[r2,#8]
        0x000019b8:    0892        ..      LSRS     r2,r2,#2
        0x000019ba:    0092        ..      LSLS     r2,r2,#2
        0x000019bc:    1c52        R.      ADDS     r2,r2,#1
        0x000019be:    4b25        %K      LDR      r3,[pc,#148] ; [0x1a54] = 0x2000001c
        0x000019c0:    68db        .h      LDR      r3,[r3,#0xc]
        0x000019c2:    609a        .`      STR      r2,[r3,#8]
        0x000019c4:    060a        ..      LSLS     r2,r1,#24
        0x000019c6:    0f12        ..      LSRS     r2,r2,#28
        0x000019c8:    2310        .#      MOVS     r3,#0x10
        0x000019ca:    431a        .C      ORRS     r2,r2,r3
        0x000019cc:    4b21        !K      LDR      r3,[pc,#132] ; [0x1a54] = 0x2000001c
        0x000019ce:    68db        .h      LDR      r3,[r3,#0xc]
        0x000019d0:    621a        .b      STR      r2,[r3,#0x20]
        0x000019d2:    4a20         J      LDR      r2,[pc,#128] ; [0x1a54] = 0x2000001c
        0x000019d4:    68d2        .h      LDR      r2,[r2,#0xc]
        0x000019d6:    6812        .h      LDR      r2,[r2,#0]
        0x000019d8:    0852        R.      LSRS     r2,r2,#1
        0x000019da:    0052        R.      LSLS     r2,r2,#1
        0x000019dc:    1c52        R.      ADDS     r2,r2,#1
        0x000019de:    4b1d        .K      LDR      r3,[pc,#116] ; [0x1a54] = 0x2000001c
        0x000019e0:    68db        .h      LDR      r3,[r3,#0xc]
        0x000019e2:    601a        .`      STR      r2,[r3,#0]
        0x000019e4:    bf00        ..      NOP      
        0x000019e6:    4a1b        .J      LDR      r2,[pc,#108] ; [0x1a54] = 0x2000001c
        0x000019e8:    68d2        .h      LDR      r2,[r2,#0xc]
        0x000019ea:    6812        .h      LDR      r2,[r2,#0]
        0x000019ec:    07d2        ..      LSLS     r2,r2,#31
        0x000019ee:    0fd2        ..      LSRS     r2,r2,#31
        0x000019f0:    2a00        .*      CMP      r2,#0
        0x000019f2:    d1f8        ..      BNE      0x19e6 ; SetPACA + 130
        0x000019f4:    4a17        .J      LDR      r2,[pc,#92] ; [0x1a54] = 0x2000001c
        0x000019f6:    68d2        .h      LDR      r2,[r2,#0xc]
        0x000019f8:    6892        .h      LDR      r2,[r2,#8]
        0x000019fa:    0892        ..      LSRS     r2,r2,#2
        0x000019fc:    0092        ..      LSLS     r2,r2,#2
        0x000019fe:    4b15        .K      LDR      r3,[pc,#84] ; [0x1a54] = 0x2000001c
        0x00001a00:    68db        .h      LDR      r3,[r3,#0xc]
        0x00001a02:    609a        .`      STR      r2,[r3,#8]
        0x00001a04:    4a13        .J      LDR      r2,[pc,#76] ; [0x1a54] = 0x2000001c
        0x00001a06:    68d2        .h      LDR      r2,[r2,#0xc]
        0x00001a08:    6892        .h      LDR      r2,[r2,#8]
        0x00001a0a:    0892        ..      LSRS     r2,r2,#2
        0x00001a0c:    0092        ..      LSLS     r2,r2,#2
        0x00001a0e:    1c52        R.      ADDS     r2,r2,#1
        0x00001a10:    4b10        .K      LDR      r3,[pc,#64] ; [0x1a54] = 0x2000001c
        0x00001a12:    68db        .h      LDR      r3,[r3,#0xc]
        0x00001a14:    609a        .`      STR      r2,[r3,#8]
        0x00001a16:    070a        ..      LSLS     r2,r1,#28
        0x00001a18:    0f12        ..      LSRS     r2,r2,#28
        0x00001a1a:    4b0e        .K      LDR      r3,[pc,#56] ; [0x1a54] = 0x2000001c
        0x00001a1c:    68db        .h      LDR      r3,[r3,#0xc]
        0x00001a1e:    621a        .b      STR      r2,[r3,#0x20]
        0x00001a20:    4a0c        .J      LDR      r2,[pc,#48] ; [0x1a54] = 0x2000001c
        0x00001a22:    68d2        .h      LDR      r2,[r2,#0xc]
        0x00001a24:    6812        .h      LDR      r2,[r2,#0]
        0x00001a26:    0852        R.      LSRS     r2,r2,#1
        0x00001a28:    0052        R.      LSLS     r2,r2,#1
        0x00001a2a:    1c52        R.      ADDS     r2,r2,#1
        0x00001a2c:    4b09        .K      LDR      r3,[pc,#36] ; [0x1a54] = 0x2000001c
        0x00001a2e:    68db        .h      LDR      r3,[r3,#0xc]
        0x00001a30:    601a        .`      STR      r2,[r3,#0]
        0x00001a32:    bf00        ..      NOP      
        0x00001a34:    4a07        .J      LDR      r2,[pc,#28] ; [0x1a54] = 0x2000001c
        0x00001a36:    68d2        .h      LDR      r2,[r2,#0xc]
        0x00001a38:    6812        .h      LDR      r2,[r2,#0]
        0x00001a3a:    07d2        ..      LSLS     r2,r2,#31
        0x00001a3c:    0fd2        ..      LSRS     r2,r2,#31
        0x00001a3e:    2a00        .*      CMP      r2,#0
        0x00001a40:    d1f8        ..      BNE      0x1a34 ; SetPACA + 208
        0x00001a42:    4a04        .J      LDR      r2,[pc,#16] ; [0x1a54] = 0x2000001c
        0x00001a44:    68d2        .h      LDR      r2,[r2,#0xc]
        0x00001a46:    6892        .h      LDR      r2,[r2,#8]
        0x00001a48:    0892        ..      LSRS     r2,r2,#2
        0x00001a4a:    0092        ..      LSLS     r2,r2,#2
        0x00001a4c:    4b01        .K      LDR      r3,[pc,#4] ; [0x1a54] = 0x2000001c
        0x00001a4e:    68db        .h      LDR      r3,[r3,#0xc]
        0x00001a50:    609a        .`      STR      r2,[r3,#8]
        0x00001a52:    4770        pG      BX       lr
    $d
        0x00001a54:    2000001c    ...     DCD    536870940
    $t
    i.Show_Word
    Show_Word
        0x00001a58:    b5fc        ..      PUSH     {r2-r7,lr}
        0x00001a5a:    4605        .F      MOV      r5,r0
        0x00001a5c:    460e        .F      MOV      r6,r1
        0x00001a5e:    4617        .F      MOV      r7,r2
        0x00001a60:    2400        .$      MOVS     r4,#0
        0x00001a62:    2000        .       MOVS     r0,#0
        0x00001a64:    9001        ..      STR      r0,[sp,#4]
        0x00001a66:    4638        8F      MOV      r0,r7
        0x00001a68:    3820         8      SUBS     r0,r0,#0x20
        0x00001a6a:    0100        ..      LSLS     r0,r0,#4
        0x00001a6c:    9001        ..      STR      r0,[sp,#4]
        0x00001a6e:    bf00        ..      NOP      
        0x00001a70:    e011        ..      B        0x1a96 ; Show_Word + 62
        0x00001a72:    00f2        ..      LSLS     r2,r6,#3
        0x00001a74:    2381        .#      MOVS     r3,#0x81
        0x00001a76:    1a9a        ..      SUBS     r2,r3,r2
        0x00001a78:    1b12        ..      SUBS     r2,r2,r4
        0x00001a7a:    b2d1        ..      UXTB     r1,r2
        0x00001a7c:    066a        j.      LSLS     r2,r5,#25
        0x00001a7e:    0e10        ..      LSRS     r0,r2,#24
        0x00001a80:    f7ffff70    ..p.    BL       SetPACA ; 0x1964
        0x00001a84:    9801        ..      LDR      r0,[sp,#4]
        0x00001a86:    1900        ..      ADDS     r0,r0,r4
        0x00001a88:    4910        .I      LDR      r1,[pc,#64] ; [0x1acc] = 0x2000002c
        0x00001a8a:    5c08        .\      LDRB     r0,[r1,r0]
        0x00001a8c:    9000        ..      STR      r0,[sp,#0]
        0x00001a8e:    9800        ..      LDR      r0,[sp,#0]
        0x00001a90:    f000fa04    ....    BL       WriteData ; 0x1e9c
        0x00001a94:    1c64        d.      ADDS     r4,r4,#1
        0x00001a96:    2c08        .,      CMP      r4,#8
        0x00001a98:    dbeb        ..      BLT      0x1a72 ; Show_Word + 26
        0x00001a9a:    2400        .$      MOVS     r4,#0
        0x00001a9c:    e013        ..      B        0x1ac6 ; Show_Word + 110
        0x00001a9e:    00f2        ..      LSLS     r2,r6,#3
        0x00001aa0:    2381        .#      MOVS     r3,#0x81
        0x00001aa2:    1a9a        ..      SUBS     r2,r3,r2
        0x00001aa4:    1b12        ..      SUBS     r2,r2,r4
        0x00001aa6:    b2d1        ..      UXTB     r1,r2
        0x00001aa8:    006a        j.      LSLS     r2,r5,#1
        0x00001aaa:    1c52        R.      ADDS     r2,r2,#1
        0x00001aac:    b2d0        ..      UXTB     r0,r2
        0x00001aae:    f7ffff59    ..Y.    BL       SetPACA ; 0x1964
        0x00001ab2:    9801        ..      LDR      r0,[sp,#4]
        0x00001ab4:    1900        ..      ADDS     r0,r0,r4
        0x00001ab6:    3008        .0      ADDS     r0,r0,#8
        0x00001ab8:    4904        .I      LDR      r1,[pc,#16] ; [0x1acc] = 0x2000002c
        0x00001aba:    5c08        .\      LDRB     r0,[r1,r0]
        0x00001abc:    9000        ..      STR      r0,[sp,#0]
        0x00001abe:    9800        ..      LDR      r0,[sp,#0]
        0x00001ac0:    f000f9ec    ....    BL       WriteData ; 0x1e9c
        0x00001ac4:    1c64        d.      ADDS     r4,r4,#1
        0x00001ac6:    2c08        .,      CMP      r4,#8
        0x00001ac8:    dbe9        ..      BLT      0x1a9e ; Show_Word + 70
        0x00001aca:    bdfc        ..      POP      {r2-r7,pc}
    $d
        0x00001acc:    2000002c    ,..     DCD    536870956
    $t
    i.SystemCoreClockUpdate
    SystemCoreClockUpdate
        0x00001ad0:    b570        p.      PUSH     {r4-r6,lr}
        0x00001ad2:    4820         H      LDR      r0,[pc,#128] ; [0x1b54] = 0x50000200
        0x00001ad4:    6900        .i      LDR      r0,[r0,#0x10]
        0x00001ad6:    0746        F.      LSLS     r6,r0,#29
        0x00001ad8:    0f76        v.      LSRS     r6,r6,#29
        0x00001ada:    2e05        ..      CMP      r6,#5
        0x00001adc:    d900        ..      BLS      0x1ae0 ; SystemCoreClockUpdate + 16
        0x00001ade:    2604        .&      MOVS     r6,#4
        0x00001ae0:    2e02        ..      CMP      r6,#2
        0x00001ae2:    d003        ..      BEQ      0x1aec ; SystemCoreClockUpdate + 28
        0x00001ae4:    00b0        ..      LSLS     r0,r6,#2
        0x00001ae6:    491c        .I      LDR      r1,[pc,#112] ; [0x1b58] = 0x20000008
        0x00001ae8:    580d        .X      LDR      r5,[r1,r0]
        0x00001aea:    e01f        ..      B        0x1b2c ; SystemCoreClockUpdate + 92
        0x00001aec:    4819        .H      LDR      r0,[pc,#100] ; [0x1b54] = 0x50000200
        0x00001aee:    6a00        .j      LDR      r0,[r0,#0x20]
        0x00001af0:    0400        ..      LSLS     r0,r0,#16
        0x00001af2:    0f84        ..      LSRS     r4,r0,#30
        0x00001af4:    2c01        .,      CMP      r4,#1
        0x00001af6:    d900        ..      BLS      0x1afa ; SystemCoreClockUpdate + 42
        0x00001af8:    1e64        d.      SUBS     r4,r4,#1
        0x00001afa:    4a16        .J      LDR      r2,[pc,#88] ; [0x1b54] = 0x50000200
        0x00001afc:    6a12        .j      LDR      r2,[r2,#0x20]
        0x00001afe:    0312        ..      LSLS     r2,r2,#12
        0x00001b00:    0fd2        ..      LSRS     r2,r2,#31
        0x00001b02:    2a00        .*      CMP      r2,#0
        0x00001b04:    d001        ..      BEQ      0x1b0a ; SystemCoreClockUpdate + 58
        0x00001b06:    4a15        .J      LDR      r2,[pc,#84] ; [0x1b5c] = 0x1518000
        0x00001b08:    e000        ..      B        0x1b0c ; SystemCoreClockUpdate + 60
        0x00001b0a:    4a15        .J      LDR      r2,[pc,#84] ; [0x1b60] = 0xb71b00
        0x00001b0c:    4b11        .K      LDR      r3,[pc,#68] ; [0x1b54] = 0x50000200
        0x00001b0e:    6a1b        .j      LDR      r3,[r3,#0x20]
        0x00001b10:    05db        ..      LSLS     r3,r3,#23
        0x00001b12:    0ddb        ..      LSRS     r3,r3,#23
        0x00001b14:    1c9b        ..      ADDS     r3,r3,#2
        0x00001b16:    4610        .F      MOV      r0,r2
        0x00001b18:    4358        XC      MULS     r0,r3,r0
        0x00001b1a:    4a0e        .J      LDR      r2,[pc,#56] ; [0x1b54] = 0x50000200
        0x00001b1c:    6a12        .j      LDR      r2,[r2,#0x20]
        0x00001b1e:    0492        ..      LSLS     r2,r2,#18
        0x00001b20:    0ed2        ..      LSRS     r2,r2,#27
        0x00001b22:    1c91        ..      ADDS     r1,r2,#2
        0x00001b24:    f7fefc06    ....    BL       __aeabi_uidiv ; 0x334
        0x00001b28:    40e0        .@      LSRS     r0,r0,r4
        0x00001b2a:    4605        .F      MOV      r5,r0
        0x00001b2c:    4809        .H      LDR      r0,[pc,#36] ; [0x1b54] = 0x50000200
        0x00001b2e:    6980        .i      LDR      r0,[r0,#0x18]
        0x00001b30:    0700        ..      LSLS     r0,r0,#28
        0x00001b32:    0f00        ..      LSRS     r0,r0,#28
        0x00001b34:    1c41        A.      ADDS     r1,r0,#1
        0x00001b36:    4628        (F      MOV      r0,r5
        0x00001b38:    f7fefbfc    ....    BL       __aeabi_uidiv ; 0x334
        0x00001b3c:    4909        .I      LDR      r1,[pc,#36] ; [0x1b64] = 0x20000000
        0x00001b3e:    6008        .`      STR      r0,[r1,#0]
        0x00001b40:    4909        .I      LDR      r1,[pc,#36] ; [0x1b68] = 0xf4240
        0x00001b42:    4808        .H      LDR      r0,[pc,#32] ; [0x1b64] = 0x20000000
        0x00001b44:    6800        .h      LDR      r0,[r0,#0]
        0x00001b46:    104a        J.      ASRS     r2,r1,#1
        0x00001b48:    1880        ..      ADDS     r0,r0,r2
        0x00001b4a:    f7fefbf3    ....    BL       __aeabi_uidiv ; 0x334
        0x00001b4e:    4907        .I      LDR      r1,[pc,#28] ; [0x1b6c] = 0x20000004
        0x00001b50:    6008        .`      STR      r0,[r1,#0]
        0x00001b52:    bd70        p.      POP      {r4-r6,pc}
    $d
        0x00001b54:    50000200    ...P    DCD    1342177792
        0x00001b58:    20000008    ...     DCD    536870920
        0x00001b5c:    01518000    ..Q.    DCD    22118400
        0x00001b60:    00b71b00    ....    DCD    12000000
        0x00001b64:    20000000    ...     DCD    536870912
        0x00001b68:    000f4240    @B..    DCD    1000000
        0x00001b6c:    20000004    ...     DCD    536870916
    $t
    i.SystemInit
    SystemInit
        0x00001b70:    4770        pG      BX       lr
        0x00001b72:    0000        ..      MOVS     r0,r0
    i.UART02_IRQHandler
    UART02_IRQHandler
        0x00001b74:    b570        p.      PUSH     {r4-r6,lr}
        0x00001b76:    480a        .H      LDR      r0,[pc,#40] ; [0x1ba0] = 0x40050000
        0x00001b78:    69c4        .i      LDR      r4,[r0,#0x1c]
        0x00001b7a:    480a        .H      LDR      r0,[pc,#40] ; [0x1ba4] = 0x40154000
        0x00001b7c:    69c5        .i      LDR      r5,[r0,#0x1c]
        0x00001b7e:    480a        .H      LDR      r0,[pc,#40] ; [0x1ba8] = 0x2000069c
        0x00001b80:    6800        .h      LDR      r0,[r0,#0]
        0x00001b82:    2800        .(      CMP      r0,#0
        0x00001b84:    d003        ..      BEQ      0x1b8e ; UART02_IRQHandler + 26
        0x00001b86:    4620         F      MOV      r0,r4
        0x00001b88:    4907        .I      LDR      r1,[pc,#28] ; [0x1ba8] = 0x2000069c
        0x00001b8a:    6809        .h      LDR      r1,[r1,#0]
        0x00001b8c:    4788        .G      BLX      r1
        0x00001b8e:    4807        .H      LDR      r0,[pc,#28] ; [0x1bac] = 0x200006a4
        0x00001b90:    6800        .h      LDR      r0,[r0,#0]
        0x00001b92:    2800        .(      CMP      r0,#0
        0x00001b94:    d003        ..      BEQ      0x1b9e ; UART02_IRQHandler + 42
        0x00001b96:    4628        (F      MOV      r0,r5
        0x00001b98:    4904        .I      LDR      r1,[pc,#16] ; [0x1bac] = 0x200006a4
        0x00001b9a:    6809        .h      LDR      r1,[r1,#0]
        0x00001b9c:    4788        .G      BLX      r1
        0x00001b9e:    bd70        p.      POP      {r4-r6,pc}
    $d
        0x00001ba0:    40050000    ...@    DCD    1074069504
        0x00001ba4:    40154000    .@.@    DCD    1075134464
        0x00001ba8:    2000069c    ...     DCD    536872604
        0x00001bac:    200006a4    ...     DCD    536872612
    $t
    i.UART1_IRQHandler
    UART1_IRQHandler
        0x00001bb0:    b510        ..      PUSH     {r4,lr}
        0x00001bb2:    4805        .H      LDR      r0,[pc,#20] ; [0x1bc8] = 0x40150000
        0x00001bb4:    69c4        .i      LDR      r4,[r0,#0x1c]
        0x00001bb6:    4805        .H      LDR      r0,[pc,#20] ; [0x1bcc] = 0x200006a0
        0x00001bb8:    6800        .h      LDR      r0,[r0,#0]
        0x00001bba:    2800        .(      CMP      r0,#0
        0x00001bbc:    d003        ..      BEQ      0x1bc6 ; UART1_IRQHandler + 22
        0x00001bbe:    4620         F      MOV      r0,r4
        0x00001bc0:    4902        .I      LDR      r1,[pc,#8] ; [0x1bcc] = 0x200006a0
        0x00001bc2:    6809        .h      LDR      r1,[r1,#0]
        0x00001bc4:    4788        .G      BLX      r1
        0x00001bc6:    bd10        ..      POP      {r4,pc}
    $d
        0x00001bc8:    40150000    ...@    DCD    1075118080
        0x00001bcc:    200006a0    ...     DCD    536872608
    $t
    i.UART_INT_HANDLE
    UART_INT_HANDLE
        0x00001bd0:    b500        ..      PUSH     {lr}
        0x00001bd2:    b085        ..      SUB      sp,sp,#0x14
        0x00001bd4:    a0a2        ..      ADR      r0,{pc}+0x28c ; 0x1e60
        0x00001bd6:    6800        .h      LDR      r0,[r0,#0]
        0x00001bd8:    9004        ..      STR      r0,[sp,#0x10]
        0x00001bda:    e138        8.      B        0x1e4e ; UART_INT_HANDLE + 638
        0x00001bdc:    2201        ."      MOVS     r2,#1
        0x00001bde:    a904        ..      ADD      r1,sp,#0x10
        0x00001be0:    2000        .       MOVS     r0,#0
        0x00001be2:    f7fffcc3    ....    BL       DrvUART_Read ; 0x156c
        0x00001be6:    4668        hF      MOV      r0,sp
        0x00001be8:    7c00        .|      LDRB     r0,[r0,#0x10]
        0x00001bea:    28a5        .(      CMP      r0,#0xa5
        0x00001bec:    d1f5        ..      BNE      0x1bda ; UART_INT_HANDLE + 10
        0x00001bee:    2201        ."      MOVS     r2,#1
        0x00001bf0:    a904        ..      ADD      r1,sp,#0x10
        0x00001bf2:    2000        .       MOVS     r0,#0
        0x00001bf4:    f7fffcba    ....    BL       DrvUART_Read ; 0x156c
        0x00001bf8:    4668        hF      MOV      r0,sp
        0x00001bfa:    7c00        .|      LDRB     r0,[r0,#0x10]
        0x00001bfc:    285a        Z(      CMP      r0,#0x5a
        0x00001bfe:    d1ec        ..      BNE      0x1bda ; UART_INT_HANDLE + 10
        0x00001c00:    2201        ."      MOVS     r2,#1
        0x00001c02:    a904        ..      ADD      r1,sp,#0x10
        0x00001c04:    2000        .       MOVS     r0,#0
        0x00001c06:    f7fffcb1    ....    BL       DrvUART_Read ; 0x156c
        0x00001c0a:    4668        hF      MOV      r0,sp
        0x00001c0c:    7c00        .|      LDRB     r0,[r0,#0x10]
        0x00001c0e:    2812        .(      CMP      r0,#0x12
        0x00001c10:    d17e        ~.      BNE      0x1d10 ; UART_INT_HANDLE + 320
        0x00001c12:    2201        ."      MOVS     r2,#1
        0x00001c14:    a904        ..      ADD      r1,sp,#0x10
        0x00001c16:    2000        .       MOVS     r0,#0
        0x00001c18:    f7fffca8    ....    BL       DrvUART_Read ; 0x156c
        0x00001c1c:    2201        ."      MOVS     r2,#1
        0x00001c1e:    a904        ..      ADD      r1,sp,#0x10
        0x00001c20:    2000        .       MOVS     r0,#0
        0x00001c22:    f7fffca3    ....    BL       DrvUART_Read ; 0x156c
        0x00001c26:    4668        hF      MOV      r0,sp
        0x00001c28:    7c00        .|      LDRB     r0,[r0,#0x10]
        0x00001c2a:    2880        .(      CMP      r0,#0x80
        0x00001c2c:    db07        ..      BLT      0x1c3e ; UART_INT_HANDLE + 110
        0x00001c2e:    4668        hF      MOV      r0,sp
        0x00001c30:    7c00        .|      LDRB     r0,[r0,#0x10]
        0x00001c32:    3880        .8      SUBS     r0,r0,#0x80
        0x00001c34:    498b        .I      LDR      r1,[pc,#556] ; [0x1e64] = 0x2000061c
        0x00001c36:    7008        .p      STRB     r0,[r1,#0]
        0x00001c38:    202d        -       MOVS     r0,#0x2d
        0x00001c3a:    7188        .q      STRB     r0,[r1,#6]
        0x00001c3c:    e005        ..      B        0x1c4a ; UART_INT_HANDLE + 122
        0x00001c3e:    4668        hF      MOV      r0,sp
        0x00001c40:    7c00        .|      LDRB     r0,[r0,#0x10]
        0x00001c42:    4988        .I      LDR      r1,[pc,#544] ; [0x1e64] = 0x2000061c
        0x00001c44:    7008        .p      STRB     r0,[r1,#0]
        0x00001c46:    2020                MOVS     r0,#0x20
        0x00001c48:    7188        .q      STRB     r0,[r1,#6]
        0x00001c4a:    2201        ."      MOVS     r2,#1
        0x00001c4c:    a904        ..      ADD      r1,sp,#0x10
        0x00001c4e:    2000        .       MOVS     r0,#0
        0x00001c50:    f7fffc8c    ....    BL       DrvUART_Read ; 0x156c
        0x00001c54:    4668        hF      MOV      r0,sp
        0x00001c56:    7c00        .|      LDRB     r0,[r0,#0x10]
        0x00001c58:    4982        .I      LDR      r1,[pc,#520] ; [0x1e64] = 0x2000061c
        0x00001c5a:    7048        Hp      STRB     r0,[r1,#1]
        0x00001c5c:    2201        ."      MOVS     r2,#1
        0x00001c5e:    a904        ..      ADD      r1,sp,#0x10
        0x00001c60:    2000        .       MOVS     r0,#0
        0x00001c62:    f7fffc83    ....    BL       DrvUART_Read ; 0x156c
        0x00001c66:    4668        hF      MOV      r0,sp
        0x00001c68:    7c00        .|      LDRB     r0,[r0,#0x10]
        0x00001c6a:    2880        .(      CMP      r0,#0x80
        0x00001c6c:    db07        ..      BLT      0x1c7e ; UART_INT_HANDLE + 174
        0x00001c6e:    4668        hF      MOV      r0,sp
        0x00001c70:    7c00        .|      LDRB     r0,[r0,#0x10]
        0x00001c72:    3880        .8      SUBS     r0,r0,#0x80
        0x00001c74:    497b        {I      LDR      r1,[pc,#492] ; [0x1e64] = 0x2000061c
        0x00001c76:    7088        .p      STRB     r0,[r1,#2]
        0x00001c78:    202d        -       MOVS     r0,#0x2d
        0x00001c7a:    71c8        .q      STRB     r0,[r1,#7]
        0x00001c7c:    e005        ..      B        0x1c8a ; UART_INT_HANDLE + 186
        0x00001c7e:    4668        hF      MOV      r0,sp
        0x00001c80:    7c00        .|      LDRB     r0,[r0,#0x10]
        0x00001c82:    4978        xI      LDR      r1,[pc,#480] ; [0x1e64] = 0x2000061c
        0x00001c84:    7088        .p      STRB     r0,[r1,#2]
        0x00001c86:    2020                MOVS     r0,#0x20
        0x00001c88:    71c8        .q      STRB     r0,[r1,#7]
        0x00001c8a:    2201        ."      MOVS     r2,#1
        0x00001c8c:    a904        ..      ADD      r1,sp,#0x10
        0x00001c8e:    2000        .       MOVS     r0,#0
        0x00001c90:    f7fffc6c    ..l.    BL       DrvUART_Read ; 0x156c
        0x00001c94:    4668        hF      MOV      r0,sp
        0x00001c96:    7c00        .|      LDRB     r0,[r0,#0x10]
        0x00001c98:    4972        rI      LDR      r1,[pc,#456] ; [0x1e64] = 0x2000061c
        0x00001c9a:    70c8        .p      STRB     r0,[r1,#3]
        0x00001c9c:    2201        ."      MOVS     r2,#1
        0x00001c9e:    a904        ..      ADD      r1,sp,#0x10
        0x00001ca0:    2000        .       MOVS     r0,#0
        0x00001ca2:    f7fffc63    ..c.    BL       DrvUART_Read ; 0x156c
        0x00001ca6:    4668        hF      MOV      r0,sp
        0x00001ca8:    7c00        .|      LDRB     r0,[r0,#0x10]
        0x00001caa:    2880        .(      CMP      r0,#0x80
        0x00001cac:    db07        ..      BLT      0x1cbe ; UART_INT_HANDLE + 238
        0x00001cae:    4668        hF      MOV      r0,sp
        0x00001cb0:    7c00        .|      LDRB     r0,[r0,#0x10]
        0x00001cb2:    3880        .8      SUBS     r0,r0,#0x80
        0x00001cb4:    496b        kI      LDR      r1,[pc,#428] ; [0x1e64] = 0x2000061c
        0x00001cb6:    7108        .q      STRB     r0,[r1,#4]
        0x00001cb8:    202d        -       MOVS     r0,#0x2d
        0x00001cba:    7208        .r      STRB     r0,[r1,#8]
        0x00001cbc:    e005        ..      B        0x1cca ; UART_INT_HANDLE + 250
        0x00001cbe:    4668        hF      MOV      r0,sp
        0x00001cc0:    7c00        .|      LDRB     r0,[r0,#0x10]
        0x00001cc2:    4968        hI      LDR      r1,[pc,#416] ; [0x1e64] = 0x2000061c
        0x00001cc4:    7108        .q      STRB     r0,[r1,#4]
        0x00001cc6:    2020                MOVS     r0,#0x20
        0x00001cc8:    7208        .r      STRB     r0,[r1,#8]
        0x00001cca:    2201        ."      MOVS     r2,#1
        0x00001ccc:    a904        ..      ADD      r1,sp,#0x10
        0x00001cce:    2000        .       MOVS     r0,#0
        0x00001cd0:    f7fffc4c    ..L.    BL       DrvUART_Read ; 0x156c
        0x00001cd4:    4668        hF      MOV      r0,sp
        0x00001cd6:    7c00        .|      LDRB     r0,[r0,#0x10]
        0x00001cd8:    4962        bI      LDR      r1,[pc,#392] ; [0x1e64] = 0x2000061c
        0x00001cda:    7148        Hq      STRB     r0,[r1,#5]
        0x00001cdc:    4608        .F      MOV      r0,r1
        0x00001cde:    7900        .y      LDRB     r0,[r0,#4]
        0x00001ce0:    0200        ..      LSLS     r0,r0,#8
        0x00001ce2:    7949        Iy      LDRB     r1,[r1,#5]
        0x00001ce4:    1840        @.      ADDS     r0,r0,r1
        0x00001ce6:    495f        _I      LDR      r1,[pc,#380] ; [0x1e64] = 0x2000061c
        0x00001ce8:    7a09        .z      LDRB     r1,[r1,#8]
        0x00001cea:    4a5e        ^J      LDR      r2,[pc,#376] ; [0x1e64] = 0x2000061c
        0x00001cec:    7892        .x      LDRB     r2,[r2,#2]
        0x00001cee:    0212        ..      LSLS     r2,r2,#8
        0x00001cf0:    4b5c        \K      LDR      r3,[pc,#368] ; [0x1e64] = 0x2000061c
        0x00001cf2:    78db        .x      LDRB     r3,[r3,#3]
        0x00001cf4:    18d2        ..      ADDS     r2,r2,r3
        0x00001cf6:    4b5b        [K      LDR      r3,[pc,#364] ; [0x1e64] = 0x2000061c
        0x00001cf8:    79db        .y      LDRB     r3,[r3,#7]
        0x00001cfa:    9300        ..      STR      r3,[sp,#0]
        0x00001cfc:    9201        ..      STR      r2,[sp,#4]
        0x00001cfe:    9102        ..      STR      r1,[sp,#8]
        0x00001d00:    9003        ..      STR      r0,[sp,#0xc]
        0x00001d02:    4858        XH      LDR      r0,[pc,#352] ; [0x1e64] = 0x2000061c
        0x00001d04:    7800        .x      LDRB     r0,[r0,#0]
        0x00001d06:    0200        ..      LSLS     r0,r0,#8
        0x00001d08:    4956        VI      LDR      r1,[pc,#344] ; [0x1e64] = 0x2000061c
        0x00001d0a:    7849        Ix      LDRB     r1,[r1,#1]
        0x00001d0c:    1843        C.      ADDS     r3,r0,r1
        0x00001d0e:    e000        ..      B        0x1d12 ; UART_INT_HANDLE + 322
        0x00001d10:    e094        ..      B        0x1e3c ; UART_INT_HANDLE + 620
        0x00001d12:    4854        TH      LDR      r0,[pc,#336] ; [0x1e64] = 0x2000061c
        0x00001d14:    7982        .y      LDRB     r2,[r0,#6]
        0x00001d16:    a154        T.      ADR      r1,{pc}+0x152 ; 0x1e68
        0x00001d18:    4858        XH      LDR      r0,[pc,#352] ; [0x1e7c] = 0x20000652
        0x00001d1a:    f7fefa61    ..a.    BL       __2sprintf ; 0x1e0
        0x00001d1e:    4957        WI      LDR      r1,[pc,#348] ; [0x1e7c] = 0x20000652
        0x00001d20:    2000        .       MOVS     r0,#0
        0x00001d22:    f000f961    ..a.    BL       print_lcd ; 0x1fe8
        0x00001d26:    2201        ."      MOVS     r2,#1
        0x00001d28:    a904        ..      ADD      r1,sp,#0x10
        0x00001d2a:    2000        .       MOVS     r0,#0
        0x00001d2c:    f7fffc1e    ....    BL       DrvUART_Read ; 0x156c
        0x00001d30:    4668        hF      MOV      r0,sp
        0x00001d32:    7c00        .|      LDRB     r0,[r0,#0x10]
        0x00001d34:    2880        .(      CMP      r0,#0x80
        0x00001d36:    db07        ..      BLT      0x1d48 ; UART_INT_HANDLE + 376
        0x00001d38:    4668        hF      MOV      r0,sp
        0x00001d3a:    7c00        .|      LDRB     r0,[r0,#0x10]
        0x00001d3c:    3880        .8      SUBS     r0,r0,#0x80
        0x00001d3e:    4949        II      LDR      r1,[pc,#292] ; [0x1e64] = 0x2000061c
        0x00001d40:    7008        .p      STRB     r0,[r1,#0]
        0x00001d42:    202d        -       MOVS     r0,#0x2d
        0x00001d44:    7108        .q      STRB     r0,[r1,#4]
        0x00001d46:    e005        ..      B        0x1d54 ; UART_INT_HANDLE + 388
        0x00001d48:    4668        hF      MOV      r0,sp
        0x00001d4a:    7c00        .|      LDRB     r0,[r0,#0x10]
        0x00001d4c:    4945        EI      LDR      r1,[pc,#276] ; [0x1e64] = 0x2000061c
        0x00001d4e:    7008        .p      STRB     r0,[r1,#0]
        0x00001d50:    2020                MOVS     r0,#0x20
        0x00001d52:    7108        .q      STRB     r0,[r1,#4]
        0x00001d54:    2201        ."      MOVS     r2,#1
        0x00001d56:    a904        ..      ADD      r1,sp,#0x10
        0x00001d58:    2000        .       MOVS     r0,#0
        0x00001d5a:    f7fffc07    ....    BL       DrvUART_Read ; 0x156c
        0x00001d5e:    4668        hF      MOV      r0,sp
        0x00001d60:    7c00        .|      LDRB     r0,[r0,#0x10]
        0x00001d62:    4940        @I      LDR      r1,[pc,#256] ; [0x1e64] = 0x2000061c
        0x00001d64:    7048        Hp      STRB     r0,[r1,#1]
        0x00001d66:    2201        ."      MOVS     r2,#1
        0x00001d68:    a904        ..      ADD      r1,sp,#0x10
        0x00001d6a:    2000        .       MOVS     r0,#0
        0x00001d6c:    f7fffbfe    ....    BL       DrvUART_Read ; 0x156c
        0x00001d70:    4668        hF      MOV      r0,sp
        0x00001d72:    7c00        .|      LDRB     r0,[r0,#0x10]
        0x00001d74:    2880        .(      CMP      r0,#0x80
        0x00001d76:    db07        ..      BLT      0x1d88 ; UART_INT_HANDLE + 440
        0x00001d78:    4668        hF      MOV      r0,sp
        0x00001d7a:    7c00        .|      LDRB     r0,[r0,#0x10]
        0x00001d7c:    3880        .8      SUBS     r0,r0,#0x80
        0x00001d7e:    4939        9I      LDR      r1,[pc,#228] ; [0x1e64] = 0x2000061c
        0x00001d80:    7088        .p      STRB     r0,[r1,#2]
        0x00001d82:    202d        -       MOVS     r0,#0x2d
        0x00001d84:    7148        Hq      STRB     r0,[r1,#5]
        0x00001d86:    e005        ..      B        0x1d94 ; UART_INT_HANDLE + 452
        0x00001d88:    4668        hF      MOV      r0,sp
        0x00001d8a:    7c00        .|      LDRB     r0,[r0,#0x10]
        0x00001d8c:    4935        5I      LDR      r1,[pc,#212] ; [0x1e64] = 0x2000061c
        0x00001d8e:    7088        .p      STRB     r0,[r1,#2]
        0x00001d90:    2020                MOVS     r0,#0x20
        0x00001d92:    7148        Hq      STRB     r0,[r1,#5]
        0x00001d94:    2201        ."      MOVS     r2,#1
        0x00001d96:    a904        ..      ADD      r1,sp,#0x10
        0x00001d98:    2000        .       MOVS     r0,#0
        0x00001d9a:    f7fffbe7    ....    BL       DrvUART_Read ; 0x156c
        0x00001d9e:    4668        hF      MOV      r0,sp
        0x00001da0:    7c00        .|      LDRB     r0,[r0,#0x10]
        0x00001da2:    4930        0I      LDR      r1,[pc,#192] ; [0x1e64] = 0x2000061c
        0x00001da4:    70c8        .p      STRB     r0,[r1,#3]
        0x00001da6:    4608        .F      MOV      r0,r1
        0x00001da8:    7880        .x      LDRB     r0,[r0,#2]
        0x00001daa:    0200        ..      LSLS     r0,r0,#8
        0x00001dac:    78c9        .x      LDRB     r1,[r1,#3]
        0x00001dae:    1840        @.      ADDS     r0,r0,r1
        0x00001db0:    492c        ,I      LDR      r1,[pc,#176] ; [0x1e64] = 0x2000061c
        0x00001db2:    7949        Iy      LDRB     r1,[r1,#5]
        0x00001db4:    9100        ..      STR      r1,[sp,#0]
        0x00001db6:    9001        ..      STR      r0,[sp,#4]
        0x00001db8:    482a        *H      LDR      r0,[pc,#168] ; [0x1e64] = 0x2000061c
        0x00001dba:    7800        .x      LDRB     r0,[r0,#0]
        0x00001dbc:    0200        ..      LSLS     r0,r0,#8
        0x00001dbe:    4929        )I      LDR      r1,[pc,#164] ; [0x1e64] = 0x2000061c
        0x00001dc0:    7849        Ix      LDRB     r1,[r1,#1]
        0x00001dc2:    1843        C.      ADDS     r3,r0,r1
        0x00001dc4:    4827        'H      LDR      r0,[pc,#156] ; [0x1e64] = 0x2000061c
        0x00001dc6:    7902        .y      LDRB     r2,[r0,#4]
        0x00001dc8:    a12d        -.      ADR      r1,{pc}+0xb8 ; 0x1e80
        0x00001dca:    4830        0H      LDR      r0,[pc,#192] ; [0x1e8c] = 0x20000662
        0x00001dcc:    f7fefa08    ....    BL       __2sprintf ; 0x1e0
        0x00001dd0:    492e        .I      LDR      r1,[pc,#184] ; [0x1e8c] = 0x20000662
        0x00001dd2:    2001        .       MOVS     r0,#1
        0x00001dd4:    f000f908    ....    BL       print_lcd ; 0x1fe8
        0x00001dd8:    2201        ."      MOVS     r2,#1
        0x00001dda:    a904        ..      ADD      r1,sp,#0x10
        0x00001ddc:    2000        .       MOVS     r0,#0
        0x00001dde:    f7fffbc5    ....    BL       DrvUART_Read ; 0x156c
        0x00001de2:    4668        hF      MOV      r0,sp
        0x00001de4:    7c00        .|      LDRB     r0,[r0,#0x10]
        0x00001de6:    2880        .(      CMP      r0,#0x80
        0x00001de8:    db05        ..      BLT      0x1df6 ; UART_INT_HANDLE + 550
        0x00001dea:    4668        hF      MOV      r0,sp
        0x00001dec:    7c00        .|      LDRB     r0,[r0,#0x10]
        0x00001dee:    3880        .8      SUBS     r0,r0,#0x80
        0x00001df0:    491c        .I      LDR      r1,[pc,#112] ; [0x1e64] = 0x2000061c
        0x00001df2:    7008        .p      STRB     r0,[r1,#0]
        0x00001df4:    e003        ..      B        0x1dfe ; UART_INT_HANDLE + 558
        0x00001df6:    4668        hF      MOV      r0,sp
        0x00001df8:    7c00        .|      LDRB     r0,[r0,#0x10]
        0x00001dfa:    491a        .I      LDR      r1,[pc,#104] ; [0x1e64] = 0x2000061c
        0x00001dfc:    7008        .p      STRB     r0,[r1,#0]
        0x00001dfe:    2201        ."      MOVS     r2,#1
        0x00001e00:    a904        ..      ADD      r1,sp,#0x10
        0x00001e02:    2000        .       MOVS     r0,#0
        0x00001e04:    f7fffbb2    ....    BL       DrvUART_Read ; 0x156c
        0x00001e08:    4668        hF      MOV      r0,sp
        0x00001e0a:    7c00        .|      LDRB     r0,[r0,#0x10]
        0x00001e0c:    4915        .I      LDR      r1,[pc,#84] ; [0x1e64] = 0x2000061c
        0x00001e0e:    7048        Hp      STRB     r0,[r1,#1]
        0x00001e10:    4608        .F      MOV      r0,r1
        0x00001e12:    7800        .x      LDRB     r0,[r0,#0]
        0x00001e14:    0200        ..      LSLS     r0,r0,#8
        0x00001e16:    7849        Ix      LDRB     r1,[r1,#1]
        0x00001e18:    1840        @.      ADDS     r0,r0,r1
        0x00001e1a:    210a        .!      MOVS     r1,#0xa
        0x00001e1c:    4348        HC      MULS     r0,r1,r0
        0x00001e1e:    4602        .F      MOV      r2,r0
        0x00001e20:    a119        ..      ADR      r1,{pc}+0x68 ; 0x1e88
        0x00001e22:    481b        .H      LDR      r0,[pc,#108] ; [0x1e90] = 0x20000672
        0x00001e24:    f7fef9dc    ....    BL       __2sprintf ; 0x1e0
        0x00001e28:    4919        .I      LDR      r1,[pc,#100] ; [0x1e90] = 0x20000672
        0x00001e2a:    2002        .       MOVS     r0,#2
        0x00001e2c:    f000f8dc    ....    BL       print_lcd ; 0x1fe8
        0x00001e30:    2203        ."      MOVS     r2,#3
        0x00001e32:    a118        ..      ADR      r1,{pc}+0x62 ; 0x1e94
        0x00001e34:    2000        .       MOVS     r0,#0
        0x00001e36:    f7fffbb9    ....    BL       DrvUART_Write ; 0x15ac
        0x00001e3a:    e008        ..      B        0x1e4e ; UART_INT_HANDLE + 638
        0x00001e3c:    4668        hF      MOV      r0,sp
        0x00001e3e:    7c00        .|      LDRB     r0,[r0,#0x10]
        0x00001e40:    2816        .(      CMP      r0,#0x16
        0x00001e42:    d104        ..      BNE      0x1e4e ; UART_INT_HANDLE + 638
        0x00001e44:    2201        ."      MOVS     r2,#1
        0x00001e46:    a904        ..      ADD      r1,sp,#0x10
        0x00001e48:    2000        .       MOVS     r0,#0
        0x00001e4a:    f7fffb8f    ....    BL       DrvUART_Read ; 0x156c
        0x00001e4e:    4812        .H      LDR      r0,[pc,#72] ; [0x1e98] = 0x40050000
        0x00001e50:    69c0        .i      LDR      r0,[r0,#0x1c]
        0x00001e52:    07c0        ..      LSLS     r0,r0,#31
        0x00001e54:    0fc0        ..      LSRS     r0,r0,#31
        0x00001e56:    2800        .(      CMP      r0,#0
        0x00001e58:    d000        ..      BEQ      0x1e5c ; UART_INT_HANDLE + 652
        0x00001e5a:    e6bf        ..      B        0x1bdc ; UART_INT_HANDLE + 12
        0x00001e5c:    b005        ..      ADD      sp,sp,#0x14
        0x00001e5e:    bd00        ..      POP      {pc}
    $d
        0x00001e60:    000000ff    ....    DCD    255
        0x00001e64:    2000061c    ...     DCD    536872476
        0x00001e68:    64256325    %c%d    DCD    1680171813
        0x00001e6c:    63252020      %c    DCD    1663377440
        0x00001e70:    20206425    %d      DCD    538993701
        0x00001e74:    64256325    %c%d    DCD    1680171813
        0x00001e78:    00000020     ...    DCD    32
        0x00001e7c:    20000652    R..     DCD    536872530
        0x00001e80:    64256325    %c%d    DCD    1680171813
        0x00001e84:    63252020      %c    DCD    1663377440
        0x00001e88:    00206425    %d .    DCD    2122789
        0x00001e8c:    20000662    b..     DCD    536872546
        0x00001e90:    20000672    r..     DCD    536872562
        0x00001e94:    00646667    gfd.    DCD    6579815
        0x00001e98:    40050000    ...@    DCD    1074069504
    $t
    i.WriteData
    WriteData
        0x00001e9c:    4914        .I      LDR      r1,[pc,#80] ; [0x1ef0] = 0x2000001c
        0x00001e9e:    68c9        .h      LDR      r1,[r1,#0xc]
        0x00001ea0:    6889        .h      LDR      r1,[r1,#8]
        0x00001ea2:    0889        ..      LSRS     r1,r1,#2
        0x00001ea4:    0089        ..      LSLS     r1,r1,#2
        0x00001ea6:    1c49        I.      ADDS     r1,r1,#1
        0x00001ea8:    4a11        .J      LDR      r2,[pc,#68] ; [0x1ef0] = 0x2000001c
        0x00001eaa:    68d2        .h      LDR      r2,[r2,#0xc]
        0x00001eac:    6091        .`      STR      r1,[r2,#8]
        0x00001eae:    21ff        .!      MOVS     r1,#0xff
        0x00001eb0:    3101        .1      ADDS     r1,#1
        0x00001eb2:    4301        .C      ORRS     r1,r1,r0
        0x00001eb4:    4a0e        .J      LDR      r2,[pc,#56] ; [0x1ef0] = 0x2000001c
        0x00001eb6:    68d2        .h      LDR      r2,[r2,#0xc]
        0x00001eb8:    6211        .b      STR      r1,[r2,#0x20]
        0x00001eba:    490d        .I      LDR      r1,[pc,#52] ; [0x1ef0] = 0x2000001c
        0x00001ebc:    68c9        .h      LDR      r1,[r1,#0xc]
        0x00001ebe:    6809        .h      LDR      r1,[r1,#0]
        0x00001ec0:    0849        I.      LSRS     r1,r1,#1
        0x00001ec2:    0049        I.      LSLS     r1,r1,#1
        0x00001ec4:    1c49        I.      ADDS     r1,r1,#1
        0x00001ec6:    4a0a        .J      LDR      r2,[pc,#40] ; [0x1ef0] = 0x2000001c
        0x00001ec8:    68d2        .h      LDR      r2,[r2,#0xc]
        0x00001eca:    6011        .`      STR      r1,[r2,#0]
        0x00001ecc:    bf00        ..      NOP      
        0x00001ece:    4908        .I      LDR      r1,[pc,#32] ; [0x1ef0] = 0x2000001c
        0x00001ed0:    68c9        .h      LDR      r1,[r1,#0xc]
        0x00001ed2:    6809        .h      LDR      r1,[r1,#0]
        0x00001ed4:    07c9        ..      LSLS     r1,r1,#31
        0x00001ed6:    0fc9        ..      LSRS     r1,r1,#31
        0x00001ed8:    2900        .)      CMP      r1,#0
        0x00001eda:    d1f8        ..      BNE      0x1ece ; WriteData + 50
        0x00001edc:    4904        .I      LDR      r1,[pc,#16] ; [0x1ef0] = 0x2000001c
        0x00001ede:    68c9        .h      LDR      r1,[r1,#0xc]
        0x00001ee0:    6889        .h      LDR      r1,[r1,#8]
        0x00001ee2:    0889        ..      LSRS     r1,r1,#2
        0x00001ee4:    0089        ..      LSLS     r1,r1,#2
        0x00001ee6:    4a02        .J      LDR      r2,[pc,#8] ; [0x1ef0] = 0x2000001c
        0x00001ee8:    68d2        .h      LDR      r2,[r2,#0xc]
        0x00001eea:    6091        .`      STR      r1,[r2,#8]
        0x00001eec:    4770        pG      BX       lr
    $d
        0x00001eee:    0000        ..      DCW    0
        0x00001ef0:    2000001c    ...     DCD    536870940
    $t
    i.__ARM_common_switch8
    __ARM_common_switch8
        0x00001ef4:    b430        0.      PUSH     {r4,r5}
        0x00001ef6:    4674        tF      MOV      r4,lr
        0x00001ef8:    1e64        d.      SUBS     r4,r4,#1
        0x00001efa:    7825        %x      LDRB     r5,[r4,#0]
        0x00001efc:    1c64        d.      ADDS     r4,r4,#1
        0x00001efe:    42ab        .B      CMP      r3,r5
        0x00001f00:    d304        ..      BCC      0x1f0c ; __ARM_common_switch8 + 24
        0x00001f02:    5d63        c]      LDRB     r3,[r4,r5]
        0x00001f04:    005b        [.      LSLS     r3,r3,#1
        0x00001f06:    18e3        ..      ADDS     r3,r4,r3
        0x00001f08:    bc30        0.      POP      {r4,r5}
        0x00001f0a:    4718        .G      BX       r3
        0x00001f0c:    461d        .F      MOV      r5,r3
        0x00001f0e:    e7f8        ..      B        0x1f02 ; __ARM_common_switch8 + 14
    i.clr_all_pannal
    clr_all_pannal
        0x00001f10:    b510        ..      PUSH     {r4,lr}
        0x00001f12:    2400        .$      MOVS     r4,#0
        0x00001f14:    2100        .!      MOVS     r1,#0
        0x00001f16:    4608        .F      MOV      r0,r1
        0x00001f18:    f7fffd24    ..$.    BL       SetPACA ; 0x1964
        0x00001f1c:    bf00        ..      NOP      
        0x00001f1e:    e003        ..      B        0x1f28 ; clr_all_pannal + 24
        0x00001f20:    2000        .       MOVS     r0,#0
        0x00001f22:    f7ffffbb    ....    BL       WriteData ; 0x1e9c
        0x00001f26:    1c64        d.      ADDS     r4,r4,#1
        0x00001f28:    2021        !       MOVS     r0,#0x21
        0x00001f2a:    0140        @.      LSLS     r0,r0,#5
        0x00001f2c:    4284        .B      CMP      r4,r0
        0x00001f2e:    dbf7        ..      BLT      0x1f20 ; clr_all_pannal + 16
        0x00001f30:    200f        .       MOVS     r0,#0xf
        0x00001f32:    f7ffffb3    ....    BL       WriteData ; 0x1e9c
        0x00001f36:    bd10        ..      POP      {r4,pc}
    i.main
    main
        0x00001f38:    b086        ..      SUB      sp,sp,#0x18
        0x00001f3a:    bf00        ..      NOP      
        0x00001f3c:    a123        #.      ADR      r1,{pc}+0x90 ; 0x1fcc
        0x00001f3e:    c903        ..      LDM      r1,{r0,r1}
        0x00001f40:    9105        ..      STR      r1,[sp,#0x14]
        0x00001f42:    9004        ..      STR      r0,[sp,#0x10]
        0x00001f44:    bf00        ..      NOP      
        0x00001f46:    2059        Y       MOVS     r0,#0x59
        0x00001f48:    4922        "I      LDR      r1,[pc,#136] ; [0x1fd4] = 0x50000100
        0x00001f4a:    6008        .`      STR      r0,[r1,#0]
        0x00001f4c:    2016        .       MOVS     r0,#0x16
        0x00001f4e:    6008        .`      STR      r0,[r1,#0]
        0x00001f50:    2088        .       MOVS     r0,#0x88
        0x00001f52:    6008        .`      STR      r0,[r1,#0]
        0x00001f54:    4820         H      LDR      r0,[pc,#128] ; [0x1fd8] = 0x2dc6c00
        0x00001f56:    f7fff8b5    ....    BL       DrvSYS_Open ; 0x10c4
        0x00001f5a:    2000        .       MOVS     r0,#0
        0x00001f5c:    491d        .I      LDR      r1,[pc,#116] ; [0x1fd4] = 0x50000100
        0x00001f5e:    6008        .`      STR      r0,[r1,#0]
        0x00001f60:    f7fffbd6    ....    BL       Initial_pannel ; 0x1710
        0x00001f64:    f7ffffd4    ....    BL       clr_all_pannal ; 0x1f10
        0x00001f68:    2029        )       MOVS     r0,#0x29
        0x00001f6a:    f7fefbe5    ....    BL       DrvGPIO_InitFunction ; 0x738
        0x00001f6e:    204b        K       MOVS     r0,#0x4b
        0x00001f70:    01c0        ..      LSLS     r0,r0,#7
        0x00001f72:    9001        ..      STR      r0,[sp,#4]
        0x00001f74:    2103        .!      MOVS     r1,#3
        0x00001f76:    4668        hF      MOV      r0,sp
        0x00001f78:    7201        .r      STRB     r1,[r0,#8]
        0x00001f7a:    2100        .!      MOVS     r1,#0
        0x00001f7c:    7241        Ar      STRB     r1,[r0,#9]
        0x00001f7e:    7281        .r      STRB     r1,[r0,#0xa]
        0x00001f80:    72c1        .r      STRB     r1,[r0,#0xb]
        0x00001f82:    a901        ..      ADD      r1,sp,#4
        0x00001f84:    2000        .       MOVS     r0,#0
        0x00001f86:    f7fff9bd    ....    BL       DrvUART_Open ; 0x1304
        0x00001f8a:    4a14        .J      LDR      r2,[pc,#80] ; [0x1fdc] = 0x1bd1
        0x00001f8c:    2101        .!      MOVS     r1,#1
        0x00001f8e:    2000        .       MOVS     r0,#0
        0x00001f90:    f7fff93a    ..:.    BL       DrvUART_EnableInt ; 0x1208
        0x00001f94:    2201        ."      MOVS     r2,#1
        0x00001f96:    210c        .!      MOVS     r1,#0xc
        0x00001f98:    2002        .       MOVS     r0,#2
        0x00001f9a:    f7feff79    ..y.    BL       DrvGPIO_Open ; 0xe90
        0x00001f9e:    210c        .!      MOVS     r1,#0xc
        0x00001fa0:    2002        .       MOVS     r0,#2
        0x00001fa2:    f7feffb9    ....    BL       DrvGPIO_SetBit ; 0xf18
        0x00001fa6:    2201        ."      MOVS     r2,#1
        0x00001fa8:    210d        .!      MOVS     r1,#0xd
        0x00001faa:    2002        .       MOVS     r0,#2
        0x00001fac:    f7feff70    ..p.    BL       DrvGPIO_Open ; 0xe90
        0x00001fb0:    210d        .!      MOVS     r1,#0xd
        0x00001fb2:    2002        .       MOVS     r0,#2
        0x00001fb4:    f7feffb0    ....    BL       DrvGPIO_SetBit ; 0xf18
        0x00001fb8:    e007        ..      B        0x1fca ; main + 146
        0x00001fba:    2203        ."      MOVS     r2,#3
        0x00001fbc:    a108        ..      ADR      r1,{pc}+0x24 ; 0x1fe0
        0x00001fbe:    2000        .       MOVS     r0,#0
        0x00001fc0:    f7fffaf4    ....    BL       DrvUART_Write ; 0x15ac
        0x00001fc4:    4807        .H      LDR      r0,[pc,#28] ; [0x1fe4] = 0xc350
        0x00001fc6:    f7feffbd    ....    BL       DrvSYS_Delay ; 0xf44
        0x00001fca:    e7f6        ..      B        0x1fba ; main + 130
    $d
        0x00001fcc:    54524155    UART    DCD    1414676821
        0x00001fd0:    74736554    Test    DCD    1953719636
        0x00001fd4:    50000100    ...P    DCD    1342177536
        0x00001fd8:    02dc6c00    .l..    DCD    48000000
        0x00001fdc:    00001bd1    ....    DCD    7121
        0x00001fe0:    00686667    gfh.    DCD    6841959
        0x00001fe4:    0000c350    P...    DCD    50000
    $t
    i.print_lcd
    print_lcd
        0x00001fe8:    b570        p.      PUSH     {r4-r6,lr}
        0x00001fea:    4606        .F      MOV      r6,r0
        0x00001fec:    460c        .F      MOV      r4,r1
        0x00001fee:    2500        .%      MOVS     r5,#0
        0x00001ff0:    bf00        ..      NOP      
        0x00001ff2:    7822        "x      LDRB     r2,[r4,#0]
        0x00001ff4:    1c64        d.      ADDS     r4,r4,#1
        0x00001ff6:    b2e9        ..      UXTB     r1,r5
        0x00001ff8:    4630        0F      MOV      r0,r6
        0x00001ffa:    f7fffd2d    ..-.    BL       Show_Word ; 0x1a58
        0x00001ffe:    1c6d        m.      ADDS     r5,r5,#1
        0x00002000:    2d0f        .-      CMP      r5,#0xf
        0x00002002:    dd00        ..      BLE      0x2006 ; print_lcd + 30
        0x00002004:    e002        ..      B        0x200c ; print_lcd + 36
        0x00002006:    7820         x      LDRB     r0,[r4,#0]
        0x00002008:    2800        .(      CMP      r0,#0
        0x0000200a:    d1f2        ..      BNE      0x1ff2 ; print_lcd + 10
        0x0000200c:    bf00        ..      NOP      
        0x0000200e:    bd70        p.      POP      {r4-r6,pc}
    $d.realdata
    .constdata
        0x00002010:    00000001    ....    DCD    1
        0x00002014:    00000002    ....    DCD    2
        0x00002018:    00000002    ....    DCD    2
        0x0000201c:    00000004    ....    DCD    4
    Region$$Table$$Base
        0x00002020:    00002040    @ ..    DCD    8256
        0x00002024:    20000000    ...     DCD    536870912
        0x00002028:    000006b8    ....    DCD    1720
        0x0000202c:    00000104    ....    DCD    260
        0x00002030:    000026f8    .&..    DCD    9976
        0x00002034:    200006b8    ...     DCD    536872632
        0x00002038:    00000460    `...    DCD    1120
        0x0000203c:    00000120     ...    DCD    288
    Region$$Table$$Limit

** Section #2 'ER_RW' (SHT_PROGBITS) [SHF_ALLOC + SHF_WRITE]
    Size   : 1720 bytes (alignment 4)
    Address: 0x20000000


** Section #3 'ER_ZI' (SHT_NOBITS) [SHF_ALLOC + SHF_WRITE]
    Size   : 1120 bytes (alignment 8)
    Address: 0x200006b8


** Section #4 '.debug_abbrev' (SHT_PROGBITS)
    Size   : 1476 bytes


** Section #5 '.debug_frame' (SHT_PROGBITS)
    Size   : 2068 bytes


** Section #6 '.debug_info' (SHT_PROGBITS)
    Size   : 122148 bytes


** Section #7 '.debug_line' (SHT_PROGBITS)
    Size   : 9060 bytes


** Section #8 '.debug_loc' (SHT_PROGBITS)
    Size   : 2728 bytes


** Section #9 '.debug_macinfo' (SHT_PROGBITS)
    Size   : 152004 bytes


** Section #10 '.debug_pubnames' (SHT_PROGBITS)
    Size   : 1548 bytes


** Section #11 '.symtab' (SHT_SYMTAB)
    Size   : 7568 bytes (alignment 4)
    String table #12 '.strtab'
    Last local symbol no. 309


** Section #12 '.strtab' (SHT_STRTAB)
    Size   : 6296 bytes


** Section #13 '.note' (SHT_NOTE)
    Size   : 28 bytes (alignment 4)


** Section #14 '.comment' (SHT_PROGBITS)
    Size   : 5896 bytes


** Section #15 '.shstrtab' (SHT_STRTAB)
    Size   : 156 bytes


